	.arch armv7-a
	.fpu softvfp
	.eabi_attribute 20, 1
	.eabi_attribute 21, 1
	.eabi_attribute 23, 3
	.eabi_attribute 24, 1
	.eabi_attribute 25, 1
	.eabi_attribute 26, 2
	.eabi_attribute 30, 2
	.eabi_attribute 18, 4
	.file	"dnr_patch.c"
@ GNU C (Hisilicon_v200(gcc4.4-290+glibc-2.11+eabi+nptl)) version 4.4.1 (arm-hisiv200-linux-gnueabi)
@	compiled by GNU C version 4.1.1 20061011 (Red Hat 4.1.1-30), GMP version 4.3.1, MPFR version 2.4.2.
@ GGC heuristics: --param ggc-min-expand=100 --param ggc-min-heapsize=131072
@ options passed:  -nostdinc -I./arch/arm/include
@ -Iarch/arm/include/generated -Iinclude -I./arch/arm/include/uapi
@ -Iarch/arm/include/generated/uapi -I./include/uapi
@ -Iinclude/generated/uapi -Iarch/arm/mach-hi3716mv310/include
@ -I/home/f00136911/v1r4/615/work/source/kernel/linux-3.18.y/../../../source/common/include
@ -I/home/f00136911/v1r4/615/work/source/kernel/linux-3.18.y/../../../source/common/drv/include
@ -I/home/f00136911/v1r4/615/work/source/kernel/linux-3.18.y/../../../source/msp/drv/vfmw/vfmw_v4.0/drv/memmap
@ -I/home/f00136911/v1r4/615/work/source/kernel/linux-3.18.y/../../../source/msp/drv/vfmw/vfmw_v4.0/model/scd
@ -I/home/f00136911/v1r4/615/work/source/kernel/linux-3.18.y/../../../source/msp/drv/vfmw/vfmw_v4.0/firmware/common/softlib
@ -I/home/f00136911/v1r4/615/work/source/kernel/linux-3.18.y/../../../source/msp/drv/vfmw/vfmw_v4.0/firmware/common
@ -I/home/f00136911/v1r4/615/work/source/kernel/linux-3.18.y/../../../source/msp/drv/vfmw/vfmw_v4.0/firmware/common/syntax
@ -I/home/f00136911/v1r4/615/work/source/kernel/linux-3.18.y/../../../source/msp/drv/vfmw/vfmw_v4.0/firmware/driver/HiSCDV200
@ -I/home/f00136911/v1r4/615/work/source/kernel/linux-3.18.y/../../../source/msp/drv/vfmw/vfmw_v4.0/firmware/driver/HiVDHV100
@ -I/home/f00136911/v1r4/615/work/source/kernel/linux-3.18.y/../../../source/msp/drv/vfmw/vfmw_v4.0/firmware/driver/HiVDHV200R001
@ -I/home/f00136911/v1r4/615/work/source/kernel/linux-3.18.y/../../../source/msp/drv/vfmw/vfmw_v4.0/firmware/driver/HiVDHV200R002
@ -I/home/f00136911/v1r4/615/work/source/kernel/linux-3.18.y/../../../source/msp/drv/vfmw/vfmw_v4.0/firmware/driver/HiVDHV200R003
@ -I/home/f00136911/v1r4/615/work/source/kernel/linux-3.18.y/../../../source/msp/drv/vfmw/vfmw_v4.0/firmware/driver/HiVDHV200R004
@ -I/home/f00136911/v1r4/615/work/source/kernel/linux-3.18.y/../../../source/msp/drv/vfmw/vfmw_v4.0/model/rawpacket
@ -I/home/f00136911/v1r4/615/work/source/kernel/linux-3.18.y/../../../source/msp/drv/vfmw/vfmw_v4.0/firmware/product/Hi3716MV310_advca/osal/linux_kernel
@ -I/home/f00136911/v1r4/615/work/source/kernel/linux-3.18.y/../../../source/msp/drv/vfmw/vfmw_v4.0/firmware/product/Hi3716MV310_advca
@ -I/home/f00136911/v1r4/615/work/source/kernel/linux-3.18.y/../../../source/msp/drv/vfmw/vfmw_v4.0/firmware/driver/HiDNR
@ -I/home/f00136911/v1r4/615/work/source/kernel/linux-3.18.y/../../../source/msp/drv/vfmw/vfmw_v4.0/firmware/driver/HiBTLV100
@ -I/home/f00136911/v1r4/615/work/source/kernel/linux-3.18.y/../../../source/msp/drv/vfmw/vfmw_v4.0/firmware/common_test/vdecko
@ -iprefix
@ /opt/hisi-linux/x86-arm/arm-hisiv200-linux/bin/../lib/gcc/arm-hisiv200-linux-gnueabi/4.4.1/
@ -isysroot /opt/hisi-linux/x86-arm/arm-hisiv200-linux/bin/../target
@ -D__KERNEL__ -D__LINUX_ARM_ARCH__=7 -Uarm -DHi3716MV310
@ -DENV_ARMLINUX_KERNEL -DOFF_LINE_DNR_ENABLE -DSCD_MP4_SLICE_ENABLE
@ -DSUPPORT_JPEG_444 -DVFMW_EXTRA_TYPE_DEFINE -DPRODUCT_STB
@ -D__VFMW_REGISTER_ISR__ -DVFMW_VDH_V200R004_SUPPORT -DVFMW_H264_SUPPORT
@ -DVFMW_MPEG2_SUPPORT -DVFMW_BPD_H_SUPPORT -DVFMW_DNR_SUPPORT
@ -DVFMW_RAW_SUPPORT -DVFMW_USER_SUPPORT -DCFG_MAX_CHAN_NUM=1
@ -DCFG_MAX_CHAN_NUM=1 -DVFMW_AVSPLUS_SUPPORT -DVFMW_SYSTEM_REG_DISABLE
@ -DREPAIR_ENABLE -DCHIP_TYPE_hi3716mv310
@ -DSDK_VERSION=HiSTBLinuxV100R006C00SPC050 -DHI_LOG_SUPPORT=0
@ -DHI_PROC_SUPPORT=0 -DHI_PNG_DECODER_SUPPORT -DHI_KEYLED_SUPPORT
@ -DHI_HDCP_SUPPORT -DHI_SCI_SUPPORT -DHI_GPIOI2C_SUPPORT
@ -DHI_IR_S2_SUPPORT -DHI_DSC_SUPPORT -DHI_ADVCA_SUPPORT
@ -DHI_ADVCA_TYPE_CONAX -DHI_ADVCA_FUNCTION_RELEASE -DMODULE
@ -DKBUILD_STR(s)=#s -DKBUILD_BASENAME=KBUILD_STR(dnr_patch)
@ -DKBUILD_MODNAME=KBUILD_STR(hi_vfmw) -isystem
@ /opt/hisi-linux/x86-arm/arm-hisiv200-linux/bin/../lib/gcc/arm-hisiv200-linux-gnueabi/4.4.1/include
@ -include ./include/linux/kconfig.h -MD
@ /home/f00136911/v1r4/615/work/source/msp/drv/vfmw/vfmw_v4.0/firmware/driver/HiDNR/.dnr_patch.o.d
@ /home/f00136911/v1r4/615/work/source/msp/drv/vfmw/vfmw_v4.0/firmware/driver/HiDNR/dnr_patch.c
@ -mlittle-endian -mabi=aapcs-linux -mno-thumb-interwork -mfpu=vfp -marm
@ -march=armv7-a -msoft-float -auxbase-strip
@ /home/f00136911/v1r4/615/work/source/msp/drv/vfmw/vfmw_v4.0/firmware/driver/HiDNR/dnr_patch.o
@ -O2 -Wall -Wundef -Wstrict-prototypes -Wno-trigraphs
@ -Werror-implicit-function-declaration -Wno-format-security
@ -Wframe-larger-than=1024 -Wdeclaration-after-statement -Wno-pointer-sign
@ -Werror=implicit-int -Werror=strict-prototypes -std=gnu89
@ -fno-strict-aliasing -fno-common -fno-dwarf2-cfi-asm -funwind-tables
@ -fno-delete-null-pointer-checks -fstack-protector -fomit-frame-pointer
@ -fno-strict-overflow -fconserve-stack -fno-pic -fverbose-asm
@ options enabled:  -falign-loops -fargument-alias -fauto-inc-dec
@ -fbranch-count-reg -fcaller-saves -fcprop-registers -fcrossjumping
@ -fcse-follow-jumps -fdefer-pop -fearly-inlining
@ -feliminate-unused-debug-types -fexpensive-optimizations
@ -fforward-propagate -ffunction-cse -fgcse -fgcse-lm
@ -fguess-branch-probability -fident -fif-conversion -fif-conversion2
@ -findirect-inlining -finline -finline-functions-called-once
@ -finline-small-functions -fipa-cp -fipa-pure-const -fipa-reference
@ -fira-share-save-slots -fira-share-spill-slots -fivopts
@ -fkeep-static-consts -fleading-underscore -fmath-errno -fmerge-constants
@ -fmerge-debug-strings -fmove-loop-invariants -fomit-frame-pointer
@ -foptimize-register-move -foptimize-sibling-calls -fpeephole -fpeephole2
@ -fpromote-loop-indices -freg-struct-return -fregmove -frename-registers
@ -freorder-blocks -freorder-functions -frerun-cse-after-loop
@ -fsched-interblock -fsched-spec -fsched-stalled-insns-dep
@ -fschedule-insns -fschedule-insns2 -fsection-anchors -fsigned-zeros
@ -fsplit-ivs-in-unroller -fsplit-wide-types -fstack-protector
@ -fthread-jumps -ftoplevel-reorder -ftrapping-math -ftree-builtin-call-dce
@ -ftree-ccp -ftree-ch -ftree-copy-prop -ftree-copyrename -ftree-cselim
@ -ftree-dce -ftree-dominator-opts -ftree-dse -ftree-fre -ftree-loop-im
@ -ftree-loop-ivcanon -ftree-loop-optimize -ftree-parallelize-loops=
@ -ftree-pre -ftree-reassoc -ftree-scev-cprop -ftree-sink -ftree-sra
@ -ftree-switch-conversion -ftree-ter -ftree-vect-loop-version -ftree-vrp
@ -funit-at-a-time -funroll-loops -funwind-tables -fverbose-asm -fweb
@ -fzero-initialized-in-bss -mglibc -mlittle-endian -msched-prolog

@ Compiler executable checksum: fa59e0bd179ef45b3a3c3e6f3383fdac

	.text
	.align	2
	.global	ComparePattern
	.type	ComparePattern, %function
ComparePattern:
	.fnstart
.LFB1919:
	@ args = 0, pretend = 0, frame = 0
	@ frame_needed = 0, uses_anonymous_args = 0
	@ link register save eliminated.
	stmfd	sp!, {r4, r5, r6, r7}	@,
	.save {r4, r5, r6, r7}
	ldrb	r2, [r0, #13]	@ zero_extendqisi2	@ <variable>.Pix, <variable>.Pix
	ldrb	r6, [r1, #13]	@ zero_extendqisi2	@ <variable>.Pix, <variable>.Pix
	ldrb	r7, [r0, #12]	@ zero_extendqisi2	@ <variable>.Pix, <variable>.Pix
	ldrb	r4, [r1, #12]	@ zero_extendqisi2	@ <variable>.Pix, <variable>.Pix
	rsb	ip, r6, r2	@ tmp150, <variable>.Pix, <variable>.Pix
	ldrb	r5, [r0, #14]	@ zero_extendqisi2	@ <variable>.Pix, <variable>.Pix
	cmp	ip, #0	@ tmp150,
	rsb	r6, r4, r7	@ tmp144, <variable>.Pix, <variable>.Pix
	ldrb	r3, [r1, #14]	@ zero_extendqisi2	@ <variable>.Pix, <variable>.Pix
	rsblt	ip, ip, #0	@ tmp151, tmp150
	cmp	r6, #0	@ tmp144,
	rsblt	r6, r6, #0	@ tmp145, tmp144
	ldrb	r4, [r1, #15]	@ zero_extendqisi2	@ <variable>.Pix, <variable>.Pix
	ldrb	r7, [r0, #15]	@ zero_extendqisi2	@ <variable>.Pix, <variable>.Pix
	cmp	ip, #2	@ tmp151,
	movle	r2, #0	@, tmp153
	movgt	r2, #1	@, tmp153
	rsb	ip, r3, r5	@ tmp156, <variable>.Pix, <variable>.Pix
	cmp	r6, #2	@ tmp145,
	addgt	r2, r2, #1	@,, MisCnt.579, tmp153
	cmp	ip, #0	@ tmp156,
	rsb	r7, r4, r7	@ tmp162, <variable>.Pix, <variable>.Pix
	ldrb	r3, [r1, #16]	@ zero_extendqisi2	@ <variable>.Pix, <variable>.Pix
	rsblt	ip, ip, #0	@ tmp157, tmp156
	ldrb	r5, [r0, #16]	@ zero_extendqisi2	@ <variable>.Pix, <variable>.Pix
	cmp	ip, #2	@ tmp157,
	movle	ip, r2	@, MisCnt.587, MisCnt.579
	addgt	ip, r2, #1	@,, MisCnt.587, MisCnt.579
	cmp	r7, #0	@ tmp162,
	ldrb	r6, [r0, #17]	@ zero_extendqisi2	@ <variable>.Pix, <variable>.Pix
	rsb	r5, r3, r5	@ tmp168, <variable>.Pix, <variable>.Pix
	ldrb	r2, [r1, #17]	@ zero_extendqisi2	@ <variable>.Pix, <variable>.Pix
	rsblt	r7, r7, #0	@ tmp163, tmp162
	ldrb	r4, [r0, #18]	@ zero_extendqisi2	@ <variable>.Pix, <variable>.Pix
	cmp	r7, #2	@ tmp163,
	addgt	ip, ip, #1	@,, MisCnt.595, MisCnt.587
	cmp	r5, #0	@ tmp168,
	rsb	r2, r2, r6	@ tmp174, <variable>.Pix, <variable>.Pix
	ldrb	r3, [r1, #18]	@ zero_extendqisi2	@ <variable>.Pix, <variable>.Pix
	rsblt	r5, r5, #0	@ tmp169, tmp168
	ldrb	r0, [r0, #19]	@ zero_extendqisi2	@ <variable>.Pix, <variable>.Pix
	cmp	r5, #2	@ tmp169,
	addgt	ip, ip, #1	@,, MisCnt.603, MisCnt.595
	cmp	r2, #0	@ tmp174,
	rsb	r3, r3, r4	@ tmp180, <variable>.Pix, <variable>.Pix
	rsblt	r2, r2, #0	@ tmp175, tmp174
	ldrb	r1, [r1, #19]	@ zero_extendqisi2	@ <variable>.Pix, <variable>.Pix
	cmp	r2, #2	@ tmp175,
	movle	r2, ip	@, MisCnt.611, MisCnt.603
	addgt	r2, ip, #1	@,, MisCnt.611, MisCnt.603
	cmp	r3, #0	@ tmp180,
	rsb	ip, r1, r0	@ tmp187, <variable>.Pix, <variable>.Pix
	rsblt	r3, r3, #0	@ tmp181, tmp180
	cmp	r3, #2	@ tmp181,
	movle	r3, r2	@, MisCnt.619, MisCnt.611
	addgt	r3, r2, #1	@,, MisCnt.619, MisCnt.611
	cmp	ip, #0	@ tmp187,
	rsblt	ip, ip, #0	@ tmp188, tmp187
	cmp	ip, #2	@ tmp188,
	movle	r0, r3	@, tmp191, MisCnt.619
	addgt	r0, r3, #1	@,, tmp191, MisCnt.619
	cmp	r0, #2	@ tmp191,
	movgt	r0, #0	@,
	movle	r0, #1	@,
	ldmfd	sp!, {r4, r5, r6, r7}
	bx	lr
	.fnend
	.size	ComparePattern, .-ComparePattern
	.align	2
	.global	GetSample
	.type	GetSample, %function
GetSample:
	.fnstart
.LFB1918:
	@ args = 0, pretend = 0, frame = 0
	@ frame_needed = 0, uses_anonymous_args = 0
	@ link register save eliminated.
	stmfd	sp!, {r4, r5, r6, r7}	@,
	.save {r4, r5, r6, r7}
	ldmia	r0, {r3, r4}	@ phole ldm
	cmp	r3, #1	@ <variable>.Comp,
	ldr	ip, [r0, #8]	@ D.35793, <variable>.Py
	ldreq	r3, [r1, #12]	@ pRd, <variable>.pPicBufU
	beq	.L7	@,
	cmp	r3, #2	@ <variable>.Comp,
	ldrne	r3, [r1, #8]	@ pRd, <variable>.pPicBufY
	ldreq	r3, [r1, #16]	@ pRd, <variable>.pPicBufV
.L7:
	movw	r2, #:lower16:g_eVdmVersion	@ tmp144,
	movt	r2, #:upper16:g_eVdmVersion	@ tmp144,
	ldr	r2, [r2, #0]	@ g_eVdmVersion.533, g_eVdmVersion
	cmp	r2, #1	@ g_eVdmVersion.533,
	beq	.L14	@,
	sub	r2, r2, #3	@ tmp170, g_eVdmVersion.533,
	cmp	r2, #1	@ tmp170,
	bls	.L15	@,
.L10:
	add	r0, r0, #12	@, pSmp,
	mov	r1, r3	@, pRd
	mov	r2, #8	@,
	ldmfd	sp!, {r4, r5, r6, r7}
	b	memcpy	@
.L15:
	mov	r7, ip, asr #31	@ tmp178, D.35793,
	bic	r2, r4, #255	@ tmp171, D.35792,
	ldr	r6, [r1, #32]	@ <variable>.MbWidth, <variable>.MbWidth
	add	r5, r2, #255	@ tmp174, tmp171,
	mov	r1, r7, lsr #28	@ tmp179, tmp178,
	cmp	r2, #0	@ tmp171,
	add	r7, ip, r1	@ tmp180, D.35793, tmp179
	and	r7, r7, #15	@ tmp181, tmp180,
	movlt	r2, r5	@ tmp173, tmp174
	rsb	r1, r1, r7	@ tmp182, tmp179, tmp181
	add	r5, ip, #15	@ tmp187, D.35793,
	cmp	ip, #0	@ D.35793,
	mov	r2, r2, asr #8	@ tmp175, tmp173,
	mov	r6, r6, asl #4	@ tmp190, <variable>.MbWidth,
	mov	r1, r1, asl #8	@ tmp183, tmp182,
	add	r6, r6, #255	@ tmp192, tmp190,
	movlt	ip, r5	@ D.35793, tmp187
	add	r2, r1, r2, asl #12	@, tmp184, tmp183, tmp175,
	bic	r5, ip, #15	@ tmp189, D.35793,
	bic	r1, r6, #255	@ tmp193, tmp192,
	mla	ip, r1, r5, r2	@ tmp195, tmp193, tmp189, tmp184
	add	r3, r3, ip	@ pRd.647, pRd, tmp195
	uxtab	r3, r3, r4	@ pRd, pRd.647, D.35792
	b	.L10	@
.L14:
	ldr	r6, [r1, #40]	@ <variable>.IsFrameStored, <variable>.IsFrameStored
	and	r2, r4, #15	@ PixX, D.35792,
	and	r5, ip, #15	@ PixY, D.35793,
	mov	r4, r4, asr #4	@ Mbx, D.35792,
	cmp	r6, #0	@ <variable>.IsFrameStored,
	beq	.L9	@,
	ldr	r1, [r1, #36]	@ <variable>.MbHeight, <variable>.MbHeight
	mov	ip, ip, asr #4	@ tmp150, D.35793,
	add	r2, r2, r5, asl #4	@, tmp147, PixX, PixY,
	mla	r4, r1, r4, ip	@ tmp151, <variable>.MbHeight, Mbx, tmp150
	add	r4, r2, r4, asl #8	@, tmp153, tmp147, tmp151,
	add	r3, r3, r4	@ pRd, pRd, tmp153
	b	.L10	@
.L9:
	ldr	r1, [r1, #36]	@ <variable>.MbHeight, <variable>.MbHeight
	add	r5, r2, r5, asl #4	@, tmp155, PixX, PixY,
	add	r6, ip, #31	@ tmp165, D.35793,
	cmp	ip, #0	@ D.35793,
	mul	r2, r1, r4	@ tmp156, <variable>.MbHeight, Mbx
	movlt	ip, r6	@ D.35793, tmp165
	mov	ip, ip, asr #5	@ tmp166, D.35793,
	add	r4, r2, #1	@ tmp158, tmp156,
	add	r4, r4, r4, lsr #31	@, tmp161, tmp158, tmp158,
	add	r1, ip, r4, asr #1	@, tmp167, tmp166, tmp161,
	add	r2, r5, r1, asl #8	@, tmp169, tmp155, tmp167,
	add	r3, r3, r2	@ pRd, pRd, tmp169
	b	.L10	@
	.fnend
	.size	GetSample, .-GetSample
	.align	2
	.global	DetPic
	.type	DetPic, %function
DetPic:
	.fnstart
.LFB1917:
	@ args = 0, pretend = 0, frame = 24
	@ frame_needed = 0, uses_anonymous_args = 0
	stmfd	sp!, {r4, r5, r6, r7, r8, r9, sl, lr}	@,
	.save {r4, r5, r6, r7, r8, r9, sl, lr}
	movw	r4, #:lower16:__stack_chk_guard	@ tmp12186,
	movt	r4, #:upper16:__stack_chk_guard	@ tmp12186,
	.pad #24
	sub	sp, sp, #24	@,,
	subs	r5, r0, #0	@ pDetPara, pDetPara
	ldr	r3, [r4, #0]	@ __stack_chk_guard, __stack_chk_guard
	str	r3, [sp, #20]	@ __stack_chk_guard, D.47913
	beq	.L72	@,
	ldr	r6, [r5, #8]	@ <variable>.pPicBufY, <variable>.pPicBufY
	cmp	r6, #0	@ <variable>.pPicBufY,
	beq	.L73	@,
	ldr	r3, [r5, #24]	@ D.35600, <variable>.PicHeight
	cmp	r3, #1088	@ D.35600,
	bgt	.L20	@,
	ldr	r2, [r5, #20]	@ D.35602, <variable>.PicWidth
	cmp	r2, #1920	@ D.35602,
	bgt	.L20	@,
	cmp	r3, #0	@ D.35600,
	beq	.L20	@,
	cmp	r2, #0	@ D.35602,
	beq	.L20	@,
	cmp	r3, #576	@ D.35600,
	beq	.L74	@,
	cmp	r3, #480	@ D.35600,
	beq	.L75	@,
	cmp	r3, #720	@ D.35600,
	beq	.L76	@,
.L53:
	movw	r0, #1079	@ tmp11861,
	cmp	r3, r0	@ D.35600, tmp11861
	ble	.L50	@,
	cmp	r2, #1920	@ D.35602,
	bne	.L50	@,
	movw	r6, #:lower16:.LANCHOR0	@ tmp11862,
	movt	r6, #:upper16:.LANCHOR0	@ tmp11862,
	mov	r1, r5	@, pDetPara
	mov	r0, sp	@,
	ldr	ip, [r6, #3380]	@ <variable>.Comp, <variable>.Comp
	mov	r7, sp	@ tmp11868,
	ldr	r2, [r6, #3384]	@ <variable>.Px, <variable>.Px
	ldr	lr, [r6, #3388]	@ <variable>.Py, <variable>.Py
	str	ip, [sp, #0]	@ <variable>.Comp, SmpPat.Comp
	stmib	sp, {r2, lr}	@ phole stm
	bl	GetSample	@
	ldrb	r1, [r6, #3393]	@ zero_extendqisi2	@ <variable>.Pix, <variable>.Pix
	ldrb	r8, [sp, #13]	@ zero_extendqisi2	@ SmpPat.Pix, SmpPat.Pix
	ldrb	r0, [r6, #3392]	@ zero_extendqisi2	@ <variable>.Pix, <variable>.Pix
	ldrb	r3, [sp, #12]	@ zero_extendqisi2	@ SmpPat.Pix, SmpPat.Pix
	rsb	sl, r8, r1	@ tmp11879, SmpPat.Pix, <variable>.Pix
	cmp	sl, #0	@ tmp11879,
	ldrb	ip, [r6, #3394]	@ zero_extendqisi2	@ <variable>.Pix, <variable>.Pix
	rsb	r8, r3, r0	@ tmp11872, SmpPat.Pix, <variable>.Pix
	ldrb	r2, [sp, #14]	@ zero_extendqisi2	@ SmpPat.Pix, SmpPat.Pix
	rsblt	sl, sl, #0	@ tmp11880, tmp11879
	cmp	r8, #0	@ tmp11872,
	rsblt	r8, r8, #0	@ tmp11873, tmp11872
	ldrb	r0, [r6, #3395]	@ zero_extendqisi2	@ <variable>.Pix, <variable>.Pix
	cmp	sl, #2	@ tmp11880,
	movle	r1, #0	@, tmp11882
	movgt	r1, #1	@, tmp11882
	ldrb	r3, [sp, #15]	@ zero_extendqisi2	@ SmpPat.Pix, SmpPat.Pix
	rsb	sl, r2, ip	@ tmp11886, SmpPat.Pix, <variable>.Pix
	cmp	r8, #2	@ tmp11873,
	addgt	r1, r1, #1	@,, MisCnt.6533, tmp11882
	cmp	sl, #0	@ tmp11886,
	rsb	r3, r3, r0	@ tmp11893, SmpPat.Pix, <variable>.Pix
	ldrb	r2, [sp, #16]	@ zero_extendqisi2	@ SmpPat.Pix, SmpPat.Pix
	rsblt	sl, sl, #0	@ tmp11887, tmp11886
	ldrb	ip, [r6, #3396]	@ zero_extendqisi2	@ <variable>.Pix, <variable>.Pix
	cmp	sl, #2	@ tmp11887,
	movle	sl, r1	@, MisCnt.6541, MisCnt.6533
	addgt	sl, r1, #1	@,, MisCnt.6541, MisCnt.6533
	cmp	r3, #0	@ tmp11893,
	ldrb	r0, [r6, #3397]	@ zero_extendqisi2	@ <variable>.Pix, <variable>.Pix
	rsb	ip, r2, ip	@ tmp11900, SmpPat.Pix, <variable>.Pix
	rsblt	r3, r3, #0	@ tmp11894, tmp11893
	ldrb	r1, [sp, #17]	@ zero_extendqisi2	@ SmpPat.Pix, SmpPat.Pix
	cmp	r3, #2	@ tmp11894,
	movle	r3, sl	@, MisCnt.6549, MisCnt.6541
	addgt	r3, sl, #1	@,, MisCnt.6549, MisCnt.6541
	cmp	ip, #0	@ tmp11900,
	ldrb	r8, [r6, #3398]	@ zero_extendqisi2	@ <variable>.Pix, <variable>.Pix
	rsb	r1, r1, r0	@ tmp11907, SmpPat.Pix, <variable>.Pix
	rsblt	ip, ip, #0	@ tmp11901, tmp11900
	ldrb	r2, [sp, #18]	@ zero_extendqisi2	@ SmpPat.Pix, SmpPat.Pix
	cmp	ip, #2	@ tmp11901,
	movle	ip, r3	@, MisCnt.6557, MisCnt.6549
	addgt	ip, r3, #1	@,, MisCnt.6557, MisCnt.6549
	cmp	r1, #0	@ tmp11907,
	ldrb	r0, [r6, #3399]	@ zero_extendqisi2	@ <variable>.Pix, <variable>.Pix
	rsb	r2, r2, r8	@ tmp11914, SmpPat.Pix, <variable>.Pix
	rsblt	r1, r1, #0	@ tmp11908, tmp11907
	ldrb	r3, [sp, #19]	@ zero_extendqisi2	@ SmpPat.Pix, SmpPat.Pix
	cmp	r1, #2	@ tmp11908,
	movle	r1, ip	@, MisCnt.6565, MisCnt.6557
	addgt	r1, ip, #1	@,, MisCnt.6565, MisCnt.6557
	cmp	r2, #0	@ tmp11914,
	rsb	ip, r3, r0	@ tmp11921, SmpPat.Pix, <variable>.Pix
	rsblt	r2, r2, #0	@ tmp11915, tmp11914
	cmp	r2, #2	@ tmp11915,
	movle	r2, r1	@, MisCnt.6573, MisCnt.6565
	addgt	r2, r1, #1	@,, MisCnt.6573, MisCnt.6565
	cmp	ip, #0	@ tmp11921,
	rsblt	ip, ip, #0	@ tmp11922, tmp11921
	cmp	ip, #2	@ tmp11922,
	movle	r1, r2	@, tmp11925, MisCnt.6573
	addgt	r1, r2, #1	@,, tmp11925, MisCnt.6573
	cmp	r1, #2	@ tmp11925,
	bgt	.L50	@,
	ldr	r3, [r6, #3400]	@ <variable>.Comp, <variable>.Comp
	mov	r0, sp	@,
	ldr	r2, [r6, #3404]	@ <variable>.Px, <variable>.Px
	mov	r1, r5	@, pDetPara
	ldr	lr, [r6, #3408]	@ <variable>.Py, <variable>.Py
	str	r3, [sp, #0]	@ <variable>.Comp, SmpPat.Comp
	stmib	sp, {r2, lr}	@ phole stm
	bl	GetSample	@
	ldrb	r8, [r6, #3413]	@ zero_extendqisi2	@ <variable>.Pix, <variable>.Pix
	ldrb	ip, [sp, #13]	@ zero_extendqisi2	@ SmpPat.Pix, SmpPat.Pix
	ldrb	sl, [r6, #3412]	@ zero_extendqisi2	@ <variable>.Pix, <variable>.Pix
	ldrb	r1, [sp, #12]	@ zero_extendqisi2	@ SmpPat.Pix, SmpPat.Pix
	rsb	r3, ip, r8	@ tmp11943, SmpPat.Pix, <variable>.Pix
	cmp	r3, #0	@ tmp11943,
	ldrb	r2, [sp, #14]	@ zero_extendqisi2	@ SmpPat.Pix, SmpPat.Pix
	rsb	r8, r1, sl	@ tmp11936, SmpPat.Pix, <variable>.Pix
	ldrb	r0, [r6, #3414]	@ zero_extendqisi2	@ <variable>.Pix, <variable>.Pix
	rsblt	r3, r3, #0	@ tmp11944, tmp11943
	cmp	r8, #0	@ tmp11936,
	rsb	r0, r2, r0	@ tmp11950, SmpPat.Pix, <variable>.Pix
	rsblt	r8, r8, #0	@ tmp11937, tmp11936
	ldrb	ip, [sp, #15]	@ zero_extendqisi2	@ SmpPat.Pix, SmpPat.Pix
	cmp	r3, #2	@ tmp11944,
	movle	r3, #0	@, tmp11946
	movgt	r3, #1	@, tmp11946
	ldrb	sl, [r6, #3415]	@ zero_extendqisi2	@ <variable>.Pix, <variable>.Pix
	cmp	r8, #2	@ tmp11937,
	addgt	r3, r3, #1	@,, MisCnt.6599, tmp11946
	cmp	r0, #0	@ tmp11950,
	ldrb	r1, [r6, #3416]	@ zero_extendqisi2	@ <variable>.Pix, <variable>.Pix
	rsb	sl, ip, sl	@ tmp11957, SmpPat.Pix, <variable>.Pix
	rsblt	r0, r0, #0	@ tmp11951, tmp11950
	ldrb	r2, [sp, #16]	@ zero_extendqisi2	@ SmpPat.Pix, SmpPat.Pix
	cmp	r0, #2	@ tmp11951,
	addgt	r3, r3, #1	@,, MisCnt.6607, MisCnt.6599
	cmp	sl, #0	@ tmp11957,
	ldrb	r0, [sp, #17]	@ zero_extendqisi2	@ SmpPat.Pix, SmpPat.Pix
	rsb	r2, r2, r1	@ tmp11964, SmpPat.Pix, <variable>.Pix
	rsblt	sl, sl, #0	@ tmp11958, tmp11957
	ldrb	ip, [r6, #3417]	@ zero_extendqisi2	@ <variable>.Pix, <variable>.Pix
	cmp	sl, #2	@ tmp11958,
	addgt	r3, r3, #1	@,, MisCnt.6615, MisCnt.6607
	cmp	r2, #0	@ tmp11964,
	ldrb	r8, [r6, #3418]	@ zero_extendqisi2	@ <variable>.Pix, <variable>.Pix
	rsb	ip, r0, ip	@ tmp11971, SmpPat.Pix, <variable>.Pix
	rsblt	r2, r2, #0	@ tmp11965, tmp11964
	ldrb	r1, [sp, #18]	@ zero_extendqisi2	@ SmpPat.Pix, SmpPat.Pix
	cmp	r2, #2	@ tmp11965,
	addgt	r3, r3, #1	@,, MisCnt.6623, MisCnt.6615
	cmp	ip, #0	@ tmp11971,
	ldrb	r0, [r6, #3419]	@ zero_extendqisi2	@ <variable>.Pix, <variable>.Pix
	rsb	r1, r1, r8	@ tmp11978, SmpPat.Pix, <variable>.Pix
	rsblt	ip, ip, #0	@ tmp11972, tmp11971
	ldrb	r2, [sp, #19]	@ zero_extendqisi2	@ SmpPat.Pix, SmpPat.Pix
	cmp	ip, #2	@ tmp11972,
	addgt	r3, r3, #1	@,, MisCnt.6631, MisCnt.6623
	cmp	r1, #0	@ tmp11978,
	rsb	r2, r2, r0	@ tmp11985, SmpPat.Pix, <variable>.Pix
	rsblt	r1, r1, #0	@ tmp11979, tmp11978
	cmp	r1, #2	@ tmp11979,
	addgt	r3, r3, #1	@,, MisCnt.6639, MisCnt.6631
	cmp	r2, #0	@ tmp11985,
	rsblt	r2, r2, #0	@ tmp11986, tmp11985
	cmp	r2, #2	@ tmp11986,
	addgt	r3, r3, #1	@,, tmp11989, MisCnt.6639
	cmp	r3, #2	@ tmp11989,
	bgt	.L50	@,
	ldr	r3, [r6, #3420]	@ <variable>.Comp, <variable>.Comp
	mov	r0, sp	@,
	ldr	r2, [r6, #3424]	@ <variable>.Px, <variable>.Px
	mov	r1, r5	@, pDetPara
	ldr	lr, [r6, #3428]	@ <variable>.Py, <variable>.Py
	str	r3, [sp, #0]	@ <variable>.Comp, SmpPat.Comp
	stmib	sp, {r2, lr}	@ phole stm
	bl	GetSample	@
	ldrb	r8, [r6, #3433]	@ zero_extendqisi2	@ <variable>.Pix, <variable>.Pix
	ldrb	ip, [sp, #13]	@ zero_extendqisi2	@ SmpPat.Pix, SmpPat.Pix
	ldrb	sl, [r6, #3432]	@ zero_extendqisi2	@ <variable>.Pix, <variable>.Pix
	ldrb	r1, [sp, #12]	@ zero_extendqisi2	@ SmpPat.Pix, SmpPat.Pix
	rsb	r3, ip, r8	@ tmp12007, SmpPat.Pix, <variable>.Pix
	cmp	r3, #0	@ tmp12007,
	ldrb	r2, [sp, #14]	@ zero_extendqisi2	@ SmpPat.Pix, SmpPat.Pix
	rsb	r8, r1, sl	@ tmp12000, SmpPat.Pix, <variable>.Pix
	ldrb	r0, [r6, #3434]	@ zero_extendqisi2	@ <variable>.Pix, <variable>.Pix
	rsblt	r3, r3, #0	@ tmp12008, tmp12007
	cmp	r8, #0	@ tmp12000,
	rsb	r0, r2, r0	@ tmp12014, SmpPat.Pix, <variable>.Pix
	rsblt	r8, r8, #0	@ tmp12001, tmp12000
	ldrb	ip, [sp, #15]	@ zero_extendqisi2	@ SmpPat.Pix, SmpPat.Pix
	cmp	r3, #2	@ tmp12008,
	movle	r3, #0	@, tmp12010
	movgt	r3, #1	@, tmp12010
	ldrb	sl, [r6, #3435]	@ zero_extendqisi2	@ <variable>.Pix, <variable>.Pix
	cmp	r8, #2	@ tmp12001,
	addgt	r3, r3, #1	@,, MisCnt.6665, tmp12010
	cmp	r0, #0	@ tmp12014,
	ldrb	r1, [r6, #3436]	@ zero_extendqisi2	@ <variable>.Pix, <variable>.Pix
	rsb	sl, ip, sl	@ tmp12021, SmpPat.Pix, <variable>.Pix
	rsblt	r0, r0, #0	@ tmp12015, tmp12014
	ldrb	r2, [sp, #16]	@ zero_extendqisi2	@ SmpPat.Pix, SmpPat.Pix
	cmp	r0, #2	@ tmp12015,
	addgt	r3, r3, #1	@,, MisCnt.6673, MisCnt.6665
	cmp	sl, #0	@ tmp12021,
	ldrb	r0, [sp, #17]	@ zero_extendqisi2	@ SmpPat.Pix, SmpPat.Pix
	rsb	r2, r2, r1	@ tmp12028, SmpPat.Pix, <variable>.Pix
	rsblt	sl, sl, #0	@ tmp12022, tmp12021
	ldrb	ip, [r6, #3437]	@ zero_extendqisi2	@ <variable>.Pix, <variable>.Pix
	cmp	sl, #2	@ tmp12022,
	addgt	r3, r3, #1	@,, MisCnt.6681, MisCnt.6673
	cmp	r2, #0	@ tmp12028,
	ldrb	r8, [r6, #3438]	@ zero_extendqisi2	@ <variable>.Pix, <variable>.Pix
	rsb	ip, r0, ip	@ tmp12035, SmpPat.Pix, <variable>.Pix
	rsblt	r2, r2, #0	@ tmp12029, tmp12028
	ldrb	r1, [sp, #18]	@ zero_extendqisi2	@ SmpPat.Pix, SmpPat.Pix
	cmp	r2, #2	@ tmp12029,
	addgt	r3, r3, #1	@,, MisCnt.6689, MisCnt.6681
	cmp	ip, #0	@ tmp12035,
	ldrb	r0, [r6, #3439]	@ zero_extendqisi2	@ <variable>.Pix, <variable>.Pix
	rsblt	ip, ip, #0	@ tmp12036, tmp12035
	rsb	r1, r1, r8	@ tmp12042, SmpPat.Pix, <variable>.Pix
	ldrb	r2, [sp, #19]	@ zero_extendqisi2	@ SmpPat.Pix, SmpPat.Pix
	cmp	ip, #2	@ tmp12036,
	addgt	r3, r3, #1	@,, MisCnt.6697, MisCnt.6689
	cmp	r1, #0	@ tmp12042,
	rsb	ip, r2, r0	@ tmp12049, SmpPat.Pix, <variable>.Pix
	rsblt	r1, r1, #0	@ tmp12043, tmp12042
	cmp	r1, #2	@ tmp12043,
	addgt	r3, r3, #1	@,, MisCnt.6705, MisCnt.6697
	cmp	ip, #0	@ tmp12049,
	rsblt	ip, ip, #0	@ tmp12050, tmp12049
	cmp	ip, #2	@ tmp12050,
	addgt	r3, r3, #1	@,, tmp12053, MisCnt.6705
	cmp	r3, #2	@ tmp12053,
	bgt	.L50	@,
	ldr	r3, [r6, #3440]	@ <variable>.Comp, <variable>.Comp
	mov	r0, sp	@,
	ldr	r2, [r6, #3444]	@ <variable>.Px, <variable>.Px
	mov	r1, r5	@, pDetPara
	ldr	lr, [r6, #3448]	@ <variable>.Py, <variable>.Py
	str	r3, [sp, #0]	@ <variable>.Comp, SmpPat.Comp
	stmib	sp, {r2, lr}	@ phole stm
	bl	GetSample	@
	ldrb	r8, [r6, #3453]	@ zero_extendqisi2	@ <variable>.Pix, <variable>.Pix
	ldrb	ip, [sp, #13]	@ zero_extendqisi2	@ SmpPat.Pix, SmpPat.Pix
	ldrb	sl, [r6, #3452]	@ zero_extendqisi2	@ <variable>.Pix, <variable>.Pix
	ldrb	r1, [sp, #12]	@ zero_extendqisi2	@ SmpPat.Pix, SmpPat.Pix
	rsb	r3, ip, r8	@ tmp12071, SmpPat.Pix, <variable>.Pix
	cmp	r3, #0	@ tmp12071,
	ldrb	r2, [sp, #14]	@ zero_extendqisi2	@ SmpPat.Pix, SmpPat.Pix
	rsb	r8, r1, sl	@ tmp12064, SmpPat.Pix, <variable>.Pix
	ldrb	r0, [r6, #3454]	@ zero_extendqisi2	@ <variable>.Pix, <variable>.Pix
	rsblt	r3, r3, #0	@ tmp12072, tmp12071
	cmp	r8, #0	@ tmp12064,
	rsb	r0, r2, r0	@ tmp12078, SmpPat.Pix, <variable>.Pix
	rsblt	r8, r8, #0	@ tmp12065, tmp12064
	ldrb	ip, [sp, #15]	@ zero_extendqisi2	@ SmpPat.Pix, SmpPat.Pix
	cmp	r3, #2	@ tmp12072,
	movle	r3, #0	@, tmp12074
	movgt	r3, #1	@, tmp12074
	ldrb	sl, [r6, #3455]	@ zero_extendqisi2	@ <variable>.Pix, <variable>.Pix
	cmp	r8, #2	@ tmp12065,
	addgt	r3, r3, #1	@,, MisCnt.6731, tmp12074
	cmp	r0, #0	@ tmp12078,
	ldrb	r1, [r6, #3456]	@ zero_extendqisi2	@ <variable>.Pix, <variable>.Pix
	rsb	sl, ip, sl	@ tmp12085, SmpPat.Pix, <variable>.Pix
	rsblt	r0, r0, #0	@ tmp12079, tmp12078
	ldrb	r2, [sp, #16]	@ zero_extendqisi2	@ SmpPat.Pix, SmpPat.Pix
	cmp	r0, #2	@ tmp12079,
	addgt	r3, r3, #1	@,, MisCnt.6739, MisCnt.6731
	cmp	sl, #0	@ tmp12085,
	ldrb	r0, [sp, #17]	@ zero_extendqisi2	@ SmpPat.Pix, SmpPat.Pix
	rsb	r2, r2, r1	@ tmp12092, SmpPat.Pix, <variable>.Pix
	rsblt	sl, sl, #0	@ tmp12086, tmp12085
	ldrb	ip, [r6, #3457]	@ zero_extendqisi2	@ <variable>.Pix, <variable>.Pix
	cmp	sl, #2	@ tmp12086,
	addgt	r3, r3, #1	@,, MisCnt.6747, MisCnt.6739
	cmp	r2, #0	@ tmp12092,
	ldrb	r8, [r6, #3458]	@ zero_extendqisi2	@ <variable>.Pix, <variable>.Pix
	rsb	ip, r0, ip	@ tmp12099, SmpPat.Pix, <variable>.Pix
	rsblt	r2, r2, #0	@ tmp12093, tmp12092
	ldrb	r1, [sp, #18]	@ zero_extendqisi2	@ SmpPat.Pix, SmpPat.Pix
	cmp	r2, #2	@ tmp12093,
	addgt	r3, r3, #1	@,, MisCnt.6755, MisCnt.6747
	cmp	ip, #0	@ tmp12099,
	ldrb	r0, [r6, #3459]	@ zero_extendqisi2	@ <variable>.Pix, <variable>.Pix
	rsblt	ip, ip, #0	@ tmp12100, tmp12099
	rsb	r1, r1, r8	@ tmp12106, SmpPat.Pix, <variable>.Pix
	ldrb	r2, [sp, #19]	@ zero_extendqisi2	@ SmpPat.Pix, SmpPat.Pix
	cmp	ip, #2	@ tmp12100,
	addgt	r3, r3, #1	@,, MisCnt.6763, MisCnt.6755
	cmp	r1, #0	@ tmp12106,
	rsb	ip, r2, r0	@ tmp12113, SmpPat.Pix, <variable>.Pix
	rsblt	r1, r1, #0	@ tmp12107, tmp12106
	cmp	r1, #2	@ tmp12107,
	addgt	r3, r3, #1	@,, MisCnt.6771, MisCnt.6763
	cmp	ip, #0	@ tmp12113,
	rsblt	ip, ip, #0	@ tmp12114, tmp12113
	cmp	ip, #2	@ tmp12114,
	addgt	r3, r3, #1	@,, tmp12117, MisCnt.6771
	cmp	r3, #2	@ tmp12117,
	bgt	.L50	@,
	ldr	r3, [r6, #3460]	@ <variable>.Comp, <variable>.Comp
	mov	r1, r5	@, pDetPara
	ldr	r2, [r6, #3464]	@ <variable>.Px, <variable>.Px
	mov	r0, sp	@,
	ldr	lr, [r6, #3468]	@ <variable>.Py, <variable>.Py
	str	r3, [sp, #0]	@ <variable>.Comp, SmpPat.Comp
	stmib	sp, {r2, lr}	@ phole stm
	bl	GetSample	@
	ldrb	r5, [r6, #3473]	@ zero_extendqisi2	@ <variable>.Pix, <variable>.Pix
	ldrb	ip, [sp, #13]	@ zero_extendqisi2	@ SmpPat.Pix, SmpPat.Pix
	ldrb	r7, [r6, #3472]	@ zero_extendqisi2	@ <variable>.Pix, <variable>.Pix
	ldrb	r1, [sp, #12]	@ zero_extendqisi2	@ SmpPat.Pix, SmpPat.Pix
	rsb	r3, ip, r5	@ tmp12135, SmpPat.Pix, <variable>.Pix
	cmp	r3, #0	@ tmp12135,
	ldrb	r2, [sp, #14]	@ zero_extendqisi2	@ SmpPat.Pix, SmpPat.Pix
	rsb	r5, r1, r7	@ tmp12128, SmpPat.Pix, <variable>.Pix
	ldrb	r0, [r6, #3474]	@ zero_extendqisi2	@ <variable>.Pix, <variable>.Pix
	rsblt	r3, r3, #0	@ tmp12136, tmp12135
	cmp	r5, #0	@ tmp12128,
	rsb	r0, r2, r0	@ tmp12142, SmpPat.Pix, <variable>.Pix
	rsblt	r5, r5, #0	@ tmp12129, tmp12128
	ldrb	ip, [sp, #15]	@ zero_extendqisi2	@ SmpPat.Pix, SmpPat.Pix
	cmp	r3, #2	@ tmp12136,
	movle	r3, #0	@, tmp12138
	movgt	r3, #1	@, tmp12138
	ldrb	r7, [r6, #3475]	@ zero_extendqisi2	@ <variable>.Pix, <variable>.Pix
	cmp	r5, #2	@ tmp12129,
	addgt	r3, r3, #1	@,, MisCnt.2151, tmp12138
	cmp	r0, #0	@ tmp12142,
	ldrb	r1, [r6, #3476]	@ zero_extendqisi2	@ <variable>.Pix, <variable>.Pix
	rsb	r7, ip, r7	@ tmp12149, SmpPat.Pix, <variable>.Pix
	rsblt	r0, r0, #0	@ tmp12143, tmp12142
	ldrb	r2, [sp, #16]	@ zero_extendqisi2	@ SmpPat.Pix, SmpPat.Pix
	cmp	r0, #2	@ tmp12143,
	addgt	r3, r3, #1	@,, MisCnt.2159, MisCnt.2151
	cmp	r7, #0	@ tmp12149,
	ldrb	r0, [sp, #17]	@ zero_extendqisi2	@ SmpPat.Pix, SmpPat.Pix
	rsb	r2, r2, r1	@ tmp12156, SmpPat.Pix, <variable>.Pix
	rsblt	r7, r7, #0	@ tmp12150, tmp12149
	ldrb	ip, [r6, #3477]	@ zero_extendqisi2	@ <variable>.Pix, <variable>.Pix
	cmp	r7, #2	@ tmp12150,
	addgt	r3, r3, #1	@,, MisCnt.2169, MisCnt.2159
	cmp	r2, #0	@ tmp12156,
	ldrb	r5, [r6, #3478]	@ zero_extendqisi2	@ <variable>.Pix, <variable>.Pix
	rsb	ip, r0, ip	@ tmp12163, SmpPat.Pix, <variable>.Pix
	rsblt	r2, r2, #0	@ tmp12157, tmp12156
	ldrb	r1, [sp, #18]	@ zero_extendqisi2	@ SmpPat.Pix, SmpPat.Pix
	cmp	r2, #2	@ tmp12157,
	addgt	r3, r3, #1	@,, MisCnt.2178, MisCnt.2169
	cmp	ip, #0	@ tmp12163,
	ldrb	r0, [r6, #3479]	@ zero_extendqisi2	@ <variable>.Pix, <variable>.Pix
	rsblt	ip, ip, #0	@ tmp12164, tmp12163
	rsb	r1, r1, r5	@ tmp12170, SmpPat.Pix, <variable>.Pix
	ldrb	r2, [sp, #19]	@ zero_extendqisi2	@ SmpPat.Pix, SmpPat.Pix
	cmp	ip, #2	@ tmp12164,
	addgt	r3, r3, #1	@,, MisCnt.2186, MisCnt.2178
	cmp	r1, #0	@ tmp12170,
	rsb	ip, r2, r0	@ tmp12177, SmpPat.Pix, <variable>.Pix
	rsblt	r1, r1, #0	@ tmp12171, tmp12170
	cmp	r1, #2	@ tmp12171,
	addgt	r3, r3, #1	@,, MisCnt.2194, MisCnt.2186
	cmp	ip, #0	@ tmp12177,
	rsblt	ip, ip, #0	@ tmp12178, tmp12177
	cmp	ip, #2	@ tmp12178,
	addgt	r3, r3, #1	@,, tmp12181, MisCnt.2194
	cmp	r3, #2	@ tmp12181,
	movle	r0, #7	@ Result,
	ble	.L18	@,
.L50:
	mov	r0, #0	@ Result,
	b	.L18	@
.L20:
	bl	vfmw_dprint_nothing	@
	mov	r0, #0	@ Result,
.L18:
	ldr	r1, [sp, #20]	@ D.47913, D.47913
	ldr	ip, [r4, #0]	@ __stack_chk_guard, __stack_chk_guard
	cmp	r1, ip	@ D.47913, __stack_chk_guard
	bne	.L77	@,
	add	sp, sp, #24	@,,
	ldmfd	sp!, {r4, r5, r6, r7, r8, r9, sl, pc}
.L76:
	cmp	r2, #1280	@ D.35602,
	bne	.L50	@,
	movw	r6, #:lower16:.LANCHOR0	@ tmp12195,
	movt	r6, #:upper16:.LANCHOR0	@ tmp12195,
	mov	r1, r5	@, pDetPara
	mov	r0, sp	@,
	ldr	r3, [r6, #3180]	@ <variable>.Comp, <variable>.Comp
	mov	r8, sp	@ tmp12196,
	ldr	r2, [r6, #3184]	@ <variable>.Px, <variable>.Px
	ldr	lr, [r6, #3188]	@ <variable>.Py, <variable>.Py
	str	r3, [sp, #0]	@ <variable>.Comp, SmpPat.Comp
	stmib	sp, {r2, lr}	@ phole stm
	bl	GetSample	@
	ldrb	ip, [r6, #3193]	@ zero_extendqisi2	@ <variable>.Pix, <variable>.Pix
	ldrb	r7, [sp, #13]	@ zero_extendqisi2	@ SmpPat.Pix, SmpPat.Pix
	ldrb	sl, [r6, #3192]	@ zero_extendqisi2	@ <variable>.Pix, <variable>.Pix
	ldrb	r1, [sp, #12]	@ zero_extendqisi2	@ SmpPat.Pix, SmpPat.Pix
	rsb	r3, r7, ip	@ tmp11238, SmpPat.Pix, <variable>.Pix
	cmp	r3, #0	@ tmp11238,
	ldrb	r2, [sp, #14]	@ zero_extendqisi2	@ SmpPat.Pix, SmpPat.Pix
	rsb	lr, r1, sl	@ tmp11231, SmpPat.Pix, <variable>.Pix
	ldrb	r0, [r6, #3194]	@ zero_extendqisi2	@ <variable>.Pix, <variable>.Pix
	rsblt	r3, r3, #0	@ tmp11239, tmp11238
	cmp	lr, #0	@ tmp11231,
	rsb	r0, r2, r0	@ tmp11245, SmpPat.Pix, <variable>.Pix
	rsblt	lr, lr, #0	@ tmp11232, tmp11231
	ldrb	ip, [sp, #15]	@ zero_extendqisi2	@ SmpPat.Pix, SmpPat.Pix
	cmp	r3, #2	@ tmp11239,
	movle	sl, #0	@, tmp11241
	movgt	sl, #1	@, tmp11241
	ldrb	r7, [r6, #3195]	@ zero_extendqisi2	@ <variable>.Pix, <variable>.Pix
	cmp	lr, #2	@ tmp11232,
	addgt	sl, sl, #1	@,, MisCnt.6797, tmp11241
	cmp	r0, #0	@ tmp11245,
	ldrb	r1, [r6, #3196]	@ zero_extendqisi2	@ <variable>.Pix, <variable>.Pix
	rsb	r7, ip, r7	@ tmp11252, SmpPat.Pix, <variable>.Pix
	rsblt	r0, r0, #0	@ tmp11246, tmp11245
	ldrb	r2, [sp, #16]	@ zero_extendqisi2	@ SmpPat.Pix, SmpPat.Pix
	cmp	r0, #2	@ tmp11246,
	addgt	sl, sl, #1	@,, MisCnt.6805, MisCnt.6797
	cmp	r7, #0	@ tmp11252,
	ldrb	r0, [sp, #17]	@ zero_extendqisi2	@ SmpPat.Pix, SmpPat.Pix
	rsb	r2, r2, r1	@ tmp11259, SmpPat.Pix, <variable>.Pix
	rsblt	r7, r7, #0	@ tmp11253, tmp11252
	ldrb	ip, [r6, #3197]	@ zero_extendqisi2	@ <variable>.Pix, <variable>.Pix
	cmp	r7, #2	@ tmp11253,
	addgt	sl, sl, #1	@,, MisCnt.6813, MisCnt.6805
	cmp	r2, #0	@ tmp11259,
	ldrb	lr, [r6, #3198]	@ zero_extendqisi2	@ <variable>.Pix, <variable>.Pix
	rsb	ip, r0, ip	@ tmp11266, SmpPat.Pix, <variable>.Pix
	rsblt	r2, r2, #0	@ tmp11260, tmp11259
	ldrb	r1, [sp, #18]	@ zero_extendqisi2	@ SmpPat.Pix, SmpPat.Pix
	cmp	r2, #2	@ tmp11260,
	addgt	sl, sl, #1	@,, MisCnt.6821, MisCnt.6813
	cmp	ip, #0	@ tmp11266,
	ldrb	r0, [r6, #3199]	@ zero_extendqisi2	@ <variable>.Pix, <variable>.Pix
	rsb	r1, r1, lr	@ tmp11273, SmpPat.Pix, <variable>.Pix
	rsblt	ip, ip, #0	@ tmp11267, tmp11266
	ldrb	r2, [sp, #19]	@ zero_extendqisi2	@ SmpPat.Pix, SmpPat.Pix
	cmp	ip, #2	@ tmp11267,
	addgt	sl, sl, #1	@,, MisCnt.6829, MisCnt.6821
	cmp	r1, #0	@ tmp11273,
	rsb	r7, r2, r0	@ tmp11280, SmpPat.Pix, <variable>.Pix
	rsblt	r1, r1, #0	@ tmp11274, tmp11273
	cmp	r1, #2	@ tmp11274,
	addgt	sl, sl, #1	@,, MisCnt.6837, MisCnt.6829
	cmp	r7, #0	@ tmp11280,
	rsblt	r7, r7, #0	@ tmp11281, tmp11280
	cmp	r7, #2	@ tmp11281,
	addgt	sl, sl, #1	@,, tmp11284, MisCnt.6837
	cmp	sl, #2	@ tmp11284,
	bgt	.L61	@,
	ldr	r3, [r6, #3200]	@ <variable>.Comp, <variable>.Comp
	mov	r0, sp	@,
	ldr	r2, [r6, #3204]	@ <variable>.Px, <variable>.Px
	mov	r1, r5	@, pDetPara
	ldr	lr, [r6, #3208]	@ <variable>.Py, <variable>.Py
	str	r3, [sp, #0]	@ <variable>.Comp, SmpPat.Comp
	stmib	sp, {r2, lr}	@ phole stm
	bl	GetSample	@
	ldrb	ip, [r6, #3213]	@ zero_extendqisi2	@ <variable>.Pix, <variable>.Pix
	ldrb	r7, [sp, #13]	@ zero_extendqisi2	@ SmpPat.Pix, SmpPat.Pix
	ldrb	sl, [r6, #3212]	@ zero_extendqisi2	@ <variable>.Pix, <variable>.Pix
	ldrb	r1, [sp, #12]	@ zero_extendqisi2	@ SmpPat.Pix, SmpPat.Pix
	rsb	r3, r7, ip	@ tmp11302, SmpPat.Pix, <variable>.Pix
	cmp	r3, #0	@ tmp11302,
	ldrb	r2, [sp, #14]	@ zero_extendqisi2	@ SmpPat.Pix, SmpPat.Pix
	rsb	lr, r1, sl	@ tmp11295, SmpPat.Pix, <variable>.Pix
	ldrb	r0, [r6, #3214]	@ zero_extendqisi2	@ <variable>.Pix, <variable>.Pix
	rsblt	r3, r3, #0	@ tmp11303, tmp11302
	cmp	lr, #0	@ tmp11295,
	rsb	r0, r2, r0	@ tmp11309, SmpPat.Pix, <variable>.Pix
	rsblt	lr, lr, #0	@ tmp11296, tmp11295
	ldrb	ip, [sp, #15]	@ zero_extendqisi2	@ SmpPat.Pix, SmpPat.Pix
	cmp	r3, #2	@ tmp11303,
	movle	sl, #0	@, tmp11305
	movgt	sl, #1	@, tmp11305
	ldrb	r7, [r6, #3215]	@ zero_extendqisi2	@ <variable>.Pix, <variable>.Pix
	cmp	lr, #2	@ tmp11296,
	addgt	sl, sl, #1	@,, MisCnt.6863, tmp11305
	cmp	r0, #0	@ tmp11309,
	ldrb	r1, [r6, #3216]	@ zero_extendqisi2	@ <variable>.Pix, <variable>.Pix
	rsb	r7, ip, r7	@ tmp11316, SmpPat.Pix, <variable>.Pix
	rsblt	r0, r0, #0	@ tmp11310, tmp11309
	ldrb	r2, [sp, #16]	@ zero_extendqisi2	@ SmpPat.Pix, SmpPat.Pix
	cmp	r0, #2	@ tmp11310,
	addgt	sl, sl, #1	@,, MisCnt.6871, MisCnt.6863
	cmp	r7, #0	@ tmp11316,
	ldrb	r0, [sp, #17]	@ zero_extendqisi2	@ SmpPat.Pix, SmpPat.Pix
	rsb	r2, r2, r1	@ tmp11323, SmpPat.Pix, <variable>.Pix
	rsblt	r7, r7, #0	@ tmp11317, tmp11316
	ldrb	ip, [r6, #3217]	@ zero_extendqisi2	@ <variable>.Pix, <variable>.Pix
	cmp	r7, #2	@ tmp11317,
	addgt	sl, sl, #1	@,, MisCnt.6879, MisCnt.6871
	cmp	r2, #0	@ tmp11323,
	ldrb	lr, [r6, #3218]	@ zero_extendqisi2	@ <variable>.Pix, <variable>.Pix
	rsb	ip, r0, ip	@ tmp11330, SmpPat.Pix, <variable>.Pix
	rsblt	r2, r2, #0	@ tmp11324, tmp11323
	ldrb	r1, [sp, #18]	@ zero_extendqisi2	@ SmpPat.Pix, SmpPat.Pix
	cmp	r2, #2	@ tmp11324,
	addgt	sl, sl, #1	@,, MisCnt.6887, MisCnt.6879
	cmp	ip, #0	@ tmp11330,
	ldrb	r0, [r6, #3219]	@ zero_extendqisi2	@ <variable>.Pix, <variable>.Pix
	rsb	r1, r1, lr	@ tmp11337, SmpPat.Pix, <variable>.Pix
	rsblt	ip, ip, #0	@ tmp11331, tmp11330
	ldrb	r2, [sp, #19]	@ zero_extendqisi2	@ SmpPat.Pix, SmpPat.Pix
	cmp	ip, #2	@ tmp11331,
	addgt	sl, sl, #1	@,, MisCnt.6895, MisCnt.6887
	cmp	r1, #0	@ tmp11337,
	rsb	r7, r2, r0	@ tmp11344, SmpPat.Pix, <variable>.Pix
	rsblt	r1, r1, #0	@ tmp11338, tmp11337
	cmp	r1, #2	@ tmp11338,
	addgt	sl, sl, #1	@,, MisCnt.6903, MisCnt.6895
	cmp	r7, #0	@ tmp11344,
	rsblt	r7, r7, #0	@ tmp11345, tmp11344
	cmp	r7, #2	@ tmp11345,
	addgt	sl, sl, #1	@,, tmp11348, MisCnt.6903
	cmp	sl, #2	@ tmp11348,
	bgt	.L61	@,
	ldr	r3, [r6, #3220]	@ <variable>.Comp, <variable>.Comp
	mov	r0, sp	@,
	ldr	r2, [r6, #3224]	@ <variable>.Px, <variable>.Px
	mov	r1, r5	@, pDetPara
	ldr	lr, [r6, #3228]	@ <variable>.Py, <variable>.Py
	str	r3, [sp, #0]	@ <variable>.Comp, SmpPat.Comp
	stmib	sp, {r2, lr}	@ phole stm
	bl	GetSample	@
	ldrb	ip, [r6, #3233]	@ zero_extendqisi2	@ <variable>.Pix, <variable>.Pix
	ldrb	r7, [sp, #13]	@ zero_extendqisi2	@ SmpPat.Pix, SmpPat.Pix
	ldrb	sl, [r6, #3232]	@ zero_extendqisi2	@ <variable>.Pix, <variable>.Pix
	ldrb	r1, [sp, #12]	@ zero_extendqisi2	@ SmpPat.Pix, SmpPat.Pix
	rsb	r3, r7, ip	@ tmp11366, SmpPat.Pix, <variable>.Pix
	cmp	r3, #0	@ tmp11366,
	ldrb	r2, [sp, #14]	@ zero_extendqisi2	@ SmpPat.Pix, SmpPat.Pix
	rsb	lr, r1, sl	@ tmp11359, SmpPat.Pix, <variable>.Pix
	ldrb	r0, [r6, #3234]	@ zero_extendqisi2	@ <variable>.Pix, <variable>.Pix
	rsblt	r3, r3, #0	@ tmp11367, tmp11366
	cmp	lr, #0	@ tmp11359,
	rsb	r0, r2, r0	@ tmp11373, SmpPat.Pix, <variable>.Pix
	rsblt	lr, lr, #0	@ tmp11360, tmp11359
	ldrb	ip, [sp, #15]	@ zero_extendqisi2	@ SmpPat.Pix, SmpPat.Pix
	cmp	r3, #2	@ tmp11367,
	movle	sl, #0	@, tmp11369
	movgt	sl, #1	@, tmp11369
	ldrb	r7, [r6, #3235]	@ zero_extendqisi2	@ <variable>.Pix, <variable>.Pix
	cmp	lr, #2	@ tmp11360,
	addgt	sl, sl, #1	@,, MisCnt.6929, tmp11369
	cmp	r0, #0	@ tmp11373,
	ldrb	r1, [r6, #3236]	@ zero_extendqisi2	@ <variable>.Pix, <variable>.Pix
	rsb	r7, ip, r7	@ tmp11380, SmpPat.Pix, <variable>.Pix
	rsblt	r0, r0, #0	@ tmp11374, tmp11373
	ldrb	r2, [sp, #16]	@ zero_extendqisi2	@ SmpPat.Pix, SmpPat.Pix
	cmp	r0, #2	@ tmp11374,
	addgt	sl, sl, #1	@,, MisCnt.6937, MisCnt.6929
	cmp	r7, #0	@ tmp11380,
	ldrb	r0, [sp, #17]	@ zero_extendqisi2	@ SmpPat.Pix, SmpPat.Pix
	rsb	r2, r2, r1	@ tmp11387, SmpPat.Pix, <variable>.Pix
	rsblt	r7, r7, #0	@ tmp11381, tmp11380
	ldrb	ip, [r6, #3237]	@ zero_extendqisi2	@ <variable>.Pix, <variable>.Pix
	cmp	r7, #2	@ tmp11381,
	addgt	sl, sl, #1	@,, MisCnt.6945, MisCnt.6937
	cmp	r2, #0	@ tmp11387,
	ldrb	lr, [r6, #3238]	@ zero_extendqisi2	@ <variable>.Pix, <variable>.Pix
	rsb	ip, r0, ip	@ tmp11394, SmpPat.Pix, <variable>.Pix
	rsblt	r2, r2, #0	@ tmp11388, tmp11387
	ldrb	r1, [sp, #18]	@ zero_extendqisi2	@ SmpPat.Pix, SmpPat.Pix
	cmp	r2, #2	@ tmp11388,
	addgt	sl, sl, #1	@,, MisCnt.6953, MisCnt.6945
	cmp	ip, #0	@ tmp11394,
	ldrb	r0, [r6, #3239]	@ zero_extendqisi2	@ <variable>.Pix, <variable>.Pix
	rsb	r1, r1, lr	@ tmp11401, SmpPat.Pix, <variable>.Pix
	rsblt	ip, ip, #0	@ tmp11395, tmp11394
	ldrb	r2, [sp, #19]	@ zero_extendqisi2	@ SmpPat.Pix, SmpPat.Pix
	cmp	ip, #2	@ tmp11395,
	addgt	sl, sl, #1	@,, MisCnt.6961, MisCnt.6953
	cmp	r1, #0	@ tmp11401,
	rsb	r7, r2, r0	@ tmp11408, SmpPat.Pix, <variable>.Pix
	rsblt	r1, r1, #0	@ tmp11402, tmp11401
	cmp	r1, #2	@ tmp11402,
	addgt	sl, sl, #1	@,, MisCnt.6969, MisCnt.6961
	cmp	r7, #0	@ tmp11408,
	rsblt	r7, r7, #0	@ tmp11409, tmp11408
	cmp	r7, #2	@ tmp11409,
	addgt	sl, sl, #1	@,, tmp11412, MisCnt.6969
	cmp	sl, #2	@ tmp11412,
	bgt	.L61	@,
	ldr	r3, [r6, #3240]	@ <variable>.Comp, <variable>.Comp
	mov	r0, sp	@,
	ldr	r2, [r6, #3244]	@ <variable>.Px, <variable>.Px
	mov	r1, r5	@, pDetPara
	ldr	lr, [r6, #3248]	@ <variable>.Py, <variable>.Py
	str	r3, [sp, #0]	@ <variable>.Comp, SmpPat.Comp
	stmib	sp, {r2, lr}	@ phole stm
	bl	GetSample	@
	ldrb	ip, [r6, #3253]	@ zero_extendqisi2	@ <variable>.Pix, <variable>.Pix
	ldrb	r7, [sp, #13]	@ zero_extendqisi2	@ SmpPat.Pix, SmpPat.Pix
	ldrb	sl, [r6, #3252]	@ zero_extendqisi2	@ <variable>.Pix, <variable>.Pix
	ldrb	r1, [sp, #12]	@ zero_extendqisi2	@ SmpPat.Pix, SmpPat.Pix
	rsb	r3, r7, ip	@ tmp11430, SmpPat.Pix, <variable>.Pix
	cmp	r3, #0	@ tmp11430,
	ldrb	r2, [sp, #14]	@ zero_extendqisi2	@ SmpPat.Pix, SmpPat.Pix
	rsb	lr, r1, sl	@ tmp11423, SmpPat.Pix, <variable>.Pix
	ldrb	r0, [r6, #3254]	@ zero_extendqisi2	@ <variable>.Pix, <variable>.Pix
	rsblt	r3, r3, #0	@ tmp11431, tmp11430
	cmp	lr, #0	@ tmp11423,
	rsb	r0, r2, r0	@ tmp11437, SmpPat.Pix, <variable>.Pix
	rsblt	lr, lr, #0	@ tmp11424, tmp11423
	ldrb	ip, [sp, #15]	@ zero_extendqisi2	@ SmpPat.Pix, SmpPat.Pix
	cmp	r3, #2	@ tmp11431,
	movle	sl, #0	@, tmp11433
	movgt	sl, #1	@, tmp11433
	ldrb	r7, [r6, #3255]	@ zero_extendqisi2	@ <variable>.Pix, <variable>.Pix
	cmp	lr, #2	@ tmp11424,
	addgt	sl, sl, #1	@,, MisCnt.6995, tmp11433
	cmp	r0, #0	@ tmp11437,
	ldrb	r1, [r6, #3256]	@ zero_extendqisi2	@ <variable>.Pix, <variable>.Pix
	rsb	r7, ip, r7	@ tmp11444, SmpPat.Pix, <variable>.Pix
	rsblt	r0, r0, #0	@ tmp11438, tmp11437
	ldrb	r2, [sp, #16]	@ zero_extendqisi2	@ SmpPat.Pix, SmpPat.Pix
	cmp	r0, #2	@ tmp11438,
	addgt	sl, sl, #1	@,, MisCnt.7003, MisCnt.6995
	cmp	r7, #0	@ tmp11444,
	ldrb	r0, [sp, #17]	@ zero_extendqisi2	@ SmpPat.Pix, SmpPat.Pix
	rsb	r2, r2, r1	@ tmp11451, SmpPat.Pix, <variable>.Pix
	rsblt	r7, r7, #0	@ tmp11445, tmp11444
	ldrb	ip, [r6, #3257]	@ zero_extendqisi2	@ <variable>.Pix, <variable>.Pix
	cmp	r7, #2	@ tmp11445,
	addgt	sl, sl, #1	@,, MisCnt.7011, MisCnt.7003
	cmp	r2, #0	@ tmp11451,
	ldrb	lr, [r6, #3258]	@ zero_extendqisi2	@ <variable>.Pix, <variable>.Pix
	rsb	ip, r0, ip	@ tmp11458, SmpPat.Pix, <variable>.Pix
	rsblt	r2, r2, #0	@ tmp11452, tmp11451
	ldrb	r1, [sp, #18]	@ zero_extendqisi2	@ SmpPat.Pix, SmpPat.Pix
	cmp	r2, #2	@ tmp11452,
	addgt	sl, sl, #1	@,, MisCnt.7019, MisCnt.7011
	cmp	ip, #0	@ tmp11458,
	ldrb	r0, [r6, #3259]	@ zero_extendqisi2	@ <variable>.Pix, <variable>.Pix
	rsb	r1, r1, lr	@ tmp11465, SmpPat.Pix, <variable>.Pix
	rsblt	ip, ip, #0	@ tmp11459, tmp11458
	ldrb	r2, [sp, #19]	@ zero_extendqisi2	@ SmpPat.Pix, SmpPat.Pix
	cmp	ip, #2	@ tmp11459,
	addgt	sl, sl, #1	@,, MisCnt.7027, MisCnt.7019
	cmp	r1, #0	@ tmp11465,
	rsb	r7, r2, r0	@ tmp11472, SmpPat.Pix, <variable>.Pix
	rsblt	r1, r1, #0	@ tmp11466, tmp11465
	cmp	r1, #2	@ tmp11466,
	addgt	sl, sl, #1	@,, MisCnt.7035, MisCnt.7027
	cmp	r7, #0	@ tmp11472,
	rsblt	r7, r7, #0	@ tmp11473, tmp11472
	cmp	r7, #2	@ tmp11473,
	addgt	sl, sl, #1	@,, tmp11476, MisCnt.7035
	cmp	sl, #2	@ tmp11476,
	bgt	.L61	@,
	ldr	r3, [r6, #3260]	@ <variable>.Comp, <variable>.Comp
	mov	r0, sp	@,
	ldr	r2, [r6, #3264]	@ <variable>.Px, <variable>.Px
	mov	r1, r5	@, pDetPara
	ldr	lr, [r6, #3268]	@ <variable>.Py, <variable>.Py
	str	r3, [sp, #0]	@ <variable>.Comp, SmpPat.Comp
	stmib	sp, {r2, lr}	@ phole stm
	bl	GetSample	@
	ldrb	r7, [r6, #3273]	@ zero_extendqisi2	@ <variable>.Pix, <variable>.Pix
	ldrb	ip, [sp, #13]	@ zero_extendqisi2	@ SmpPat.Pix, SmpPat.Pix
	ldrb	sl, [r6, #3272]	@ zero_extendqisi2	@ <variable>.Pix, <variable>.Pix
	ldrb	r1, [sp, #12]	@ zero_extendqisi2	@ SmpPat.Pix, SmpPat.Pix
	rsb	r3, ip, r7	@ tmp11494, SmpPat.Pix, <variable>.Pix
	cmp	r3, #0	@ tmp11494,
	ldrb	r2, [sp, #14]	@ zero_extendqisi2	@ SmpPat.Pix, SmpPat.Pix
	rsb	r7, r1, sl	@ tmp11487, SmpPat.Pix, <variable>.Pix
	ldrb	r0, [r6, #3274]	@ zero_extendqisi2	@ <variable>.Pix, <variable>.Pix
	rsblt	r3, r3, #0	@ tmp11495, tmp11494
	cmp	r7, #0	@ tmp11487,
	rsb	r0, r2, r0	@ tmp11501, SmpPat.Pix, <variable>.Pix
	rsblt	r7, r7, #0	@ tmp11488, tmp11487
	ldrb	ip, [sp, #15]	@ zero_extendqisi2	@ SmpPat.Pix, SmpPat.Pix
	cmp	r3, #2	@ tmp11495,
	movle	r3, #0	@, tmp11497
	movgt	r3, #1	@, tmp11497
	ldrb	sl, [r6, #3275]	@ zero_extendqisi2	@ <variable>.Pix, <variable>.Pix
	cmp	r7, #2	@ tmp11488,
	addgt	r3, r3, #1	@,, MisCnt.2214, tmp11497
	cmp	r0, #0	@ tmp11501,
	ldrb	r1, [r6, #3276]	@ zero_extendqisi2	@ <variable>.Pix, <variable>.Pix
	rsb	sl, ip, sl	@ tmp11508, SmpPat.Pix, <variable>.Pix
	rsblt	r0, r0, #0	@ tmp11502, tmp11501
	ldrb	r2, [sp, #16]	@ zero_extendqisi2	@ SmpPat.Pix, SmpPat.Pix
	cmp	r0, #2	@ tmp11502,
	addgt	r3, r3, #1	@,, MisCnt.2225, MisCnt.2214
	cmp	sl, #0	@ tmp11508,
	ldrb	r0, [sp, #17]	@ zero_extendqisi2	@ SmpPat.Pix, SmpPat.Pix
	rsb	r2, r2, r1	@ tmp11515, SmpPat.Pix, <variable>.Pix
	rsblt	sl, sl, #0	@ tmp11509, tmp11508
	ldrb	ip, [r6, #3277]	@ zero_extendqisi2	@ <variable>.Pix, <variable>.Pix
	cmp	sl, #2	@ tmp11509,
	addgt	r3, r3, #1	@,, MisCnt.2236, MisCnt.2225
	cmp	r2, #0	@ tmp11515,
	ldrb	r7, [r6, #3278]	@ zero_extendqisi2	@ <variable>.Pix, <variable>.Pix
	rsb	ip, r0, ip	@ tmp11522, SmpPat.Pix, <variable>.Pix
	rsblt	r2, r2, #0	@ tmp11516, tmp11515
	ldrb	r1, [sp, #18]	@ zero_extendqisi2	@ SmpPat.Pix, SmpPat.Pix
	cmp	r2, #2	@ tmp11516,
	addgt	r3, r3, #1	@,, MisCnt.2245, MisCnt.2236
	cmp	ip, #0	@ tmp11522,
	ldrb	r0, [r6, #3279]	@ zero_extendqisi2	@ <variable>.Pix, <variable>.Pix
	rsblt	ip, ip, #0	@ tmp11523, tmp11522
	rsb	r1, r1, r7	@ tmp11529, SmpPat.Pix, <variable>.Pix
	ldrb	r2, [sp, #19]	@ zero_extendqisi2	@ SmpPat.Pix, SmpPat.Pix
	cmp	ip, #2	@ tmp11523,
	addgt	r3, r3, #1	@,, MisCnt.2256, MisCnt.2245
	cmp	r1, #0	@ tmp11529,
	rsb	ip, r2, r0	@ tmp11536, SmpPat.Pix, <variable>.Pix
	rsblt	r1, r1, #0	@ tmp11530, tmp11529
	cmp	r1, #2	@ tmp11530,
	addgt	r3, r3, #1	@,, MisCnt.2267, MisCnt.2256
	cmp	ip, #0	@ tmp11536,
	rsblt	ip, ip, #0	@ tmp11537, tmp11536
	cmp	ip, #2	@ tmp11537,
	addgt	r3, r3, #1	@,, tmp11540, MisCnt.2267
	cmp	r3, #2	@ tmp11540,
	movle	r0, #5	@ Result,
	ble	.L18	@,
.L61:
	ldr	ip, [r6, #3280]	@ <variable>.Comp, <variable>.Comp
	mov	r0, sp	@,
	ldr	r2, [r6, #3284]	@ <variable>.Px, <variable>.Px
	mov	r1, r5	@, pDetPara
	ldr	lr, [r6, #3288]	@ <variable>.Py, <variable>.Py
	movw	r7, #:lower16:.LANCHOR0	@ tmp11541,
	str	ip, [sp, #0]	@ <variable>.Comp, SmpPat.Comp
	movt	r7, #:upper16:.LANCHOR0	@ tmp11541,
	stmib	sp, {r2, lr}	@ phole stm
	bl	GetSample	@
	ldrb	r1, [r6, #3293]	@ zero_extendqisi2	@ <variable>.Pix, <variable>.Pix
	ldrb	sl, [sp, #13]	@ zero_extendqisi2	@ SmpPat.Pix, SmpPat.Pix
	ldrb	r0, [r6, #3292]	@ zero_extendqisi2	@ <variable>.Pix, <variable>.Pix
	ldrb	r3, [sp, #12]	@ zero_extendqisi2	@ SmpPat.Pix, SmpPat.Pix
	rsb	r9, sl, r1	@ tmp11558, SmpPat.Pix, <variable>.Pix
	cmp	r9, #0	@ tmp11558,
	ldrb	ip, [r6, #3294]	@ zero_extendqisi2	@ <variable>.Pix, <variable>.Pix
	rsb	sl, r3, r0	@ tmp11551, SmpPat.Pix, <variable>.Pix
	ldrb	r2, [sp, #14]	@ zero_extendqisi2	@ SmpPat.Pix, SmpPat.Pix
	rsblt	r9, r9, #0	@ tmp11559, tmp11558
	cmp	sl, #0	@ tmp11551,
	rsblt	sl, sl, #0	@ tmp11552, tmp11551
	ldrb	r0, [r6, #3295]	@ zero_extendqisi2	@ <variable>.Pix, <variable>.Pix
	cmp	r9, #2	@ tmp11559,
	movle	r1, #0	@, tmp11561
	movgt	r1, #1	@, tmp11561
	ldrb	r3, [sp, #15]	@ zero_extendqisi2	@ SmpPat.Pix, SmpPat.Pix
	rsb	r9, r2, ip	@ tmp11565, SmpPat.Pix, <variable>.Pix
	cmp	sl, #2	@ tmp11552,
	addgt	r1, r1, #1	@,, MisCnt.7061, tmp11561
	cmp	r9, #0	@ tmp11565,
	rsb	r3, r3, r0	@ tmp11572, SmpPat.Pix, <variable>.Pix
	ldrb	r2, [sp, #16]	@ zero_extendqisi2	@ SmpPat.Pix, SmpPat.Pix
	rsblt	r9, r9, #0	@ tmp11566, tmp11565
	ldrb	ip, [r6, #3296]	@ zero_extendqisi2	@ <variable>.Pix, <variable>.Pix
	cmp	r9, #2	@ tmp11566,
	movle	r9, r1	@, MisCnt.7069, MisCnt.7061
	addgt	r9, r1, #1	@,, MisCnt.7069, MisCnt.7061
	cmp	r3, #0	@ tmp11572,
	ldrb	r0, [r6, #3297]	@ zero_extendqisi2	@ <variable>.Pix, <variable>.Pix
	rsb	ip, r2, ip	@ tmp11579, SmpPat.Pix, <variable>.Pix
	rsblt	r3, r3, #0	@ tmp11573, tmp11572
	ldrb	r1, [sp, #17]	@ zero_extendqisi2	@ SmpPat.Pix, SmpPat.Pix
	cmp	r3, #2	@ tmp11573,
	movle	r3, r9	@, MisCnt.7077, MisCnt.7069
	addgt	r3, r9, #1	@,, MisCnt.7077, MisCnt.7069
	cmp	ip, #0	@ tmp11579,
	ldrb	sl, [r6, #3298]	@ zero_extendqisi2	@ <variable>.Pix, <variable>.Pix
	rsb	r1, r1, r0	@ tmp11586, SmpPat.Pix, <variable>.Pix
	rsblt	ip, ip, #0	@ tmp11580, tmp11579
	ldrb	r2, [sp, #18]	@ zero_extendqisi2	@ SmpPat.Pix, SmpPat.Pix
	cmp	ip, #2	@ tmp11580,
	movle	ip, r3	@, MisCnt.7085, MisCnt.7077
	addgt	ip, r3, #1	@,, MisCnt.7085, MisCnt.7077
	cmp	r1, #0	@ tmp11586,
	ldrb	r0, [r6, #3299]	@ zero_extendqisi2	@ <variable>.Pix, <variable>.Pix
	rsb	r2, r2, sl	@ tmp11593, SmpPat.Pix, <variable>.Pix
	rsblt	r1, r1, #0	@ tmp11587, tmp11586
	ldrb	r3, [sp, #19]	@ zero_extendqisi2	@ SmpPat.Pix, SmpPat.Pix
	cmp	r1, #2	@ tmp11587,
	movle	r1, ip	@, MisCnt.7093, MisCnt.7085
	addgt	r1, ip, #1	@,, MisCnt.7093, MisCnt.7085
	cmp	r2, #0	@ tmp11593,
	rsb	ip, r3, r0	@ tmp11600, SmpPat.Pix, <variable>.Pix
	rsblt	r2, r2, #0	@ tmp11594, tmp11593
	cmp	r2, #2	@ tmp11594,
	movle	r2, r1	@, MisCnt.7101, MisCnt.7093
	addgt	r2, r1, #1	@,, MisCnt.7101, MisCnt.7093
	cmp	ip, #0	@ tmp11600,
	rsblt	ip, ip, #0	@ tmp11601, tmp11600
	cmp	ip, #2	@ tmp11601,
	movle	r0, r2	@, tmp11604, MisCnt.7101
	addgt	r0, r2, #1	@,, tmp11604, MisCnt.7101
	cmp	r0, #2	@ tmp11604,
	bgt	.L50	@,
	ldr	r3, [r7, #3300]	@ <variable>.Comp, <variable>.Comp
	mov	r0, sp	@,
	ldr	r2, [r7, #3304]	@ <variable>.Px, <variable>.Px
	mov	r1, r5	@, pDetPara
	ldr	lr, [r7, #3308]	@ <variable>.Py, <variable>.Py
	str	r3, [sp, #0]	@ <variable>.Comp, SmpPat.Comp
	stmib	sp, {r2, lr}	@ phole stm
	bl	GetSample	@
	ldrb	r6, [r7, #3313]	@ zero_extendqisi2	@ <variable>.Pix, <variable>.Pix
	ldrb	ip, [sp, #13]	@ zero_extendqisi2	@ SmpPat.Pix, SmpPat.Pix
	ldrb	sl, [r7, #3312]	@ zero_extendqisi2	@ <variable>.Pix, <variable>.Pix
	ldrb	r1, [sp, #12]	@ zero_extendqisi2	@ SmpPat.Pix, SmpPat.Pix
	rsb	r3, ip, r6	@ tmp11622, SmpPat.Pix, <variable>.Pix
	cmp	r3, #0	@ tmp11622,
	ldrb	r2, [sp, #14]	@ zero_extendqisi2	@ SmpPat.Pix, SmpPat.Pix
	rsb	r6, r1, sl	@ tmp11615, SmpPat.Pix, <variable>.Pix
	ldrb	r0, [r7, #3314]	@ zero_extendqisi2	@ <variable>.Pix, <variable>.Pix
	rsblt	r3, r3, #0	@ tmp11623, tmp11622
	cmp	r6, #0	@ tmp11615,
	rsb	r0, r2, r0	@ tmp11629, SmpPat.Pix, <variable>.Pix
	rsblt	r6, r6, #0	@ tmp11616, tmp11615
	ldrb	ip, [sp, #15]	@ zero_extendqisi2	@ SmpPat.Pix, SmpPat.Pix
	cmp	r3, #2	@ tmp11623,
	movle	r3, #0	@, tmp11625
	movgt	r3, #1	@, tmp11625
	ldrb	sl, [r7, #3315]	@ zero_extendqisi2	@ <variable>.Pix, <variable>.Pix
	cmp	r6, #2	@ tmp11616,
	addgt	r3, r3, #1	@,, MisCnt.7127, tmp11625
	cmp	r0, #0	@ tmp11629,
	ldrb	r1, [r7, #3316]	@ zero_extendqisi2	@ <variable>.Pix, <variable>.Pix
	rsb	sl, ip, sl	@ tmp11636, SmpPat.Pix, <variable>.Pix
	rsblt	r0, r0, #0	@ tmp11630, tmp11629
	ldrb	r2, [sp, #16]	@ zero_extendqisi2	@ SmpPat.Pix, SmpPat.Pix
	cmp	r0, #2	@ tmp11630,
	addgt	r3, r3, #1	@,, MisCnt.7135, MisCnt.7127
	cmp	sl, #0	@ tmp11636,
	ldrb	r0, [sp, #17]	@ zero_extendqisi2	@ SmpPat.Pix, SmpPat.Pix
	rsb	r2, r2, r1	@ tmp11643, SmpPat.Pix, <variable>.Pix
	rsblt	sl, sl, #0	@ tmp11637, tmp11636
	ldrb	ip, [r7, #3317]	@ zero_extendqisi2	@ <variable>.Pix, <variable>.Pix
	cmp	sl, #2	@ tmp11637,
	addgt	r3, r3, #1	@,, MisCnt.7143, MisCnt.7135
	cmp	r2, #0	@ tmp11643,
	ldrb	r6, [r7, #3318]	@ zero_extendqisi2	@ <variable>.Pix, <variable>.Pix
	rsb	ip, r0, ip	@ tmp11650, SmpPat.Pix, <variable>.Pix
	rsblt	r2, r2, #0	@ tmp11644, tmp11643
	ldrb	r1, [sp, #18]	@ zero_extendqisi2	@ SmpPat.Pix, SmpPat.Pix
	cmp	r2, #2	@ tmp11644,
	addgt	r3, r3, #1	@,, MisCnt.7151, MisCnt.7143
	cmp	ip, #0	@ tmp11650,
	ldrb	r0, [r7, #3319]	@ zero_extendqisi2	@ <variable>.Pix, <variable>.Pix
	rsb	r1, r1, r6	@ tmp11657, SmpPat.Pix, <variable>.Pix
	rsblt	ip, ip, #0	@ tmp11651, tmp11650
	ldrb	r2, [sp, #19]	@ zero_extendqisi2	@ SmpPat.Pix, SmpPat.Pix
	cmp	ip, #2	@ tmp11651,
	addgt	r3, r3, #1	@,, MisCnt.7159, MisCnt.7151
	cmp	r1, #0	@ tmp11657,
	rsb	r2, r2, r0	@ tmp11664, SmpPat.Pix, <variable>.Pix
	rsblt	r1, r1, #0	@ tmp11658, tmp11657
	cmp	r1, #2	@ tmp11658,
	addgt	r3, r3, #1	@,, MisCnt.7167, MisCnt.7159
	cmp	r2, #0	@ tmp11664,
	rsblt	r2, r2, #0	@ tmp11665, tmp11664
	cmp	r2, #2	@ tmp11665,
	addgt	r3, r3, #1	@,, tmp11668, MisCnt.7167
	cmp	r3, #2	@ tmp11668,
	bgt	.L50	@,
	ldr	r3, [r7, #3320]	@ <variable>.Comp, <variable>.Comp
	mov	r0, sp	@,
	ldr	r2, [r7, #3324]	@ <variable>.Px, <variable>.Px
	mov	r1, r5	@, pDetPara
	ldr	lr, [r7, #3328]	@ <variable>.Py, <variable>.Py
	str	r3, [sp, #0]	@ <variable>.Comp, SmpPat.Comp
	stmib	sp, {r2, lr}	@ phole stm
	bl	GetSample	@
	ldrb	r6, [r7, #3333]	@ zero_extendqisi2	@ <variable>.Pix, <variable>.Pix
	ldrb	ip, [sp, #13]	@ zero_extendqisi2	@ SmpPat.Pix, SmpPat.Pix
	ldrb	sl, [r7, #3332]	@ zero_extendqisi2	@ <variable>.Pix, <variable>.Pix
	ldrb	r1, [sp, #12]	@ zero_extendqisi2	@ SmpPat.Pix, SmpPat.Pix
	rsb	r3, ip, r6	@ tmp11686, SmpPat.Pix, <variable>.Pix
	cmp	r3, #0	@ tmp11686,
	ldrb	r2, [sp, #14]	@ zero_extendqisi2	@ SmpPat.Pix, SmpPat.Pix
	rsb	r6, r1, sl	@ tmp11679, SmpPat.Pix, <variable>.Pix
	ldrb	r0, [r7, #3334]	@ zero_extendqisi2	@ <variable>.Pix, <variable>.Pix
	rsblt	r3, r3, #0	@ tmp11687, tmp11686
	cmp	r6, #0	@ tmp11679,
	rsb	r0, r2, r0	@ tmp11693, SmpPat.Pix, <variable>.Pix
	rsblt	r6, r6, #0	@ tmp11680, tmp11679
	ldrb	ip, [sp, #15]	@ zero_extendqisi2	@ SmpPat.Pix, SmpPat.Pix
	cmp	r3, #2	@ tmp11687,
	movle	r3, #0	@, tmp11689
	movgt	r3, #1	@, tmp11689
	ldrb	sl, [r7, #3335]	@ zero_extendqisi2	@ <variable>.Pix, <variable>.Pix
	cmp	r6, #2	@ tmp11680,
	addgt	r3, r3, #1	@,, MisCnt.7193, tmp11689
	cmp	r0, #0	@ tmp11693,
	ldrb	r1, [r7, #3336]	@ zero_extendqisi2	@ <variable>.Pix, <variable>.Pix
	rsb	sl, ip, sl	@ tmp11700, SmpPat.Pix, <variable>.Pix
	rsblt	r0, r0, #0	@ tmp11694, tmp11693
	ldrb	r2, [sp, #16]	@ zero_extendqisi2	@ SmpPat.Pix, SmpPat.Pix
	cmp	r0, #2	@ tmp11694,
	addgt	r3, r3, #1	@,, MisCnt.7201, MisCnt.7193
	cmp	sl, #0	@ tmp11700,
	ldrb	r0, [sp, #17]	@ zero_extendqisi2	@ SmpPat.Pix, SmpPat.Pix
	rsb	r2, r2, r1	@ tmp11707, SmpPat.Pix, <variable>.Pix
	rsblt	sl, sl, #0	@ tmp11701, tmp11700
	ldrb	ip, [r7, #3337]	@ zero_extendqisi2	@ <variable>.Pix, <variable>.Pix
	cmp	sl, #2	@ tmp11701,
	addgt	r3, r3, #1	@,, MisCnt.7209, MisCnt.7201
	cmp	r2, #0	@ tmp11707,
	ldrb	r6, [r7, #3338]	@ zero_extendqisi2	@ <variable>.Pix, <variable>.Pix
	rsb	ip, r0, ip	@ tmp11714, SmpPat.Pix, <variable>.Pix
	rsblt	r2, r2, #0	@ tmp11708, tmp11707
	ldrb	r1, [sp, #18]	@ zero_extendqisi2	@ SmpPat.Pix, SmpPat.Pix
	cmp	r2, #2	@ tmp11708,
	addgt	r3, r3, #1	@,, MisCnt.7217, MisCnt.7209
	cmp	ip, #0	@ tmp11714,
	ldrb	r0, [r7, #3339]	@ zero_extendqisi2	@ <variable>.Pix, <variable>.Pix
	rsblt	ip, ip, #0	@ tmp11715, tmp11714
	rsb	r1, r1, r6	@ tmp11721, SmpPat.Pix, <variable>.Pix
	ldrb	r2, [sp, #19]	@ zero_extendqisi2	@ SmpPat.Pix, SmpPat.Pix
	cmp	ip, #2	@ tmp11715,
	addgt	r3, r3, #1	@,, MisCnt.7225, MisCnt.7217
	cmp	r1, #0	@ tmp11721,
	rsb	ip, r2, r0	@ tmp11728, SmpPat.Pix, <variable>.Pix
	rsblt	r1, r1, #0	@ tmp11722, tmp11721
	cmp	r1, #2	@ tmp11722,
	addgt	r3, r3, #1	@,, MisCnt.7233, MisCnt.7225
	cmp	ip, #0	@ tmp11728,
	rsblt	ip, ip, #0	@ tmp11729, tmp11728
	cmp	ip, #2	@ tmp11729,
	addgt	r3, r3, #1	@,, tmp11732, MisCnt.7233
	cmp	r3, #2	@ tmp11732,
	bgt	.L50	@,
	ldr	r3, [r7, #3340]	@ <variable>.Comp, <variable>.Comp
	mov	r0, sp	@,
	ldr	r2, [r7, #3344]	@ <variable>.Px, <variable>.Px
	mov	r1, r5	@, pDetPara
	ldr	lr, [r7, #3348]	@ <variable>.Py, <variable>.Py
	str	r3, [sp, #0]	@ <variable>.Comp, SmpPat.Comp
	stmib	sp, {r2, lr}	@ phole stm
	bl	GetSample	@
	ldrb	r6, [r7, #3353]	@ zero_extendqisi2	@ <variable>.Pix, <variable>.Pix
	ldrb	ip, [sp, #13]	@ zero_extendqisi2	@ SmpPat.Pix, SmpPat.Pix
	ldrb	sl, [r7, #3352]	@ zero_extendqisi2	@ <variable>.Pix, <variable>.Pix
	ldrb	r1, [sp, #12]	@ zero_extendqisi2	@ SmpPat.Pix, SmpPat.Pix
	rsb	r3, ip, r6	@ tmp11750, SmpPat.Pix, <variable>.Pix
	cmp	r3, #0	@ tmp11750,
	ldrb	r2, [sp, #14]	@ zero_extendqisi2	@ SmpPat.Pix, SmpPat.Pix
	rsb	r6, r1, sl	@ tmp11743, SmpPat.Pix, <variable>.Pix
	ldrb	r0, [r7, #3354]	@ zero_extendqisi2	@ <variable>.Pix, <variable>.Pix
	rsblt	r3, r3, #0	@ tmp11751, tmp11750
	cmp	r6, #0	@ tmp11743,
	rsb	r0, r2, r0	@ tmp11757, SmpPat.Pix, <variable>.Pix
	rsblt	r6, r6, #0	@ tmp11744, tmp11743
	ldrb	ip, [sp, #15]	@ zero_extendqisi2	@ SmpPat.Pix, SmpPat.Pix
	cmp	r3, #2	@ tmp11751,
	movle	r3, #0	@, tmp11753
	movgt	r3, #1	@, tmp11753
	ldrb	sl, [r7, #3355]	@ zero_extendqisi2	@ <variable>.Pix, <variable>.Pix
	cmp	r6, #2	@ tmp11744,
	addgt	r3, r3, #1	@,, MisCnt.7259, tmp11753
	cmp	r0, #0	@ tmp11757,
	ldrb	r1, [r7, #3356]	@ zero_extendqisi2	@ <variable>.Pix, <variable>.Pix
	rsb	sl, ip, sl	@ tmp11764, SmpPat.Pix, <variable>.Pix
	rsblt	r0, r0, #0	@ tmp11758, tmp11757
	ldrb	r2, [sp, #16]	@ zero_extendqisi2	@ SmpPat.Pix, SmpPat.Pix
	cmp	r0, #2	@ tmp11758,
	addgt	r3, r3, #1	@,, MisCnt.7267, MisCnt.7259
	cmp	sl, #0	@ tmp11764,
	ldrb	r0, [sp, #17]	@ zero_extendqisi2	@ SmpPat.Pix, SmpPat.Pix
	rsb	r2, r2, r1	@ tmp11771, SmpPat.Pix, <variable>.Pix
	rsblt	sl, sl, #0	@ tmp11765, tmp11764
	ldrb	ip, [r7, #3357]	@ zero_extendqisi2	@ <variable>.Pix, <variable>.Pix
	cmp	sl, #2	@ tmp11765,
	addgt	r3, r3, #1	@,, MisCnt.7275, MisCnt.7267
	cmp	r2, #0	@ tmp11771,
	ldrb	r6, [r7, #3358]	@ zero_extendqisi2	@ <variable>.Pix, <variable>.Pix
	rsb	ip, r0, ip	@ tmp11778, SmpPat.Pix, <variable>.Pix
	rsblt	r2, r2, #0	@ tmp11772, tmp11771
	ldrb	r1, [sp, #18]	@ zero_extendqisi2	@ SmpPat.Pix, SmpPat.Pix
	cmp	r2, #2	@ tmp11772,
	addgt	r3, r3, #1	@,, MisCnt.7283, MisCnt.7275
	cmp	ip, #0	@ tmp11778,
	ldrb	r0, [r7, #3359]	@ zero_extendqisi2	@ <variable>.Pix, <variable>.Pix
	rsblt	ip, ip, #0	@ tmp11779, tmp11778
	rsb	r1, r1, r6	@ tmp11785, SmpPat.Pix, <variable>.Pix
	ldrb	r2, [sp, #19]	@ zero_extendqisi2	@ SmpPat.Pix, SmpPat.Pix
	cmp	ip, #2	@ tmp11779,
	addgt	r3, r3, #1	@,, MisCnt.7291, MisCnt.7283
	cmp	r1, #0	@ tmp11785,
	rsb	ip, r2, r0	@ tmp11792, SmpPat.Pix, <variable>.Pix
	rsblt	r1, r1, #0	@ tmp11786, tmp11785
	cmp	r1, #2	@ tmp11786,
	addgt	r3, r3, #1	@,, MisCnt.7299, MisCnt.7291
	cmp	ip, #0	@ tmp11792,
	rsblt	ip, ip, #0	@ tmp11793, tmp11792
	cmp	ip, #2	@ tmp11793,
	addgt	r3, r3, #1	@,, tmp11796, MisCnt.7299
	cmp	r3, #2	@ tmp11796,
	bgt	.L50	@,
	ldr	r3, [r7, #3360]	@ <variable>.Comp, <variable>.Comp
	mov	r1, r5	@, pDetPara
	ldr	r2, [r7, #3364]	@ <variable>.Px, <variable>.Px
	mov	r0, sp	@,
	ldr	lr, [r7, #3368]	@ <variable>.Py, <variable>.Py
	str	r3, [sp, #0]	@ <variable>.Comp, SmpPat.Comp
	stmib	sp, {r2, lr}	@ phole stm
	bl	GetSample	@
	ldrb	r5, [r7, #3373]	@ zero_extendqisi2	@ <variable>.Pix, <variable>.Pix
	ldrb	ip, [sp, #13]	@ zero_extendqisi2	@ SmpPat.Pix, SmpPat.Pix
	ldrb	r6, [r7, #3372]	@ zero_extendqisi2	@ <variable>.Pix, <variable>.Pix
	ldrb	r1, [sp, #12]	@ zero_extendqisi2	@ SmpPat.Pix, SmpPat.Pix
	rsb	r3, ip, r5	@ tmp11814, SmpPat.Pix, <variable>.Pix
	cmp	r3, #0	@ tmp11814,
	ldrb	r2, [sp, #14]	@ zero_extendqisi2	@ SmpPat.Pix, SmpPat.Pix
	rsb	r5, r1, r6	@ tmp11807, SmpPat.Pix, <variable>.Pix
	ldrb	r0, [r7, #3374]	@ zero_extendqisi2	@ <variable>.Pix, <variable>.Pix
	rsblt	r3, r3, #0	@ tmp11815, tmp11814
	cmp	r5, #0	@ tmp11807,
	rsb	r0, r2, r0	@ tmp11821, SmpPat.Pix, <variable>.Pix
	rsblt	r5, r5, #0	@ tmp11808, tmp11807
	ldrb	ip, [sp, #15]	@ zero_extendqisi2	@ SmpPat.Pix, SmpPat.Pix
	cmp	r3, #2	@ tmp11815,
	movle	r3, #0	@, tmp11817
	movgt	r3, #1	@, tmp11817
	ldrb	r6, [r7, #3375]	@ zero_extendqisi2	@ <variable>.Pix, <variable>.Pix
	cmp	r5, #2	@ tmp11808,
	addgt	r3, r3, #1	@,, MisCnt.2284, tmp11817
	cmp	r0, #0	@ tmp11821,
	ldrb	r1, [r7, #3376]	@ zero_extendqisi2	@ <variable>.Pix, <variable>.Pix
	rsb	r6, ip, r6	@ tmp11828, SmpPat.Pix, <variable>.Pix
	rsblt	r0, r0, #0	@ tmp11822, tmp11821
	ldrb	r2, [sp, #16]	@ zero_extendqisi2	@ SmpPat.Pix, SmpPat.Pix
	cmp	r0, #2	@ tmp11822,
	addgt	r3, r3, #1	@,, MisCnt.2295, MisCnt.2284
	cmp	r6, #0	@ tmp11828,
	ldrb	r0, [sp, #17]	@ zero_extendqisi2	@ SmpPat.Pix, SmpPat.Pix
	rsb	r2, r2, r1	@ tmp11835, SmpPat.Pix, <variable>.Pix
	rsblt	r6, r6, #0	@ tmp11829, tmp11828
	ldrb	ip, [r7, #3377]	@ zero_extendqisi2	@ <variable>.Pix, <variable>.Pix
	cmp	r6, #2	@ tmp11829,
	addgt	r3, r3, #1	@,, MisCnt.2306, MisCnt.2295
	cmp	r2, #0	@ tmp11835,
	ldrb	r5, [r7, #3378]	@ zero_extendqisi2	@ <variable>.Pix, <variable>.Pix
	rsb	ip, r0, ip	@ tmp11842, SmpPat.Pix, <variable>.Pix
	rsblt	r2, r2, #0	@ tmp11836, tmp11835
	ldrb	r1, [sp, #18]	@ zero_extendqisi2	@ SmpPat.Pix, SmpPat.Pix
	cmp	r2, #2	@ tmp11836,
	addgt	r3, r3, #1	@,, MisCnt.2316, MisCnt.2306
	cmp	ip, #0	@ tmp11842,
	ldrb	r0, [r7, #3379]	@ zero_extendqisi2	@ <variable>.Pix, <variable>.Pix
	rsblt	ip, ip, #0	@ tmp11843, tmp11842
	rsb	r1, r1, r5	@ tmp11849, SmpPat.Pix, <variable>.Pix
	ldrb	r2, [sp, #19]	@ zero_extendqisi2	@ SmpPat.Pix, SmpPat.Pix
	cmp	ip, #2	@ tmp11843,
	addgt	r3, r3, #1	@,, MisCnt.2325, MisCnt.2316
	cmp	r1, #0	@ tmp11849,
	rsb	ip, r2, r0	@ tmp11856, SmpPat.Pix, <variable>.Pix
	rsblt	r1, r1, #0	@ tmp11850, tmp11849
	cmp	r1, #2	@ tmp11850,
	addgt	r3, r3, #1	@,, MisCnt.2336, MisCnt.2325
	cmp	ip, #0	@ tmp11856,
	rsblt	ip, ip, #0	@ tmp11857, tmp11856
	cmp	ip, #2	@ tmp11857,
	addgt	r3, r3, #1	@,, tmp11860, MisCnt.2336
	cmp	r3, #2	@ tmp11860,
	bgt	.L50	@,
	mov	r0, #6	@ Result,
	b	.L18	@
.L74:
	cmp	r2, #720	@ D.35602,
	beq	.L78	@,
	cmp	r2, #704	@ D.35602,
	bne	.L50	@,
	movw	r6, #:lower16:.LANCHOR0	@ tmp12191,
	movt	r6, #:upper16:.LANCHOR0	@ tmp12191,
	mov	r1, r5	@, pDetPara
	mov	r0, sp	@,
	ldr	r2, [r6, #2300]	@ <variable>.Comp, <variable>.Comp
	mov	r8, sp	@ tmp12192,
	ldr	r7, [r6, #2304]	@ <variable>.Px, <variable>.Px
	ldr	lr, [r6, #2308]	@ <variable>.Py, <variable>.Py
	stmia	sp, {r2, r7, lr}	@ phole stm
	bl	GetSample	@
	ldrb	r1, [r6, #2313]	@ zero_extendqisi2	@ <variable>.Pix, <variable>.Pix
	ldrb	r3, [sp, #13]	@ zero_extendqisi2	@ SmpPat.Pix, SmpPat.Pix
	ldrb	r9, [r6, #2312]	@ zero_extendqisi2	@ <variable>.Pix, <variable>.Pix
	ldrb	sl, [sp, #12]	@ zero_extendqisi2	@ SmpPat.Pix, SmpPat.Pix
	rsb	ip, r3, r1	@ tmp8550, SmpPat.Pix, <variable>.Pix
	cmp	ip, #0	@ tmp8550,
	ldrb	r7, [r6, #2314]	@ zero_extendqisi2	@ <variable>.Pix, <variable>.Pix
	rsb	lr, sl, r9	@ tmp8543, SmpPat.Pix, <variable>.Pix
	ldrb	r2, [sp, #14]	@ zero_extendqisi2	@ SmpPat.Pix, SmpPat.Pix
	rsblt	ip, ip, #0	@ tmp8551, tmp8550
	cmp	lr, #0	@ tmp8543,
	rsb	sl, r2, r7	@ tmp8557, SmpPat.Pix, <variable>.Pix
	rsblt	lr, lr, #0	@ tmp8544, tmp8543
	ldrb	r0, [r6, #2315]	@ zero_extendqisi2	@ <variable>.Pix, <variable>.Pix
	cmp	ip, #2	@ tmp8551,
	movle	r1, #0	@, tmp8553
	movgt	r1, #1	@, tmp8553
	ldrb	r3, [sp, #15]	@ zero_extendqisi2	@ SmpPat.Pix, SmpPat.Pix
	cmp	lr, #2	@ tmp8544,
	addgt	r1, r1, #1	@,, MisCnt.7325, tmp8553
	cmp	sl, #0	@ tmp8557,
	ldrb	ip, [r6, #2316]	@ zero_extendqisi2	@ <variable>.Pix, <variable>.Pix
	rsb	r3, r3, r0	@ tmp8564, SmpPat.Pix, <variable>.Pix
	rsblt	sl, sl, #0	@ tmp8558, tmp8557
	ldrb	r9, [sp, #16]	@ zero_extendqisi2	@ SmpPat.Pix, SmpPat.Pix
	cmp	sl, #2	@ tmp8558,
	movle	r7, r1	@, MisCnt.7333, MisCnt.7325
	addgt	r7, r1, #1	@,, MisCnt.7333, MisCnt.7325
	cmp	r3, #0	@ tmp8564,
	ldrb	r0, [r6, #2317]	@ zero_extendqisi2	@ <variable>.Pix, <variable>.Pix
	rsb	sl, r9, ip	@ tmp8571, SmpPat.Pix, <variable>.Pix
	rsblt	r3, r3, #0	@ tmp8565, tmp8564
	ldrb	r1, [sp, #17]	@ zero_extendqisi2	@ SmpPat.Pix, SmpPat.Pix
	cmp	r3, #2	@ tmp8565,
	movle	r2, r7	@, MisCnt.7341, MisCnt.7333
	addgt	r2, r7, #1	@,, MisCnt.7341, MisCnt.7333
	cmp	sl, #0	@ tmp8571,
	ldrb	r9, [sp, #18]	@ zero_extendqisi2	@ SmpPat.Pix, SmpPat.Pix
	rsb	r7, r1, r0	@ tmp8578, SmpPat.Pix, <variable>.Pix
	rsblt	sl, sl, #0	@ tmp8572, tmp8571
	ldrb	lr, [r6, #2318]	@ zero_extendqisi2	@ <variable>.Pix, <variable>.Pix
	cmp	sl, #2	@ tmp8572,
	movle	ip, r2	@, MisCnt.7349, MisCnt.7341
	addgt	ip, r2, #1	@,, MisCnt.7349, MisCnt.7341
	cmp	r7, #0	@ tmp8578,
	ldrb	r0, [r6, #2319]	@ zero_extendqisi2	@ <variable>.Pix, <variable>.Pix
	rsb	r2, r9, lr	@ tmp8585, SmpPat.Pix, <variable>.Pix
	rsblt	r7, r7, #0	@ tmp8579, tmp8578
	ldrb	r3, [sp, #19]	@ zero_extendqisi2	@ SmpPat.Pix, SmpPat.Pix
	cmp	r7, #2	@ tmp8579,
	movle	r1, ip	@, MisCnt.7357, MisCnt.7349
	addgt	r1, ip, #1	@,, MisCnt.7357, MisCnt.7349
	cmp	r2, #0	@ tmp8585,
	rsb	r9, r3, r0	@ tmp8592, SmpPat.Pix, <variable>.Pix
	rsblt	r2, r2, #0	@ tmp8586, tmp8585
	cmp	r2, #2	@ tmp8586,
	movle	sl, r1	@, MisCnt.7365, MisCnt.7357
	addgt	sl, r1, #1	@,, MisCnt.7365, MisCnt.7357
	cmp	r9, #0	@ tmp8592,
	rsblt	r9, r9, #0	@ tmp8593, tmp8592
	cmp	r9, #2	@ tmp8593,
	movle	r7, sl	@, tmp8596, MisCnt.7365
	addgt	r7, sl, #1	@,, tmp8596, MisCnt.7365
	cmp	r7, #2	@ tmp8596,
	bgt	.L51	@,
	ldr	r7, [r6, #2320]	@ <variable>.Comp, <variable>.Comp
	mov	r0, sp	@,
	ldr	r2, [r6, #2324]	@ <variable>.Px, <variable>.Px
	mov	r1, r5	@, pDetPara
	ldr	lr, [r6, #2328]	@ <variable>.Py, <variable>.Py
	str	r7, [sp, #0]	@ <variable>.Comp, SmpPat.Comp
	mov	r7, r6	@ tmp8597, tmp12191
	stmib	sp, {r2, lr}	@ phole stm
	bl	GetSample	@
	ldrb	ip, [r6, #2333]	@ zero_extendqisi2	@ <variable>.Pix, <variable>.Pix
	ldrb	sl, [sp, #13]	@ zero_extendqisi2	@ SmpPat.Pix, SmpPat.Pix
	ldrb	r9, [r6, #2332]	@ zero_extendqisi2	@ <variable>.Pix, <variable>.Pix
	ldrb	r1, [sp, #12]	@ zero_extendqisi2	@ SmpPat.Pix, SmpPat.Pix
	rsb	r3, sl, ip	@ tmp8614, SmpPat.Pix, <variable>.Pix
	cmp	r3, #0	@ tmp8614,
	ldrb	r2, [sp, #14]	@ zero_extendqisi2	@ SmpPat.Pix, SmpPat.Pix
	rsb	lr, r1, r9	@ tmp8607, SmpPat.Pix, <variable>.Pix
	ldrb	r0, [r6, #2334]	@ zero_extendqisi2	@ <variable>.Pix, <variable>.Pix
	rsblt	r3, r3, #0	@ tmp8615, tmp8614
	cmp	lr, #0	@ tmp8607,
	rsb	r0, r2, r0	@ tmp8621, SmpPat.Pix, <variable>.Pix
	rsblt	lr, lr, #0	@ tmp8608, tmp8607
	ldrb	ip, [sp, #15]	@ zero_extendqisi2	@ SmpPat.Pix, SmpPat.Pix
	cmp	r3, #2	@ tmp8615,
	movle	r9, #0	@, tmp8617
	movgt	r9, #1	@, tmp8617
	ldrb	sl, [r6, #2335]	@ zero_extendqisi2	@ <variable>.Pix, <variable>.Pix
	cmp	lr, #2	@ tmp8608,
	addgt	r9, r9, #1	@,, MisCnt.7391, tmp8617
	cmp	r0, #0	@ tmp8621,
	ldrb	r1, [r6, #2336]	@ zero_extendqisi2	@ <variable>.Pix, <variable>.Pix
	rsb	sl, ip, sl	@ tmp8628, SmpPat.Pix, <variable>.Pix
	rsblt	r0, r0, #0	@ tmp8622, tmp8621
	ldrb	r2, [sp, #16]	@ zero_extendqisi2	@ SmpPat.Pix, SmpPat.Pix
	cmp	r0, #2	@ tmp8622,
	addgt	r9, r9, #1	@,, MisCnt.7399, MisCnt.7391
	cmp	sl, #0	@ tmp8628,
	ldrb	r0, [sp, #17]	@ zero_extendqisi2	@ SmpPat.Pix, SmpPat.Pix
	rsb	r2, r2, r1	@ tmp8635, SmpPat.Pix, <variable>.Pix
	rsblt	sl, sl, #0	@ tmp8629, tmp8628
	ldrb	ip, [r6, #2337]	@ zero_extendqisi2	@ <variable>.Pix, <variable>.Pix
	cmp	sl, #2	@ tmp8629,
	addgt	r9, r9, #1	@,, MisCnt.7407, MisCnt.7399
	cmp	r2, #0	@ tmp8635,
	ldrb	lr, [r6, #2338]	@ zero_extendqisi2	@ <variable>.Pix, <variable>.Pix
	rsb	ip, r0, ip	@ tmp8642, SmpPat.Pix, <variable>.Pix
	rsblt	r2, r2, #0	@ tmp8636, tmp8635
	ldrb	r1, [sp, #18]	@ zero_extendqisi2	@ SmpPat.Pix, SmpPat.Pix
	cmp	r2, #2	@ tmp8636,
	addgt	r9, r9, #1	@,, MisCnt.7415, MisCnt.7407
	cmp	ip, #0	@ tmp8642,
	ldrb	r0, [r6, #2339]	@ zero_extendqisi2	@ <variable>.Pix, <variable>.Pix
	rsblt	ip, ip, #0	@ tmp8643, tmp8642
	rsb	sl, r1, lr	@ tmp8649, SmpPat.Pix, <variable>.Pix
	ldrb	r2, [sp, #19]	@ zero_extendqisi2	@ SmpPat.Pix, SmpPat.Pix
	cmp	ip, #2	@ tmp8643,
	addgt	r9, r9, #1	@,, MisCnt.7423, MisCnt.7415
	cmp	sl, #0	@ tmp8649,
	rsb	ip, r2, r0	@ tmp8656, SmpPat.Pix, <variable>.Pix
	rsblt	sl, sl, #0	@ tmp8650, tmp8649
	cmp	sl, #2	@ tmp8650,
	addgt	r9, r9, #1	@,, MisCnt.7431, MisCnt.7423
	cmp	ip, #0	@ tmp8656,
	rsblt	ip, ip, #0	@ tmp8657, tmp8656
	cmp	ip, #2	@ tmp8657,
	addgt	r9, r9, #1	@,, tmp8660, MisCnt.7431
	cmp	r9, #2	@ tmp8660,
	bgt	.L51	@,
	ldr	r2, [r6, #2340]	@ <variable>.Comp, <variable>.Comp
	mov	r0, sp	@,
	ldr	r9, [r6, #2344]	@ <variable>.Px, <variable>.Px
	mov	r1, r5	@, pDetPara
	ldr	lr, [r6, #2348]	@ <variable>.Py, <variable>.Py
	stmia	sp, {r2, r9, lr}	@ phole stm
	bl	GetSample	@
	ldrb	ip, [r6, #2353]	@ zero_extendqisi2	@ <variable>.Pix, <variable>.Pix
	ldrb	sl, [sp, #13]	@ zero_extendqisi2	@ SmpPat.Pix, SmpPat.Pix
	ldrb	r0, [r6, #2352]	@ zero_extendqisi2	@ <variable>.Pix, <variable>.Pix
	ldrb	r1, [sp, #12]	@ zero_extendqisi2	@ SmpPat.Pix, SmpPat.Pix
	rsb	r3, sl, ip	@ tmp8678, SmpPat.Pix, <variable>.Pix
	cmp	r3, #0	@ tmp8678,
	ldrb	r9, [r6, #2354]	@ zero_extendqisi2	@ <variable>.Pix, <variable>.Pix
	rsb	lr, r1, r0	@ tmp8671, SmpPat.Pix, <variable>.Pix
	ldrb	r2, [sp, #14]	@ zero_extendqisi2	@ SmpPat.Pix, SmpPat.Pix
	rsblt	r3, r3, #0	@ tmp8679, tmp8678
	cmp	lr, #0	@ tmp8671,
	rsb	r0, r2, r9	@ tmp8685, SmpPat.Pix, <variable>.Pix
	rsblt	lr, lr, #0	@ tmp8672, tmp8671
	ldrb	ip, [sp, #15]	@ zero_extendqisi2	@ SmpPat.Pix, SmpPat.Pix
	cmp	r3, #2	@ tmp8679,
	movle	r3, #0	@, tmp8681
	movgt	r3, #1	@, tmp8681
	ldrb	sl, [r6, #2355]	@ zero_extendqisi2	@ <variable>.Pix, <variable>.Pix
	cmp	lr, #2	@ tmp8672,
	addgt	r3, r3, #1	@,, MisCnt.7457, tmp8681
	cmp	r0, #0	@ tmp8685,
	ldrb	r1, [r6, #2356]	@ zero_extendqisi2	@ <variable>.Pix, <variable>.Pix
	rsb	sl, ip, sl	@ tmp8692, SmpPat.Pix, <variable>.Pix
	rsblt	r0, r0, #0	@ tmp8686, tmp8685
	ldrb	r9, [sp, #16]	@ zero_extendqisi2	@ SmpPat.Pix, SmpPat.Pix
	cmp	r0, #2	@ tmp8686,
	addgt	r3, r3, #1	@,, MisCnt.7465, MisCnt.7457
	cmp	sl, #0	@ tmp8692,
	ldrb	r0, [sp, #17]	@ zero_extendqisi2	@ SmpPat.Pix, SmpPat.Pix
	rsb	r2, r9, r1	@ tmp8699, SmpPat.Pix, <variable>.Pix
	rsblt	sl, sl, #0	@ tmp8693, tmp8692
	ldrb	ip, [r6, #2357]	@ zero_extendqisi2	@ <variable>.Pix, <variable>.Pix
	cmp	sl, #2	@ tmp8693,
	addgt	r3, r3, #1	@,, MisCnt.7473, MisCnt.7465
	cmp	r2, #0	@ tmp8699,
	ldrb	r9, [sp, #18]	@ zero_extendqisi2	@ SmpPat.Pix, SmpPat.Pix
	rsb	ip, r0, ip	@ tmp8706, SmpPat.Pix, <variable>.Pix
	rsblt	r2, r2, #0	@ tmp8700, tmp8699
	ldrb	lr, [r6, #2358]	@ zero_extendqisi2	@ <variable>.Pix, <variable>.Pix
	cmp	r2, #2	@ tmp8700,
	addgt	r3, r3, #1	@,, MisCnt.7481, MisCnt.7473
	cmp	ip, #0	@ tmp8706,
	ldrb	r0, [r6, #2359]	@ zero_extendqisi2	@ <variable>.Pix, <variable>.Pix
	rsb	r1, r9, lr	@ tmp8713, SmpPat.Pix, <variable>.Pix
	rsblt	ip, ip, #0	@ tmp8707, tmp8706
	ldrb	sl, [sp, #19]	@ zero_extendqisi2	@ SmpPat.Pix, SmpPat.Pix
	cmp	ip, #2	@ tmp8707,
	addgt	r3, r3, #1	@,, MisCnt.7489, MisCnt.7481
	cmp	r1, #0	@ tmp8713,
	rsb	r9, sl, r0	@ tmp8720, SmpPat.Pix, <variable>.Pix
	rsblt	r1, r1, #0	@ tmp8714, tmp8713
	cmp	r1, #2	@ tmp8714,
	addgt	r3, r3, #1	@,, MisCnt.7497, MisCnt.7489
	cmp	r9, #0	@ tmp8720,
	rsblt	r9, r9, #0	@ tmp8721, tmp8720
	cmp	r9, #2	@ tmp8721,
	addgt	r3, r3, #1	@,, tmp8724, MisCnt.7497
	cmp	r3, #2	@ tmp8724,
	bgt	.L51	@,
	ldr	r2, [r6, #2360]	@ <variable>.Comp, <variable>.Comp
	mov	r0, sp	@,
	ldr	sl, [r6, #2364]	@ <variable>.Px, <variable>.Px
	mov	r1, r5	@, pDetPara
	ldr	lr, [r6, #2368]	@ <variable>.Py, <variable>.Py
	stmia	sp, {r2, sl, lr}	@ phole stm
	bl	GetSample	@
	ldrb	ip, [r6, #2373]	@ zero_extendqisi2	@ <variable>.Pix, <variable>.Pix
	ldrb	r9, [sp, #13]	@ zero_extendqisi2	@ SmpPat.Pix, SmpPat.Pix
	ldrb	r0, [r6, #2372]	@ zero_extendqisi2	@ <variable>.Pix, <variable>.Pix
	ldrb	r1, [sp, #12]	@ zero_extendqisi2	@ SmpPat.Pix, SmpPat.Pix
	rsb	r3, r9, ip	@ tmp8742, SmpPat.Pix, <variable>.Pix
	cmp	r3, #0	@ tmp8742,
	ldrb	sl, [r6, #2374]	@ zero_extendqisi2	@ <variable>.Pix, <variable>.Pix
	rsb	lr, r1, r0	@ tmp8735, SmpPat.Pix, <variable>.Pix
	ldrb	r2, [sp, #14]	@ zero_extendqisi2	@ SmpPat.Pix, SmpPat.Pix
	rsblt	r3, r3, #0	@ tmp8743, tmp8742
	cmp	lr, #0	@ tmp8735,
	rsb	r0, r2, sl	@ tmp8749, SmpPat.Pix, <variable>.Pix
	rsblt	lr, lr, #0	@ tmp8736, tmp8735
	ldrb	r9, [r6, #2375]	@ zero_extendqisi2	@ <variable>.Pix, <variable>.Pix
	cmp	r3, #2	@ tmp8743,
	movle	r3, #0	@, tmp8745
	movgt	r3, #1	@, tmp8745
	ldrb	ip, [sp, #15]	@ zero_extendqisi2	@ SmpPat.Pix, SmpPat.Pix
	cmp	lr, #2	@ tmp8736,
	addgt	r3, r3, #1	@,, MisCnt.7523, tmp8745
	cmp	r0, #0	@ tmp8749,
	ldrb	r1, [r6, #2376]	@ zero_extendqisi2	@ <variable>.Pix, <variable>.Pix
	rsb	sl, ip, r9	@ tmp8756, SmpPat.Pix, <variable>.Pix
	rsblt	r0, r0, #0	@ tmp8750, tmp8749
	ldrb	r2, [sp, #16]	@ zero_extendqisi2	@ SmpPat.Pix, SmpPat.Pix
	cmp	r0, #2	@ tmp8750,
	addgt	r3, r3, #1	@,, MisCnt.7531, MisCnt.7523
	cmp	sl, #0	@ tmp8756,
	ldrb	r9, [r6, #2377]	@ zero_extendqisi2	@ <variable>.Pix, <variable>.Pix
	rsb	r2, r2, r1	@ tmp8763, SmpPat.Pix, <variable>.Pix
	rsblt	sl, sl, #0	@ tmp8757, tmp8756
	ldrb	r0, [sp, #17]	@ zero_extendqisi2	@ SmpPat.Pix, SmpPat.Pix
	cmp	sl, #2	@ tmp8757,
	addgt	r3, r3, #1	@,, MisCnt.7539, MisCnt.7531
	cmp	r2, #0	@ tmp8763,
	ldrb	lr, [r6, #2378]	@ zero_extendqisi2	@ <variable>.Pix, <variable>.Pix
	rsb	ip, r0, r9	@ tmp8770, SmpPat.Pix, <variable>.Pix
	rsblt	r2, r2, #0	@ tmp8764, tmp8763
	ldrb	r1, [sp, #18]	@ zero_extendqisi2	@ SmpPat.Pix, SmpPat.Pix
	cmp	r2, #2	@ tmp8764,
	addgt	r3, r3, #1	@,, MisCnt.7547, MisCnt.7539
	cmp	ip, #0	@ tmp8770,
	ldrb	r0, [r6, #2379]	@ zero_extendqisi2	@ <variable>.Pix, <variable>.Pix
	rsb	r1, r1, lr	@ tmp8777, SmpPat.Pix, <variable>.Pix
	rsblt	ip, ip, #0	@ tmp8771, tmp8770
	ldrb	r9, [sp, #19]	@ zero_extendqisi2	@ SmpPat.Pix, SmpPat.Pix
	cmp	ip, #2	@ tmp8771,
	addgt	r3, r3, #1	@,, MisCnt.7555, MisCnt.7547
	cmp	r1, #0	@ tmp8777,
	rsb	sl, r9, r0	@ tmp8784, SmpPat.Pix, <variable>.Pix
	rsblt	r1, r1, #0	@ tmp8778, tmp8777
	cmp	r1, #2	@ tmp8778,
	addgt	r3, r3, #1	@,, MisCnt.7563, MisCnt.7555
	cmp	sl, #0	@ tmp8784,
	rsblt	sl, sl, #0	@ tmp8785, tmp8784
	cmp	sl, #2	@ tmp8785,
	addgt	r3, r3, #1	@,, tmp8788, MisCnt.7563
	cmp	r3, #2	@ tmp8788,
	bgt	.L51	@,
	ldr	r3, [r6, #2380]	@ <variable>.Comp, <variable>.Comp
	mov	r0, sp	@,
	ldr	r2, [r6, #2384]	@ <variable>.Px, <variable>.Px
	mov	r1, r5	@, pDetPara
	ldr	lr, [r6, #2388]	@ <variable>.Py, <variable>.Py
	str	r3, [sp, #0]	@ <variable>.Comp, SmpPat.Comp
	stmib	sp, {r2, lr}	@ phole stm
	bl	GetSample	@
	ldrb	sl, [r6, #2393]	@ zero_extendqisi2	@ <variable>.Pix, <variable>.Pix
	ldrb	ip, [sp, #13]	@ zero_extendqisi2	@ SmpPat.Pix, SmpPat.Pix
	ldrb	r9, [r6, #2392]	@ zero_extendqisi2	@ <variable>.Pix, <variable>.Pix
	ldrb	r1, [sp, #12]	@ zero_extendqisi2	@ SmpPat.Pix, SmpPat.Pix
	rsb	r3, ip, sl	@ tmp8806, SmpPat.Pix, <variable>.Pix
	cmp	r3, #0	@ tmp8806,
	ldrb	r2, [sp, #14]	@ zero_extendqisi2	@ SmpPat.Pix, SmpPat.Pix
	rsb	sl, r1, r9	@ tmp8799, SmpPat.Pix, <variable>.Pix
	ldrb	r0, [r6, #2394]	@ zero_extendqisi2	@ <variable>.Pix, <variable>.Pix
	rsblt	r3, r3, #0	@ tmp8807, tmp8806
	cmp	sl, #0	@ tmp8799,
	rsb	r0, r2, r0	@ tmp8813, SmpPat.Pix, <variable>.Pix
	rsblt	sl, sl, #0	@ tmp8800, tmp8799
	ldrb	ip, [sp, #15]	@ zero_extendqisi2	@ SmpPat.Pix, SmpPat.Pix
	cmp	r3, #2	@ tmp8807,
	movle	r3, #0	@, tmp8809
	movgt	r3, #1	@, tmp8809
	ldrb	r9, [r6, #2395]	@ zero_extendqisi2	@ <variable>.Pix, <variable>.Pix
	cmp	sl, #2	@ tmp8800,
	addgt	r3, r3, #1	@,, MisCnt.2354, tmp8809
	cmp	r0, #0	@ tmp8813,
	ldrb	r1, [r6, #2396]	@ zero_extendqisi2	@ <variable>.Pix, <variable>.Pix
	rsb	r9, ip, r9	@ tmp8820, SmpPat.Pix, <variable>.Pix
	rsblt	r0, r0, #0	@ tmp8814, tmp8813
	ldrb	r2, [sp, #16]	@ zero_extendqisi2	@ SmpPat.Pix, SmpPat.Pix
	cmp	r0, #2	@ tmp8814,
	addgt	r3, r3, #1	@,, MisCnt.2363, MisCnt.2354
	cmp	r9, #0	@ tmp8820,
	ldrb	r0, [sp, #17]	@ zero_extendqisi2	@ SmpPat.Pix, SmpPat.Pix
	rsb	r2, r2, r1	@ tmp8827, SmpPat.Pix, <variable>.Pix
	rsblt	r9, r9, #0	@ tmp8821, tmp8820
	ldrb	ip, [r6, #2397]	@ zero_extendqisi2	@ <variable>.Pix, <variable>.Pix
	cmp	r9, #2	@ tmp8821,
	addgt	r3, r3, #1	@,, MisCnt.2371, MisCnt.2363
	cmp	r2, #0	@ tmp8827,
	ldrb	sl, [r6, #2398]	@ zero_extendqisi2	@ <variable>.Pix, <variable>.Pix
	rsb	ip, r0, ip	@ tmp8834, SmpPat.Pix, <variable>.Pix
	rsblt	r2, r2, #0	@ tmp8828, tmp8827
	ldrb	r1, [sp, #18]	@ zero_extendqisi2	@ SmpPat.Pix, SmpPat.Pix
	cmp	r2, #2	@ tmp8828,
	addgt	r3, r3, #1	@,, MisCnt.2379, MisCnt.2371
	cmp	ip, #0	@ tmp8834,
	ldrb	r0, [r6, #2399]	@ zero_extendqisi2	@ <variable>.Pix, <variable>.Pix
	rsblt	ip, ip, #0	@ tmp8835, tmp8834
	rsb	r1, r1, sl	@ tmp8841, SmpPat.Pix, <variable>.Pix
	ldrb	r2, [sp, #19]	@ zero_extendqisi2	@ SmpPat.Pix, SmpPat.Pix
	cmp	ip, #2	@ tmp8835,
	addgt	r3, r3, #1	@,, MisCnt.2387, MisCnt.2379
	cmp	r1, #0	@ tmp8841,
	rsb	ip, r2, r0	@ tmp8848, SmpPat.Pix, <variable>.Pix
	rsblt	r1, r1, #0	@ tmp8842, tmp8841
	cmp	r1, #2	@ tmp8842,
	addgt	r3, r3, #1	@,, MisCnt.2395, MisCnt.2387
	cmp	ip, #0	@ tmp8848,
	rsblt	ip, ip, #0	@ tmp8849, tmp8848
	cmp	ip, #2	@ tmp8849,
	addgt	r3, r3, #1	@,, tmp8852, MisCnt.2395
	cmp	r3, #2	@ tmp8852,
	movle	r0, #24	@ Result,
	ble	.L18	@,
.L51:
	ldr	ip, [r6, #2400]	@ <variable>.Comp, <variable>.Comp
	mov	r0, sp	@,
	ldr	r2, [r6, #2404]	@ <variable>.Px, <variable>.Px
	mov	r1, r5	@, pDetPara
	ldr	lr, [r6, #2408]	@ <variable>.Py, <variable>.Py
	movw	r7, #:lower16:.LANCHOR0	@ tmp8853,
	str	ip, [sp, #0]	@ <variable>.Comp, SmpPat.Comp
	movt	r7, #:upper16:.LANCHOR0	@ tmp8853,
	stmib	sp, {r2, lr}	@ phole stm
	bl	GetSample	@
	ldrb	sl, [r6, #2413]	@ zero_extendqisi2	@ <variable>.Pix, <variable>.Pix
	ldrb	r3, [sp, #13]	@ zero_extendqisi2	@ SmpPat.Pix, SmpPat.Pix
	ldrb	r9, [r6, #2412]	@ zero_extendqisi2	@ <variable>.Pix, <variable>.Pix
	ldrb	r0, [sp, #12]	@ zero_extendqisi2	@ SmpPat.Pix, SmpPat.Pix
	rsb	r1, r3, sl	@ tmp8870, SmpPat.Pix, <variable>.Pix
	cmp	r1, #0	@ tmp8870,
	ldrb	r2, [r6, #2414]	@ zero_extendqisi2	@ <variable>.Pix, <variable>.Pix
	rsb	sl, r0, r9	@ tmp8863, SmpPat.Pix, <variable>.Pix
	ldrb	ip, [sp, #14]	@ zero_extendqisi2	@ SmpPat.Pix, SmpPat.Pix
	rsblt	r1, r1, #0	@ tmp8871, tmp8870
	cmp	sl, #0	@ tmp8863,
	rsb	r3, ip, r2	@ tmp8877, SmpPat.Pix, <variable>.Pix
	rsblt	sl, sl, #0	@ tmp8864, tmp8863
	ldrb	r0, [sp, #15]	@ zero_extendqisi2	@ SmpPat.Pix, SmpPat.Pix
	cmp	r1, #2	@ tmp8871,
	movle	r1, #0	@, tmp8873
	movgt	r1, #1	@, tmp8873
	ldrb	r9, [r6, #2415]	@ zero_extendqisi2	@ <variable>.Pix, <variable>.Pix
	cmp	sl, #2	@ tmp8864,
	addgt	r1, r1, #1	@,, MisCnt.7589, tmp8873
	cmp	r3, #0	@ tmp8877,
	ldrb	r2, [sp, #16]	@ zero_extendqisi2	@ SmpPat.Pix, SmpPat.Pix
	rsb	r9, r0, r9	@ tmp8884, SmpPat.Pix, <variable>.Pix
	rsblt	r3, r3, #0	@ tmp8878, tmp8877
	ldrb	ip, [r6, #2416]	@ zero_extendqisi2	@ <variable>.Pix, <variable>.Pix
	cmp	r3, #2	@ tmp8878,
	movle	r3, r1	@, MisCnt.7597, MisCnt.7589
	addgt	r3, r1, #1	@,, MisCnt.7597, MisCnt.7589
	cmp	r9, #0	@ tmp8884,
	ldrb	r0, [r6, #2417]	@ zero_extendqisi2	@ <variable>.Pix, <variable>.Pix
	rsb	ip, r2, ip	@ tmp8891, SmpPat.Pix, <variable>.Pix
	rsblt	r9, r9, #0	@ tmp8885, tmp8884
	ldrb	r1, [sp, #17]	@ zero_extendqisi2	@ SmpPat.Pix, SmpPat.Pix
	cmp	r9, #2	@ tmp8885,
	addgt	r3, r3, #1	@,, MisCnt.7605, MisCnt.7597
	cmp	ip, #0	@ tmp8891,
	ldrb	sl, [r6, #2418]	@ zero_extendqisi2	@ <variable>.Pix, <variable>.Pix
	rsb	r1, r1, r0	@ tmp8898, SmpPat.Pix, <variable>.Pix
	rsblt	ip, ip, #0	@ tmp8892, tmp8891
	ldrb	r2, [sp, #18]	@ zero_extendqisi2	@ SmpPat.Pix, SmpPat.Pix
	cmp	ip, #2	@ tmp8892,
	movle	ip, r3	@, MisCnt.7613, MisCnt.7605
	addgt	ip, r3, #1	@,, MisCnt.7613, MisCnt.7605
	cmp	r1, #0	@ tmp8898,
	ldrb	r0, [r6, #2419]	@ zero_extendqisi2	@ <variable>.Pix, <variable>.Pix
	rsb	r2, r2, sl	@ tmp8905, SmpPat.Pix, <variable>.Pix
	rsblt	r1, r1, #0	@ tmp8899, tmp8898
	ldrb	r3, [sp, #19]	@ zero_extendqisi2	@ SmpPat.Pix, SmpPat.Pix
	cmp	r1, #2	@ tmp8899,
	movle	r1, ip	@, MisCnt.7621, MisCnt.7613
	addgt	r1, ip, #1	@,, MisCnt.7621, MisCnt.7613
	cmp	r2, #0	@ tmp8905,
	rsb	ip, r3, r0	@ tmp8912, SmpPat.Pix, <variable>.Pix
	rsblt	r2, r2, #0	@ tmp8906, tmp8905
	cmp	r2, #2	@ tmp8906,
	movle	r2, r1	@, MisCnt.7629, MisCnt.7621
	addgt	r2, r1, #1	@,, MisCnt.7629, MisCnt.7621
	cmp	ip, #0	@ tmp8912,
	rsblt	ip, ip, #0	@ tmp8913, tmp8912
	cmp	ip, #2	@ tmp8913,
	movle	r0, r2	@, tmp8916, MisCnt.7629
	addgt	r0, r2, #1	@,, tmp8916, MisCnt.7629
	cmp	r0, #2	@ tmp8916,
	bgt	.L50	@,
	ldr	ip, [r7, #2420]	@ <variable>.Comp, <variable>.Comp
	mov	r0, sp	@,
	ldr	r2, [r7, #2424]	@ <variable>.Px, <variable>.Px
	mov	r1, r5	@, pDetPara
	ldr	lr, [r7, #2428]	@ <variable>.Py, <variable>.Py
	str	ip, [sp, #0]	@ <variable>.Comp, SmpPat.Comp
	stmib	sp, {r2, lr}	@ phole stm
	bl	GetSample	@
	ldrb	r1, [r7, #2433]	@ zero_extendqisi2	@ <variable>.Pix, <variable>.Pix
	ldrb	r6, [sp, #13]	@ zero_extendqisi2	@ SmpPat.Pix, SmpPat.Pix
	ldrb	r0, [r7, #2432]	@ zero_extendqisi2	@ <variable>.Pix, <variable>.Pix
	ldrb	r3, [sp, #12]	@ zero_extendqisi2	@ SmpPat.Pix, SmpPat.Pix
	rsb	sl, r6, r1	@ tmp8934, SmpPat.Pix, <variable>.Pix
	cmp	sl, #0	@ tmp8934,
	ldrb	ip, [r7, #2434]	@ zero_extendqisi2	@ <variable>.Pix, <variable>.Pix
	rsb	r6, r3, r0	@ tmp8927, SmpPat.Pix, <variable>.Pix
	ldrb	r2, [sp, #14]	@ zero_extendqisi2	@ SmpPat.Pix, SmpPat.Pix
	rsblt	sl, sl, #0	@ tmp8935, tmp8934
	cmp	r6, #0	@ tmp8927,
	rsblt	r6, r6, #0	@ tmp8928, tmp8927
	ldrb	r0, [r7, #2435]	@ zero_extendqisi2	@ <variable>.Pix, <variable>.Pix
	cmp	sl, #2	@ tmp8935,
	movle	r1, #0	@, tmp8937
	movgt	r1, #1	@, tmp8937
	ldrb	r3, [sp, #15]	@ zero_extendqisi2	@ SmpPat.Pix, SmpPat.Pix
	rsb	sl, r2, ip	@ tmp8941, SmpPat.Pix, <variable>.Pix
	cmp	r6, #2	@ tmp8928,
	addgt	r1, r1, #1	@,, MisCnt.7655, tmp8937
	cmp	sl, #0	@ tmp8941,
	rsb	r3, r3, r0	@ tmp8948, SmpPat.Pix, <variable>.Pix
	ldrb	r2, [sp, #16]	@ zero_extendqisi2	@ SmpPat.Pix, SmpPat.Pix
	rsblt	sl, sl, #0	@ tmp8942, tmp8941
	ldrb	ip, [r7, #2436]	@ zero_extendqisi2	@ <variable>.Pix, <variable>.Pix
	cmp	sl, #2	@ tmp8942,
	movle	sl, r1	@, MisCnt.7663, MisCnt.7655
	addgt	sl, r1, #1	@,, MisCnt.7663, MisCnt.7655
	cmp	r3, #0	@ tmp8948,
	ldrb	r0, [r7, #2437]	@ zero_extendqisi2	@ <variable>.Pix, <variable>.Pix
	rsb	ip, r2, ip	@ tmp8955, SmpPat.Pix, <variable>.Pix
	rsblt	r3, r3, #0	@ tmp8949, tmp8948
	ldrb	r1, [sp, #17]	@ zero_extendqisi2	@ SmpPat.Pix, SmpPat.Pix
	cmp	r3, #2	@ tmp8949,
	movle	r3, sl	@, MisCnt.7671, MisCnt.7663
	addgt	r3, sl, #1	@,, MisCnt.7671, MisCnt.7663
	cmp	ip, #0	@ tmp8955,
	ldrb	r6, [r7, #2438]	@ zero_extendqisi2	@ <variable>.Pix, <variable>.Pix
	rsb	r1, r1, r0	@ tmp8962, SmpPat.Pix, <variable>.Pix
	rsblt	ip, ip, #0	@ tmp8956, tmp8955
	ldrb	r2, [sp, #18]	@ zero_extendqisi2	@ SmpPat.Pix, SmpPat.Pix
	cmp	ip, #2	@ tmp8956,
	movle	ip, r3	@, MisCnt.7679, MisCnt.7671
	addgt	ip, r3, #1	@,, MisCnt.7679, MisCnt.7671
	cmp	r1, #0	@ tmp8962,
	ldrb	r0, [r7, #2439]	@ zero_extendqisi2	@ <variable>.Pix, <variable>.Pix
	rsb	r2, r2, r6	@ tmp8969, SmpPat.Pix, <variable>.Pix
	rsblt	r1, r1, #0	@ tmp8963, tmp8962
	ldrb	r3, [sp, #19]	@ zero_extendqisi2	@ SmpPat.Pix, SmpPat.Pix
	cmp	r1, #2	@ tmp8963,
	movle	r1, ip	@, MisCnt.7687, MisCnt.7679
	addgt	r1, ip, #1	@,, MisCnt.7687, MisCnt.7679
	cmp	r2, #0	@ tmp8969,
	rsb	r3, r3, r0	@ tmp8976, SmpPat.Pix, <variable>.Pix
	rsblt	r2, r2, #0	@ tmp8970, tmp8969
	cmp	r2, #2	@ tmp8970,
	movle	r0, r1	@, MisCnt.7695, MisCnt.7687
	addgt	r0, r1, #1	@,, MisCnt.7695, MisCnt.7687
	cmp	r3, #0	@ tmp8976,
	rsblt	r3, r3, #0	@ tmp8977, tmp8976
	cmp	r3, #2	@ tmp8977,
	movle	r1, r0	@, tmp8980, MisCnt.7695
	addgt	r1, r0, #1	@,, tmp8980, MisCnt.7695
	cmp	r1, #2	@ tmp8980,
	bgt	.L50	@,
	ldr	r3, [r7, #2440]	@ <variable>.Comp, <variable>.Comp
	mov	r0, sp	@,
	ldr	r2, [r7, #2444]	@ <variable>.Px, <variable>.Px
	mov	r1, r5	@, pDetPara
	ldr	lr, [r7, #2448]	@ <variable>.Py, <variable>.Py
	str	r3, [sp, #0]	@ <variable>.Comp, SmpPat.Comp
	stmib	sp, {r2, lr}	@ phole stm
	bl	GetSample	@
	ldrb	r6, [r7, #2453]	@ zero_extendqisi2	@ <variable>.Pix, <variable>.Pix
	ldrb	ip, [sp, #13]	@ zero_extendqisi2	@ SmpPat.Pix, SmpPat.Pix
	ldrb	sl, [r7, #2452]	@ zero_extendqisi2	@ <variable>.Pix, <variable>.Pix
	ldrb	r1, [sp, #12]	@ zero_extendqisi2	@ SmpPat.Pix, SmpPat.Pix
	rsb	r3, ip, r6	@ tmp8998, SmpPat.Pix, <variable>.Pix
	cmp	r3, #0	@ tmp8998,
	ldrb	r2, [sp, #14]	@ zero_extendqisi2	@ SmpPat.Pix, SmpPat.Pix
	rsb	r6, r1, sl	@ tmp8991, SmpPat.Pix, <variable>.Pix
	ldrb	r0, [r7, #2454]	@ zero_extendqisi2	@ <variable>.Pix, <variable>.Pix
	rsblt	r3, r3, #0	@ tmp8999, tmp8998
	cmp	r6, #0	@ tmp8991,
	rsb	r0, r2, r0	@ tmp9005, SmpPat.Pix, <variable>.Pix
	rsblt	r6, r6, #0	@ tmp8992, tmp8991
	ldrb	ip, [sp, #15]	@ zero_extendqisi2	@ SmpPat.Pix, SmpPat.Pix
	cmp	r3, #2	@ tmp8999,
	movle	r3, #0	@, tmp9001
	movgt	r3, #1	@, tmp9001
	ldrb	sl, [r7, #2455]	@ zero_extendqisi2	@ <variable>.Pix, <variable>.Pix
	cmp	r6, #2	@ tmp8992,
	addgt	r3, r3, #1	@,, MisCnt.7721, tmp9001
	cmp	r0, #0	@ tmp9005,
	ldrb	r1, [r7, #2456]	@ zero_extendqisi2	@ <variable>.Pix, <variable>.Pix
	rsb	sl, ip, sl	@ tmp9012, SmpPat.Pix, <variable>.Pix
	rsblt	r0, r0, #0	@ tmp9006, tmp9005
	ldrb	r2, [sp, #16]	@ zero_extendqisi2	@ SmpPat.Pix, SmpPat.Pix
	cmp	r0, #2	@ tmp9006,
	addgt	r3, r3, #1	@,, MisCnt.7729, MisCnt.7721
	cmp	sl, #0	@ tmp9012,
	ldrb	r0, [sp, #17]	@ zero_extendqisi2	@ SmpPat.Pix, SmpPat.Pix
	rsb	r2, r2, r1	@ tmp9019, SmpPat.Pix, <variable>.Pix
	rsblt	sl, sl, #0	@ tmp9013, tmp9012
	ldrb	ip, [r7, #2457]	@ zero_extendqisi2	@ <variable>.Pix, <variable>.Pix
	cmp	sl, #2	@ tmp9013,
	addgt	r3, r3, #1	@,, MisCnt.7737, MisCnt.7729
	cmp	r2, #0	@ tmp9019,
	ldrb	r6, [r7, #2458]	@ zero_extendqisi2	@ <variable>.Pix, <variable>.Pix
	rsb	ip, r0, ip	@ tmp9026, SmpPat.Pix, <variable>.Pix
	rsblt	r2, r2, #0	@ tmp9020, tmp9019
	ldrb	r1, [sp, #18]	@ zero_extendqisi2	@ SmpPat.Pix, SmpPat.Pix
	cmp	r2, #2	@ tmp9020,
	addgt	r3, r3, #1	@,, MisCnt.7745, MisCnt.7737
	cmp	ip, #0	@ tmp9026,
	ldrb	r0, [r7, #2459]	@ zero_extendqisi2	@ <variable>.Pix, <variable>.Pix
	rsb	r1, r1, r6	@ tmp9033, SmpPat.Pix, <variable>.Pix
	rsblt	ip, ip, #0	@ tmp9027, tmp9026
	ldrb	r2, [sp, #19]	@ zero_extendqisi2	@ SmpPat.Pix, SmpPat.Pix
	cmp	ip, #2	@ tmp9027,
	addgt	r3, r3, #1	@,, MisCnt.7753, MisCnt.7745
	cmp	r1, #0	@ tmp9033,
	rsb	r2, r2, r0	@ tmp9040, SmpPat.Pix, <variable>.Pix
	rsblt	r1, r1, #0	@ tmp9034, tmp9033
	cmp	r1, #2	@ tmp9034,
	addgt	r3, r3, #1	@,, MisCnt.7761, MisCnt.7753
	cmp	r2, #0	@ tmp9040,
	rsblt	r2, r2, #0	@ tmp9041, tmp9040
	cmp	r2, #2	@ tmp9041,
	addgt	r3, r3, #1	@,, tmp9044, MisCnt.7761
	cmp	r3, #2	@ tmp9044,
	bgt	.L50	@,
	ldr	r3, [r7, #2460]	@ <variable>.Comp, <variable>.Comp
	mov	r0, sp	@,
	ldr	r2, [r7, #2464]	@ <variable>.Px, <variable>.Px
	mov	r1, r5	@, pDetPara
	ldr	lr, [r7, #2468]	@ <variable>.Py, <variable>.Py
	str	r3, [sp, #0]	@ <variable>.Comp, SmpPat.Comp
	stmib	sp, {r2, lr}	@ phole stm
	bl	GetSample	@
	ldrb	r6, [r7, #2473]	@ zero_extendqisi2	@ <variable>.Pix, <variable>.Pix
	ldrb	ip, [sp, #13]	@ zero_extendqisi2	@ SmpPat.Pix, SmpPat.Pix
	ldrb	sl, [r7, #2472]	@ zero_extendqisi2	@ <variable>.Pix, <variable>.Pix
	ldrb	r1, [sp, #12]	@ zero_extendqisi2	@ SmpPat.Pix, SmpPat.Pix
	rsb	r3, ip, r6	@ tmp9062, SmpPat.Pix, <variable>.Pix
	cmp	r3, #0	@ tmp9062,
	ldrb	r2, [sp, #14]	@ zero_extendqisi2	@ SmpPat.Pix, SmpPat.Pix
	rsb	r6, r1, sl	@ tmp9055, SmpPat.Pix, <variable>.Pix
	ldrb	r0, [r7, #2474]	@ zero_extendqisi2	@ <variable>.Pix, <variable>.Pix
	rsblt	r3, r3, #0	@ tmp9063, tmp9062
	cmp	r6, #0	@ tmp9055,
	rsb	r0, r2, r0	@ tmp9069, SmpPat.Pix, <variable>.Pix
	rsblt	r6, r6, #0	@ tmp9056, tmp9055
	ldrb	ip, [sp, #15]	@ zero_extendqisi2	@ SmpPat.Pix, SmpPat.Pix
	cmp	r3, #2	@ tmp9063,
	movle	r3, #0	@, tmp9065
	movgt	r3, #1	@, tmp9065
	ldrb	sl, [r7, #2475]	@ zero_extendqisi2	@ <variable>.Pix, <variable>.Pix
	cmp	r6, #2	@ tmp9056,
	addgt	r3, r3, #1	@,, MisCnt.7787, tmp9065
	cmp	r0, #0	@ tmp9069,
	ldrb	r1, [r7, #2476]	@ zero_extendqisi2	@ <variable>.Pix, <variable>.Pix
	rsb	sl, ip, sl	@ tmp9076, SmpPat.Pix, <variable>.Pix
	rsblt	r0, r0, #0	@ tmp9070, tmp9069
	ldrb	r2, [sp, #16]	@ zero_extendqisi2	@ SmpPat.Pix, SmpPat.Pix
	cmp	r0, #2	@ tmp9070,
	addgt	r3, r3, #1	@,, MisCnt.7795, MisCnt.7787
	cmp	sl, #0	@ tmp9076,
	ldrb	r0, [sp, #17]	@ zero_extendqisi2	@ SmpPat.Pix, SmpPat.Pix
	rsb	r2, r2, r1	@ tmp9083, SmpPat.Pix, <variable>.Pix
	rsblt	sl, sl, #0	@ tmp9077, tmp9076
	ldrb	ip, [r7, #2477]	@ zero_extendqisi2	@ <variable>.Pix, <variable>.Pix
	cmp	sl, #2	@ tmp9077,
	addgt	r3, r3, #1	@,, MisCnt.7803, MisCnt.7795
	cmp	r2, #0	@ tmp9083,
	ldrb	r6, [r7, #2478]	@ zero_extendqisi2	@ <variable>.Pix, <variable>.Pix
	rsb	ip, r0, ip	@ tmp9090, SmpPat.Pix, <variable>.Pix
	rsblt	r2, r2, #0	@ tmp9084, tmp9083
	ldrb	r1, [sp, #18]	@ zero_extendqisi2	@ SmpPat.Pix, SmpPat.Pix
	cmp	r2, #2	@ tmp9084,
	addgt	r3, r3, #1	@,, MisCnt.7811, MisCnt.7803
	cmp	ip, #0	@ tmp9090,
	ldrb	r0, [r7, #2479]	@ zero_extendqisi2	@ <variable>.Pix, <variable>.Pix
	rsblt	ip, ip, #0	@ tmp9091, tmp9090
	rsb	r1, r1, r6	@ tmp9097, SmpPat.Pix, <variable>.Pix
	ldrb	r2, [sp, #19]	@ zero_extendqisi2	@ SmpPat.Pix, SmpPat.Pix
	cmp	ip, #2	@ tmp9091,
	addgt	r3, r3, #1	@,, MisCnt.7819, MisCnt.7811
	cmp	r1, #0	@ tmp9097,
	rsb	ip, r2, r0	@ tmp9104, SmpPat.Pix, <variable>.Pix
	rsblt	r1, r1, #0	@ tmp9098, tmp9097
	cmp	r1, #2	@ tmp9098,
	addgt	r3, r3, #1	@,, MisCnt.7827, MisCnt.7819
	cmp	ip, #0	@ tmp9104,
	rsblt	ip, ip, #0	@ tmp9105, tmp9104
	cmp	ip, #2	@ tmp9105,
	addgt	r3, r3, #1	@,, tmp9108, MisCnt.7827
	cmp	r3, #2	@ tmp9108,
	bgt	.L50	@,
	ldr	r3, [r7, #2480]	@ <variable>.Comp, <variable>.Comp
	mov	r0, sp	@,
	ldr	r2, [r7, #2484]	@ <variable>.Px, <variable>.Px
	mov	r1, r5	@, pDetPara
	ldr	lr, [r7, #2488]	@ <variable>.Py, <variable>.Py
	str	r3, [sp, #0]	@ <variable>.Comp, SmpPat.Comp
	stmib	sp, {r2, lr}	@ phole stm
	bl	GetSample	@
	ldrb	r6, [r7, #2493]	@ zero_extendqisi2	@ <variable>.Pix, <variable>.Pix
	ldrb	ip, [sp, #13]	@ zero_extendqisi2	@ SmpPat.Pix, SmpPat.Pix
	ldrb	sl, [r7, #2492]	@ zero_extendqisi2	@ <variable>.Pix, <variable>.Pix
	ldrb	r1, [sp, #12]	@ zero_extendqisi2	@ SmpPat.Pix, SmpPat.Pix
	rsb	r3, ip, r6	@ tmp9126, SmpPat.Pix, <variable>.Pix
	cmp	r3, #0	@ tmp9126,
	ldrb	r2, [sp, #14]	@ zero_extendqisi2	@ SmpPat.Pix, SmpPat.Pix
	rsb	r6, r1, sl	@ tmp9119, SmpPat.Pix, <variable>.Pix
	ldrb	r0, [r7, #2494]	@ zero_extendqisi2	@ <variable>.Pix, <variable>.Pix
	rsblt	r3, r3, #0	@ tmp9127, tmp9126
	cmp	r6, #0	@ tmp9119,
	rsb	r0, r2, r0	@ tmp9133, SmpPat.Pix, <variable>.Pix
	rsblt	r6, r6, #0	@ tmp9120, tmp9119
	ldrb	ip, [sp, #15]	@ zero_extendqisi2	@ SmpPat.Pix, SmpPat.Pix
	cmp	r3, #2	@ tmp9127,
	movle	r3, #0	@, tmp9129
	movgt	r3, #1	@, tmp9129
	ldrb	sl, [r7, #2495]	@ zero_extendqisi2	@ <variable>.Pix, <variable>.Pix
	cmp	r6, #2	@ tmp9120,
	addgt	r3, r3, #1	@,, MisCnt.7853, tmp9129
	cmp	r0, #0	@ tmp9133,
	ldrb	r1, [r7, #2496]	@ zero_extendqisi2	@ <variable>.Pix, <variable>.Pix
	rsb	sl, ip, sl	@ tmp9140, SmpPat.Pix, <variable>.Pix
	rsblt	r0, r0, #0	@ tmp9134, tmp9133
	ldrb	r2, [sp, #16]	@ zero_extendqisi2	@ SmpPat.Pix, SmpPat.Pix
	cmp	r0, #2	@ tmp9134,
	addgt	r3, r3, #1	@,, MisCnt.7861, MisCnt.7853
	cmp	sl, #0	@ tmp9140,
	ldrb	r0, [sp, #17]	@ zero_extendqisi2	@ SmpPat.Pix, SmpPat.Pix
	rsb	r2, r2, r1	@ tmp9147, SmpPat.Pix, <variable>.Pix
	rsblt	sl, sl, #0	@ tmp9141, tmp9140
	ldrb	ip, [r7, #2497]	@ zero_extendqisi2	@ <variable>.Pix, <variable>.Pix
	cmp	sl, #2	@ tmp9141,
	addgt	r3, r3, #1	@,, MisCnt.7869, MisCnt.7861
	cmp	r2, #0	@ tmp9147,
	ldrb	r6, [r7, #2498]	@ zero_extendqisi2	@ <variable>.Pix, <variable>.Pix
	rsb	ip, r0, ip	@ tmp9154, SmpPat.Pix, <variable>.Pix
	rsblt	r2, r2, #0	@ tmp9148, tmp9147
	ldrb	r1, [sp, #18]	@ zero_extendqisi2	@ SmpPat.Pix, SmpPat.Pix
	cmp	r2, #2	@ tmp9148,
	addgt	r3, r3, #1	@,, MisCnt.7877, MisCnt.7869
	cmp	ip, #0	@ tmp9154,
	ldrb	r0, [r7, #2499]	@ zero_extendqisi2	@ <variable>.Pix, <variable>.Pix
	rsblt	ip, ip, #0	@ tmp9155, tmp9154
	rsb	r1, r1, r6	@ tmp9161, SmpPat.Pix, <variable>.Pix
	ldrb	r2, [sp, #19]	@ zero_extendqisi2	@ SmpPat.Pix, SmpPat.Pix
	cmp	ip, #2	@ tmp9155,
	addgt	r3, r3, #1	@,, MisCnt.7885, MisCnt.7877
	cmp	r1, #0	@ tmp9161,
	rsb	ip, r2, r0	@ tmp9168, SmpPat.Pix, <variable>.Pix
	rsblt	r1, r1, #0	@ tmp9162, tmp9161
	cmp	r1, #2	@ tmp9162,
	addgt	r3, r3, #1	@,, MisCnt.7893, MisCnt.7885
	cmp	ip, #0	@ tmp9168,
	rsblt	ip, ip, #0	@ tmp9169, tmp9168
	cmp	ip, #2	@ tmp9169,
	addgt	r3, r3, #1	@,, tmp9172, MisCnt.7893
	cmp	r3, #2	@ tmp9172,
	bgt	.L50	@,
	ldr	r3, [r7, #2500]	@ <variable>.Comp, <variable>.Comp
	mov	r1, r5	@, pDetPara
	ldr	r2, [r7, #2504]	@ <variable>.Px, <variable>.Px
	mov	r0, sp	@,
	ldr	lr, [r7, #2508]	@ <variable>.Py, <variable>.Py
	str	r3, [sp, #0]	@ <variable>.Comp, SmpPat.Comp
	stmib	sp, {r2, lr}	@ phole stm
	bl	GetSample	@
	ldrb	r5, [r7, #2513]	@ zero_extendqisi2	@ <variable>.Pix, <variable>.Pix
	ldrb	ip, [sp, #13]	@ zero_extendqisi2	@ SmpPat.Pix, SmpPat.Pix
	ldrb	r6, [r7, #2512]	@ zero_extendqisi2	@ <variable>.Pix, <variable>.Pix
	ldrb	r1, [sp, #12]	@ zero_extendqisi2	@ SmpPat.Pix, SmpPat.Pix
	rsb	r3, ip, r5	@ tmp9190, SmpPat.Pix, <variable>.Pix
	cmp	r3, #0	@ tmp9190,
	ldrb	r2, [sp, #14]	@ zero_extendqisi2	@ SmpPat.Pix, SmpPat.Pix
	rsb	r5, r1, r6	@ tmp9183, SmpPat.Pix, <variable>.Pix
	ldrb	r0, [r7, #2514]	@ zero_extendqisi2	@ <variable>.Pix, <variable>.Pix
	rsblt	r3, r3, #0	@ tmp9191, tmp9190
	cmp	r5, #0	@ tmp9183,
	rsb	r0, r2, r0	@ tmp9197, SmpPat.Pix, <variable>.Pix
	rsblt	r5, r5, #0	@ tmp9184, tmp9183
	ldrb	ip, [sp, #15]	@ zero_extendqisi2	@ SmpPat.Pix, SmpPat.Pix
	cmp	r3, #2	@ tmp9191,
	movle	r3, #0	@, tmp9193
	movgt	r3, #1	@, tmp9193
	ldrb	r6, [r7, #2515]	@ zero_extendqisi2	@ <variable>.Pix, <variable>.Pix
	cmp	r5, #2	@ tmp9184,
	addgt	r3, r3, #1	@,, MisCnt.2415, tmp9193
	cmp	r0, #0	@ tmp9197,
	ldrb	r1, [r7, #2516]	@ zero_extendqisi2	@ <variable>.Pix, <variable>.Pix
	rsb	r6, ip, r6	@ tmp9204, SmpPat.Pix, <variable>.Pix
	rsblt	r0, r0, #0	@ tmp9198, tmp9197
	ldrb	r2, [sp, #16]	@ zero_extendqisi2	@ SmpPat.Pix, SmpPat.Pix
	cmp	r0, #2	@ tmp9198,
	addgt	r3, r3, #1	@,, MisCnt.2426, MisCnt.2415
	cmp	r6, #0	@ tmp9204,
	ldrb	r0, [sp, #17]	@ zero_extendqisi2	@ SmpPat.Pix, SmpPat.Pix
	rsb	r2, r2, r1	@ tmp9211, SmpPat.Pix, <variable>.Pix
	rsblt	r6, r6, #0	@ tmp9205, tmp9204
	ldrb	ip, [r7, #2517]	@ zero_extendqisi2	@ <variable>.Pix, <variable>.Pix
	cmp	r6, #2	@ tmp9205,
	addgt	r3, r3, #1	@,, MisCnt.2437, MisCnt.2426
	cmp	r2, #0	@ tmp9211,
	ldrb	r5, [r7, #2518]	@ zero_extendqisi2	@ <variable>.Pix, <variable>.Pix
	rsb	ip, r0, ip	@ tmp9218, SmpPat.Pix, <variable>.Pix
	rsblt	r2, r2, #0	@ tmp9212, tmp9211
	ldrb	r1, [sp, #18]	@ zero_extendqisi2	@ SmpPat.Pix, SmpPat.Pix
	cmp	r2, #2	@ tmp9212,
	addgt	r3, r3, #1	@,, MisCnt.2445, MisCnt.2437
	cmp	ip, #0	@ tmp9218,
	ldrb	r0, [r7, #2519]	@ zero_extendqisi2	@ <variable>.Pix, <variable>.Pix
	rsblt	ip, ip, #0	@ tmp9219, tmp9218
	rsb	r1, r1, r5	@ tmp9225, SmpPat.Pix, <variable>.Pix
	ldrb	r2, [sp, #19]	@ zero_extendqisi2	@ SmpPat.Pix, SmpPat.Pix
	cmp	ip, #2	@ tmp9219,
	addgt	r3, r3, #1	@,, MisCnt.2454, MisCnt.2445
	cmp	r1, #0	@ tmp9225,
	rsb	ip, r2, r0	@ tmp9232, SmpPat.Pix, <variable>.Pix
	rsblt	r1, r1, #0	@ tmp9226, tmp9225
	cmp	r1, #2	@ tmp9226,
	addgt	r3, r3, #1	@,, MisCnt.2465, MisCnt.2454
	cmp	ip, #0	@ tmp9232,
	rsblt	ip, ip, #0	@ tmp9233, tmp9232
	cmp	ip, #2	@ tmp9233,
	addgt	r3, r3, #1	@,, tmp9236, MisCnt.2465
	cmp	r3, #2	@ tmp9236,
	bgt	.L50	@,
	mov	r0, #10	@ Result,
	b	.L18	@
.L72:
	bl	vfmw_dprint_nothing	@
	mov	r0, r5	@ Result, pDetPara
	b	.L18	@
.L75:
	cmp	r2, #720	@ D.35602,
	beq	.L79	@,
	cmp	r2, #704	@ D.35602,
	bne	.L53	@,
	movw	r6, #:lower16:.LANCHOR0	@ tmp12193,
	movt	r6, #:upper16:.LANCHOR0	@ tmp12193,
	mov	r1, r5	@, pDetPara
	mov	r0, sp	@,
	ldr	r3, [r6, #2520]	@ <variable>.Comp, <variable>.Comp
	mov	r8, sp	@ tmp12194,
	ldr	r2, [r6, #2524]	@ <variable>.Px, <variable>.Px
	ldr	lr, [r6, #2528]	@ <variable>.Py, <variable>.Py
	str	r3, [sp, #0]	@ <variable>.Comp, SmpPat.Comp
	stmib	sp, {r2, lr}	@ phole stm
	bl	GetSample	@
	ldrb	ip, [r6, #2532]	@ zero_extendqisi2	@ <variable>.Pix, <variable>.Pix
	ldrb	r7, [sp, #12]	@ zero_extendqisi2	@ SmpPat.Pix, SmpPat.Pix
	ldrb	sl, [r6, #2533]	@ zero_extendqisi2	@ <variable>.Pix, <variable>.Pix
	ldrb	r1, [sp, #13]	@ zero_extendqisi2	@ SmpPat.Pix, SmpPat.Pix
	rsb	r3, r7, ip	@ tmp9254, SmpPat.Pix, <variable>.Pix
	cmp	r3, #0	@ tmp9254,
	ldrb	r2, [sp, #14]	@ zero_extendqisi2	@ SmpPat.Pix, SmpPat.Pix
	rsb	lr, r1, sl	@ tmp9247, SmpPat.Pix, <variable>.Pix
	ldrb	r0, [r6, #2534]	@ zero_extendqisi2	@ <variable>.Pix, <variable>.Pix
	rsblt	r3, r3, #0	@ tmp9255, tmp9254
	cmp	lr, #0	@ tmp9247,
	rsb	r0, r2, r0	@ tmp9261, SmpPat.Pix, <variable>.Pix
	rsblt	lr, lr, #0	@ tmp9248, tmp9247
	ldrb	ip, [sp, #15]	@ zero_extendqisi2	@ SmpPat.Pix, SmpPat.Pix
	cmp	r3, #2	@ tmp9255,
	movle	sl, #0	@, tmp9257
	movgt	sl, #1	@, tmp9257
	ldrb	r7, [r6, #2535]	@ zero_extendqisi2	@ <variable>.Pix, <variable>.Pix
	cmp	lr, #2	@ tmp9248,
	addgt	sl, sl, #1	@,, MisCnt.2285, tmp9257
	cmp	r0, #0	@ tmp9261,
	ldrb	r1, [r6, #2536]	@ zero_extendqisi2	@ <variable>.Pix, <variable>.Pix
	rsb	r7, ip, r7	@ tmp9268, SmpPat.Pix, <variable>.Pix
	rsblt	r0, r0, #0	@ tmp9262, tmp9261
	ldrb	r2, [sp, #16]	@ zero_extendqisi2	@ SmpPat.Pix, SmpPat.Pix
	cmp	r0, #2	@ tmp9262,
	addgt	sl, sl, #1	@,, MisCnt.2237, MisCnt.2285
	cmp	r7, #0	@ tmp9268,
	ldrb	r0, [sp, #17]	@ zero_extendqisi2	@ SmpPat.Pix, SmpPat.Pix
	rsb	r2, r2, r1	@ tmp9275, SmpPat.Pix, <variable>.Pix
	rsblt	r7, r7, #0	@ tmp9269, tmp9268
	ldrb	ip, [r6, #2537]	@ zero_extendqisi2	@ <variable>.Pix, <variable>.Pix
	cmp	r7, #2	@ tmp9269,
	addgt	sl, sl, #1	@,, MisCnt.2205, MisCnt.2237
	cmp	r2, #0	@ tmp9275,
	ldrb	lr, [r6, #2538]	@ zero_extendqisi2	@ <variable>.Pix, <variable>.Pix
	rsb	ip, r0, ip	@ tmp9282, SmpPat.Pix, <variable>.Pix
	rsblt	r2, r2, #0	@ tmp9276, tmp9275
	ldrb	r1, [sp, #18]	@ zero_extendqisi2	@ SmpPat.Pix, SmpPat.Pix
	cmp	r2, #2	@ tmp9276,
	addgt	sl, sl, #1	@,, MisCnt.1615, MisCnt.2205
	cmp	ip, #0	@ tmp9282,
	ldrb	r0, [r6, #2539]	@ zero_extendqisi2	@ <variable>.Pix, <variable>.Pix
	rsb	r1, r1, lr	@ tmp9289, SmpPat.Pix, <variable>.Pix
	rsblt	ip, ip, #0	@ tmp9283, tmp9282
	ldrb	r2, [sp, #19]	@ zero_extendqisi2	@ SmpPat.Pix, SmpPat.Pix
	cmp	ip, #2	@ tmp9283,
	addgt	sl, sl, #1	@,, MisCnt.1565, MisCnt.1615
	cmp	r1, #0	@ tmp9289,
	rsb	r7, r2, r0	@ tmp9296, SmpPat.Pix, <variable>.Pix
	rsblt	r1, r1, #0	@ tmp9290, tmp9289
	cmp	r1, #2	@ tmp9290,
	addgt	sl, sl, #1	@,, MisCnt.1533, MisCnt.1565
	cmp	r7, #0	@ tmp9296,
	rsblt	r7, r7, #0	@ tmp9297, tmp9296
	cmp	r7, #2	@ tmp9297,
	addgt	sl, sl, #1	@,, tmp9300, MisCnt.1533
	cmp	sl, #2	@ tmp9300,
	bgt	.L54	@,
	ldr	r3, [r6, #2540]	@ <variable>.Comp, <variable>.Comp
	mov	r0, sp	@,
	ldr	r2, [r6, #2544]	@ <variable>.Px, <variable>.Px
	mov	r1, r5	@, pDetPara
	ldr	lr, [r6, #2548]	@ <variable>.Py, <variable>.Py
	str	r3, [sp, #0]	@ <variable>.Comp, SmpPat.Comp
	stmib	sp, {r2, lr}	@ phole stm
	bl	GetSample	@
	ldrb	ip, [r6, #2552]	@ zero_extendqisi2	@ <variable>.Pix, <variable>.Pix
	ldrb	r7, [sp, #12]	@ zero_extendqisi2	@ SmpPat.Pix, SmpPat.Pix
	ldrb	sl, [r6, #2553]	@ zero_extendqisi2	@ <variable>.Pix, <variable>.Pix
	ldrb	r1, [sp, #13]	@ zero_extendqisi2	@ SmpPat.Pix, SmpPat.Pix
	rsb	r3, r7, ip	@ tmp9318, SmpPat.Pix, <variable>.Pix
	cmp	r3, #0	@ tmp9318,
	ldrb	r2, [sp, #14]	@ zero_extendqisi2	@ SmpPat.Pix, SmpPat.Pix
	rsb	lr, r1, sl	@ tmp9311, SmpPat.Pix, <variable>.Pix
	ldrb	r0, [r6, #2554]	@ zero_extendqisi2	@ <variable>.Pix, <variable>.Pix
	rsblt	r3, r3, #0	@ tmp9319, tmp9318
	cmp	lr, #0	@ tmp9311,
	rsb	r0, r2, r0	@ tmp9325, SmpPat.Pix, <variable>.Pix
	rsblt	lr, lr, #0	@ tmp9312, tmp9311
	ldrb	ip, [sp, #15]	@ zero_extendqisi2	@ SmpPat.Pix, SmpPat.Pix
	cmp	r3, #2	@ tmp9319,
	movle	sl, #0	@, tmp9321
	movgt	sl, #1	@, tmp9321
	ldrb	r7, [r6, #2555]	@ zero_extendqisi2	@ <variable>.Pix, <variable>.Pix
	cmp	lr, #2	@ tmp9312,
	addgt	sl, sl, #1	@,, MisCnt.1343, tmp9321
	cmp	r0, #0	@ tmp9325,
	ldrb	r1, [r6, #2556]	@ zero_extendqisi2	@ <variable>.Pix, <variable>.Pix
	rsb	r7, ip, r7	@ tmp9332, SmpPat.Pix, <variable>.Pix
	rsblt	r0, r0, #0	@ tmp9326, tmp9325
	ldrb	r2, [sp, #16]	@ zero_extendqisi2	@ SmpPat.Pix, SmpPat.Pix
	cmp	r0, #2	@ tmp9326,
	addgt	sl, sl, #1	@,, MisCnt.1311, MisCnt.1343
	cmp	r7, #0	@ tmp9332,
	ldrb	r0, [sp, #17]	@ zero_extendqisi2	@ SmpPat.Pix, SmpPat.Pix
	rsb	r2, r2, r1	@ tmp9339, SmpPat.Pix, <variable>.Pix
	rsblt	r7, r7, #0	@ tmp9333, tmp9332
	ldrb	ip, [r6, #2557]	@ zero_extendqisi2	@ <variable>.Pix, <variable>.Pix
	cmp	r7, #2	@ tmp9333,
	addgt	sl, sl, #1	@,, MisCnt.1262, MisCnt.1311
	cmp	r2, #0	@ tmp9339,
	ldrb	lr, [r6, #2558]	@ zero_extendqisi2	@ <variable>.Pix, <variable>.Pix
	rsb	ip, r0, ip	@ tmp9346, SmpPat.Pix, <variable>.Pix
	rsblt	r2, r2, #0	@ tmp9340, tmp9339
	ldrb	r1, [sp, #18]	@ zero_extendqisi2	@ SmpPat.Pix, SmpPat.Pix
	cmp	r2, #2	@ tmp9340,
	addgt	sl, sl, #1	@,, MisCnt.1221, MisCnt.1262
	cmp	ip, #0	@ tmp9346,
	ldrb	r0, [r6, #2559]	@ zero_extendqisi2	@ <variable>.Pix, <variable>.Pix
	rsb	r1, r1, lr	@ tmp9353, SmpPat.Pix, <variable>.Pix
	rsblt	ip, ip, #0	@ tmp9347, tmp9346
	ldrb	r2, [sp, #19]	@ zero_extendqisi2	@ SmpPat.Pix, SmpPat.Pix
	cmp	ip, #2	@ tmp9347,
	addgt	sl, sl, #1	@,, MisCnt.1189, MisCnt.1221
	cmp	r1, #0	@ tmp9353,
	rsb	r7, r2, r0	@ tmp9360, SmpPat.Pix, <variable>.Pix
	rsblt	r1, r1, #0	@ tmp9354, tmp9353
	cmp	r1, #2	@ tmp9354,
	addgt	sl, sl, #1	@,, MisCnt.2446, MisCnt.1189
	cmp	r7, #0	@ tmp9360,
	rsblt	r7, r7, #0	@ tmp9361, tmp9360
	cmp	r7, #2	@ tmp9361,
	addgt	sl, sl, #1	@,, tmp9364, MisCnt.2446
	cmp	sl, #2	@ tmp9364,
	bgt	.L54	@,
	ldr	r3, [r6, #2560]	@ <variable>.Comp, <variable>.Comp
	mov	r0, sp	@,
	ldr	r2, [r6, #2564]	@ <variable>.Px, <variable>.Px
	mov	r1, r5	@, pDetPara
	ldr	lr, [r6, #2568]	@ <variable>.Py, <variable>.Py
	str	r3, [sp, #0]	@ <variable>.Comp, SmpPat.Comp
	stmib	sp, {r2, lr}	@ phole stm
	bl	GetSample	@
	ldrb	r7, [r6, #2573]	@ zero_extendqisi2	@ <variable>.Pix, <variable>.Pix
	ldrb	ip, [sp, #13]	@ zero_extendqisi2	@ SmpPat.Pix, SmpPat.Pix
	ldrb	sl, [r6, #2572]	@ zero_extendqisi2	@ <variable>.Pix, <variable>.Pix
	ldrb	r1, [sp, #12]	@ zero_extendqisi2	@ SmpPat.Pix, SmpPat.Pix
	rsb	r3, ip, r7	@ tmp9382, SmpPat.Pix, <variable>.Pix
	cmp	r3, #0	@ tmp9382,
	ldrb	r2, [sp, #14]	@ zero_extendqisi2	@ SmpPat.Pix, SmpPat.Pix
	rsb	r7, r1, sl	@ tmp9375, SmpPat.Pix, <variable>.Pix
	ldrb	r0, [r6, #2574]	@ zero_extendqisi2	@ <variable>.Pix, <variable>.Pix
	rsblt	r3, r3, #0	@ tmp9383, tmp9382
	cmp	r7, #0	@ tmp9375,
	rsb	r0, r2, r0	@ tmp9389, SmpPat.Pix, <variable>.Pix
	rsblt	r7, r7, #0	@ tmp9376, tmp9375
	ldrb	ip, [sp, #15]	@ zero_extendqisi2	@ SmpPat.Pix, SmpPat.Pix
	cmp	r3, #2	@ tmp9383,
	movle	r3, #0	@, tmp9385
	movgt	r3, #1	@, tmp9385
	ldrb	sl, [r6, #2575]	@ zero_extendqisi2	@ <variable>.Pix, <variable>.Pix
	cmp	r7, #2	@ tmp9376,
	addgt	r3, r3, #1	@,, MisCnt.1179, tmp9385
	cmp	r0, #0	@ tmp9389,
	ldrb	r1, [r6, #2576]	@ zero_extendqisi2	@ <variable>.Pix, <variable>.Pix
	rsb	sl, ip, sl	@ tmp9396, SmpPat.Pix, <variable>.Pix
	rsblt	r0, r0, #0	@ tmp9390, tmp9389
	ldrb	r2, [sp, #16]	@ zero_extendqisi2	@ SmpPat.Pix, SmpPat.Pix
	cmp	r0, #2	@ tmp9390,
	addgt	r3, r3, #1	@,, MisCnt.1188, MisCnt.1179
	cmp	sl, #0	@ tmp9396,
	ldrb	r0, [sp, #17]	@ zero_extendqisi2	@ SmpPat.Pix, SmpPat.Pix
	rsb	r2, r2, r1	@ tmp9403, SmpPat.Pix, <variable>.Pix
	rsblt	sl, sl, #0	@ tmp9397, tmp9396
	ldrb	ip, [r6, #2577]	@ zero_extendqisi2	@ <variable>.Pix, <variable>.Pix
	cmp	sl, #2	@ tmp9397,
	addgt	r3, r3, #1	@,, MisCnt.1199, MisCnt.1188
	cmp	r2, #0	@ tmp9403,
	ldrb	r7, [r6, #2578]	@ zero_extendqisi2	@ <variable>.Pix, <variable>.Pix
	rsb	ip, r0, ip	@ tmp9410, SmpPat.Pix, <variable>.Pix
	rsblt	r2, r2, #0	@ tmp9404, tmp9403
	ldrb	r1, [sp, #18]	@ zero_extendqisi2	@ SmpPat.Pix, SmpPat.Pix
	cmp	r2, #2	@ tmp9404,
	addgt	r3, r3, #1	@,, MisCnt.1210, MisCnt.1199
	cmp	ip, #0	@ tmp9410,
	ldrb	r0, [r6, #2579]	@ zero_extendqisi2	@ <variable>.Pix, <variable>.Pix
	rsblt	ip, ip, #0	@ tmp9411, tmp9410
	rsb	r1, r1, r7	@ tmp9417, SmpPat.Pix, <variable>.Pix
	ldrb	r2, [sp, #19]	@ zero_extendqisi2	@ SmpPat.Pix, SmpPat.Pix
	cmp	ip, #2	@ tmp9411,
	addgt	r3, r3, #1	@,, MisCnt.1220, MisCnt.1210
	cmp	r1, #0	@ tmp9417,
	rsb	ip, r2, r0	@ tmp9424, SmpPat.Pix, <variable>.Pix
	rsblt	r1, r1, #0	@ tmp9418, tmp9417
	cmp	r1, #2	@ tmp9418,
	addgt	r3, r3, #1	@,, MisCnt.1230, MisCnt.1220
	cmp	ip, #0	@ tmp9424,
	rsblt	ip, ip, #0	@ tmp9425, tmp9424
	cmp	ip, #2	@ tmp9425,
	addgt	r3, r3, #1	@,, tmp9428, MisCnt.1230
	cmp	r3, #2	@ tmp9428,
	movle	r0, #23	@ Result,
	ble	.L18	@,
.L54:
	ldr	ip, [r6, #2620]	@ <variable>.Comp, <variable>.Comp
	mov	r0, sp	@,
	ldr	r9, [r6, #2624]	@ <variable>.Px, <variable>.Px
	mov	r1, r5	@, pDetPara
	ldr	lr, [r6, #2628]	@ <variable>.Py, <variable>.Py
	movw	r7, #:lower16:.LANCHOR0	@ tmp9429,
	str	ip, [sp, #0]	@ <variable>.Comp, SmpPat.Comp
	movt	r7, #:upper16:.LANCHOR0	@ tmp9429,
	stmib	sp, {r9, lr}	@ phole stm
	bl	GetSample	@
	ldrb	r1, [r6, #2632]	@ zero_extendqisi2	@ <variable>.Pix, <variable>.Pix
	ldrb	r2, [sp, #12]	@ zero_extendqisi2	@ SmpPat.Pix, SmpPat.Pix
	ldrb	r0, [r6, #2633]	@ zero_extendqisi2	@ <variable>.Pix, <variable>.Pix
	ldrb	r3, [sp, #13]	@ zero_extendqisi2	@ SmpPat.Pix, SmpPat.Pix
	rsb	sl, r2, r1	@ tmp9446, SmpPat.Pix, <variable>.Pix
	cmp	sl, #0	@ tmp9446,
	ldrb	r9, [r6, #2634]	@ zero_extendqisi2	@ <variable>.Pix, <variable>.Pix
	rsb	lr, r3, r0	@ tmp9439, SmpPat.Pix, <variable>.Pix
	ldrb	ip, [sp, #14]	@ zero_extendqisi2	@ SmpPat.Pix, SmpPat.Pix
	rsblt	sl, sl, #0	@ tmp9447, tmp9446
	cmp	lr, #0	@ tmp9439,
	rsblt	lr, lr, #0	@ tmp9440, tmp9439
	ldrb	r0, [r6, #2635]	@ zero_extendqisi2	@ <variable>.Pix, <variable>.Pix
	cmp	sl, #2	@ tmp9447,
	movle	r1, #0	@, tmp9449
	movgt	r1, #1	@, tmp9449
	ldrb	r3, [sp, #15]	@ zero_extendqisi2	@ SmpPat.Pix, SmpPat.Pix
	rsb	sl, ip, r9	@ tmp9453, SmpPat.Pix, <variable>.Pix
	cmp	lr, #2	@ tmp9440,
	addgt	r1, r1, #1	@,, MisCnt.2051, tmp9449
	cmp	sl, #0	@ tmp9453,
	rsb	r9, r3, r0	@ tmp9460, SmpPat.Pix, <variable>.Pix
	ldrb	r2, [sp, #16]	@ zero_extendqisi2	@ SmpPat.Pix, SmpPat.Pix
	rsblt	sl, sl, #0	@ tmp9454, tmp9453
	ldrb	ip, [r6, #2636]	@ zero_extendqisi2	@ <variable>.Pix, <variable>.Pix
	cmp	sl, #2	@ tmp9454,
	movle	sl, r1	@, MisCnt.2011, MisCnt.2051
	addgt	sl, r1, #1	@,, MisCnt.2011, MisCnt.2051
	cmp	r9, #0	@ tmp9460,
	ldrb	r0, [r6, #2637]	@ zero_extendqisi2	@ <variable>.Pix, <variable>.Pix
	rsb	ip, r2, ip	@ tmp9467, SmpPat.Pix, <variable>.Pix
	rsblt	r9, r9, #0	@ tmp9461, tmp9460
	ldrb	r1, [sp, #17]	@ zero_extendqisi2	@ SmpPat.Pix, SmpPat.Pix
	cmp	r9, #2	@ tmp9461,
	movle	r3, sl	@, MisCnt.1969, MisCnt.2011
	addgt	r3, sl, #1	@,, MisCnt.1969, MisCnt.2011
	cmp	ip, #0	@ tmp9467,
	ldrb	lr, [r6, #2638]	@ zero_extendqisi2	@ <variable>.Pix, <variable>.Pix
	rsb	sl, r1, r0	@ tmp9474, SmpPat.Pix, <variable>.Pix
	rsblt	ip, ip, #0	@ tmp9468, tmp9467
	ldrb	r2, [sp, #18]	@ zero_extendqisi2	@ SmpPat.Pix, SmpPat.Pix
	cmp	ip, #2	@ tmp9468,
	movle	ip, r3	@, MisCnt.1937, MisCnt.1969
	addgt	ip, r3, #1	@,, MisCnt.1937, MisCnt.1969
	cmp	sl, #0	@ tmp9474,
	ldrb	r9, [r6, #2639]	@ zero_extendqisi2	@ <variable>.Pix, <variable>.Pix
	rsblt	sl, sl, #0	@ tmp9475, tmp9474
	rsb	r2, r2, lr	@ tmp9481, SmpPat.Pix, <variable>.Pix
	ldrb	r3, [sp, #19]	@ zero_extendqisi2	@ SmpPat.Pix, SmpPat.Pix
	cmp	sl, #2	@ tmp9475,
	movle	r1, ip	@, MisCnt.1889, MisCnt.1937
	addgt	r1, ip, #1	@,, MisCnt.1889, MisCnt.1937
	cmp	r2, #0	@ tmp9481,
	rsb	sl, r3, r9	@ tmp9488, SmpPat.Pix, <variable>.Pix
	rsblt	r2, r2, #0	@ tmp9482, tmp9481
	cmp	r2, #2	@ tmp9482,
	movle	r0, r1	@, MisCnt.1857, MisCnt.1889
	addgt	r0, r1, #1	@,, MisCnt.1857, MisCnt.1889
	cmp	sl, #0	@ tmp9488,
	rsblt	sl, sl, #0	@ tmp9489, tmp9488
	cmp	sl, #2	@ tmp9489,
	movle	r9, r0	@, tmp9492, MisCnt.1857
	addgt	r9, r0, #1	@,, tmp9492, MisCnt.1857
	cmp	r9, #2	@ tmp9492,
	bgt	.L55	@,
	ldr	r2, [r7, #2640]	@ <variable>.Comp, <variable>.Comp
	mov	r0, sp	@,
	ldr	r9, [r7, #2644]	@ <variable>.Px, <variable>.Px
	mov	r1, r5	@, pDetPara
	ldr	lr, [r7, #2648]	@ <variable>.Py, <variable>.Py
	stmia	sp, {r2, r9, lr}	@ phole stm
	bl	GetSample	@
	ldrb	ip, [r7, #2652]	@ zero_extendqisi2	@ <variable>.Pix, <variable>.Pix
	ldrb	sl, [sp, #12]	@ zero_extendqisi2	@ SmpPat.Pix, SmpPat.Pix
	ldrb	r0, [r7, #2653]	@ zero_extendqisi2	@ <variable>.Pix, <variable>.Pix
	ldrb	r1, [sp, #13]	@ zero_extendqisi2	@ SmpPat.Pix, SmpPat.Pix
	rsb	r3, sl, ip	@ tmp9510, SmpPat.Pix, <variable>.Pix
	cmp	r3, #0	@ tmp9510,
	ldrb	r9, [r7, #2654]	@ zero_extendqisi2	@ <variable>.Pix, <variable>.Pix
	rsb	lr, r1, r0	@ tmp9503, SmpPat.Pix, <variable>.Pix
	ldrb	r2, [sp, #14]	@ zero_extendqisi2	@ SmpPat.Pix, SmpPat.Pix
	rsblt	r3, r3, #0	@ tmp9511, tmp9510
	cmp	lr, #0	@ tmp9503,
	rsb	r0, r2, r9	@ tmp9517, SmpPat.Pix, <variable>.Pix
	rsblt	lr, lr, #0	@ tmp9504, tmp9503
	ldrb	ip, [sp, #15]	@ zero_extendqisi2	@ SmpPat.Pix, SmpPat.Pix
	cmp	r3, #2	@ tmp9511,
	movle	r3, #0	@, tmp9513
	movgt	r3, #1	@, tmp9513
	ldrb	sl, [r7, #2655]	@ zero_extendqisi2	@ <variable>.Pix, <variable>.Pix
	cmp	lr, #2	@ tmp9504,
	addgt	r3, r3, #1	@,, MisCnt.1666, tmp9513
	cmp	r0, #0	@ tmp9517,
	ldrb	r1, [r7, #2656]	@ zero_extendqisi2	@ <variable>.Pix, <variable>.Pix
	rsb	sl, ip, sl	@ tmp9524, SmpPat.Pix, <variable>.Pix
	rsblt	r0, r0, #0	@ tmp9518, tmp9517
	ldrb	r9, [sp, #16]	@ zero_extendqisi2	@ SmpPat.Pix, SmpPat.Pix
	cmp	r0, #2	@ tmp9518,
	addgt	r3, r3, #1	@,, MisCnt.3534, MisCnt.1666
	cmp	sl, #0	@ tmp9524,
	ldrb	r0, [sp, #17]	@ zero_extendqisi2	@ SmpPat.Pix, SmpPat.Pix
	rsb	r2, r9, r1	@ tmp9531, SmpPat.Pix, <variable>.Pix
	rsblt	sl, sl, #0	@ tmp9525, tmp9524
	ldrb	ip, [r7, #2657]	@ zero_extendqisi2	@ <variable>.Pix, <variable>.Pix
	cmp	sl, #2	@ tmp9525,
	addgt	r3, r3, #1	@,, MisCnt.3494, MisCnt.3534
	cmp	r2, #0	@ tmp9531,
	ldrb	lr, [r7, #2658]	@ zero_extendqisi2	@ <variable>.Pix, <variable>.Pix
	rsb	r9, r0, ip	@ tmp9538, SmpPat.Pix, <variable>.Pix
	rsblt	r2, r2, #0	@ tmp9532, tmp9531
	ldrb	r1, [sp, #18]	@ zero_extendqisi2	@ SmpPat.Pix, SmpPat.Pix
	cmp	r2, #2	@ tmp9532,
	addgt	r3, r3, #1	@,, MisCnt.3452, MisCnt.3494
	cmp	r9, #0	@ tmp9538,
	ldrb	r0, [r7, #2659]	@ zero_extendqisi2	@ <variable>.Pix, <variable>.Pix
	rsb	r1, r1, lr	@ tmp9545, SmpPat.Pix, <variable>.Pix
	rsblt	r9, r9, #0	@ tmp9539, tmp9538
	ldrb	r2, [sp, #19]	@ zero_extendqisi2	@ SmpPat.Pix, SmpPat.Pix
	cmp	r9, #2	@ tmp9539,
	addgt	r3, r3, #1	@,, MisCnt.3420, MisCnt.3452
	cmp	r1, #0	@ tmp9545,
	rsb	sl, r2, r0	@ tmp9552, SmpPat.Pix, <variable>.Pix
	rsblt	r1, r1, #0	@ tmp9546, tmp9545
	cmp	r1, #2	@ tmp9546,
	addgt	r3, r3, #1	@,, MisCnt.3370, MisCnt.3420
	cmp	sl, #0	@ tmp9552,
	rsblt	sl, sl, #0	@ tmp9553, tmp9552
	cmp	sl, #2	@ tmp9553,
	addgt	r3, r3, #1	@,, tmp9556, MisCnt.3370
	cmp	r3, #2	@ tmp9556,
	bgt	.L55	@,
	ldr	r3, [r7, #2660]	@ <variable>.Comp, <variable>.Comp
	mov	r0, sp	@,
	ldr	r2, [r7, #2664]	@ <variable>.Px, <variable>.Px
	mov	r1, r5	@, pDetPara
	ldr	lr, [r7, #2668]	@ <variable>.Py, <variable>.Py
	str	r3, [sp, #0]	@ <variable>.Comp, SmpPat.Comp
	stmib	sp, {r2, lr}	@ phole stm
	bl	GetSample	@
	ldrb	sl, [r7, #2673]	@ zero_extendqisi2	@ <variable>.Pix, <variable>.Pix
	ldrb	ip, [sp, #13]	@ zero_extendqisi2	@ SmpPat.Pix, SmpPat.Pix
	ldrb	r9, [r7, #2672]	@ zero_extendqisi2	@ <variable>.Pix, <variable>.Pix
	ldrb	r1, [sp, #12]	@ zero_extendqisi2	@ SmpPat.Pix, SmpPat.Pix
	rsb	r3, ip, sl	@ tmp9574, SmpPat.Pix, <variable>.Pix
	cmp	r3, #0	@ tmp9574,
	ldrb	r2, [sp, #14]	@ zero_extendqisi2	@ SmpPat.Pix, SmpPat.Pix
	rsb	sl, r1, r9	@ tmp9567, SmpPat.Pix, <variable>.Pix
	ldrb	r0, [r7, #2674]	@ zero_extendqisi2	@ <variable>.Pix, <variable>.Pix
	rsblt	r3, r3, #0	@ tmp9575, tmp9574
	cmp	sl, #0	@ tmp9567,
	rsb	r0, r2, r0	@ tmp9581, SmpPat.Pix, <variable>.Pix
	rsblt	sl, sl, #0	@ tmp9568, tmp9567
	ldrb	ip, [sp, #15]	@ zero_extendqisi2	@ SmpPat.Pix, SmpPat.Pix
	cmp	r3, #2	@ tmp9575,
	movle	r3, #0	@, tmp9577
	movgt	r3, #1	@, tmp9577
	ldrb	r9, [r7, #2675]	@ zero_extendqisi2	@ <variable>.Pix, <variable>.Pix
	cmp	sl, #2	@ tmp9568,
	addgt	r3, r3, #1	@,, MisCnt.1250, tmp9577
	cmp	r0, #0	@ tmp9581,
	ldrb	r1, [r7, #2676]	@ zero_extendqisi2	@ <variable>.Pix, <variable>.Pix
	rsb	r9, ip, r9	@ tmp9588, SmpPat.Pix, <variable>.Pix
	rsblt	r0, r0, #0	@ tmp9582, tmp9581
	ldrb	r2, [sp, #16]	@ zero_extendqisi2	@ SmpPat.Pix, SmpPat.Pix
	cmp	r0, #2	@ tmp9582,
	addgt	r3, r3, #1	@,, MisCnt.1261, MisCnt.1250
	cmp	r9, #0	@ tmp9588,
	ldrb	r0, [sp, #17]	@ zero_extendqisi2	@ SmpPat.Pix, SmpPat.Pix
	rsb	r2, r2, r1	@ tmp9595, SmpPat.Pix, <variable>.Pix
	rsblt	r9, r9, #0	@ tmp9589, tmp9588
	ldrb	ip, [r7, #2677]	@ zero_extendqisi2	@ <variable>.Pix, <variable>.Pix
	cmp	r9, #2	@ tmp9589,
	addgt	r3, r3, #1	@,, MisCnt.1270, MisCnt.1261
	cmp	r2, #0	@ tmp9595,
	ldrb	sl, [r7, #2678]	@ zero_extendqisi2	@ <variable>.Pix, <variable>.Pix
	rsb	ip, r0, ip	@ tmp9602, SmpPat.Pix, <variable>.Pix
	rsblt	r2, r2, #0	@ tmp9596, tmp9595
	ldrb	r1, [sp, #18]	@ zero_extendqisi2	@ SmpPat.Pix, SmpPat.Pix
	cmp	r2, #2	@ tmp9596,
	addgt	r3, r3, #1	@,, MisCnt.1281, MisCnt.1270
	cmp	ip, #0	@ tmp9602,
	ldrb	r0, [r7, #2679]	@ zero_extendqisi2	@ <variable>.Pix, <variable>.Pix
	rsblt	ip, ip, #0	@ tmp9603, tmp9602
	rsb	r1, r1, sl	@ tmp9609, SmpPat.Pix, <variable>.Pix
	ldrb	r2, [sp, #19]	@ zero_extendqisi2	@ SmpPat.Pix, SmpPat.Pix
	cmp	ip, #2	@ tmp9603,
	addgt	r3, r3, #1	@,, MisCnt.1292, MisCnt.1281
	cmp	r1, #0	@ tmp9609,
	rsb	ip, r2, r0	@ tmp9616, SmpPat.Pix, <variable>.Pix
	rsblt	r1, r1, #0	@ tmp9610, tmp9609
	cmp	r1, #2	@ tmp9610,
	addgt	r3, r3, #1	@,, MisCnt.1301, MisCnt.1292
	cmp	ip, #0	@ tmp9616,
	rsblt	ip, ip, #0	@ tmp9617, tmp9616
	cmp	ip, #2	@ tmp9617,
	addgt	r3, r3, #1	@,, tmp9620, MisCnt.1301
	cmp	r3, #2	@ tmp9620,
	movle	r0, #4	@ Result,
	ble	.L18	@,
.L55:
	ldr	ip, [r6, #2680]	@ <variable>.Comp, <variable>.Comp
	mov	r0, sp	@,
	ldr	r9, [r6, #2684]	@ <variable>.Px, <variable>.Px
	mov	r1, r5	@, pDetPara
	ldr	lr, [r6, #2688]	@ <variable>.Py, <variable>.Py
	movw	r7, #:lower16:.LANCHOR0	@ tmp9621,
	str	ip, [sp, #0]	@ <variable>.Comp, SmpPat.Comp
	movt	r7, #:upper16:.LANCHOR0	@ tmp9621,
	stmib	sp, {r9, lr}	@ phole stm
	bl	GetSample	@
	ldrb	r1, [r6, #2692]	@ zero_extendqisi2	@ <variable>.Pix, <variable>.Pix
	ldrb	r2, [sp, #12]	@ zero_extendqisi2	@ SmpPat.Pix, SmpPat.Pix
	ldrb	r0, [r6, #2693]	@ zero_extendqisi2	@ <variable>.Pix, <variable>.Pix
	ldrb	r3, [sp, #13]	@ zero_extendqisi2	@ SmpPat.Pix, SmpPat.Pix
	rsb	sl, r2, r1	@ tmp9638, SmpPat.Pix, <variable>.Pix
	cmp	sl, #0	@ tmp9638,
	ldrb	r9, [r6, #2694]	@ zero_extendqisi2	@ <variable>.Pix, <variable>.Pix
	rsb	lr, r3, r0	@ tmp9631, SmpPat.Pix, <variable>.Pix
	ldrb	ip, [sp, #14]	@ zero_extendqisi2	@ SmpPat.Pix, SmpPat.Pix
	rsblt	sl, sl, #0	@ tmp9639, tmp9638
	cmp	lr, #0	@ tmp9631,
	rsblt	lr, lr, #0	@ tmp9632, tmp9631
	ldrb	r0, [r6, #2695]	@ zero_extendqisi2	@ <variable>.Pix, <variable>.Pix
	cmp	sl, #2	@ tmp9639,
	movle	r1, #0	@, tmp9641
	movgt	r1, #1	@, tmp9641
	ldrb	r3, [sp, #15]	@ zero_extendqisi2	@ SmpPat.Pix, SmpPat.Pix
	rsb	sl, ip, r9	@ tmp9645, SmpPat.Pix, <variable>.Pix
	cmp	lr, #2	@ tmp9632,
	addgt	r1, r1, #1	@,, MisCnt.3183, tmp9641
	cmp	sl, #0	@ tmp9645,
	rsb	r9, r3, r0	@ tmp9652, SmpPat.Pix, <variable>.Pix
	ldrb	r2, [sp, #16]	@ zero_extendqisi2	@ SmpPat.Pix, SmpPat.Pix
	rsblt	sl, sl, #0	@ tmp9646, tmp9645
	ldrb	ip, [r6, #2696]	@ zero_extendqisi2	@ <variable>.Pix, <variable>.Pix
	cmp	sl, #2	@ tmp9646,
	movle	sl, r1	@, MisCnt.3133, MisCnt.3183
	addgt	sl, r1, #1	@,, MisCnt.3133, MisCnt.3183
	cmp	r9, #0	@ tmp9652,
	ldrb	r0, [r6, #2697]	@ zero_extendqisi2	@ <variable>.Pix, <variable>.Pix
	rsb	ip, r2, ip	@ tmp9659, SmpPat.Pix, <variable>.Pix
	rsblt	r9, r9, #0	@ tmp9653, tmp9652
	ldrb	r1, [sp, #17]	@ zero_extendqisi2	@ SmpPat.Pix, SmpPat.Pix
	cmp	r9, #2	@ tmp9653,
	movle	r3, sl	@, MisCnt.3101, MisCnt.3133
	addgt	r3, sl, #1	@,, MisCnt.3101, MisCnt.3133
	cmp	ip, #0	@ tmp9659,
	ldrb	lr, [r6, #2698]	@ zero_extendqisi2	@ <variable>.Pix, <variable>.Pix
	rsb	r9, r1, r0	@ tmp9666, SmpPat.Pix, <variable>.Pix
	rsblt	ip, ip, #0	@ tmp9660, tmp9659
	ldrb	r2, [sp, #18]	@ zero_extendqisi2	@ SmpPat.Pix, SmpPat.Pix
	cmp	ip, #2	@ tmp9660,
	movle	ip, r3	@, MisCnt.3061, MisCnt.3101
	addgt	ip, r3, #1	@,, MisCnt.3061, MisCnt.3101
	cmp	r9, #0	@ tmp9666,
	ldrb	r0, [r6, #2699]	@ zero_extendqisi2	@ <variable>.Pix, <variable>.Pix
	rsblt	r9, r9, #0	@ tmp9667, tmp9666
	rsb	sl, r2, lr	@ tmp9673, SmpPat.Pix, <variable>.Pix
	ldrb	r3, [sp, #19]	@ zero_extendqisi2	@ SmpPat.Pix, SmpPat.Pix
	cmp	r9, #2	@ tmp9667,
	movle	r1, ip	@, MisCnt.3021, MisCnt.3061
	addgt	r1, ip, #1	@,, MisCnt.3021, MisCnt.3061
	cmp	sl, #0	@ tmp9673,
	rsb	r9, r3, r0	@ tmp9680, SmpPat.Pix, <variable>.Pix
	rsblt	sl, sl, #0	@ tmp9674, tmp9673
	cmp	sl, #2	@ tmp9674,
	movle	ip, r1	@, MisCnt.2982, MisCnt.3021
	addgt	ip, r1, #1	@,, MisCnt.2982, MisCnt.3021
	cmp	r9, #0	@ tmp9680,
	rsblt	r9, r9, #0	@ tmp9681, tmp9680
	cmp	r9, #2	@ tmp9681,
	movle	r0, ip	@, tmp9684, MisCnt.2982
	addgt	r0, ip, #1	@,, tmp9684, MisCnt.2982
	cmp	r0, #2	@ tmp9684,
	bgt	.L56	@,
	ldr	r2, [r7, #2700]	@ <variable>.Comp, <variable>.Comp
	mov	r0, sp	@,
	ldr	r9, [r7, #2704]	@ <variable>.Px, <variable>.Px
	mov	r1, r5	@, pDetPara
	ldr	lr, [r7, #2708]	@ <variable>.Py, <variable>.Py
	stmia	sp, {r2, r9, lr}	@ phole stm
	bl	GetSample	@
	ldrb	ip, [r7, #2712]	@ zero_extendqisi2	@ <variable>.Pix, <variable>.Pix
	ldrb	sl, [sp, #12]	@ zero_extendqisi2	@ SmpPat.Pix, SmpPat.Pix
	ldrb	r0, [r7, #2713]	@ zero_extendqisi2	@ <variable>.Pix, <variable>.Pix
	ldrb	r1, [sp, #13]	@ zero_extendqisi2	@ SmpPat.Pix, SmpPat.Pix
	rsb	r3, sl, ip	@ tmp9702, SmpPat.Pix, <variable>.Pix
	cmp	r3, #0	@ tmp9702,
	ldrb	r9, [r7, #2714]	@ zero_extendqisi2	@ <variable>.Pix, <variable>.Pix
	rsb	lr, r1, r0	@ tmp9695, SmpPat.Pix, <variable>.Pix
	ldrb	r2, [sp, #14]	@ zero_extendqisi2	@ SmpPat.Pix, SmpPat.Pix
	rsblt	r3, r3, #0	@ tmp9703, tmp9702
	cmp	lr, #0	@ tmp9695,
	rsb	r0, r2, r9	@ tmp9709, SmpPat.Pix, <variable>.Pix
	rsblt	lr, lr, #0	@ tmp9696, tmp9695
	ldrb	ip, [sp, #15]	@ zero_extendqisi2	@ SmpPat.Pix, SmpPat.Pix
	cmp	r3, #2	@ tmp9703,
	movle	r3, #0	@, tmp9705
	movgt	r3, #1	@, tmp9705
	ldrb	sl, [r7, #2715]	@ zero_extendqisi2	@ <variable>.Pix, <variable>.Pix
	cmp	lr, #2	@ tmp9696,
	addgt	r3, r3, #1	@,, MisCnt.2798, tmp9705
	cmp	r0, #0	@ tmp9709,
	ldrb	r1, [r7, #2716]	@ zero_extendqisi2	@ <variable>.Pix, <variable>.Pix
	rsb	sl, ip, sl	@ tmp9716, SmpPat.Pix, <variable>.Pix
	rsblt	r0, r0, #0	@ tmp9710, tmp9709
	ldrb	r9, [sp, #16]	@ zero_extendqisi2	@ SmpPat.Pix, SmpPat.Pix
	cmp	r0, #2	@ tmp9710,
	addgt	r3, r3, #1	@,, MisCnt.2766, MisCnt.2798
	cmp	sl, #0	@ tmp9716,
	ldrb	r0, [sp, #17]	@ zero_extendqisi2	@ SmpPat.Pix, SmpPat.Pix
	rsb	r2, r9, r1	@ tmp9723, SmpPat.Pix, <variable>.Pix
	rsblt	sl, sl, #0	@ tmp9717, tmp9716
	ldrb	ip, [r7, #2717]	@ zero_extendqisi2	@ <variable>.Pix, <variable>.Pix
	cmp	sl, #2	@ tmp9717,
	addgt	r3, r3, #1	@,, MisCnt.2717, MisCnt.2766
	cmp	r2, #0	@ tmp9723,
	ldrb	lr, [r7, #2718]	@ zero_extendqisi2	@ <variable>.Pix, <variable>.Pix
	rsb	r9, r0, ip	@ tmp9730, SmpPat.Pix, <variable>.Pix
	rsblt	r2, r2, #0	@ tmp9724, tmp9723
	ldrb	r1, [sp, #18]	@ zero_extendqisi2	@ SmpPat.Pix, SmpPat.Pix
	cmp	r2, #2	@ tmp9724,
	addgt	r3, r3, #1	@,, MisCnt.2685, MisCnt.2717
	cmp	r9, #0	@ tmp9730,
	ldrb	r0, [r7, #2719]	@ zero_extendqisi2	@ <variable>.Pix, <variable>.Pix
	rsb	r1, r1, lr	@ tmp9737, SmpPat.Pix, <variable>.Pix
	rsblt	r9, r9, #0	@ tmp9731, tmp9730
	ldrb	r2, [sp, #19]	@ zero_extendqisi2	@ SmpPat.Pix, SmpPat.Pix
	cmp	r9, #2	@ tmp9731,
	addgt	r3, r3, #1	@,, MisCnt.2646, MisCnt.2685
	cmp	r1, #0	@ tmp9737,
	rsb	sl, r2, r0	@ tmp9744, SmpPat.Pix, <variable>.Pix
	rsblt	r1, r1, #0	@ tmp9738, tmp9737
	cmp	r1, #2	@ tmp9738,
	addgt	r3, r3, #1	@,, MisCnt.2606, MisCnt.2646
	cmp	sl, #0	@ tmp9744,
	rsblt	sl, sl, #0	@ tmp9745, tmp9744
	cmp	sl, #2	@ tmp9745,
	addgt	r3, r3, #1	@,, tmp9748, MisCnt.2606
	cmp	r3, #2	@ tmp9748,
	bgt	.L56	@,
	ldr	r2, [r7, #2720]	@ <variable>.Comp, <variable>.Comp
	mov	r0, sp	@,
	ldr	sl, [r7, #2724]	@ <variable>.Px, <variable>.Px
	mov	r1, r5	@, pDetPara
	ldr	lr, [r7, #2728]	@ <variable>.Py, <variable>.Py
	stmia	sp, {r2, sl, lr}	@ phole stm
	bl	GetSample	@
	ldrb	ip, [r7, #2732]	@ zero_extendqisi2	@ <variable>.Pix, <variable>.Pix
	ldrb	r9, [sp, #12]	@ zero_extendqisi2	@ SmpPat.Pix, SmpPat.Pix
	ldrb	r0, [r7, #2733]	@ zero_extendqisi2	@ <variable>.Pix, <variable>.Pix
	ldrb	r1, [sp, #13]	@ zero_extendqisi2	@ SmpPat.Pix, SmpPat.Pix
	rsb	r3, r9, ip	@ tmp9766, SmpPat.Pix, <variable>.Pix
	cmp	r3, #0	@ tmp9766,
	ldrb	sl, [r7, #2734]	@ zero_extendqisi2	@ <variable>.Pix, <variable>.Pix
	rsb	lr, r1, r0	@ tmp9759, SmpPat.Pix, <variable>.Pix
	ldrb	r2, [sp, #14]	@ zero_extendqisi2	@ SmpPat.Pix, SmpPat.Pix
	rsblt	r3, r3, #0	@ tmp9767, tmp9766
	cmp	lr, #0	@ tmp9759,
	rsb	r0, r2, sl	@ tmp9773, SmpPat.Pix, <variable>.Pix
	rsblt	lr, lr, #0	@ tmp9760, tmp9759
	ldrb	r9, [r7, #2735]	@ zero_extendqisi2	@ <variable>.Pix, <variable>.Pix
	cmp	r3, #2	@ tmp9767,
	movle	r3, #0	@, tmp9769
	movgt	r3, #1	@, tmp9769
	ldrb	ip, [sp, #15]	@ zero_extendqisi2	@ SmpPat.Pix, SmpPat.Pix
	cmp	lr, #2	@ tmp9760,
	addgt	r3, r3, #1	@,, MisCnt.1507, tmp9769
	cmp	r0, #0	@ tmp9773,
	ldrb	r1, [r7, #2736]	@ zero_extendqisi2	@ <variable>.Pix, <variable>.Pix
	rsb	sl, ip, r9	@ tmp9780, SmpPat.Pix, <variable>.Pix
	rsblt	r0, r0, #0	@ tmp9774, tmp9773
	ldrb	r2, [sp, #16]	@ zero_extendqisi2	@ SmpPat.Pix, SmpPat.Pix
	cmp	r0, #2	@ tmp9774,
	addgt	r3, r3, #1	@,, MisCnt.1302, MisCnt.1507
	cmp	sl, #0	@ tmp9780,
	ldrb	r9, [r7, #2737]	@ zero_extendqisi2	@ <variable>.Pix, <variable>.Pix
	rsb	r2, r2, r1	@ tmp9787, SmpPat.Pix, <variable>.Pix
	rsblt	sl, sl, #0	@ tmp9781, tmp9780
	ldrb	r0, [sp, #17]	@ zero_extendqisi2	@ SmpPat.Pix, SmpPat.Pix
	cmp	sl, #2	@ tmp9781,
	addgt	r3, r3, #1	@,, MisCnt.2396, MisCnt.1302
	cmp	r2, #0	@ tmp9787,
	ldrb	lr, [r7, #2738]	@ zero_extendqisi2	@ <variable>.Pix, <variable>.Pix
	rsb	ip, r0, r9	@ tmp9794, SmpPat.Pix, <variable>.Pix
	rsblt	r2, r2, #0	@ tmp9788, tmp9787
	ldrb	r1, [sp, #18]	@ zero_extendqisi2	@ SmpPat.Pix, SmpPat.Pix
	cmp	r2, #2	@ tmp9788,
	addgt	r3, r3, #1	@,, MisCnt.1920, MisCnt.2396
	cmp	ip, #0	@ tmp9794,
	ldrb	r0, [r7, #2739]	@ zero_extendqisi2	@ <variable>.Pix, <variable>.Pix
	rsb	r1, r1, lr	@ tmp9801, SmpPat.Pix, <variable>.Pix
	rsblt	ip, ip, #0	@ tmp9795, tmp9794
	ldrb	r9, [sp, #19]	@ zero_extendqisi2	@ SmpPat.Pix, SmpPat.Pix
	cmp	ip, #2	@ tmp9795,
	addgt	r3, r3, #1	@,, MisCnt.1717, MisCnt.1920
	cmp	r1, #0	@ tmp9801,
	rsb	sl, r9, r0	@ tmp9808, SmpPat.Pix, <variable>.Pix
	rsblt	r1, r1, #0	@ tmp9802, tmp9801
	cmp	r1, #2	@ tmp9802,
	addgt	r3, r3, #1	@,, MisCnt.3410, MisCnt.1717
	cmp	sl, #0	@ tmp9808,
	rsblt	sl, sl, #0	@ tmp9809, tmp9808
	cmp	sl, #2	@ tmp9809,
	addgt	r3, r3, #1	@,, tmp9812, MisCnt.3410
	cmp	r3, #2	@ tmp9812,
	bgt	.L56	@,
	ldr	r2, [r7, #2740]	@ <variable>.Comp, <variable>.Comp
	mov	r0, sp	@,
	ldr	r9, [r7, #2744]	@ <variable>.Px, <variable>.Px
	mov	r1, r5	@, pDetPara
	ldr	lr, [r7, #2748]	@ <variable>.Py, <variable>.Py
	stmia	sp, {r2, r9, lr}	@ phole stm
	bl	GetSample	@
	ldrb	ip, [r7, #2753]	@ zero_extendqisi2	@ <variable>.Pix, <variable>.Pix
	ldrb	sl, [sp, #13]	@ zero_extendqisi2	@ SmpPat.Pix, SmpPat.Pix
	ldrb	r0, [r7, #2752]	@ zero_extendqisi2	@ <variable>.Pix, <variable>.Pix
	ldrb	r1, [sp, #12]	@ zero_extendqisi2	@ SmpPat.Pix, SmpPat.Pix
	rsb	r3, sl, ip	@ tmp9830, SmpPat.Pix, <variable>.Pix
	cmp	r3, #0	@ tmp9830,
	ldrb	r9, [r7, #2754]	@ zero_extendqisi2	@ <variable>.Pix, <variable>.Pix
	rsb	lr, r1, r0	@ tmp9823, SmpPat.Pix, <variable>.Pix
	ldrb	r2, [sp, #14]	@ zero_extendqisi2	@ SmpPat.Pix, SmpPat.Pix
	rsblt	r3, r3, #0	@ tmp9831, tmp9830
	cmp	lr, #0	@ tmp9823,
	rsb	r0, r2, r9	@ tmp9837, SmpPat.Pix, <variable>.Pix
	rsblt	lr, lr, #0	@ tmp9824, tmp9823
	ldrb	ip, [sp, #15]	@ zero_extendqisi2	@ SmpPat.Pix, SmpPat.Pix
	cmp	r3, #2	@ tmp9831,
	movle	r3, #0	@, tmp9833
	movgt	r3, #1	@, tmp9833
	ldrb	sl, [r7, #2755]	@ zero_extendqisi2	@ <variable>.Pix, <variable>.Pix
	cmp	lr, #2	@ tmp9824,
	addgt	r3, r3, #1	@,, MisCnt.3563, tmp9833
	cmp	r0, #0	@ tmp9837,
	ldrb	r1, [r7, #2756]	@ zero_extendqisi2	@ <variable>.Pix, <variable>.Pix
	rsb	sl, ip, sl	@ tmp9844, SmpPat.Pix, <variable>.Pix
	rsblt	r0, r0, #0	@ tmp9838, tmp9837
	ldrb	r9, [sp, #16]	@ zero_extendqisi2	@ SmpPat.Pix, SmpPat.Pix
	cmp	r0, #2	@ tmp9838,
	addgt	r3, r3, #1	@,, MisCnt.3571, MisCnt.3563
	cmp	sl, #0	@ tmp9844,
	ldrb	r0, [sp, #17]	@ zero_extendqisi2	@ SmpPat.Pix, SmpPat.Pix
	rsb	r2, r9, r1	@ tmp9851, SmpPat.Pix, <variable>.Pix
	rsblt	sl, sl, #0	@ tmp9845, tmp9844
	ldrb	ip, [r7, #2757]	@ zero_extendqisi2	@ <variable>.Pix, <variable>.Pix
	cmp	sl, #2	@ tmp9845,
	addgt	r3, r3, #1	@,, MisCnt.3579, MisCnt.3571
	cmp	r2, #0	@ tmp9851,
	ldrb	r9, [sp, #18]	@ zero_extendqisi2	@ SmpPat.Pix, SmpPat.Pix
	rsb	ip, r0, ip	@ tmp9858, SmpPat.Pix, <variable>.Pix
	rsblt	r2, r2, #0	@ tmp9852, tmp9851
	ldrb	lr, [r7, #2758]	@ zero_extendqisi2	@ <variable>.Pix, <variable>.Pix
	cmp	r2, #2	@ tmp9852,
	addgt	r3, r3, #1	@,, MisCnt.3587, MisCnt.3579
	cmp	ip, #0	@ tmp9858,
	ldrb	r0, [r7, #2759]	@ zero_extendqisi2	@ <variable>.Pix, <variable>.Pix
	rsb	r1, r9, lr	@ tmp9865, SmpPat.Pix, <variable>.Pix
	rsblt	ip, ip, #0	@ tmp9859, tmp9858
	ldrb	sl, [sp, #19]	@ zero_extendqisi2	@ SmpPat.Pix, SmpPat.Pix
	cmp	ip, #2	@ tmp9859,
	addgt	r3, r3, #1	@,, MisCnt.3595, MisCnt.3587
	cmp	r1, #0	@ tmp9865,
	rsb	r9, sl, r0	@ tmp9872, SmpPat.Pix, <variable>.Pix
	rsblt	r1, r1, #0	@ tmp9866, tmp9865
	cmp	r1, #2	@ tmp9866,
	addgt	r3, r3, #1	@,, MisCnt.3603, MisCnt.3595
	cmp	r9, #0	@ tmp9872,
	rsblt	r9, r9, #0	@ tmp9873, tmp9872
	cmp	r9, #2	@ tmp9873,
	addgt	r3, r3, #1	@,, tmp9876, MisCnt.3603
	cmp	r3, #2	@ tmp9876,
	bgt	.L56	@,
	ldr	r3, [r7, #2760]	@ <variable>.Comp, <variable>.Comp
	mov	r0, sp	@,
	ldr	r2, [r7, #2764]	@ <variable>.Px, <variable>.Px
	mov	r1, r5	@, pDetPara
	ldr	lr, [r7, #2768]	@ <variable>.Py, <variable>.Py
	str	r3, [sp, #0]	@ <variable>.Comp, SmpPat.Comp
	stmib	sp, {r2, lr}	@ phole stm
	bl	GetSample	@
	ldrb	sl, [r7, #2773]	@ zero_extendqisi2	@ <variable>.Pix, <variable>.Pix
	ldrb	ip, [sp, #13]	@ zero_extendqisi2	@ SmpPat.Pix, SmpPat.Pix
	ldrb	r9, [r7, #2772]	@ zero_extendqisi2	@ <variable>.Pix, <variable>.Pix
	ldrb	r1, [sp, #12]	@ zero_extendqisi2	@ SmpPat.Pix, SmpPat.Pix
	rsb	r3, ip, sl	@ tmp9894, SmpPat.Pix, <variable>.Pix
	cmp	r3, #0	@ tmp9894,
	ldrb	r2, [sp, #14]	@ zero_extendqisi2	@ SmpPat.Pix, SmpPat.Pix
	rsb	sl, r1, r9	@ tmp9887, SmpPat.Pix, <variable>.Pix
	ldrb	r0, [r7, #2774]	@ zero_extendqisi2	@ <variable>.Pix, <variable>.Pix
	rsblt	r3, r3, #0	@ tmp9895, tmp9894
	cmp	sl, #0	@ tmp9887,
	rsb	r0, r2, r0	@ tmp9901, SmpPat.Pix, <variable>.Pix
	rsblt	sl, sl, #0	@ tmp9888, tmp9887
	ldrb	ip, [sp, #15]	@ zero_extendqisi2	@ SmpPat.Pix, SmpPat.Pix
	cmp	r3, #2	@ tmp9895,
	movle	r3, #0	@, tmp9897
	movgt	r3, #1	@, tmp9897
	ldrb	r9, [r7, #2775]	@ zero_extendqisi2	@ <variable>.Pix, <variable>.Pix
	cmp	sl, #2	@ tmp9888,
	addgt	r3, r3, #1	@,, MisCnt.1321, tmp9897
	cmp	r0, #0	@ tmp9901,
	ldrb	r1, [r7, #2776]	@ zero_extendqisi2	@ <variable>.Pix, <variable>.Pix
	rsb	r9, ip, r9	@ tmp9908, SmpPat.Pix, <variable>.Pix
	rsblt	r0, r0, #0	@ tmp9902, tmp9901
	ldrb	r2, [sp, #16]	@ zero_extendqisi2	@ SmpPat.Pix, SmpPat.Pix
	cmp	r0, #2	@ tmp9902,
	addgt	r3, r3, #1	@,, MisCnt.1332, MisCnt.1321
	cmp	r9, #0	@ tmp9908,
	ldrb	r0, [sp, #17]	@ zero_extendqisi2	@ SmpPat.Pix, SmpPat.Pix
	rsb	r2, r2, r1	@ tmp9915, SmpPat.Pix, <variable>.Pix
	rsblt	r9, r9, #0	@ tmp9909, tmp9908
	ldrb	ip, [r7, #2777]	@ zero_extendqisi2	@ <variable>.Pix, <variable>.Pix
	cmp	r9, #2	@ tmp9909,
	addgt	r3, r3, #1	@,, MisCnt.1342, MisCnt.1332
	cmp	r2, #0	@ tmp9915,
	ldrb	sl, [r7, #2778]	@ zero_extendqisi2	@ <variable>.Pix, <variable>.Pix
	rsb	ip, r0, ip	@ tmp9922, SmpPat.Pix, <variable>.Pix
	rsblt	r2, r2, #0	@ tmp9916, tmp9915
	ldrb	r1, [sp, #18]	@ zero_extendqisi2	@ SmpPat.Pix, SmpPat.Pix
	cmp	r2, #2	@ tmp9916,
	addgt	r3, r3, #1	@,, MisCnt.1352, MisCnt.1342
	cmp	ip, #0	@ tmp9922,
	ldrb	r0, [r7, #2779]	@ zero_extendqisi2	@ <variable>.Pix, <variable>.Pix
	rsblt	ip, ip, #0	@ tmp9923, tmp9922
	rsb	r1, r1, sl	@ tmp9929, SmpPat.Pix, <variable>.Pix
	ldrb	r2, [sp, #19]	@ zero_extendqisi2	@ SmpPat.Pix, SmpPat.Pix
	cmp	ip, #2	@ tmp9923,
	addgt	r3, r3, #1	@,, MisCnt.1363, MisCnt.1352
	cmp	r1, #0	@ tmp9929,
	rsb	ip, r2, r0	@ tmp9936, SmpPat.Pix, <variable>.Pix
	rsblt	r1, r1, #0	@ tmp9930, tmp9929
	cmp	r1, #2	@ tmp9930,
	addgt	r3, r3, #1	@,, MisCnt.1374, MisCnt.1363
	cmp	ip, #0	@ tmp9936,
	rsblt	ip, ip, #0	@ tmp9937, tmp9936
	cmp	ip, #2	@ tmp9937,
	addgt	r3, r3, #1	@,, tmp9940, MisCnt.1374
	cmp	r3, #2	@ tmp9940,
	movle	r0, #31	@ Result,
	ble	.L18	@,
.L56:
	ldr	ip, [r6, #2780]	@ <variable>.Comp, <variable>.Comp
	mov	r0, sp	@,
	ldr	r9, [r6, #2784]	@ <variable>.Px, <variable>.Px
	mov	r1, r5	@, pDetPara
	ldr	lr, [r6, #2788]	@ <variable>.Py, <variable>.Py
	movw	r7, #:lower16:.LANCHOR0	@ tmp9941,
	str	ip, [sp, #0]	@ <variable>.Comp, SmpPat.Comp
	movt	r7, #:upper16:.LANCHOR0	@ tmp9941,
	stmib	sp, {r9, lr}	@ phole stm
	bl	GetSample	@
	ldrb	r1, [r6, #2793]	@ zero_extendqisi2	@ <variable>.Pix, <variable>.Pix
	ldrb	r2, [sp, #13]	@ zero_extendqisi2	@ SmpPat.Pix, SmpPat.Pix
	ldrb	r0, [r6, #2792]	@ zero_extendqisi2	@ <variable>.Pix, <variable>.Pix
	ldrb	r3, [sp, #12]	@ zero_extendqisi2	@ SmpPat.Pix, SmpPat.Pix
	rsb	sl, r2, r1	@ tmp9958, SmpPat.Pix, <variable>.Pix
	cmp	sl, #0	@ tmp9958,
	ldrb	r9, [r6, #2794]	@ zero_extendqisi2	@ <variable>.Pix, <variable>.Pix
	rsb	lr, r3, r0	@ tmp9951, SmpPat.Pix, <variable>.Pix
	ldrb	ip, [sp, #14]	@ zero_extendqisi2	@ SmpPat.Pix, SmpPat.Pix
	rsblt	sl, sl, #0	@ tmp9959, tmp9958
	cmp	lr, #0	@ tmp9951,
	rsblt	lr, lr, #0	@ tmp9952, tmp9951
	ldrb	r0, [r6, #2795]	@ zero_extendqisi2	@ <variable>.Pix, <variable>.Pix
	cmp	sl, #2	@ tmp9959,
	movle	r1, #0	@, tmp9961
	movgt	r1, #1	@, tmp9961
	ldrb	r3, [sp, #15]	@ zero_extendqisi2	@ SmpPat.Pix, SmpPat.Pix
	rsb	sl, ip, r9	@ tmp9965, SmpPat.Pix, <variable>.Pix
	cmp	lr, #2	@ tmp9952,
	addgt	r1, r1, #1	@,, MisCnt.3629, tmp9961
	cmp	sl, #0	@ tmp9965,
	rsb	r9, r3, r0	@ tmp9972, SmpPat.Pix, <variable>.Pix
	ldrb	r2, [sp, #16]	@ zero_extendqisi2	@ SmpPat.Pix, SmpPat.Pix
	rsblt	sl, sl, #0	@ tmp9966, tmp9965
	ldrb	ip, [r6, #2796]	@ zero_extendqisi2	@ <variable>.Pix, <variable>.Pix
	cmp	sl, #2	@ tmp9966,
	movle	sl, r1	@, MisCnt.3637, MisCnt.3629
	addgt	sl, r1, #1	@,, MisCnt.3637, MisCnt.3629
	cmp	r9, #0	@ tmp9972,
	ldrb	r0, [r6, #2797]	@ zero_extendqisi2	@ <variable>.Pix, <variable>.Pix
	rsb	ip, r2, ip	@ tmp9979, SmpPat.Pix, <variable>.Pix
	rsblt	r9, r9, #0	@ tmp9973, tmp9972
	ldrb	r1, [sp, #17]	@ zero_extendqisi2	@ SmpPat.Pix, SmpPat.Pix
	cmp	r9, #2	@ tmp9973,
	movle	r3, sl	@, MisCnt.3645, MisCnt.3637
	addgt	r3, sl, #1	@,, MisCnt.3645, MisCnt.3637
	cmp	ip, #0	@ tmp9979,
	ldrb	lr, [r6, #2798]	@ zero_extendqisi2	@ <variable>.Pix, <variable>.Pix
	rsb	r9, r1, r0	@ tmp9986, SmpPat.Pix, <variable>.Pix
	rsblt	ip, ip, #0	@ tmp9980, tmp9979
	ldrb	r2, [sp, #18]	@ zero_extendqisi2	@ SmpPat.Pix, SmpPat.Pix
	cmp	ip, #2	@ tmp9980,
	movle	ip, r3	@, MisCnt.3653, MisCnt.3645
	addgt	ip, r3, #1	@,, MisCnt.3653, MisCnt.3645
	cmp	r9, #0	@ tmp9986,
	ldrb	r0, [r6, #2799]	@ zero_extendqisi2	@ <variable>.Pix, <variable>.Pix
	rsblt	r9, r9, #0	@ tmp9987, tmp9986
	rsb	sl, r2, lr	@ tmp9993, SmpPat.Pix, <variable>.Pix
	ldrb	r3, [sp, #19]	@ zero_extendqisi2	@ SmpPat.Pix, SmpPat.Pix
	cmp	r9, #2	@ tmp9987,
	movle	r1, ip	@, MisCnt.3661, MisCnt.3653
	addgt	r1, ip, #1	@,, MisCnt.3661, MisCnt.3653
	cmp	sl, #0	@ tmp9993,
	rsb	r9, r3, r0	@ tmp10000, SmpPat.Pix, <variable>.Pix
	rsblt	sl, sl, #0	@ tmp9994, tmp9993
	cmp	sl, #2	@ tmp9994,
	movle	ip, r1	@, MisCnt.3669, MisCnt.3661
	addgt	ip, r1, #1	@,, MisCnt.3669, MisCnt.3661
	cmp	r9, #0	@ tmp10000,
	rsblt	r9, r9, #0	@ tmp10001, tmp10000
	cmp	r9, #2	@ tmp10001,
	movle	r0, ip	@, tmp10004, MisCnt.3669
	addgt	r0, ip, #1	@,, tmp10004, MisCnt.3669
	cmp	r0, #2	@ tmp10004,
	bgt	.L57	@,
	ldr	r2, [r7, #2800]	@ <variable>.Comp, <variable>.Comp
	mov	r0, sp	@,
	ldr	r9, [r7, #2804]	@ <variable>.Px, <variable>.Px
	mov	r1, r5	@, pDetPara
	ldr	lr, [r7, #2808]	@ <variable>.Py, <variable>.Py
	stmia	sp, {r2, r9, lr}	@ phole stm
	bl	GetSample	@
	ldrb	ip, [r7, #2813]	@ zero_extendqisi2	@ <variable>.Pix, <variable>.Pix
	ldrb	sl, [sp, #13]	@ zero_extendqisi2	@ SmpPat.Pix, SmpPat.Pix
	ldrb	r0, [r7, #2812]	@ zero_extendqisi2	@ <variable>.Pix, <variable>.Pix
	ldrb	r1, [sp, #12]	@ zero_extendqisi2	@ SmpPat.Pix, SmpPat.Pix
	rsb	r3, sl, ip	@ tmp10022, SmpPat.Pix, <variable>.Pix
	cmp	r3, #0	@ tmp10022,
	ldrb	r9, [r7, #2814]	@ zero_extendqisi2	@ <variable>.Pix, <variable>.Pix
	rsb	lr, r1, r0	@ tmp10015, SmpPat.Pix, <variable>.Pix
	ldrb	r2, [sp, #14]	@ zero_extendqisi2	@ SmpPat.Pix, SmpPat.Pix
	rsblt	r3, r3, #0	@ tmp10023, tmp10022
	cmp	lr, #0	@ tmp10015,
	rsb	r0, r2, r9	@ tmp10029, SmpPat.Pix, <variable>.Pix
	rsblt	lr, lr, #0	@ tmp10016, tmp10015
	ldrb	ip, [sp, #15]	@ zero_extendqisi2	@ SmpPat.Pix, SmpPat.Pix
	cmp	r3, #2	@ tmp10023,
	movle	r3, #0	@, tmp10025
	movgt	r3, #1	@, tmp10025
	ldrb	sl, [r7, #2815]	@ zero_extendqisi2	@ <variable>.Pix, <variable>.Pix
	cmp	lr, #2	@ tmp10016,
	addgt	r3, r3, #1	@,, MisCnt.3695, tmp10025
	cmp	r0, #0	@ tmp10029,
	ldrb	r1, [r7, #2816]	@ zero_extendqisi2	@ <variable>.Pix, <variable>.Pix
	rsb	sl, ip, sl	@ tmp10036, SmpPat.Pix, <variable>.Pix
	rsblt	r0, r0, #0	@ tmp10030, tmp10029
	ldrb	r9, [sp, #16]	@ zero_extendqisi2	@ SmpPat.Pix, SmpPat.Pix
	cmp	r0, #2	@ tmp10030,
	addgt	r3, r3, #1	@,, MisCnt.3703, MisCnt.3695
	cmp	sl, #0	@ tmp10036,
	ldrb	r0, [sp, #17]	@ zero_extendqisi2	@ SmpPat.Pix, SmpPat.Pix
	rsb	r2, r9, r1	@ tmp10043, SmpPat.Pix, <variable>.Pix
	rsblt	sl, sl, #0	@ tmp10037, tmp10036
	ldrb	ip, [r7, #2817]	@ zero_extendqisi2	@ <variable>.Pix, <variable>.Pix
	cmp	sl, #2	@ tmp10037,
	addgt	r3, r3, #1	@,, MisCnt.3711, MisCnt.3703
	cmp	r2, #0	@ tmp10043,
	ldrb	lr, [r7, #2818]	@ zero_extendqisi2	@ <variable>.Pix, <variable>.Pix
	rsb	r9, r0, ip	@ tmp10050, SmpPat.Pix, <variable>.Pix
	rsblt	r2, r2, #0	@ tmp10044, tmp10043
	ldrb	r1, [sp, #18]	@ zero_extendqisi2	@ SmpPat.Pix, SmpPat.Pix
	cmp	r2, #2	@ tmp10044,
	addgt	r3, r3, #1	@,, MisCnt.3719, MisCnt.3711
	cmp	r9, #0	@ tmp10050,
	ldrb	r0, [r7, #2819]	@ zero_extendqisi2	@ <variable>.Pix, <variable>.Pix
	rsb	r1, r1, lr	@ tmp10057, SmpPat.Pix, <variable>.Pix
	rsblt	r9, r9, #0	@ tmp10051, tmp10050
	ldrb	r2, [sp, #19]	@ zero_extendqisi2	@ SmpPat.Pix, SmpPat.Pix
	cmp	r9, #2	@ tmp10051,
	addgt	r3, r3, #1	@,, MisCnt.3727, MisCnt.3719
	cmp	r1, #0	@ tmp10057,
	rsb	sl, r2, r0	@ tmp10064, SmpPat.Pix, <variable>.Pix
	rsblt	r1, r1, #0	@ tmp10058, tmp10057
	cmp	r1, #2	@ tmp10058,
	addgt	r3, r3, #1	@,, MisCnt.3735, MisCnt.3727
	cmp	sl, #0	@ tmp10064,
	rsblt	sl, sl, #0	@ tmp10065, tmp10064
	cmp	sl, #2	@ tmp10065,
	addgt	r3, r3, #1	@,, tmp10068, MisCnt.3735
	cmp	r3, #2	@ tmp10068,
	bgt	.L57	@,
	ldr	r2, [r7, #2820]	@ <variable>.Comp, <variable>.Comp
	mov	r0, sp	@,
	ldr	sl, [r7, #2824]	@ <variable>.Px, <variable>.Px
	mov	r1, r5	@, pDetPara
	ldr	lr, [r7, #2828]	@ <variable>.Py, <variable>.Py
	stmia	sp, {r2, sl, lr}	@ phole stm
	bl	GetSample	@
	ldrb	ip, [r7, #2833]	@ zero_extendqisi2	@ <variable>.Pix, <variable>.Pix
	ldrb	r9, [sp, #13]	@ zero_extendqisi2	@ SmpPat.Pix, SmpPat.Pix
	ldrb	r0, [r7, #2832]	@ zero_extendqisi2	@ <variable>.Pix, <variable>.Pix
	ldrb	r1, [sp, #12]	@ zero_extendqisi2	@ SmpPat.Pix, SmpPat.Pix
	rsb	r3, r9, ip	@ tmp10086, SmpPat.Pix, <variable>.Pix
	cmp	r3, #0	@ tmp10086,
	ldrb	sl, [r7, #2834]	@ zero_extendqisi2	@ <variable>.Pix, <variable>.Pix
	rsb	lr, r1, r0	@ tmp10079, SmpPat.Pix, <variable>.Pix
	ldrb	r2, [sp, #14]	@ zero_extendqisi2	@ SmpPat.Pix, SmpPat.Pix
	rsblt	r3, r3, #0	@ tmp10087, tmp10086
	cmp	lr, #0	@ tmp10079,
	rsb	r0, r2, sl	@ tmp10093, SmpPat.Pix, <variable>.Pix
	rsblt	lr, lr, #0	@ tmp10080, tmp10079
	ldrb	r9, [r7, #2835]	@ zero_extendqisi2	@ <variable>.Pix, <variable>.Pix
	cmp	r3, #2	@ tmp10087,
	movle	r3, #0	@, tmp10089
	movgt	r3, #1	@, tmp10089
	ldrb	ip, [sp, #15]	@ zero_extendqisi2	@ SmpPat.Pix, SmpPat.Pix
	cmp	lr, #2	@ tmp10080,
	addgt	r3, r3, #1	@,, MisCnt.3761, tmp10089
	cmp	r0, #0	@ tmp10093,
	ldrb	r1, [r7, #2836]	@ zero_extendqisi2	@ <variable>.Pix, <variable>.Pix
	rsb	sl, ip, r9	@ tmp10100, SmpPat.Pix, <variable>.Pix
	rsblt	r0, r0, #0	@ tmp10094, tmp10093
	ldrb	r2, [sp, #16]	@ zero_extendqisi2	@ SmpPat.Pix, SmpPat.Pix
	cmp	r0, #2	@ tmp10094,
	addgt	r3, r3, #1	@,, MisCnt.3769, MisCnt.3761
	cmp	sl, #0	@ tmp10100,
	ldrb	r9, [r7, #2837]	@ zero_extendqisi2	@ <variable>.Pix, <variable>.Pix
	rsb	r2, r2, r1	@ tmp10107, SmpPat.Pix, <variable>.Pix
	rsblt	sl, sl, #0	@ tmp10101, tmp10100
	ldrb	r0, [sp, #17]	@ zero_extendqisi2	@ SmpPat.Pix, SmpPat.Pix
	cmp	sl, #2	@ tmp10101,
	addgt	r3, r3, #1	@,, MisCnt.3777, MisCnt.3769
	cmp	r2, #0	@ tmp10107,
	ldrb	lr, [r7, #2838]	@ zero_extendqisi2	@ <variable>.Pix, <variable>.Pix
	rsb	ip, r0, r9	@ tmp10114, SmpPat.Pix, <variable>.Pix
	rsblt	r2, r2, #0	@ tmp10108, tmp10107
	ldrb	r1, [sp, #18]	@ zero_extendqisi2	@ SmpPat.Pix, SmpPat.Pix
	cmp	r2, #2	@ tmp10108,
	addgt	r3, r3, #1	@,, MisCnt.3785, MisCnt.3777
	cmp	ip, #0	@ tmp10114,
	ldrb	r0, [r7, #2839]	@ zero_extendqisi2	@ <variable>.Pix, <variable>.Pix
	rsb	r1, r1, lr	@ tmp10121, SmpPat.Pix, <variable>.Pix
	rsblt	ip, ip, #0	@ tmp10115, tmp10114
	ldrb	r9, [sp, #19]	@ zero_extendqisi2	@ SmpPat.Pix, SmpPat.Pix
	cmp	ip, #2	@ tmp10115,
	addgt	r3, r3, #1	@,, MisCnt.3793, MisCnt.3785
	cmp	r1, #0	@ tmp10121,
	rsb	sl, r9, r0	@ tmp10128, SmpPat.Pix, <variable>.Pix
	rsblt	r1, r1, #0	@ tmp10122, tmp10121
	cmp	r1, #2	@ tmp10122,
	addgt	r3, r3, #1	@,, MisCnt.3801, MisCnt.3793
	cmp	sl, #0	@ tmp10128,
	rsblt	sl, sl, #0	@ tmp10129, tmp10128
	cmp	sl, #2	@ tmp10129,
	addgt	r3, r3, #1	@,, tmp10132, MisCnt.3801
	cmp	r3, #2	@ tmp10132,
	bgt	.L57	@,
	ldr	r2, [r7, #2840]	@ <variable>.Comp, <variable>.Comp
	mov	r0, sp	@,
	ldr	r9, [r7, #2844]	@ <variable>.Px, <variable>.Px
	mov	r1, r5	@, pDetPara
	ldr	lr, [r7, #2848]	@ <variable>.Py, <variable>.Py
	stmia	sp, {r2, r9, lr}	@ phole stm
	bl	GetSample	@
	ldrb	ip, [r7, #2853]	@ zero_extendqisi2	@ <variable>.Pix, <variable>.Pix
	ldrb	sl, [sp, #13]	@ zero_extendqisi2	@ SmpPat.Pix, SmpPat.Pix
	ldrb	r0, [r7, #2852]	@ zero_extendqisi2	@ <variable>.Pix, <variable>.Pix
	ldrb	r1, [sp, #12]	@ zero_extendqisi2	@ SmpPat.Pix, SmpPat.Pix
	rsb	r3, sl, ip	@ tmp10150, SmpPat.Pix, <variable>.Pix
	cmp	r3, #0	@ tmp10150,
	ldrb	r9, [r7, #2854]	@ zero_extendqisi2	@ <variable>.Pix, <variable>.Pix
	rsb	lr, r1, r0	@ tmp10143, SmpPat.Pix, <variable>.Pix
	ldrb	r2, [sp, #14]	@ zero_extendqisi2	@ SmpPat.Pix, SmpPat.Pix
	rsblt	r3, r3, #0	@ tmp10151, tmp10150
	cmp	lr, #0	@ tmp10143,
	rsb	r0, r2, r9	@ tmp10157, SmpPat.Pix, <variable>.Pix
	rsblt	lr, lr, #0	@ tmp10144, tmp10143
	ldrb	ip, [sp, #15]	@ zero_extendqisi2	@ SmpPat.Pix, SmpPat.Pix
	cmp	r3, #2	@ tmp10151,
	movle	r3, #0	@, tmp10153
	movgt	r3, #1	@, tmp10153
	ldrb	sl, [r7, #2855]	@ zero_extendqisi2	@ <variable>.Pix, <variable>.Pix
	cmp	lr, #2	@ tmp10144,
	addgt	r3, r3, #1	@,, MisCnt.3827, tmp10153
	cmp	r0, #0	@ tmp10157,
	ldrb	r1, [r7, #2856]	@ zero_extendqisi2	@ <variable>.Pix, <variable>.Pix
	rsb	sl, ip, sl	@ tmp10164, SmpPat.Pix, <variable>.Pix
	rsblt	r0, r0, #0	@ tmp10158, tmp10157
	ldrb	r9, [sp, #16]	@ zero_extendqisi2	@ SmpPat.Pix, SmpPat.Pix
	cmp	r0, #2	@ tmp10158,
	addgt	r3, r3, #1	@,, MisCnt.3835, MisCnt.3827
	cmp	sl, #0	@ tmp10164,
	ldrb	r0, [sp, #17]	@ zero_extendqisi2	@ SmpPat.Pix, SmpPat.Pix
	rsb	r2, r9, r1	@ tmp10171, SmpPat.Pix, <variable>.Pix
	rsblt	sl, sl, #0	@ tmp10165, tmp10164
	ldrb	ip, [r7, #2857]	@ zero_extendqisi2	@ <variable>.Pix, <variable>.Pix
	cmp	sl, #2	@ tmp10165,
	addgt	r3, r3, #1	@,, MisCnt.3843, MisCnt.3835
	cmp	r2, #0	@ tmp10171,
	ldrb	r9, [sp, #18]	@ zero_extendqisi2	@ SmpPat.Pix, SmpPat.Pix
	rsb	ip, r0, ip	@ tmp10178, SmpPat.Pix, <variable>.Pix
	rsblt	r2, r2, #0	@ tmp10172, tmp10171
	ldrb	lr, [r7, #2858]	@ zero_extendqisi2	@ <variable>.Pix, <variable>.Pix
	cmp	r2, #2	@ tmp10172,
	addgt	r3, r3, #1	@,, MisCnt.3851, MisCnt.3843
	cmp	ip, #0	@ tmp10178,
	ldrb	r0, [r7, #2859]	@ zero_extendqisi2	@ <variable>.Pix, <variable>.Pix
	rsb	r1, r9, lr	@ tmp10185, SmpPat.Pix, <variable>.Pix
	rsblt	ip, ip, #0	@ tmp10179, tmp10178
	ldrb	sl, [sp, #19]	@ zero_extendqisi2	@ SmpPat.Pix, SmpPat.Pix
	cmp	ip, #2	@ tmp10179,
	addgt	r3, r3, #1	@,, MisCnt.3859, MisCnt.3851
	cmp	r1, #0	@ tmp10185,
	rsb	r9, sl, r0	@ tmp10192, SmpPat.Pix, <variable>.Pix
	rsblt	r1, r1, #0	@ tmp10186, tmp10185
	cmp	r1, #2	@ tmp10186,
	addgt	r3, r3, #1	@,, MisCnt.3867, MisCnt.3859
	cmp	r9, #0	@ tmp10192,
	rsblt	r9, r9, #0	@ tmp10193, tmp10192
	cmp	r9, #2	@ tmp10193,
	addgt	r3, r3, #1	@,, tmp10196, MisCnt.3867
	cmp	r3, #2	@ tmp10196,
	bgt	.L57	@,
	ldr	r3, [r7, #2860]	@ <variable>.Comp, <variable>.Comp
	mov	r0, sp	@,
	ldr	r2, [r7, #2864]	@ <variable>.Px, <variable>.Px
	mov	r1, r5	@, pDetPara
	ldr	lr, [r7, #2868]	@ <variable>.Py, <variable>.Py
	str	r3, [sp, #0]	@ <variable>.Comp, SmpPat.Comp
	stmib	sp, {r2, lr}	@ phole stm
	bl	GetSample	@
	ldrb	sl, [r7, #2873]	@ zero_extendqisi2	@ <variable>.Pix, <variable>.Pix
	ldrb	ip, [sp, #13]	@ zero_extendqisi2	@ SmpPat.Pix, SmpPat.Pix
	ldrb	r9, [r7, #2872]	@ zero_extendqisi2	@ <variable>.Pix, <variable>.Pix
	ldrb	r1, [sp, #12]	@ zero_extendqisi2	@ SmpPat.Pix, SmpPat.Pix
	rsb	r3, ip, sl	@ tmp10214, SmpPat.Pix, <variable>.Pix
	cmp	r3, #0	@ tmp10214,
	ldrb	r2, [sp, #14]	@ zero_extendqisi2	@ SmpPat.Pix, SmpPat.Pix
	rsb	sl, r1, r9	@ tmp10207, SmpPat.Pix, <variable>.Pix
	ldrb	r0, [r7, #2874]	@ zero_extendqisi2	@ <variable>.Pix, <variable>.Pix
	rsblt	r3, r3, #0	@ tmp10215, tmp10214
	cmp	sl, #0	@ tmp10207,
	rsb	r0, r2, r0	@ tmp10221, SmpPat.Pix, <variable>.Pix
	rsblt	sl, sl, #0	@ tmp10208, tmp10207
	ldrb	ip, [sp, #15]	@ zero_extendqisi2	@ SmpPat.Pix, SmpPat.Pix
	cmp	r3, #2	@ tmp10215,
	movle	r3, #0	@, tmp10217
	movgt	r3, #1	@, tmp10217
	ldrb	r9, [r7, #2875]	@ zero_extendqisi2	@ <variable>.Pix, <variable>.Pix
	cmp	sl, #2	@ tmp10208,
	addgt	r3, r3, #1	@,, MisCnt.1392, tmp10217
	cmp	r0, #0	@ tmp10221,
	ldrb	r1, [r7, #2876]	@ zero_extendqisi2	@ <variable>.Pix, <variable>.Pix
	rsb	r9, ip, r9	@ tmp10228, SmpPat.Pix, <variable>.Pix
	rsblt	r0, r0, #0	@ tmp10222, tmp10221
	ldrb	r2, [sp, #16]	@ zero_extendqisi2	@ SmpPat.Pix, SmpPat.Pix
	cmp	r0, #2	@ tmp10222,
	addgt	r3, r3, #1	@,, MisCnt.1403, MisCnt.1392
	cmp	r9, #0	@ tmp10228,
	ldrb	r0, [sp, #17]	@ zero_extendqisi2	@ SmpPat.Pix, SmpPat.Pix
	rsb	r2, r2, r1	@ tmp10235, SmpPat.Pix, <variable>.Pix
	rsblt	r9, r9, #0	@ tmp10229, tmp10228
	ldrb	ip, [r7, #2877]	@ zero_extendqisi2	@ <variable>.Pix, <variable>.Pix
	cmp	r9, #2	@ tmp10229,
	addgt	r3, r3, #1	@,, MisCnt.1414, MisCnt.1403
	cmp	r2, #0	@ tmp10235,
	ldrb	sl, [r7, #2878]	@ zero_extendqisi2	@ <variable>.Pix, <variable>.Pix
	rsb	ip, r0, ip	@ tmp10242, SmpPat.Pix, <variable>.Pix
	rsblt	r2, r2, #0	@ tmp10236, tmp10235
	ldrb	r1, [sp, #18]	@ zero_extendqisi2	@ SmpPat.Pix, SmpPat.Pix
	cmp	r2, #2	@ tmp10236,
	addgt	r3, r3, #1	@,, MisCnt.1423, MisCnt.1414
	cmp	ip, #0	@ tmp10242,
	ldrb	r0, [r7, #2879]	@ zero_extendqisi2	@ <variable>.Pix, <variable>.Pix
	rsblt	ip, ip, #0	@ tmp10243, tmp10242
	rsb	r1, r1, sl	@ tmp10249, SmpPat.Pix, <variable>.Pix
	ldrb	r2, [sp, #19]	@ zero_extendqisi2	@ SmpPat.Pix, SmpPat.Pix
	cmp	ip, #2	@ tmp10243,
	addgt	r3, r3, #1	@,, MisCnt.1432, MisCnt.1423
	cmp	r1, #0	@ tmp10249,
	rsb	ip, r2, r0	@ tmp10256, SmpPat.Pix, <variable>.Pix
	rsblt	r1, r1, #0	@ tmp10250, tmp10249
	cmp	r1, #2	@ tmp10250,
	addgt	r3, r3, #1	@,, MisCnt.1442, MisCnt.1432
	cmp	ip, #0	@ tmp10256,
	rsblt	ip, ip, #0	@ tmp10257, tmp10256
	cmp	ip, #2	@ tmp10257,
	addgt	r3, r3, #1	@,, tmp10260, MisCnt.1442
	cmp	r3, #2	@ tmp10260,
	movle	r0, #32	@ Result,
	ble	.L18	@,
.L57:
	ldr	ip, [r6, #2880]	@ <variable>.Comp, <variable>.Comp
	mov	r0, sp	@,
	ldr	r9, [r6, #2884]	@ <variable>.Px, <variable>.Px
	mov	r1, r5	@, pDetPara
	ldr	lr, [r6, #2888]	@ <variable>.Py, <variable>.Py
	movw	r7, #:lower16:.LANCHOR0	@ tmp10261,
	str	ip, [sp, #0]	@ <variable>.Comp, SmpPat.Comp
	movt	r7, #:upper16:.LANCHOR0	@ tmp10261,
	stmib	sp, {r9, lr}	@ phole stm
	bl	GetSample	@
	ldrb	r1, [r6, #2893]	@ zero_extendqisi2	@ <variable>.Pix, <variable>.Pix
	ldrb	r2, [sp, #13]	@ zero_extendqisi2	@ SmpPat.Pix, SmpPat.Pix
	ldrb	r0, [r6, #2892]	@ zero_extendqisi2	@ <variable>.Pix, <variable>.Pix
	ldrb	r3, [sp, #12]	@ zero_extendqisi2	@ SmpPat.Pix, SmpPat.Pix
	rsb	sl, r2, r1	@ tmp10278, SmpPat.Pix, <variable>.Pix
	cmp	sl, #0	@ tmp10278,
	ldrb	r9, [r6, #2894]	@ zero_extendqisi2	@ <variable>.Pix, <variable>.Pix
	rsb	lr, r3, r0	@ tmp10271, SmpPat.Pix, <variable>.Pix
	ldrb	ip, [sp, #14]	@ zero_extendqisi2	@ SmpPat.Pix, SmpPat.Pix
	rsblt	sl, sl, #0	@ tmp10279, tmp10278
	cmp	lr, #0	@ tmp10271,
	rsblt	lr, lr, #0	@ tmp10272, tmp10271
	ldrb	r0, [r6, #2895]	@ zero_extendqisi2	@ <variable>.Pix, <variable>.Pix
	cmp	sl, #2	@ tmp10279,
	movle	r1, #0	@, tmp10281
	movgt	r1, #1	@, tmp10281
	ldrb	r3, [sp, #15]	@ zero_extendqisi2	@ SmpPat.Pix, SmpPat.Pix
	rsb	sl, ip, r9	@ tmp10285, SmpPat.Pix, <variable>.Pix
	cmp	lr, #2	@ tmp10272,
	addgt	r1, r1, #1	@,, MisCnt.3893, tmp10281
	cmp	sl, #0	@ tmp10285,
	rsb	r9, r3, r0	@ tmp10292, SmpPat.Pix, <variable>.Pix
	ldrb	r2, [sp, #16]	@ zero_extendqisi2	@ SmpPat.Pix, SmpPat.Pix
	rsblt	sl, sl, #0	@ tmp10286, tmp10285
	ldrb	ip, [r6, #2896]	@ zero_extendqisi2	@ <variable>.Pix, <variable>.Pix
	cmp	sl, #2	@ tmp10286,
	movle	sl, r1	@, MisCnt.3901, MisCnt.3893
	addgt	sl, r1, #1	@,, MisCnt.3901, MisCnt.3893
	cmp	r9, #0	@ tmp10292,
	ldrb	r0, [r6, #2897]	@ zero_extendqisi2	@ <variable>.Pix, <variable>.Pix
	rsb	ip, r2, ip	@ tmp10299, SmpPat.Pix, <variable>.Pix
	rsblt	r9, r9, #0	@ tmp10293, tmp10292
	ldrb	r1, [sp, #17]	@ zero_extendqisi2	@ SmpPat.Pix, SmpPat.Pix
	cmp	r9, #2	@ tmp10293,
	movle	r3, sl	@, MisCnt.3909, MisCnt.3901
	addgt	r3, sl, #1	@,, MisCnt.3909, MisCnt.3901
	cmp	ip, #0	@ tmp10299,
	ldrb	lr, [r6, #2898]	@ zero_extendqisi2	@ <variable>.Pix, <variable>.Pix
	rsb	r9, r1, r0	@ tmp10306, SmpPat.Pix, <variable>.Pix
	rsblt	ip, ip, #0	@ tmp10300, tmp10299
	ldrb	r2, [sp, #18]	@ zero_extendqisi2	@ SmpPat.Pix, SmpPat.Pix
	cmp	ip, #2	@ tmp10300,
	movle	ip, r3	@, MisCnt.3917, MisCnt.3909
	addgt	ip, r3, #1	@,, MisCnt.3917, MisCnt.3909
	cmp	r9, #0	@ tmp10306,
	ldrb	r0, [r6, #2899]	@ zero_extendqisi2	@ <variable>.Pix, <variable>.Pix
	rsblt	r9, r9, #0	@ tmp10307, tmp10306
	rsb	sl, r2, lr	@ tmp10313, SmpPat.Pix, <variable>.Pix
	ldrb	r3, [sp, #19]	@ zero_extendqisi2	@ SmpPat.Pix, SmpPat.Pix
	cmp	r9, #2	@ tmp10307,
	movle	r1, ip	@, MisCnt.3925, MisCnt.3917
	addgt	r1, ip, #1	@,, MisCnt.3925, MisCnt.3917
	cmp	sl, #0	@ tmp10313,
	rsb	r9, r3, r0	@ tmp10320, SmpPat.Pix, <variable>.Pix
	rsblt	sl, sl, #0	@ tmp10314, tmp10313
	cmp	sl, #2	@ tmp10314,
	movle	ip, r1	@, MisCnt.3933, MisCnt.3925
	addgt	ip, r1, #1	@,, MisCnt.3933, MisCnt.3925
	cmp	r9, #0	@ tmp10320,
	rsblt	r9, r9, #0	@ tmp10321, tmp10320
	cmp	r9, #2	@ tmp10321,
	movle	r0, ip	@, tmp10324, MisCnt.3933
	addgt	r0, ip, #1	@,, tmp10324, MisCnt.3933
	cmp	r0, #2	@ tmp10324,
	bgt	.L58	@,
	ldr	r2, [r7, #2900]	@ <variable>.Comp, <variable>.Comp
	mov	r0, sp	@,
	ldr	r9, [r7, #2904]	@ <variable>.Px, <variable>.Px
	mov	r1, r5	@, pDetPara
	ldr	lr, [r7, #2908]	@ <variable>.Py, <variable>.Py
	stmia	sp, {r2, r9, lr}	@ phole stm
	bl	GetSample	@
	ldrb	ip, [r7, #2913]	@ zero_extendqisi2	@ <variable>.Pix, <variable>.Pix
	ldrb	sl, [sp, #13]	@ zero_extendqisi2	@ SmpPat.Pix, SmpPat.Pix
	ldrb	r0, [r7, #2912]	@ zero_extendqisi2	@ <variable>.Pix, <variable>.Pix
	ldrb	r1, [sp, #12]	@ zero_extendqisi2	@ SmpPat.Pix, SmpPat.Pix
	rsb	r3, sl, ip	@ tmp10342, SmpPat.Pix, <variable>.Pix
	cmp	r3, #0	@ tmp10342,
	ldrb	r9, [r7, #2914]	@ zero_extendqisi2	@ <variable>.Pix, <variable>.Pix
	rsb	lr, r1, r0	@ tmp10335, SmpPat.Pix, <variable>.Pix
	ldrb	r2, [sp, #14]	@ zero_extendqisi2	@ SmpPat.Pix, SmpPat.Pix
	rsblt	r3, r3, #0	@ tmp10343, tmp10342
	cmp	lr, #0	@ tmp10335,
	rsb	r0, r2, r9	@ tmp10349, SmpPat.Pix, <variable>.Pix
	rsblt	lr, lr, #0	@ tmp10336, tmp10335
	ldrb	ip, [sp, #15]	@ zero_extendqisi2	@ SmpPat.Pix, SmpPat.Pix
	cmp	r3, #2	@ tmp10343,
	movle	r3, #0	@, tmp10345
	movgt	r3, #1	@, tmp10345
	ldrb	sl, [r7, #2915]	@ zero_extendqisi2	@ <variable>.Pix, <variable>.Pix
	cmp	lr, #2	@ tmp10336,
	addgt	r3, r3, #1	@,, MisCnt.3959, tmp10345
	cmp	r0, #0	@ tmp10349,
	ldrb	r1, [r7, #2916]	@ zero_extendqisi2	@ <variable>.Pix, <variable>.Pix
	rsb	sl, ip, sl	@ tmp10356, SmpPat.Pix, <variable>.Pix
	rsblt	r0, r0, #0	@ tmp10350, tmp10349
	ldrb	r9, [sp, #16]	@ zero_extendqisi2	@ SmpPat.Pix, SmpPat.Pix
	cmp	r0, #2	@ tmp10350,
	addgt	r3, r3, #1	@,, MisCnt.3967, MisCnt.3959
	cmp	sl, #0	@ tmp10356,
	ldrb	r0, [sp, #17]	@ zero_extendqisi2	@ SmpPat.Pix, SmpPat.Pix
	rsb	r2, r9, r1	@ tmp10363, SmpPat.Pix, <variable>.Pix
	rsblt	sl, sl, #0	@ tmp10357, tmp10356
	ldrb	ip, [r7, #2917]	@ zero_extendqisi2	@ <variable>.Pix, <variable>.Pix
	cmp	sl, #2	@ tmp10357,
	addgt	r3, r3, #1	@,, MisCnt.3975, MisCnt.3967
	cmp	r2, #0	@ tmp10363,
	ldrb	lr, [r7, #2918]	@ zero_extendqisi2	@ <variable>.Pix, <variable>.Pix
	rsb	r9, r0, ip	@ tmp10370, SmpPat.Pix, <variable>.Pix
	rsblt	r2, r2, #0	@ tmp10364, tmp10363
	ldrb	r1, [sp, #18]	@ zero_extendqisi2	@ SmpPat.Pix, SmpPat.Pix
	cmp	r2, #2	@ tmp10364,
	addgt	r3, r3, #1	@,, MisCnt.3983, MisCnt.3975
	cmp	r9, #0	@ tmp10370,
	ldrb	r0, [r7, #2919]	@ zero_extendqisi2	@ <variable>.Pix, <variable>.Pix
	rsb	r1, r1, lr	@ tmp10377, SmpPat.Pix, <variable>.Pix
	rsblt	r9, r9, #0	@ tmp10371, tmp10370
	ldrb	r2, [sp, #19]	@ zero_extendqisi2	@ SmpPat.Pix, SmpPat.Pix
	cmp	r9, #2	@ tmp10371,
	addgt	r3, r3, #1	@,, MisCnt.3991, MisCnt.3983
	cmp	r1, #0	@ tmp10377,
	rsb	sl, r2, r0	@ tmp10384, SmpPat.Pix, <variable>.Pix
	rsblt	r1, r1, #0	@ tmp10378, tmp10377
	cmp	r1, #2	@ tmp10378,
	addgt	r3, r3, #1	@,, MisCnt.3999, MisCnt.3991
	cmp	sl, #0	@ tmp10384,
	rsblt	sl, sl, #0	@ tmp10385, tmp10384
	cmp	sl, #2	@ tmp10385,
	addgt	r3, r3, #1	@,, tmp10388, MisCnt.3999
	cmp	r3, #2	@ tmp10388,
	bgt	.L58	@,
	ldr	r2, [r7, #2920]	@ <variable>.Comp, <variable>.Comp
	mov	r0, sp	@,
	ldr	sl, [r7, #2924]	@ <variable>.Px, <variable>.Px
	mov	r1, r5	@, pDetPara
	ldr	lr, [r7, #2928]	@ <variable>.Py, <variable>.Py
	stmia	sp, {r2, sl, lr}	@ phole stm
	bl	GetSample	@
	ldrb	ip, [r7, #2933]	@ zero_extendqisi2	@ <variable>.Pix, <variable>.Pix
	ldrb	r9, [sp, #13]	@ zero_extendqisi2	@ SmpPat.Pix, SmpPat.Pix
	ldrb	r0, [r7, #2932]	@ zero_extendqisi2	@ <variable>.Pix, <variable>.Pix
	ldrb	r1, [sp, #12]	@ zero_extendqisi2	@ SmpPat.Pix, SmpPat.Pix
	rsb	r3, r9, ip	@ tmp10406, SmpPat.Pix, <variable>.Pix
	cmp	r3, #0	@ tmp10406,
	ldrb	sl, [r7, #2934]	@ zero_extendqisi2	@ <variable>.Pix, <variable>.Pix
	rsb	lr, r1, r0	@ tmp10399, SmpPat.Pix, <variable>.Pix
	ldrb	r2, [sp, #14]	@ zero_extendqisi2	@ SmpPat.Pix, SmpPat.Pix
	rsblt	r3, r3, #0	@ tmp10407, tmp10406
	cmp	lr, #0	@ tmp10399,
	rsb	r0, r2, sl	@ tmp10413, SmpPat.Pix, <variable>.Pix
	rsblt	lr, lr, #0	@ tmp10400, tmp10399
	ldrb	r9, [r7, #2935]	@ zero_extendqisi2	@ <variable>.Pix, <variable>.Pix
	cmp	r3, #2	@ tmp10407,
	movle	r3, #0	@, tmp10409
	movgt	r3, #1	@, tmp10409
	ldrb	ip, [sp, #15]	@ zero_extendqisi2	@ SmpPat.Pix, SmpPat.Pix
	cmp	lr, #2	@ tmp10400,
	addgt	r3, r3, #1	@,, MisCnt.4025, tmp10409
	cmp	r0, #0	@ tmp10413,
	ldrb	r1, [r7, #2936]	@ zero_extendqisi2	@ <variable>.Pix, <variable>.Pix
	rsb	sl, ip, r9	@ tmp10420, SmpPat.Pix, <variable>.Pix
	rsblt	r0, r0, #0	@ tmp10414, tmp10413
	ldrb	r2, [sp, #16]	@ zero_extendqisi2	@ SmpPat.Pix, SmpPat.Pix
	cmp	r0, #2	@ tmp10414,
	addgt	r3, r3, #1	@,, MisCnt.4033, MisCnt.4025
	cmp	sl, #0	@ tmp10420,
	ldrb	r9, [r7, #2937]	@ zero_extendqisi2	@ <variable>.Pix, <variable>.Pix
	rsb	r2, r2, r1	@ tmp10427, SmpPat.Pix, <variable>.Pix
	rsblt	sl, sl, #0	@ tmp10421, tmp10420
	ldrb	r0, [sp, #17]	@ zero_extendqisi2	@ SmpPat.Pix, SmpPat.Pix
	cmp	sl, #2	@ tmp10421,
	addgt	r3, r3, #1	@,, MisCnt.4041, MisCnt.4033
	cmp	r2, #0	@ tmp10427,
	ldrb	lr, [r7, #2938]	@ zero_extendqisi2	@ <variable>.Pix, <variable>.Pix
	rsb	ip, r0, r9	@ tmp10434, SmpPat.Pix, <variable>.Pix
	rsblt	r2, r2, #0	@ tmp10428, tmp10427
	ldrb	r1, [sp, #18]	@ zero_extendqisi2	@ SmpPat.Pix, SmpPat.Pix
	cmp	r2, #2	@ tmp10428,
	addgt	r3, r3, #1	@,, MisCnt.4049, MisCnt.4041
	cmp	ip, #0	@ tmp10434,
	ldrb	r0, [r7, #2939]	@ zero_extendqisi2	@ <variable>.Pix, <variable>.Pix
	rsb	r1, r1, lr	@ tmp10441, SmpPat.Pix, <variable>.Pix
	rsblt	ip, ip, #0	@ tmp10435, tmp10434
	ldrb	r9, [sp, #19]	@ zero_extendqisi2	@ SmpPat.Pix, SmpPat.Pix
	cmp	ip, #2	@ tmp10435,
	addgt	r3, r3, #1	@,, MisCnt.4057, MisCnt.4049
	cmp	r1, #0	@ tmp10441,
	rsb	sl, r9, r0	@ tmp10448, SmpPat.Pix, <variable>.Pix
	rsblt	r1, r1, #0	@ tmp10442, tmp10441
	cmp	r1, #2	@ tmp10442,
	addgt	r3, r3, #1	@,, MisCnt.4065, MisCnt.4057
	cmp	sl, #0	@ tmp10448,
	rsblt	sl, sl, #0	@ tmp10449, tmp10448
	cmp	sl, #2	@ tmp10449,
	addgt	r3, r3, #1	@,, tmp10452, MisCnt.4065
	cmp	r3, #2	@ tmp10452,
	bgt	.L58	@,
	ldr	r2, [r7, #2940]	@ <variable>.Comp, <variable>.Comp
	mov	r0, sp	@,
	ldr	r9, [r7, #2944]	@ <variable>.Px, <variable>.Px
	mov	r1, r5	@, pDetPara
	ldr	lr, [r7, #2948]	@ <variable>.Py, <variable>.Py
	stmia	sp, {r2, r9, lr}	@ phole stm
	bl	GetSample	@
	ldrb	ip, [r7, #2953]	@ zero_extendqisi2	@ <variable>.Pix, <variable>.Pix
	ldrb	sl, [sp, #13]	@ zero_extendqisi2	@ SmpPat.Pix, SmpPat.Pix
	ldrb	r0, [r7, #2952]	@ zero_extendqisi2	@ <variable>.Pix, <variable>.Pix
	ldrb	r1, [sp, #12]	@ zero_extendqisi2	@ SmpPat.Pix, SmpPat.Pix
	rsb	r3, sl, ip	@ tmp10470, SmpPat.Pix, <variable>.Pix
	cmp	r3, #0	@ tmp10470,
	ldrb	r9, [r7, #2954]	@ zero_extendqisi2	@ <variable>.Pix, <variable>.Pix
	rsb	lr, r1, r0	@ tmp10463, SmpPat.Pix, <variable>.Pix
	ldrb	r2, [sp, #14]	@ zero_extendqisi2	@ SmpPat.Pix, SmpPat.Pix
	rsblt	r3, r3, #0	@ tmp10471, tmp10470
	cmp	lr, #0	@ tmp10463,
	rsb	r0, r2, r9	@ tmp10477, SmpPat.Pix, <variable>.Pix
	rsblt	lr, lr, #0	@ tmp10464, tmp10463
	ldrb	ip, [sp, #15]	@ zero_extendqisi2	@ SmpPat.Pix, SmpPat.Pix
	cmp	r3, #2	@ tmp10471,
	movle	r3, #0	@, tmp10473
	movgt	r3, #1	@, tmp10473
	ldrb	sl, [r7, #2955]	@ zero_extendqisi2	@ <variable>.Pix, <variable>.Pix
	cmp	lr, #2	@ tmp10464,
	addgt	r3, r3, #1	@,, MisCnt.4091, tmp10473
	cmp	r0, #0	@ tmp10477,
	ldrb	r1, [r7, #2956]	@ zero_extendqisi2	@ <variable>.Pix, <variable>.Pix
	rsb	sl, ip, sl	@ tmp10484, SmpPat.Pix, <variable>.Pix
	rsblt	r0, r0, #0	@ tmp10478, tmp10477
	ldrb	r9, [sp, #16]	@ zero_extendqisi2	@ SmpPat.Pix, SmpPat.Pix
	cmp	r0, #2	@ tmp10478,
	addgt	r3, r3, #1	@,, MisCnt.4099, MisCnt.4091
	cmp	sl, #0	@ tmp10484,
	ldrb	r0, [sp, #17]	@ zero_extendqisi2	@ SmpPat.Pix, SmpPat.Pix
	rsb	r2, r9, r1	@ tmp10491, SmpPat.Pix, <variable>.Pix
	rsblt	sl, sl, #0	@ tmp10485, tmp10484
	ldrb	ip, [r7, #2957]	@ zero_extendqisi2	@ <variable>.Pix, <variable>.Pix
	cmp	sl, #2	@ tmp10485,
	addgt	r3, r3, #1	@,, MisCnt.4107, MisCnt.4099
	cmp	r2, #0	@ tmp10491,
	ldrb	r9, [sp, #18]	@ zero_extendqisi2	@ SmpPat.Pix, SmpPat.Pix
	rsb	ip, r0, ip	@ tmp10498, SmpPat.Pix, <variable>.Pix
	rsblt	r2, r2, #0	@ tmp10492, tmp10491
	ldrb	lr, [r7, #2958]	@ zero_extendqisi2	@ <variable>.Pix, <variable>.Pix
	cmp	r2, #2	@ tmp10492,
	addgt	r3, r3, #1	@,, MisCnt.4115, MisCnt.4107
	cmp	ip, #0	@ tmp10498,
	ldrb	r0, [r7, #2959]	@ zero_extendqisi2	@ <variable>.Pix, <variable>.Pix
	rsb	r1, r9, lr	@ tmp10505, SmpPat.Pix, <variable>.Pix
	rsblt	ip, ip, #0	@ tmp10499, tmp10498
	ldrb	sl, [sp, #19]	@ zero_extendqisi2	@ SmpPat.Pix, SmpPat.Pix
	cmp	ip, #2	@ tmp10499,
	addgt	r3, r3, #1	@,, MisCnt.4123, MisCnt.4115
	cmp	r1, #0	@ tmp10505,
	rsb	r9, sl, r0	@ tmp10512, SmpPat.Pix, <variable>.Pix
	rsblt	r1, r1, #0	@ tmp10506, tmp10505
	cmp	r1, #2	@ tmp10506,
	addgt	r3, r3, #1	@,, MisCnt.4131, MisCnt.4123
	cmp	r9, #0	@ tmp10512,
	rsblt	r9, r9, #0	@ tmp10513, tmp10512
	cmp	r9, #2	@ tmp10513,
	addgt	r3, r3, #1	@,, tmp10516, MisCnt.4131
	cmp	r3, #2	@ tmp10516,
	bgt	.L58	@,
	ldr	r3, [r7, #2960]	@ <variable>.Comp, <variable>.Comp
	mov	r0, sp	@,
	ldr	r2, [r7, #2964]	@ <variable>.Px, <variable>.Px
	mov	r1, r5	@, pDetPara
	ldr	lr, [r7, #2968]	@ <variable>.Py, <variable>.Py
	str	r3, [sp, #0]	@ <variable>.Comp, SmpPat.Comp
	stmib	sp, {r2, lr}	@ phole stm
	bl	GetSample	@
	ldrb	sl, [r7, #2973]	@ zero_extendqisi2	@ <variable>.Pix, <variable>.Pix
	ldrb	ip, [sp, #13]	@ zero_extendqisi2	@ SmpPat.Pix, SmpPat.Pix
	ldrb	r9, [r7, #2972]	@ zero_extendqisi2	@ <variable>.Pix, <variable>.Pix
	ldrb	r1, [sp, #12]	@ zero_extendqisi2	@ SmpPat.Pix, SmpPat.Pix
	rsb	r3, ip, sl	@ tmp10534, SmpPat.Pix, <variable>.Pix
	cmp	r3, #0	@ tmp10534,
	ldrb	r2, [sp, #14]	@ zero_extendqisi2	@ SmpPat.Pix, SmpPat.Pix
	rsb	sl, r1, r9	@ tmp10527, SmpPat.Pix, <variable>.Pix
	ldrb	r0, [r7, #2974]	@ zero_extendqisi2	@ <variable>.Pix, <variable>.Pix
	rsblt	r3, r3, #0	@ tmp10535, tmp10534
	cmp	sl, #0	@ tmp10527,
	rsb	r0, r2, r0	@ tmp10541, SmpPat.Pix, <variable>.Pix
	rsblt	sl, sl, #0	@ tmp10528, tmp10527
	ldrb	ip, [sp, #15]	@ zero_extendqisi2	@ SmpPat.Pix, SmpPat.Pix
	cmp	r3, #2	@ tmp10535,
	movle	r3, #0	@, tmp10537
	movgt	r3, #1	@, tmp10537
	ldrb	r9, [r7, #2975]	@ zero_extendqisi2	@ <variable>.Pix, <variable>.Pix
	cmp	sl, #2	@ tmp10528,
	addgt	r3, r3, #1	@,, MisCnt.1460, tmp10537
	cmp	r0, #0	@ tmp10541,
	ldrb	r1, [r7, #2976]	@ zero_extendqisi2	@ <variable>.Pix, <variable>.Pix
	rsb	r9, ip, r9	@ tmp10548, SmpPat.Pix, <variable>.Pix
	rsblt	r0, r0, #0	@ tmp10542, tmp10541
	ldrb	r2, [sp, #16]	@ zero_extendqisi2	@ SmpPat.Pix, SmpPat.Pix
	cmp	r0, #2	@ tmp10542,
	addgt	r3, r3, #1	@,, MisCnt.1468, MisCnt.1460
	cmp	r9, #0	@ tmp10548,
	ldrb	r0, [sp, #17]	@ zero_extendqisi2	@ SmpPat.Pix, SmpPat.Pix
	rsb	r2, r2, r1	@ tmp10555, SmpPat.Pix, <variable>.Pix
	rsblt	r9, r9, #0	@ tmp10549, tmp10548
	ldrb	ip, [r7, #2977]	@ zero_extendqisi2	@ <variable>.Pix, <variable>.Pix
	cmp	r9, #2	@ tmp10549,
	addgt	r3, r3, #1	@,, MisCnt.1476, MisCnt.1468
	cmp	r2, #0	@ tmp10555,
	ldrb	sl, [r7, #2978]	@ zero_extendqisi2	@ <variable>.Pix, <variable>.Pix
	rsb	ip, r0, ip	@ tmp10562, SmpPat.Pix, <variable>.Pix
	rsblt	r2, r2, #0	@ tmp10556, tmp10555
	ldrb	r1, [sp, #18]	@ zero_extendqisi2	@ SmpPat.Pix, SmpPat.Pix
	cmp	r2, #2	@ tmp10556,
	addgt	r3, r3, #1	@,, MisCnt.1484, MisCnt.1476
	cmp	ip, #0	@ tmp10562,
	ldrb	r0, [r7, #2979]	@ zero_extendqisi2	@ <variable>.Pix, <variable>.Pix
	rsblt	ip, ip, #0	@ tmp10563, tmp10562
	rsb	r1, r1, sl	@ tmp10569, SmpPat.Pix, <variable>.Pix
	ldrb	r2, [sp, #19]	@ zero_extendqisi2	@ SmpPat.Pix, SmpPat.Pix
	cmp	ip, #2	@ tmp10563,
	addgt	r3, r3, #1	@,, MisCnt.1495, MisCnt.1484
	cmp	r1, #0	@ tmp10569,
	rsb	ip, r2, r0	@ tmp10576, SmpPat.Pix, <variable>.Pix
	rsblt	r1, r1, #0	@ tmp10570, tmp10569
	cmp	r1, #2	@ tmp10570,
	addgt	r3, r3, #1	@,, MisCnt.1506, MisCnt.1495
	cmp	ip, #0	@ tmp10576,
	rsblt	ip, ip, #0	@ tmp10577, tmp10576
	cmp	ip, #2	@ tmp10577,
	addgt	r3, r3, #1	@,, tmp10580, MisCnt.1506
	cmp	r3, #2	@ tmp10580,
	movle	r0, #33	@ Result,
	ble	.L18	@,
.L58:
	ldr	r3, [r6, #2980]	@ <variable>.Comp, <variable>.Comp
	mov	r0, sp	@,
	ldr	r2, [r6, #2984]	@ <variable>.Px, <variable>.Px
	mov	r1, r5	@, pDetPara
	ldr	lr, [r6, #2988]	@ <variable>.Py, <variable>.Py
	movw	r7, #:lower16:.LANCHOR0	@ tmp10581,
	str	r3, [sp, #0]	@ <variable>.Comp, SmpPat.Comp
	movt	r7, #:upper16:.LANCHOR0	@ tmp10581,
	stmib	sp, {r2, lr}	@ phole stm
	bl	GetSample	@
	ldrb	ip, [r6, #2993]	@ zero_extendqisi2	@ <variable>.Pix, <variable>.Pix
	ldrb	sl, [sp, #13]	@ zero_extendqisi2	@ SmpPat.Pix, SmpPat.Pix
	ldrb	r9, [r6, #2992]	@ zero_extendqisi2	@ <variable>.Pix, <variable>.Pix
	ldrb	r1, [sp, #12]	@ zero_extendqisi2	@ SmpPat.Pix, SmpPat.Pix
	rsb	r3, sl, ip	@ tmp10598, SmpPat.Pix, <variable>.Pix
	cmp	r3, #0	@ tmp10598,
	ldrb	r2, [sp, #14]	@ zero_extendqisi2	@ SmpPat.Pix, SmpPat.Pix
	rsb	lr, r1, r9	@ tmp10591, SmpPat.Pix, <variable>.Pix
	ldrb	r0, [r6, #2994]	@ zero_extendqisi2	@ <variable>.Pix, <variable>.Pix
	rsblt	r3, r3, #0	@ tmp10599, tmp10598
	cmp	lr, #0	@ tmp10591,
	rsb	r0, r2, r0	@ tmp10605, SmpPat.Pix, <variable>.Pix
	rsblt	lr, lr, #0	@ tmp10592, tmp10591
	ldrb	ip, [sp, #15]	@ zero_extendqisi2	@ SmpPat.Pix, SmpPat.Pix
	cmp	r3, #2	@ tmp10599,
	movle	r9, #0	@, tmp10601
	movgt	r9, #1	@, tmp10601
	ldrb	sl, [r6, #2995]	@ zero_extendqisi2	@ <variable>.Pix, <variable>.Pix
	cmp	lr, #2	@ tmp10592,
	addgt	r9, r9, #1	@,, MisCnt.4157, tmp10601
	cmp	r0, #0	@ tmp10605,
	ldrb	r1, [r6, #2996]	@ zero_extendqisi2	@ <variable>.Pix, <variable>.Pix
	rsb	sl, ip, sl	@ tmp10612, SmpPat.Pix, <variable>.Pix
	rsblt	r0, r0, #0	@ tmp10606, tmp10605
	ldrb	r2, [sp, #16]	@ zero_extendqisi2	@ SmpPat.Pix, SmpPat.Pix
	cmp	r0, #2	@ tmp10606,
	addgt	r9, r9, #1	@,, MisCnt.4165, MisCnt.4157
	cmp	sl, #0	@ tmp10612,
	ldrb	r0, [sp, #17]	@ zero_extendqisi2	@ SmpPat.Pix, SmpPat.Pix
	rsb	r2, r2, r1	@ tmp10619, SmpPat.Pix, <variable>.Pix
	rsblt	sl, sl, #0	@ tmp10613, tmp10612
	ldrb	ip, [r6, #2997]	@ zero_extendqisi2	@ <variable>.Pix, <variable>.Pix
	cmp	sl, #2	@ tmp10613,
	addgt	r9, r9, #1	@,, MisCnt.4173, MisCnt.4165
	cmp	r2, #0	@ tmp10619,
	ldrb	lr, [r6, #2998]	@ zero_extendqisi2	@ <variable>.Pix, <variable>.Pix
	rsb	ip, r0, ip	@ tmp10626, SmpPat.Pix, <variable>.Pix
	rsblt	r2, r2, #0	@ tmp10620, tmp10619
	ldrb	r1, [sp, #18]	@ zero_extendqisi2	@ SmpPat.Pix, SmpPat.Pix
	cmp	r2, #2	@ tmp10620,
	addgt	r9, r9, #1	@,, MisCnt.4181, MisCnt.4173
	cmp	ip, #0	@ tmp10626,
	ldrb	r0, [r6, #2999]	@ zero_extendqisi2	@ <variable>.Pix, <variable>.Pix
	rsblt	ip, ip, #0	@ tmp10627, tmp10626
	rsb	r1, r1, lr	@ tmp10633, SmpPat.Pix, <variable>.Pix
	ldrb	sl, [sp, #19]	@ zero_extendqisi2	@ SmpPat.Pix, SmpPat.Pix
	cmp	ip, #2	@ tmp10627,
	addgt	r9, r9, #1	@,, MisCnt.4189, MisCnt.4181
	cmp	r1, #0	@ tmp10633,
	rsb	ip, sl, r0	@ tmp10640, SmpPat.Pix, <variable>.Pix
	rsblt	r1, r1, #0	@ tmp10634, tmp10633
	cmp	r1, #2	@ tmp10634,
	addgt	r9, r9, #1	@,, MisCnt.4197, MisCnt.4189
	cmp	ip, #0	@ tmp10640,
	rsblt	ip, ip, #0	@ tmp10641, tmp10640
	cmp	ip, #2	@ tmp10641,
	addgt	r9, r9, #1	@,, tmp10644, MisCnt.4197
	cmp	r9, #2	@ tmp10644,
	bgt	.L59	@,
	ldr	r3, [r7, #3000]	@ <variable>.Comp, <variable>.Comp
	mov	r0, sp	@,
	ldr	r2, [r7, #3004]	@ <variable>.Px, <variable>.Px
	mov	r1, r5	@, pDetPara
	ldr	lr, [r7, #3008]	@ <variable>.Py, <variable>.Py
	str	r3, [sp, #0]	@ <variable>.Comp, SmpPat.Comp
	stmib	sp, {r2, lr}	@ phole stm
	bl	GetSample	@
	ldrb	ip, [r7, #3013]	@ zero_extendqisi2	@ <variable>.Pix, <variable>.Pix
	ldrb	sl, [sp, #13]	@ zero_extendqisi2	@ SmpPat.Pix, SmpPat.Pix
	ldrb	r9, [r7, #3012]	@ zero_extendqisi2	@ <variable>.Pix, <variable>.Pix
	ldrb	r1, [sp, #12]	@ zero_extendqisi2	@ SmpPat.Pix, SmpPat.Pix
	rsb	r3, sl, ip	@ tmp10662, SmpPat.Pix, <variable>.Pix
	cmp	r3, #0	@ tmp10662,
	ldrb	r2, [sp, #14]	@ zero_extendqisi2	@ SmpPat.Pix, SmpPat.Pix
	rsb	lr, r1, r9	@ tmp10655, SmpPat.Pix, <variable>.Pix
	ldrb	r0, [r7, #3014]	@ zero_extendqisi2	@ <variable>.Pix, <variable>.Pix
	rsblt	r3, r3, #0	@ tmp10663, tmp10662
	cmp	lr, #0	@ tmp10655,
	rsb	r0, r2, r0	@ tmp10669, SmpPat.Pix, <variable>.Pix
	rsblt	lr, lr, #0	@ tmp10656, tmp10655
	ldrb	ip, [sp, #15]	@ zero_extendqisi2	@ SmpPat.Pix, SmpPat.Pix
	cmp	r3, #2	@ tmp10663,
	movle	r9, #0	@, tmp10665
	movgt	r9, #1	@, tmp10665
	ldrb	sl, [r7, #3015]	@ zero_extendqisi2	@ <variable>.Pix, <variable>.Pix
	cmp	lr, #2	@ tmp10656,
	addgt	r9, r9, #1	@,, MisCnt.4223, tmp10665
	cmp	r0, #0	@ tmp10669,
	ldrb	r1, [r7, #3016]	@ zero_extendqisi2	@ <variable>.Pix, <variable>.Pix
	rsb	sl, ip, sl	@ tmp10676, SmpPat.Pix, <variable>.Pix
	rsblt	r0, r0, #0	@ tmp10670, tmp10669
	ldrb	r2, [sp, #16]	@ zero_extendqisi2	@ SmpPat.Pix, SmpPat.Pix
	cmp	r0, #2	@ tmp10670,
	addgt	r9, r9, #1	@,, MisCnt.4231, MisCnt.4223
	cmp	sl, #0	@ tmp10676,
	ldrb	r0, [sp, #17]	@ zero_extendqisi2	@ SmpPat.Pix, SmpPat.Pix
	rsb	r2, r2, r1	@ tmp10683, SmpPat.Pix, <variable>.Pix
	rsblt	sl, sl, #0	@ tmp10677, tmp10676
	ldrb	ip, [r7, #3017]	@ zero_extendqisi2	@ <variable>.Pix, <variable>.Pix
	cmp	sl, #2	@ tmp10677,
	addgt	r9, r9, #1	@,, MisCnt.4239, MisCnt.4231
	cmp	r2, #0	@ tmp10683,
	ldrb	lr, [r7, #3018]	@ zero_extendqisi2	@ <variable>.Pix, <variable>.Pix
	rsb	ip, r0, ip	@ tmp10690, SmpPat.Pix, <variable>.Pix
	rsblt	r2, r2, #0	@ tmp10684, tmp10683
	ldrb	r1, [sp, #18]	@ zero_extendqisi2	@ SmpPat.Pix, SmpPat.Pix
	cmp	r2, #2	@ tmp10684,
	addgt	r9, r9, #1	@,, MisCnt.4247, MisCnt.4239
	cmp	ip, #0	@ tmp10690,
	ldrb	r0, [r7, #3019]	@ zero_extendqisi2	@ <variable>.Pix, <variable>.Pix
	rsb	r1, r1, lr	@ tmp10697, SmpPat.Pix, <variable>.Pix
	rsblt	ip, ip, #0	@ tmp10691, tmp10690
	ldrb	r2, [sp, #19]	@ zero_extendqisi2	@ SmpPat.Pix, SmpPat.Pix
	cmp	ip, #2	@ tmp10691,
	addgt	r9, r9, #1	@,, MisCnt.4255, MisCnt.4247
	cmp	r1, #0	@ tmp10697,
	rsb	sl, r2, r0	@ tmp10704, SmpPat.Pix, <variable>.Pix
	rsblt	r1, r1, #0	@ tmp10698, tmp10697
	cmp	r1, #2	@ tmp10698,
	addgt	r9, r9, #1	@,, MisCnt.4263, MisCnt.4255
	cmp	sl, #0	@ tmp10704,
	rsblt	sl, sl, #0	@ tmp10705, tmp10704
	cmp	sl, #2	@ tmp10705,
	addgt	r9, r9, #1	@,, tmp10708, MisCnt.4263
	cmp	r9, #2	@ tmp10708,
	bgt	.L59	@,
	ldr	r3, [r7, #3020]	@ <variable>.Comp, <variable>.Comp
	mov	r0, sp	@,
	ldr	r2, [r7, #3024]	@ <variable>.Px, <variable>.Px
	mov	r1, r5	@, pDetPara
	ldr	lr, [r7, #3028]	@ <variable>.Py, <variable>.Py
	str	r3, [sp, #0]	@ <variable>.Comp, SmpPat.Comp
	stmib	sp, {r2, lr}	@ phole stm
	bl	GetSample	@
	ldrb	ip, [r7, #3033]	@ zero_extendqisi2	@ <variable>.Pix, <variable>.Pix
	ldrb	sl, [sp, #13]	@ zero_extendqisi2	@ SmpPat.Pix, SmpPat.Pix
	ldrb	r9, [r7, #3032]	@ zero_extendqisi2	@ <variable>.Pix, <variable>.Pix
	ldrb	r1, [sp, #12]	@ zero_extendqisi2	@ SmpPat.Pix, SmpPat.Pix
	rsb	r3, sl, ip	@ tmp10726, SmpPat.Pix, <variable>.Pix
	cmp	r3, #0	@ tmp10726,
	ldrb	r2, [sp, #14]	@ zero_extendqisi2	@ SmpPat.Pix, SmpPat.Pix
	rsb	lr, r1, r9	@ tmp10719, SmpPat.Pix, <variable>.Pix
	ldrb	r0, [r7, #3034]	@ zero_extendqisi2	@ <variable>.Pix, <variable>.Pix
	rsblt	r3, r3, #0	@ tmp10727, tmp10726
	cmp	lr, #0	@ tmp10719,
	rsb	r0, r2, r0	@ tmp10733, SmpPat.Pix, <variable>.Pix
	rsblt	lr, lr, #0	@ tmp10720, tmp10719
	ldrb	ip, [sp, #15]	@ zero_extendqisi2	@ SmpPat.Pix, SmpPat.Pix
	cmp	r3, #2	@ tmp10727,
	movle	r9, #0	@, tmp10729
	movgt	r9, #1	@, tmp10729
	ldrb	sl, [r7, #3035]	@ zero_extendqisi2	@ <variable>.Pix, <variable>.Pix
	cmp	lr, #2	@ tmp10720,
	addgt	r9, r9, #1	@,, MisCnt.4289, tmp10729
	cmp	r0, #0	@ tmp10733,
	ldrb	r1, [r7, #3036]	@ zero_extendqisi2	@ <variable>.Pix, <variable>.Pix
	rsb	sl, ip, sl	@ tmp10740, SmpPat.Pix, <variable>.Pix
	rsblt	r0, r0, #0	@ tmp10734, tmp10733
	ldrb	r2, [sp, #16]	@ zero_extendqisi2	@ SmpPat.Pix, SmpPat.Pix
	cmp	r0, #2	@ tmp10734,
	addgt	r9, r9, #1	@,, MisCnt.4297, MisCnt.4289
	cmp	sl, #0	@ tmp10740,
	ldrb	r0, [sp, #17]	@ zero_extendqisi2	@ SmpPat.Pix, SmpPat.Pix
	rsb	r2, r2, r1	@ tmp10747, SmpPat.Pix, <variable>.Pix
	rsblt	sl, sl, #0	@ tmp10741, tmp10740
	ldrb	ip, [r7, #3037]	@ zero_extendqisi2	@ <variable>.Pix, <variable>.Pix
	cmp	sl, #2	@ tmp10741,
	addgt	r9, r9, #1	@,, MisCnt.4305, MisCnt.4297
	cmp	r2, #0	@ tmp10747,
	ldrb	lr, [r7, #3038]	@ zero_extendqisi2	@ <variable>.Pix, <variable>.Pix
	rsb	ip, r0, ip	@ tmp10754, SmpPat.Pix, <variable>.Pix
	rsblt	r2, r2, #0	@ tmp10748, tmp10747
	ldrb	r1, [sp, #18]	@ zero_extendqisi2	@ SmpPat.Pix, SmpPat.Pix
	cmp	r2, #2	@ tmp10748,
	addgt	r9, r9, #1	@,, MisCnt.4313, MisCnt.4305
	cmp	ip, #0	@ tmp10754,
	ldrb	r0, [r7, #3039]	@ zero_extendqisi2	@ <variable>.Pix, <variable>.Pix
	rsb	r1, r1, lr	@ tmp10761, SmpPat.Pix, <variable>.Pix
	rsblt	ip, ip, #0	@ tmp10755, tmp10754
	ldrb	r2, [sp, #19]	@ zero_extendqisi2	@ SmpPat.Pix, SmpPat.Pix
	cmp	ip, #2	@ tmp10755,
	addgt	r9, r9, #1	@,, MisCnt.4321, MisCnt.4313
	cmp	r1, #0	@ tmp10761,
	rsb	sl, r2, r0	@ tmp10768, SmpPat.Pix, <variable>.Pix
	rsblt	r1, r1, #0	@ tmp10762, tmp10761
	cmp	r1, #2	@ tmp10762,
	addgt	r9, r9, #1	@,, MisCnt.4329, MisCnt.4321
	cmp	sl, #0	@ tmp10768,
	rsblt	sl, sl, #0	@ tmp10769, tmp10768
	cmp	sl, #2	@ tmp10769,
	addgt	r9, r9, #1	@,, tmp10772, MisCnt.4329
	cmp	r9, #2	@ tmp10772,
	bgt	.L59	@,
	ldr	r3, [r7, #3040]	@ <variable>.Comp, <variable>.Comp
	mov	r0, sp	@,
	ldr	r2, [r7, #3044]	@ <variable>.Px, <variable>.Px
	mov	r1, r5	@, pDetPara
	ldr	lr, [r7, #3048]	@ <variable>.Py, <variable>.Py
	str	r3, [sp, #0]	@ <variable>.Comp, SmpPat.Comp
	stmib	sp, {r2, lr}	@ phole stm
	bl	GetSample	@
	ldrb	ip, [r7, #3053]	@ zero_extendqisi2	@ <variable>.Pix, <variable>.Pix
	ldrb	sl, [sp, #13]	@ zero_extendqisi2	@ SmpPat.Pix, SmpPat.Pix
	ldrb	r9, [r7, #3052]	@ zero_extendqisi2	@ <variable>.Pix, <variable>.Pix
	ldrb	r1, [sp, #12]	@ zero_extendqisi2	@ SmpPat.Pix, SmpPat.Pix
	rsb	r3, sl, ip	@ tmp10790, SmpPat.Pix, <variable>.Pix
	cmp	r3, #0	@ tmp10790,
	ldrb	r2, [sp, #14]	@ zero_extendqisi2	@ SmpPat.Pix, SmpPat.Pix
	rsb	lr, r1, r9	@ tmp10783, SmpPat.Pix, <variable>.Pix
	ldrb	r0, [r7, #3054]	@ zero_extendqisi2	@ <variable>.Pix, <variable>.Pix
	rsblt	r3, r3, #0	@ tmp10791, tmp10790
	cmp	lr, #0	@ tmp10783,
	rsb	r0, r2, r0	@ tmp10797, SmpPat.Pix, <variable>.Pix
	rsblt	lr, lr, #0	@ tmp10784, tmp10783
	ldrb	ip, [sp, #15]	@ zero_extendqisi2	@ SmpPat.Pix, SmpPat.Pix
	cmp	r3, #2	@ tmp10791,
	movle	r9, #0	@, tmp10793
	movgt	r9, #1	@, tmp10793
	ldrb	sl, [r7, #3055]	@ zero_extendqisi2	@ <variable>.Pix, <variable>.Pix
	cmp	lr, #2	@ tmp10784,
	addgt	r9, r9, #1	@,, MisCnt.4355, tmp10793
	cmp	r0, #0	@ tmp10797,
	ldrb	r1, [r7, #3056]	@ zero_extendqisi2	@ <variable>.Pix, <variable>.Pix
	rsb	sl, ip, sl	@ tmp10804, SmpPat.Pix, <variable>.Pix
	rsblt	r0, r0, #0	@ tmp10798, tmp10797
	ldrb	r2, [sp, #16]	@ zero_extendqisi2	@ SmpPat.Pix, SmpPat.Pix
	cmp	r0, #2	@ tmp10798,
	addgt	r9, r9, #1	@,, MisCnt.4363, MisCnt.4355
	cmp	sl, #0	@ tmp10804,
	ldrb	r0, [sp, #17]	@ zero_extendqisi2	@ SmpPat.Pix, SmpPat.Pix
	rsb	r2, r2, r1	@ tmp10811, SmpPat.Pix, <variable>.Pix
	rsblt	sl, sl, #0	@ tmp10805, tmp10804
	ldrb	ip, [r7, #3057]	@ zero_extendqisi2	@ <variable>.Pix, <variable>.Pix
	cmp	sl, #2	@ tmp10805,
	addgt	r9, r9, #1	@,, MisCnt.4371, MisCnt.4363
	cmp	r2, #0	@ tmp10811,
	ldrb	lr, [r7, #3058]	@ zero_extendqisi2	@ <variable>.Pix, <variable>.Pix
	rsb	ip, r0, ip	@ tmp10818, SmpPat.Pix, <variable>.Pix
	rsblt	r2, r2, #0	@ tmp10812, tmp10811
	ldrb	r1, [sp, #18]	@ zero_extendqisi2	@ SmpPat.Pix, SmpPat.Pix
	cmp	r2, #2	@ tmp10812,
	addgt	r9, r9, #1	@,, MisCnt.4379, MisCnt.4371
	cmp	ip, #0	@ tmp10818,
	ldrb	r0, [r7, #3059]	@ zero_extendqisi2	@ <variable>.Pix, <variable>.Pix
	rsb	r1, r1, lr	@ tmp10825, SmpPat.Pix, <variable>.Pix
	rsblt	ip, ip, #0	@ tmp10819, tmp10818
	ldrb	r2, [sp, #19]	@ zero_extendqisi2	@ SmpPat.Pix, SmpPat.Pix
	cmp	ip, #2	@ tmp10819,
	addgt	r9, r9, #1	@,, MisCnt.4387, MisCnt.4379
	cmp	r1, #0	@ tmp10825,
	rsb	sl, r2, r0	@ tmp10832, SmpPat.Pix, <variable>.Pix
	rsblt	r1, r1, #0	@ tmp10826, tmp10825
	cmp	r1, #2	@ tmp10826,
	addgt	r9, r9, #1	@,, MisCnt.4395, MisCnt.4387
	cmp	sl, #0	@ tmp10832,
	rsblt	sl, sl, #0	@ tmp10833, tmp10832
	cmp	sl, #2	@ tmp10833,
	addgt	r9, r9, #1	@,, tmp10836, MisCnt.4395
	cmp	r9, #2	@ tmp10836,
	bgt	.L59	@,
	ldr	r3, [r7, #3060]	@ <variable>.Comp, <variable>.Comp
	mov	r0, sp	@,
	ldr	r2, [r7, #3064]	@ <variable>.Px, <variable>.Px
	mov	r1, r5	@, pDetPara
	ldr	lr, [r7, #3068]	@ <variable>.Py, <variable>.Py
	str	r3, [sp, #0]	@ <variable>.Comp, SmpPat.Comp
	stmib	sp, {r2, lr}	@ phole stm
	bl	GetSample	@
	ldrb	sl, [r7, #3073]	@ zero_extendqisi2	@ <variable>.Pix, <variable>.Pix
	ldrb	ip, [sp, #13]	@ zero_extendqisi2	@ SmpPat.Pix, SmpPat.Pix
	ldrb	r9, [r7, #3072]	@ zero_extendqisi2	@ <variable>.Pix, <variable>.Pix
	ldrb	r1, [sp, #12]	@ zero_extendqisi2	@ SmpPat.Pix, SmpPat.Pix
	rsb	r3, ip, sl	@ tmp10854, SmpPat.Pix, <variable>.Pix
	cmp	r3, #0	@ tmp10854,
	ldrb	r2, [sp, #14]	@ zero_extendqisi2	@ SmpPat.Pix, SmpPat.Pix
	rsb	sl, r1, r9	@ tmp10847, SmpPat.Pix, <variable>.Pix
	ldrb	r0, [r7, #3074]	@ zero_extendqisi2	@ <variable>.Pix, <variable>.Pix
	rsblt	r3, r3, #0	@ tmp10855, tmp10854
	cmp	sl, #0	@ tmp10847,
	rsb	r0, r2, r0	@ tmp10861, SmpPat.Pix, <variable>.Pix
	rsblt	sl, sl, #0	@ tmp10848, tmp10847
	ldrb	ip, [sp, #15]	@ zero_extendqisi2	@ SmpPat.Pix, SmpPat.Pix
	cmp	r3, #2	@ tmp10855,
	movle	r3, #0	@, tmp10857
	movgt	r3, #1	@, tmp10857
	ldrb	r9, [r7, #3075]	@ zero_extendqisi2	@ <variable>.Pix, <variable>.Pix
	cmp	sl, #2	@ tmp10848,
	addgt	r3, r3, #1	@,, MisCnt.1524, tmp10857
	cmp	r0, #0	@ tmp10861,
	ldrb	r1, [r7, #3076]	@ zero_extendqisi2	@ <variable>.Pix, <variable>.Pix
	rsb	r9, ip, r9	@ tmp10868, SmpPat.Pix, <variable>.Pix
	rsblt	r0, r0, #0	@ tmp10862, tmp10861
	ldrb	r2, [sp, #16]	@ zero_extendqisi2	@ SmpPat.Pix, SmpPat.Pix
	cmp	r0, #2	@ tmp10862,
	addgt	r3, r3, #1	@,, MisCnt.1532, MisCnt.1524
	cmp	r9, #0	@ tmp10868,
	ldrb	r0, [sp, #17]	@ zero_extendqisi2	@ SmpPat.Pix, SmpPat.Pix
	rsb	r2, r2, r1	@ tmp10875, SmpPat.Pix, <variable>.Pix
	rsblt	r9, r9, #0	@ tmp10869, tmp10868
	ldrb	ip, [r7, #3077]	@ zero_extendqisi2	@ <variable>.Pix, <variable>.Pix
	cmp	r9, #2	@ tmp10869,
	addgt	r3, r3, #1	@,, MisCnt.1542, MisCnt.1532
	cmp	r2, #0	@ tmp10875,
	ldrb	sl, [r7, #3078]	@ zero_extendqisi2	@ <variable>.Pix, <variable>.Pix
	rsb	ip, r0, ip	@ tmp10882, SmpPat.Pix, <variable>.Pix
	rsblt	r2, r2, #0	@ tmp10876, tmp10875
	ldrb	r1, [sp, #18]	@ zero_extendqisi2	@ SmpPat.Pix, SmpPat.Pix
	cmp	r2, #2	@ tmp10876,
	addgt	r3, r3, #1	@,, MisCnt.1553, MisCnt.1542
	cmp	ip, #0	@ tmp10882,
	ldrb	r0, [r7, #3079]	@ zero_extendqisi2	@ <variable>.Pix, <variable>.Pix
	rsblt	ip, ip, #0	@ tmp10883, tmp10882
	rsb	r1, r1, sl	@ tmp10889, SmpPat.Pix, <variable>.Pix
	ldrb	r2, [sp, #19]	@ zero_extendqisi2	@ SmpPat.Pix, SmpPat.Pix
	cmp	ip, #2	@ tmp10883,
	addgt	r3, r3, #1	@,, MisCnt.1564, MisCnt.1553
	cmp	r1, #0	@ tmp10889,
	rsb	ip, r2, r0	@ tmp10896, SmpPat.Pix, <variable>.Pix
	rsblt	r1, r1, #0	@ tmp10890, tmp10889
	cmp	r1, #2	@ tmp10890,
	addgt	r3, r3, #1	@,, MisCnt.1573, MisCnt.1564
	cmp	ip, #0	@ tmp10896,
	rsblt	ip, ip, #0	@ tmp10897, tmp10896
	cmp	ip, #2	@ tmp10897,
	addgt	r3, r3, #1	@,, tmp10900, MisCnt.1573
	cmp	r3, #2	@ tmp10900,
	movle	r0, #34	@ Result,
	ble	.L18	@,
.L59:
	ldr	r3, [r6, #3080]	@ <variable>.Comp, <variable>.Comp
	mov	r0, sp	@,
	ldr	r2, [r6, #3084]	@ <variable>.Px, <variable>.Px
	mov	r1, r5	@, pDetPara
	ldr	lr, [r6, #3088]	@ <variable>.Py, <variable>.Py
	movw	r7, #:lower16:.LANCHOR0	@ tmp10901,
	str	r3, [sp, #0]	@ <variable>.Comp, SmpPat.Comp
	movt	r7, #:upper16:.LANCHOR0	@ tmp10901,
	stmib	sp, {r2, lr}	@ phole stm
	bl	GetSample	@
	ldrb	sl, [r6, #3093]	@ zero_extendqisi2	@ <variable>.Pix, <variable>.Pix
	ldrb	ip, [sp, #13]	@ zero_extendqisi2	@ SmpPat.Pix, SmpPat.Pix
	ldrb	r9, [r6, #3092]	@ zero_extendqisi2	@ <variable>.Pix, <variable>.Pix
	ldrb	r1, [sp, #12]	@ zero_extendqisi2	@ SmpPat.Pix, SmpPat.Pix
	rsb	r3, ip, sl	@ tmp10918, SmpPat.Pix, <variable>.Pix
	cmp	r3, #0	@ tmp10918,
	ldrb	r2, [sp, #14]	@ zero_extendqisi2	@ SmpPat.Pix, SmpPat.Pix
	rsb	sl, r1, r9	@ tmp10911, SmpPat.Pix, <variable>.Pix
	ldrb	r0, [r6, #3094]	@ zero_extendqisi2	@ <variable>.Pix, <variable>.Pix
	rsblt	r3, r3, #0	@ tmp10919, tmp10918
	cmp	sl, #0	@ tmp10911,
	rsb	r0, r2, r0	@ tmp10925, SmpPat.Pix, <variable>.Pix
	rsblt	sl, sl, #0	@ tmp10912, tmp10911
	ldrb	ip, [sp, #15]	@ zero_extendqisi2	@ SmpPat.Pix, SmpPat.Pix
	cmp	r3, #2	@ tmp10919,
	movle	r3, #0	@, tmp10921
	movgt	r3, #1	@, tmp10921
	ldrb	r9, [r6, #3095]	@ zero_extendqisi2	@ <variable>.Pix, <variable>.Pix
	cmp	sl, #2	@ tmp10912,
	addgt	r3, r3, #1	@,, MisCnt.4421, tmp10921
	cmp	r0, #0	@ tmp10925,
	ldrb	r1, [r6, #3096]	@ zero_extendqisi2	@ <variable>.Pix, <variable>.Pix
	rsb	r9, ip, r9	@ tmp10932, SmpPat.Pix, <variable>.Pix
	rsblt	r0, r0, #0	@ tmp10926, tmp10925
	ldrb	r2, [sp, #16]	@ zero_extendqisi2	@ SmpPat.Pix, SmpPat.Pix
	cmp	r0, #2	@ tmp10926,
	addgt	r3, r3, #1	@,, MisCnt.4429, MisCnt.4421
	cmp	r9, #0	@ tmp10932,
	ldrb	r0, [sp, #17]	@ zero_extendqisi2	@ SmpPat.Pix, SmpPat.Pix
	rsb	r2, r2, r1	@ tmp10939, SmpPat.Pix, <variable>.Pix
	rsblt	r9, r9, #0	@ tmp10933, tmp10932
	ldrb	ip, [r6, #3097]	@ zero_extendqisi2	@ <variable>.Pix, <variable>.Pix
	cmp	r9, #2	@ tmp10933,
	addgt	r3, r3, #1	@,, MisCnt.4437, MisCnt.4429
	cmp	r2, #0	@ tmp10939,
	ldrb	sl, [r6, #3098]	@ zero_extendqisi2	@ <variable>.Pix, <variable>.Pix
	rsb	ip, r0, ip	@ tmp10946, SmpPat.Pix, <variable>.Pix
	rsblt	r2, r2, #0	@ tmp10940, tmp10939
	ldrb	r1, [sp, #18]	@ zero_extendqisi2	@ SmpPat.Pix, SmpPat.Pix
	cmp	r2, #2	@ tmp10940,
	addgt	r3, r3, #1	@,, MisCnt.4445, MisCnt.4437
	cmp	ip, #0	@ tmp10946,
	ldrb	r0, [r6, #3099]	@ zero_extendqisi2	@ <variable>.Pix, <variable>.Pix
	rsblt	ip, ip, #0	@ tmp10947, tmp10946
	rsb	r1, r1, sl	@ tmp10953, SmpPat.Pix, <variable>.Pix
	ldrb	r2, [sp, #19]	@ zero_extendqisi2	@ SmpPat.Pix, SmpPat.Pix
	cmp	ip, #2	@ tmp10947,
	addgt	r3, r3, #1	@,, MisCnt.4453, MisCnt.4445
	cmp	r1, #0	@ tmp10953,
	rsb	ip, r2, r0	@ tmp10960, SmpPat.Pix, <variable>.Pix
	rsblt	r1, r1, #0	@ tmp10954, tmp10953
	cmp	r1, #2	@ tmp10954,
	addgt	r3, r3, #1	@,, MisCnt.4461, MisCnt.4453
	cmp	ip, #0	@ tmp10960,
	rsblt	ip, ip, #0	@ tmp10961, tmp10960
	cmp	ip, #2	@ tmp10961,
	addgt	r3, r3, #1	@,, tmp10964, MisCnt.4461
	cmp	r3, #2	@ tmp10964,
	bgt	.L50	@,
	ldr	r3, [r7, #3100]	@ <variable>.Comp, <variable>.Comp
	mov	r0, sp	@,
	ldr	r2, [r7, #3104]	@ <variable>.Px, <variable>.Px
	mov	r1, r5	@, pDetPara
	ldr	lr, [r7, #3108]	@ <variable>.Py, <variable>.Py
	str	r3, [sp, #0]	@ <variable>.Comp, SmpPat.Comp
	stmib	sp, {r2, lr}	@ phole stm
	bl	GetSample	@
	ldrb	r6, [r7, #3113]	@ zero_extendqisi2	@ <variable>.Pix, <variable>.Pix
	ldrb	ip, [sp, #13]	@ zero_extendqisi2	@ SmpPat.Pix, SmpPat.Pix
	ldrb	sl, [r7, #3112]	@ zero_extendqisi2	@ <variable>.Pix, <variable>.Pix
	ldrb	r1, [sp, #12]	@ zero_extendqisi2	@ SmpPat.Pix, SmpPat.Pix
	rsb	r3, ip, r6	@ tmp10982, SmpPat.Pix, <variable>.Pix
	cmp	r3, #0	@ tmp10982,
	ldrb	r2, [sp, #14]	@ zero_extendqisi2	@ SmpPat.Pix, SmpPat.Pix
	rsb	r6, r1, sl	@ tmp10975, SmpPat.Pix, <variable>.Pix
	ldrb	r0, [r7, #3114]	@ zero_extendqisi2	@ <variable>.Pix, <variable>.Pix
	rsblt	r3, r3, #0	@ tmp10983, tmp10982
	cmp	r6, #0	@ tmp10975,
	rsb	r0, r2, r0	@ tmp10989, SmpPat.Pix, <variable>.Pix
	rsblt	r6, r6, #0	@ tmp10976, tmp10975
	ldrb	ip, [sp, #15]	@ zero_extendqisi2	@ SmpPat.Pix, SmpPat.Pix
	cmp	r3, #2	@ tmp10983,
	movle	r3, #0	@, tmp10985
	movgt	r3, #1	@, tmp10985
	ldrb	sl, [r7, #3115]	@ zero_extendqisi2	@ <variable>.Pix, <variable>.Pix
	cmp	r6, #2	@ tmp10976,
	addgt	r3, r3, #1	@,, MisCnt.4487, tmp10985
	cmp	r0, #0	@ tmp10989,
	ldrb	r1, [r7, #3116]	@ zero_extendqisi2	@ <variable>.Pix, <variable>.Pix
	rsb	sl, ip, sl	@ tmp10996, SmpPat.Pix, <variable>.Pix
	rsblt	r0, r0, #0	@ tmp10990, tmp10989
	ldrb	r2, [sp, #16]	@ zero_extendqisi2	@ SmpPat.Pix, SmpPat.Pix
	cmp	r0, #2	@ tmp10990,
	addgt	r3, r3, #1	@,, MisCnt.4495, MisCnt.4487
	cmp	sl, #0	@ tmp10996,
	ldrb	r0, [sp, #17]	@ zero_extendqisi2	@ SmpPat.Pix, SmpPat.Pix
	rsb	r2, r2, r1	@ tmp11003, SmpPat.Pix, <variable>.Pix
	rsblt	sl, sl, #0	@ tmp10997, tmp10996
	ldrb	ip, [r7, #3117]	@ zero_extendqisi2	@ <variable>.Pix, <variable>.Pix
	cmp	sl, #2	@ tmp10997,
	addgt	r3, r3, #1	@,, MisCnt.4503, MisCnt.4495
	cmp	r2, #0	@ tmp11003,
	ldrb	r6, [r7, #3118]	@ zero_extendqisi2	@ <variable>.Pix, <variable>.Pix
	rsb	ip, r0, ip	@ tmp11010, SmpPat.Pix, <variable>.Pix
	rsblt	r2, r2, #0	@ tmp11004, tmp11003
	ldrb	r1, [sp, #18]	@ zero_extendqisi2	@ SmpPat.Pix, SmpPat.Pix
	cmp	r2, #2	@ tmp11004,
	addgt	r3, r3, #1	@,, MisCnt.4511, MisCnt.4503
	cmp	ip, #0	@ tmp11010,
	ldrb	r0, [r7, #3119]	@ zero_extendqisi2	@ <variable>.Pix, <variable>.Pix
	rsblt	ip, ip, #0	@ tmp11011, tmp11010
	rsb	r1, r1, r6	@ tmp11017, SmpPat.Pix, <variable>.Pix
	ldrb	r2, [sp, #19]	@ zero_extendqisi2	@ SmpPat.Pix, SmpPat.Pix
	cmp	ip, #2	@ tmp11011,
	addgt	r3, r3, #1	@,, MisCnt.4519, MisCnt.4511
	cmp	r1, #0	@ tmp11017,
	rsb	ip, r2, r0	@ tmp11024, SmpPat.Pix, <variable>.Pix
	rsblt	r1, r1, #0	@ tmp11018, tmp11017
	cmp	r1, #2	@ tmp11018,
	addgt	r3, r3, #1	@,, MisCnt.4527, MisCnt.4519
	cmp	ip, #0	@ tmp11024,
	rsblt	ip, ip, #0	@ tmp11025, tmp11024
	cmp	ip, #2	@ tmp11025,
	addgt	r3, r3, #1	@,, tmp11028, MisCnt.4527
	cmp	r3, #2	@ tmp11028,
	bgt	.L50	@,
	ldr	r3, [r7, #3120]	@ <variable>.Comp, <variable>.Comp
	mov	r0, sp	@,
	ldr	r2, [r7, #3124]	@ <variable>.Px, <variable>.Px
	mov	r1, r5	@, pDetPara
	ldr	lr, [r7, #3128]	@ <variable>.Py, <variable>.Py
	str	r3, [sp, #0]	@ <variable>.Comp, SmpPat.Comp
	stmib	sp, {r2, lr}	@ phole stm
	bl	GetSample	@
	ldrb	r6, [r7, #3133]	@ zero_extendqisi2	@ <variable>.Pix, <variable>.Pix
	ldrb	ip, [sp, #13]	@ zero_extendqisi2	@ SmpPat.Pix, SmpPat.Pix
	ldrb	sl, [r7, #3132]	@ zero_extendqisi2	@ <variable>.Pix, <variable>.Pix
	ldrb	r1, [sp, #12]	@ zero_extendqisi2	@ SmpPat.Pix, SmpPat.Pix
	rsb	r3, ip, r6	@ tmp11046, SmpPat.Pix, <variable>.Pix
	cmp	r3, #0	@ tmp11046,
	ldrb	r2, [sp, #14]	@ zero_extendqisi2	@ SmpPat.Pix, SmpPat.Pix
	rsb	r6, r1, sl	@ tmp11039, SmpPat.Pix, <variable>.Pix
	ldrb	r0, [r7, #3134]	@ zero_extendqisi2	@ <variable>.Pix, <variable>.Pix
	rsblt	r3, r3, #0	@ tmp11047, tmp11046
	cmp	r6, #0	@ tmp11039,
	rsb	r0, r2, r0	@ tmp11053, SmpPat.Pix, <variable>.Pix
	rsblt	r6, r6, #0	@ tmp11040, tmp11039
	ldrb	ip, [sp, #15]	@ zero_extendqisi2	@ SmpPat.Pix, SmpPat.Pix
	cmp	r3, #2	@ tmp11047,
	movle	r3, #0	@, tmp11049
	movgt	r3, #1	@, tmp11049
	ldrb	sl, [r7, #3135]	@ zero_extendqisi2	@ <variable>.Pix, <variable>.Pix
	cmp	r6, #2	@ tmp11040,
	addgt	r3, r3, #1	@,, MisCnt.4553, tmp11049
	cmp	r0, #0	@ tmp11053,
	ldrb	r1, [r7, #3136]	@ zero_extendqisi2	@ <variable>.Pix, <variable>.Pix
	rsb	sl, ip, sl	@ tmp11060, SmpPat.Pix, <variable>.Pix
	rsblt	r0, r0, #0	@ tmp11054, tmp11053
	ldrb	r2, [sp, #16]	@ zero_extendqisi2	@ SmpPat.Pix, SmpPat.Pix
	cmp	r0, #2	@ tmp11054,
	addgt	r3, r3, #1	@,, MisCnt.4561, MisCnt.4553
	cmp	sl, #0	@ tmp11060,
	ldrb	r0, [sp, #17]	@ zero_extendqisi2	@ SmpPat.Pix, SmpPat.Pix
	rsb	r2, r2, r1	@ tmp11067, SmpPat.Pix, <variable>.Pix
	rsblt	sl, sl, #0	@ tmp11061, tmp11060
	ldrb	ip, [r7, #3137]	@ zero_extendqisi2	@ <variable>.Pix, <variable>.Pix
	cmp	sl, #2	@ tmp11061,
	addgt	r3, r3, #1	@,, MisCnt.4569, MisCnt.4561
	cmp	r2, #0	@ tmp11067,
	ldrb	r6, [r7, #3138]	@ zero_extendqisi2	@ <variable>.Pix, <variable>.Pix
	rsb	ip, r0, ip	@ tmp11074, SmpPat.Pix, <variable>.Pix
	rsblt	r2, r2, #0	@ tmp11068, tmp11067
	ldrb	r1, [sp, #18]	@ zero_extendqisi2	@ SmpPat.Pix, SmpPat.Pix
	cmp	r2, #2	@ tmp11068,
	addgt	r3, r3, #1	@,, MisCnt.4577, MisCnt.4569
	cmp	ip, #0	@ tmp11074,
	ldrb	r0, [r7, #3139]	@ zero_extendqisi2	@ <variable>.Pix, <variable>.Pix
	rsblt	ip, ip, #0	@ tmp11075, tmp11074
	rsb	r1, r1, r6	@ tmp11081, SmpPat.Pix, <variable>.Pix
	ldrb	r2, [sp, #19]	@ zero_extendqisi2	@ SmpPat.Pix, SmpPat.Pix
	cmp	ip, #2	@ tmp11075,
	addgt	r3, r3, #1	@,, MisCnt.4585, MisCnt.4577
	cmp	r1, #0	@ tmp11081,
	rsb	ip, r2, r0	@ tmp11088, SmpPat.Pix, <variable>.Pix
	rsblt	r1, r1, #0	@ tmp11082, tmp11081
	cmp	r1, #2	@ tmp11082,
	addgt	r3, r3, #1	@,, MisCnt.4593, MisCnt.4585
	cmp	ip, #0	@ tmp11088,
	rsblt	ip, ip, #0	@ tmp11089, tmp11088
	cmp	ip, #2	@ tmp11089,
	addgt	r3, r3, #1	@,, tmp11092, MisCnt.4593
	cmp	r3, #2	@ tmp11092,
	bgt	.L50	@,
	ldr	r3, [r7, #3140]	@ <variable>.Comp, <variable>.Comp
	mov	r0, sp	@,
	ldr	r2, [r7, #3144]	@ <variable>.Px, <variable>.Px
	mov	r1, r5	@, pDetPara
	ldr	lr, [r7, #3148]	@ <variable>.Py, <variable>.Py
	str	r3, [sp, #0]	@ <variable>.Comp, SmpPat.Comp
	stmib	sp, {r2, lr}	@ phole stm
	bl	GetSample	@
	ldrb	r6, [r7, #3153]	@ zero_extendqisi2	@ <variable>.Pix, <variable>.Pix
	ldrb	ip, [sp, #13]	@ zero_extendqisi2	@ SmpPat.Pix, SmpPat.Pix
	ldrb	sl, [r7, #3152]	@ zero_extendqisi2	@ <variable>.Pix, <variable>.Pix
	ldrb	r1, [sp, #12]	@ zero_extendqisi2	@ SmpPat.Pix, SmpPat.Pix
	rsb	r3, ip, r6	@ tmp11110, SmpPat.Pix, <variable>.Pix
	cmp	r3, #0	@ tmp11110,
	ldrb	r2, [sp, #14]	@ zero_extendqisi2	@ SmpPat.Pix, SmpPat.Pix
	rsb	r6, r1, sl	@ tmp11103, SmpPat.Pix, <variable>.Pix
	ldrb	r0, [r7, #3154]	@ zero_extendqisi2	@ <variable>.Pix, <variable>.Pix
	rsblt	r3, r3, #0	@ tmp11111, tmp11110
	cmp	r6, #0	@ tmp11103,
	rsb	r0, r2, r0	@ tmp11117, SmpPat.Pix, <variable>.Pix
	rsblt	r6, r6, #0	@ tmp11104, tmp11103
	ldrb	ip, [sp, #15]	@ zero_extendqisi2	@ SmpPat.Pix, SmpPat.Pix
	cmp	r3, #2	@ tmp11111,
	movle	r3, #0	@, tmp11113
	movgt	r3, #1	@, tmp11113
	ldrb	sl, [r7, #3155]	@ zero_extendqisi2	@ <variable>.Pix, <variable>.Pix
	cmp	r6, #2	@ tmp11104,
	addgt	r3, r3, #1	@,, MisCnt.4619, tmp11113
	cmp	r0, #0	@ tmp11117,
	ldrb	r1, [r7, #3156]	@ zero_extendqisi2	@ <variable>.Pix, <variable>.Pix
	rsb	sl, ip, sl	@ tmp11124, SmpPat.Pix, <variable>.Pix
	rsblt	r0, r0, #0	@ tmp11118, tmp11117
	ldrb	r2, [sp, #16]	@ zero_extendqisi2	@ SmpPat.Pix, SmpPat.Pix
	cmp	r0, #2	@ tmp11118,
	addgt	r3, r3, #1	@,, MisCnt.4627, MisCnt.4619
	cmp	sl, #0	@ tmp11124,
	ldrb	r0, [sp, #17]	@ zero_extendqisi2	@ SmpPat.Pix, SmpPat.Pix
	rsb	r2, r2, r1	@ tmp11131, SmpPat.Pix, <variable>.Pix
	rsblt	sl, sl, #0	@ tmp11125, tmp11124
	ldrb	ip, [r7, #3157]	@ zero_extendqisi2	@ <variable>.Pix, <variable>.Pix
	cmp	sl, #2	@ tmp11125,
	addgt	r3, r3, #1	@,, MisCnt.4635, MisCnt.4627
	cmp	r2, #0	@ tmp11131,
	ldrb	r6, [r7, #3158]	@ zero_extendqisi2	@ <variable>.Pix, <variable>.Pix
	rsb	ip, r0, ip	@ tmp11138, SmpPat.Pix, <variable>.Pix
	rsblt	r2, r2, #0	@ tmp11132, tmp11131
	ldrb	r1, [sp, #18]	@ zero_extendqisi2	@ SmpPat.Pix, SmpPat.Pix
	cmp	r2, #2	@ tmp11132,
	addgt	r3, r3, #1	@,, MisCnt.4643, MisCnt.4635
	cmp	ip, #0	@ tmp11138,
	ldrb	r0, [r7, #3159]	@ zero_extendqisi2	@ <variable>.Pix, <variable>.Pix
	rsblt	ip, ip, #0	@ tmp11139, tmp11138
	rsb	r1, r1, r6	@ tmp11145, SmpPat.Pix, <variable>.Pix
	ldrb	r2, [sp, #19]	@ zero_extendqisi2	@ SmpPat.Pix, SmpPat.Pix
	cmp	ip, #2	@ tmp11139,
	addgt	r3, r3, #1	@,, MisCnt.4651, MisCnt.4643
	cmp	r1, #0	@ tmp11145,
	rsb	ip, r2, r0	@ tmp11152, SmpPat.Pix, <variable>.Pix
	rsblt	r1, r1, #0	@ tmp11146, tmp11145
	cmp	r1, #2	@ tmp11146,
	addgt	r3, r3, #1	@,, MisCnt.4659, MisCnt.4651
	cmp	ip, #0	@ tmp11152,
	rsblt	ip, ip, #0	@ tmp11153, tmp11152
	cmp	ip, #2	@ tmp11153,
	addgt	r3, r3, #1	@,, tmp11156, MisCnt.4659
	cmp	r3, #2	@ tmp11156,
	bgt	.L50	@,
	ldr	r3, [r7, #3160]	@ <variable>.Comp, <variable>.Comp
	mov	r1, r5	@, pDetPara
	ldr	r2, [r7, #3164]	@ <variable>.Px, <variable>.Px
	mov	r0, sp	@,
	ldr	lr, [r7, #3168]	@ <variable>.Py, <variable>.Py
	str	r3, [sp, #0]	@ <variable>.Comp, SmpPat.Comp
	stmib	sp, {r2, lr}	@ phole stm
	bl	GetSample	@
	ldrb	r5, [r7, #3173]	@ zero_extendqisi2	@ <variable>.Pix, <variable>.Pix
	ldrb	ip, [sp, #13]	@ zero_extendqisi2	@ SmpPat.Pix, SmpPat.Pix
	ldrb	r6, [r7, #3172]	@ zero_extendqisi2	@ <variable>.Pix, <variable>.Pix
	ldrb	r1, [sp, #12]	@ zero_extendqisi2	@ SmpPat.Pix, SmpPat.Pix
	rsb	r3, ip, r5	@ tmp11174, SmpPat.Pix, <variable>.Pix
	cmp	r3, #0	@ tmp11174,
	ldrb	r2, [sp, #14]	@ zero_extendqisi2	@ SmpPat.Pix, SmpPat.Pix
	rsb	r5, r1, r6	@ tmp11167, SmpPat.Pix, <variable>.Pix
	ldrb	r0, [r7, #3174]	@ zero_extendqisi2	@ <variable>.Pix, <variable>.Pix
	rsblt	r3, r3, #0	@ tmp11175, tmp11174
	cmp	r5, #0	@ tmp11167,
	rsb	r0, r2, r0	@ tmp11181, SmpPat.Pix, <variable>.Pix
	rsblt	r5, r5, #0	@ tmp11168, tmp11167
	ldrb	ip, [sp, #15]	@ zero_extendqisi2	@ SmpPat.Pix, SmpPat.Pix
	cmp	r3, #2	@ tmp11175,
	movle	r3, #0	@, tmp11177
	movgt	r3, #1	@, tmp11177
	ldrb	r6, [r7, #3175]	@ zero_extendqisi2	@ <variable>.Pix, <variable>.Pix
	cmp	r5, #2	@ tmp11168,
	addgt	r3, r3, #1	@,, MisCnt.1594, tmp11177
	cmp	r0, #0	@ tmp11181,
	ldrb	r1, [r7, #3176]	@ zero_extendqisi2	@ <variable>.Pix, <variable>.Pix
	rsb	r6, ip, r6	@ tmp11188, SmpPat.Pix, <variable>.Pix
	rsblt	r0, r0, #0	@ tmp11182, tmp11181
	ldrb	r2, [sp, #16]	@ zero_extendqisi2	@ SmpPat.Pix, SmpPat.Pix
	cmp	r0, #2	@ tmp11182,
	addgt	r3, r3, #1	@,, MisCnt.1605, MisCnt.1594
	cmp	r6, #0	@ tmp11188,
	ldrb	r0, [sp, #17]	@ zero_extendqisi2	@ SmpPat.Pix, SmpPat.Pix
	rsb	r2, r2, r1	@ tmp11195, SmpPat.Pix, <variable>.Pix
	rsblt	r6, r6, #0	@ tmp11189, tmp11188
	ldrb	ip, [r7, #3177]	@ zero_extendqisi2	@ <variable>.Pix, <variable>.Pix
	cmp	r6, #2	@ tmp11189,
	addgt	r3, r3, #1	@,, MisCnt.1614, MisCnt.1605
	cmp	r2, #0	@ tmp11195,
	ldrb	r5, [r7, #3178]	@ zero_extendqisi2	@ <variable>.Pix, <variable>.Pix
	rsb	ip, r0, ip	@ tmp11202, SmpPat.Pix, <variable>.Pix
	rsblt	r2, r2, #0	@ tmp11196, tmp11195
	ldrb	r1, [sp, #18]	@ zero_extendqisi2	@ SmpPat.Pix, SmpPat.Pix
	cmp	r2, #2	@ tmp11196,
	addgt	r3, r3, #1	@,, MisCnt.1625, MisCnt.1614
	cmp	ip, #0	@ tmp11202,
	ldrb	r0, [r7, #3179]	@ zero_extendqisi2	@ <variable>.Pix, <variable>.Pix
	rsblt	ip, ip, #0	@ tmp11203, tmp11202
	rsb	r1, r1, r5	@ tmp11209, SmpPat.Pix, <variable>.Pix
	ldrb	r2, [sp, #19]	@ zero_extendqisi2	@ SmpPat.Pix, SmpPat.Pix
	cmp	ip, #2	@ tmp11203,
	addgt	r3, r3, #1	@,, MisCnt.1636, MisCnt.1625
	cmp	r1, #0	@ tmp11209,
	rsb	ip, r2, r0	@ tmp11216, SmpPat.Pix, <variable>.Pix
	rsblt	r1, r1, #0	@ tmp11210, tmp11209
	cmp	r1, #2	@ tmp11210,
	addgt	r3, r3, #1	@,, MisCnt.1646, MisCnt.1636
	cmp	ip, #0	@ tmp11216,
	rsblt	ip, ip, #0	@ tmp11217, tmp11216
	cmp	ip, #2	@ tmp11217,
	addgt	r3, r3, #1	@,, tmp11220, MisCnt.1646
	cmp	r3, #2	@ tmp11220,
	bgt	.L50	@,
	mov	r0, #35	@ Result,
	b	.L18	@
.L73:
	bl	vfmw_dprint_nothing	@
	mov	r0, r6	@ Result, <variable>.pPicBufY
	b	.L18	@
.L79:
	movw	r6, #:lower16:.LANCHOR0	@ tmp12189,
	movt	r6, #:upper16:.LANCHOR0	@ tmp12189,
	mov	r1, r5	@, pDetPara
	mov	r0, sp	@,
	ldr	r2, [r6, #1600]	@ <variable>.Comp, <variable>.Comp
	mov	r8, sp	@ tmp12190,
	ldr	r7, [r6, #1604]	@ <variable>.Px, <variable>.Px
	ldr	lr, [r6, #1608]	@ <variable>.Py, <variable>.Py
	stmia	sp, {r2, r7, lr}	@ phole stm
	bl	GetSample	@
	ldrb	r1, [r6, #1613]	@ zero_extendqisi2	@ <variable>.Pix, <variable>.Pix
	ldrb	r3, [sp, #13]	@ zero_extendqisi2	@ SmpPat.Pix, SmpPat.Pix
	ldrb	r9, [r6, #1612]	@ zero_extendqisi2	@ <variable>.Pix, <variable>.Pix
	ldrb	sl, [sp, #12]	@ zero_extendqisi2	@ SmpPat.Pix, SmpPat.Pix
	rsb	ip, r3, r1	@ tmp6310, SmpPat.Pix, <variable>.Pix
	cmp	ip, #0	@ tmp6310,
	ldrb	r7, [r6, #1614]	@ zero_extendqisi2	@ <variable>.Pix, <variable>.Pix
	rsb	lr, sl, r9	@ tmp6303, SmpPat.Pix, <variable>.Pix
	ldrb	r2, [sp, #14]	@ zero_extendqisi2	@ SmpPat.Pix, SmpPat.Pix
	rsblt	ip, ip, #0	@ tmp6311, tmp6310
	cmp	lr, #0	@ tmp6303,
	rsb	sl, r2, r7	@ tmp6317, SmpPat.Pix, <variable>.Pix
	rsblt	lr, lr, #0	@ tmp6304, tmp6303
	ldrb	r0, [r6, #1615]	@ zero_extendqisi2	@ <variable>.Pix, <variable>.Pix
	cmp	ip, #2	@ tmp6311,
	movle	r1, #0	@, tmp6313
	movgt	r1, #1	@, tmp6313
	ldrb	r3, [sp, #15]	@ zero_extendqisi2	@ SmpPat.Pix, SmpPat.Pix
	cmp	lr, #2	@ tmp6304,
	addgt	r1, r1, #1	@,, MisCnt.4685, tmp6313
	cmp	sl, #0	@ tmp6317,
	ldrb	ip, [r6, #1616]	@ zero_extendqisi2	@ <variable>.Pix, <variable>.Pix
	rsb	r3, r3, r0	@ tmp6324, SmpPat.Pix, <variable>.Pix
	rsblt	sl, sl, #0	@ tmp6318, tmp6317
	ldrb	r9, [sp, #16]	@ zero_extendqisi2	@ SmpPat.Pix, SmpPat.Pix
	cmp	sl, #2	@ tmp6318,
	movle	r7, r1	@, MisCnt.4693, MisCnt.4685
	addgt	r7, r1, #1	@,, MisCnt.4693, MisCnt.4685
	cmp	r3, #0	@ tmp6324,
	ldrb	r0, [r6, #1617]	@ zero_extendqisi2	@ <variable>.Pix, <variable>.Pix
	rsb	sl, r9, ip	@ tmp6331, SmpPat.Pix, <variable>.Pix
	rsblt	r3, r3, #0	@ tmp6325, tmp6324
	ldrb	r1, [sp, #17]	@ zero_extendqisi2	@ SmpPat.Pix, SmpPat.Pix
	cmp	r3, #2	@ tmp6325,
	movle	r2, r7	@, MisCnt.4701, MisCnt.4693
	addgt	r2, r7, #1	@,, MisCnt.4701, MisCnt.4693
	cmp	sl, #0	@ tmp6331,
	ldrb	r9, [sp, #18]	@ zero_extendqisi2	@ SmpPat.Pix, SmpPat.Pix
	rsb	r7, r1, r0	@ tmp6338, SmpPat.Pix, <variable>.Pix
	rsblt	sl, sl, #0	@ tmp6332, tmp6331
	ldrb	lr, [r6, #1618]	@ zero_extendqisi2	@ <variable>.Pix, <variable>.Pix
	cmp	sl, #2	@ tmp6332,
	movle	ip, r2	@, MisCnt.4709, MisCnt.4701
	addgt	ip, r2, #1	@,, MisCnt.4709, MisCnt.4701
	cmp	r7, #0	@ tmp6338,
	ldrb	r0, [r6, #1619]	@ zero_extendqisi2	@ <variable>.Pix, <variable>.Pix
	rsb	r2, r9, lr	@ tmp6345, SmpPat.Pix, <variable>.Pix
	rsblt	r7, r7, #0	@ tmp6339, tmp6338
	ldrb	r3, [sp, #19]	@ zero_extendqisi2	@ SmpPat.Pix, SmpPat.Pix
	cmp	r7, #2	@ tmp6339,
	movle	r1, ip	@, MisCnt.4717, MisCnt.4709
	addgt	r1, ip, #1	@,, MisCnt.4717, MisCnt.4709
	cmp	r2, #0	@ tmp6345,
	rsb	r9, r3, r0	@ tmp6352, SmpPat.Pix, <variable>.Pix
	rsblt	r2, r2, #0	@ tmp6346, tmp6345
	cmp	r2, #2	@ tmp6346,
	movle	sl, r1	@, MisCnt.4725, MisCnt.4717
	addgt	sl, r1, #1	@,, MisCnt.4725, MisCnt.4717
	cmp	r9, #0	@ tmp6352,
	rsblt	r9, r9, #0	@ tmp6353, tmp6352
	cmp	r9, #2	@ tmp6353,
	movle	r7, sl	@, tmp6356, MisCnt.4725
	addgt	r7, sl, #1	@,, tmp6356, MisCnt.4725
	cmp	r7, #2	@ tmp6356,
	bgt	.L43	@,
	ldr	r7, [r6, #1620]	@ <variable>.Comp, <variable>.Comp
	mov	r0, sp	@,
	ldr	r2, [r6, #1624]	@ <variable>.Px, <variable>.Px
	mov	r1, r5	@, pDetPara
	ldr	lr, [r6, #1628]	@ <variable>.Py, <variable>.Py
	str	r7, [sp, #0]	@ <variable>.Comp, SmpPat.Comp
	mov	r7, r6	@ tmp6357, tmp12189
	stmib	sp, {r2, lr}	@ phole stm
	bl	GetSample	@
	ldrb	ip, [r6, #1633]	@ zero_extendqisi2	@ <variable>.Pix, <variable>.Pix
	ldrb	sl, [sp, #13]	@ zero_extendqisi2	@ SmpPat.Pix, SmpPat.Pix
	ldrb	r9, [r6, #1632]	@ zero_extendqisi2	@ <variable>.Pix, <variable>.Pix
	ldrb	r1, [sp, #12]	@ zero_extendqisi2	@ SmpPat.Pix, SmpPat.Pix
	rsb	r3, sl, ip	@ tmp6374, SmpPat.Pix, <variable>.Pix
	cmp	r3, #0	@ tmp6374,
	ldrb	r2, [sp, #14]	@ zero_extendqisi2	@ SmpPat.Pix, SmpPat.Pix
	rsb	lr, r1, r9	@ tmp6367, SmpPat.Pix, <variable>.Pix
	ldrb	r0, [r6, #1634]	@ zero_extendqisi2	@ <variable>.Pix, <variable>.Pix
	rsblt	r3, r3, #0	@ tmp6375, tmp6374
	cmp	lr, #0	@ tmp6367,
	rsb	r0, r2, r0	@ tmp6381, SmpPat.Pix, <variable>.Pix
	rsblt	lr, lr, #0	@ tmp6368, tmp6367
	ldrb	ip, [sp, #15]	@ zero_extendqisi2	@ SmpPat.Pix, SmpPat.Pix
	cmp	r3, #2	@ tmp6375,
	movle	r9, #0	@, tmp6377
	movgt	r9, #1	@, tmp6377
	ldrb	sl, [r6, #1635]	@ zero_extendqisi2	@ <variable>.Pix, <variable>.Pix
	cmp	lr, #2	@ tmp6368,
	addgt	r9, r9, #1	@,, MisCnt.4751, tmp6377
	cmp	r0, #0	@ tmp6381,
	ldrb	r1, [r6, #1636]	@ zero_extendqisi2	@ <variable>.Pix, <variable>.Pix
	rsb	sl, ip, sl	@ tmp6388, SmpPat.Pix, <variable>.Pix
	rsblt	r0, r0, #0	@ tmp6382, tmp6381
	ldrb	r2, [sp, #16]	@ zero_extendqisi2	@ SmpPat.Pix, SmpPat.Pix
	cmp	r0, #2	@ tmp6382,
	addgt	r9, r9, #1	@,, MisCnt.4759, MisCnt.4751
	cmp	sl, #0	@ tmp6388,
	ldrb	r0, [sp, #17]	@ zero_extendqisi2	@ SmpPat.Pix, SmpPat.Pix
	rsb	r2, r2, r1	@ tmp6395, SmpPat.Pix, <variable>.Pix
	rsblt	sl, sl, #0	@ tmp6389, tmp6388
	ldrb	ip, [r6, #1637]	@ zero_extendqisi2	@ <variable>.Pix, <variable>.Pix
	cmp	sl, #2	@ tmp6389,
	addgt	r9, r9, #1	@,, MisCnt.4767, MisCnt.4759
	cmp	r2, #0	@ tmp6395,
	ldrb	lr, [r6, #1638]	@ zero_extendqisi2	@ <variable>.Pix, <variable>.Pix
	rsb	ip, r0, ip	@ tmp6402, SmpPat.Pix, <variable>.Pix
	rsblt	r2, r2, #0	@ tmp6396, tmp6395
	ldrb	r1, [sp, #18]	@ zero_extendqisi2	@ SmpPat.Pix, SmpPat.Pix
	cmp	r2, #2	@ tmp6396,
	addgt	r9, r9, #1	@,, MisCnt.4775, MisCnt.4767
	cmp	ip, #0	@ tmp6402,
	ldrb	r0, [r6, #1639]	@ zero_extendqisi2	@ <variable>.Pix, <variable>.Pix
	rsblt	ip, ip, #0	@ tmp6403, tmp6402
	rsb	sl, r1, lr	@ tmp6409, SmpPat.Pix, <variable>.Pix
	ldrb	r2, [sp, #19]	@ zero_extendqisi2	@ SmpPat.Pix, SmpPat.Pix
	cmp	ip, #2	@ tmp6403,
	addgt	r9, r9, #1	@,, MisCnt.4783, MisCnt.4775
	cmp	sl, #0	@ tmp6409,
	rsb	ip, r2, r0	@ tmp6416, SmpPat.Pix, <variable>.Pix
	rsblt	sl, sl, #0	@ tmp6410, tmp6409
	cmp	sl, #2	@ tmp6410,
	addgt	r9, r9, #1	@,, MisCnt.4791, MisCnt.4783
	cmp	ip, #0	@ tmp6416,
	rsblt	ip, ip, #0	@ tmp6417, tmp6416
	cmp	ip, #2	@ tmp6417,
	addgt	r9, r9, #1	@,, tmp6420, MisCnt.4791
	cmp	r9, #2	@ tmp6420,
	bgt	.L43	@,
	ldr	r2, [r6, #1640]	@ <variable>.Comp, <variable>.Comp
	mov	r0, sp	@,
	ldr	r9, [r6, #1644]	@ <variable>.Px, <variable>.Px
	mov	r1, r5	@, pDetPara
	ldr	lr, [r6, #1648]	@ <variable>.Py, <variable>.Py
	stmia	sp, {r2, r9, lr}	@ phole stm
	bl	GetSample	@
	ldrb	ip, [r6, #1653]	@ zero_extendqisi2	@ <variable>.Pix, <variable>.Pix
	ldrb	sl, [sp, #13]	@ zero_extendqisi2	@ SmpPat.Pix, SmpPat.Pix
	ldrb	r0, [r6, #1652]	@ zero_extendqisi2	@ <variable>.Pix, <variable>.Pix
	ldrb	r1, [sp, #12]	@ zero_extendqisi2	@ SmpPat.Pix, SmpPat.Pix
	rsb	r3, sl, ip	@ tmp6438, SmpPat.Pix, <variable>.Pix
	cmp	r3, #0	@ tmp6438,
	ldrb	r9, [r6, #1654]	@ zero_extendqisi2	@ <variable>.Pix, <variable>.Pix
	rsb	lr, r1, r0	@ tmp6431, SmpPat.Pix, <variable>.Pix
	ldrb	r2, [sp, #14]	@ zero_extendqisi2	@ SmpPat.Pix, SmpPat.Pix
	rsblt	r3, r3, #0	@ tmp6439, tmp6438
	cmp	lr, #0	@ tmp6431,
	rsb	r0, r2, r9	@ tmp6445, SmpPat.Pix, <variable>.Pix
	rsblt	lr, lr, #0	@ tmp6432, tmp6431
	ldrb	ip, [sp, #15]	@ zero_extendqisi2	@ SmpPat.Pix, SmpPat.Pix
	cmp	r3, #2	@ tmp6439,
	movle	r3, #0	@, tmp6441
	movgt	r3, #1	@, tmp6441
	ldrb	sl, [r6, #1655]	@ zero_extendqisi2	@ <variable>.Pix, <variable>.Pix
	cmp	lr, #2	@ tmp6432,
	addgt	r3, r3, #1	@,, MisCnt.4817, tmp6441
	cmp	r0, #0	@ tmp6445,
	ldrb	r1, [r6, #1656]	@ zero_extendqisi2	@ <variable>.Pix, <variable>.Pix
	rsb	sl, ip, sl	@ tmp6452, SmpPat.Pix, <variable>.Pix
	rsblt	r0, r0, #0	@ tmp6446, tmp6445
	ldrb	r9, [sp, #16]	@ zero_extendqisi2	@ SmpPat.Pix, SmpPat.Pix
	cmp	r0, #2	@ tmp6446,
	addgt	r3, r3, #1	@,, MisCnt.4825, MisCnt.4817
	cmp	sl, #0	@ tmp6452,
	ldrb	r0, [sp, #17]	@ zero_extendqisi2	@ SmpPat.Pix, SmpPat.Pix
	rsb	r2, r9, r1	@ tmp6459, SmpPat.Pix, <variable>.Pix
	rsblt	sl, sl, #0	@ tmp6453, tmp6452
	ldrb	ip, [r6, #1657]	@ zero_extendqisi2	@ <variable>.Pix, <variable>.Pix
	cmp	sl, #2	@ tmp6453,
	addgt	r3, r3, #1	@,, MisCnt.4833, MisCnt.4825
	cmp	r2, #0	@ tmp6459,
	ldrb	r9, [sp, #18]	@ zero_extendqisi2	@ SmpPat.Pix, SmpPat.Pix
	rsb	ip, r0, ip	@ tmp6466, SmpPat.Pix, <variable>.Pix
	rsblt	r2, r2, #0	@ tmp6460, tmp6459
	ldrb	lr, [r6, #1658]	@ zero_extendqisi2	@ <variable>.Pix, <variable>.Pix
	cmp	r2, #2	@ tmp6460,
	addgt	r3, r3, #1	@,, MisCnt.4841, MisCnt.4833
	cmp	ip, #0	@ tmp6466,
	ldrb	r0, [r6, #1659]	@ zero_extendqisi2	@ <variable>.Pix, <variable>.Pix
	rsb	r1, r9, lr	@ tmp6473, SmpPat.Pix, <variable>.Pix
	rsblt	ip, ip, #0	@ tmp6467, tmp6466
	ldrb	sl, [sp, #19]	@ zero_extendqisi2	@ SmpPat.Pix, SmpPat.Pix
	cmp	ip, #2	@ tmp6467,
	addgt	r3, r3, #1	@,, MisCnt.4849, MisCnt.4841
	cmp	r1, #0	@ tmp6473,
	rsb	r9, sl, r0	@ tmp6480, SmpPat.Pix, <variable>.Pix
	rsblt	r1, r1, #0	@ tmp6474, tmp6473
	cmp	r1, #2	@ tmp6474,
	addgt	r3, r3, #1	@,, MisCnt.4857, MisCnt.4849
	cmp	r9, #0	@ tmp6480,
	rsblt	r9, r9, #0	@ tmp6481, tmp6480
	cmp	r9, #2	@ tmp6481,
	addgt	r3, r3, #1	@,, tmp6484, MisCnt.4857
	cmp	r3, #2	@ tmp6484,
	bgt	.L43	@,
	ldr	r2, [r6, #1660]	@ <variable>.Comp, <variable>.Comp
	mov	r0, sp	@,
	ldr	sl, [r6, #1664]	@ <variable>.Px, <variable>.Px
	mov	r1, r5	@, pDetPara
	ldr	lr, [r6, #1668]	@ <variable>.Py, <variable>.Py
	stmia	sp, {r2, sl, lr}	@ phole stm
	bl	GetSample	@
	ldrb	ip, [r6, #1673]	@ zero_extendqisi2	@ <variable>.Pix, <variable>.Pix
	ldrb	r9, [sp, #13]	@ zero_extendqisi2	@ SmpPat.Pix, SmpPat.Pix
	ldrb	r0, [r6, #1672]	@ zero_extendqisi2	@ <variable>.Pix, <variable>.Pix
	ldrb	r1, [sp, #12]	@ zero_extendqisi2	@ SmpPat.Pix, SmpPat.Pix
	rsb	r3, r9, ip	@ tmp6502, SmpPat.Pix, <variable>.Pix
	cmp	r3, #0	@ tmp6502,
	ldrb	sl, [r6, #1674]	@ zero_extendqisi2	@ <variable>.Pix, <variable>.Pix
	rsb	lr, r1, r0	@ tmp6495, SmpPat.Pix, <variable>.Pix
	ldrb	r2, [sp, #14]	@ zero_extendqisi2	@ SmpPat.Pix, SmpPat.Pix
	rsblt	r3, r3, #0	@ tmp6503, tmp6502
	cmp	lr, #0	@ tmp6495,
	rsb	r0, r2, sl	@ tmp6509, SmpPat.Pix, <variable>.Pix
	rsblt	lr, lr, #0	@ tmp6496, tmp6495
	ldrb	r9, [r6, #1675]	@ zero_extendqisi2	@ <variable>.Pix, <variable>.Pix
	cmp	r3, #2	@ tmp6503,
	movle	r3, #0	@, tmp6505
	movgt	r3, #1	@, tmp6505
	ldrb	ip, [sp, #15]	@ zero_extendqisi2	@ SmpPat.Pix, SmpPat.Pix
	cmp	lr, #2	@ tmp6496,
	addgt	r3, r3, #1	@,, MisCnt.4883, tmp6505
	cmp	r0, #0	@ tmp6509,
	ldrb	r1, [r6, #1676]	@ zero_extendqisi2	@ <variable>.Pix, <variable>.Pix
	rsb	sl, ip, r9	@ tmp6516, SmpPat.Pix, <variable>.Pix
	rsblt	r0, r0, #0	@ tmp6510, tmp6509
	ldrb	r2, [sp, #16]	@ zero_extendqisi2	@ SmpPat.Pix, SmpPat.Pix
	cmp	r0, #2	@ tmp6510,
	addgt	r3, r3, #1	@,, MisCnt.4891, MisCnt.4883
	cmp	sl, #0	@ tmp6516,
	ldrb	r9, [r6, #1677]	@ zero_extendqisi2	@ <variable>.Pix, <variable>.Pix
	rsb	r2, r2, r1	@ tmp6523, SmpPat.Pix, <variable>.Pix
	rsblt	sl, sl, #0	@ tmp6517, tmp6516
	ldrb	r0, [sp, #17]	@ zero_extendqisi2	@ SmpPat.Pix, SmpPat.Pix
	cmp	sl, #2	@ tmp6517,
	addgt	r3, r3, #1	@,, MisCnt.4899, MisCnt.4891
	cmp	r2, #0	@ tmp6523,
	ldrb	lr, [r6, #1678]	@ zero_extendqisi2	@ <variable>.Pix, <variable>.Pix
	rsb	ip, r0, r9	@ tmp6530, SmpPat.Pix, <variable>.Pix
	rsblt	r2, r2, #0	@ tmp6524, tmp6523
	ldrb	r1, [sp, #18]	@ zero_extendqisi2	@ SmpPat.Pix, SmpPat.Pix
	cmp	r2, #2	@ tmp6524,
	addgt	r3, r3, #1	@,, MisCnt.4907, MisCnt.4899
	cmp	ip, #0	@ tmp6530,
	ldrb	r0, [r6, #1679]	@ zero_extendqisi2	@ <variable>.Pix, <variable>.Pix
	rsb	r1, r1, lr	@ tmp6537, SmpPat.Pix, <variable>.Pix
	rsblt	ip, ip, #0	@ tmp6531, tmp6530
	ldrb	r9, [sp, #19]	@ zero_extendqisi2	@ SmpPat.Pix, SmpPat.Pix
	cmp	ip, #2	@ tmp6531,
	addgt	r3, r3, #1	@,, MisCnt.4915, MisCnt.4907
	cmp	r1, #0	@ tmp6537,
	rsb	sl, r9, r0	@ tmp6544, SmpPat.Pix, <variable>.Pix
	rsblt	r1, r1, #0	@ tmp6538, tmp6537
	cmp	r1, #2	@ tmp6538,
	addgt	r3, r3, #1	@,, MisCnt.4923, MisCnt.4915
	cmp	sl, #0	@ tmp6544,
	rsblt	sl, sl, #0	@ tmp6545, tmp6544
	cmp	sl, #2	@ tmp6545,
	addgt	r3, r3, #1	@,, tmp6548, MisCnt.4923
	cmp	r3, #2	@ tmp6548,
	bgt	.L43	@,
	ldr	r3, [r6, #1680]	@ <variable>.Comp, <variable>.Comp
	mov	r0, sp	@,
	ldr	r2, [r6, #1684]	@ <variable>.Px, <variable>.Px
	mov	r1, r5	@, pDetPara
	ldr	lr, [r6, #1688]	@ <variable>.Py, <variable>.Py
	str	r3, [sp, #0]	@ <variable>.Comp, SmpPat.Comp
	stmib	sp, {r2, lr}	@ phole stm
	bl	GetSample	@
	ldrb	sl, [r6, #1693]	@ zero_extendqisi2	@ <variable>.Pix, <variable>.Pix
	ldrb	ip, [sp, #13]	@ zero_extendqisi2	@ SmpPat.Pix, SmpPat.Pix
	ldrb	r9, [r6, #1692]	@ zero_extendqisi2	@ <variable>.Pix, <variable>.Pix
	ldrb	r1, [sp, #12]	@ zero_extendqisi2	@ SmpPat.Pix, SmpPat.Pix
	rsb	r3, ip, sl	@ tmp6566, SmpPat.Pix, <variable>.Pix
	cmp	r3, #0	@ tmp6566,
	ldrb	r2, [sp, #14]	@ zero_extendqisi2	@ SmpPat.Pix, SmpPat.Pix
	rsb	sl, r1, r9	@ tmp6559, SmpPat.Pix, <variable>.Pix
	ldrb	r0, [r6, #1694]	@ zero_extendqisi2	@ <variable>.Pix, <variable>.Pix
	rsblt	r3, r3, #0	@ tmp6567, tmp6566
	cmp	sl, #0	@ tmp6559,
	rsb	r0, r2, r0	@ tmp6573, SmpPat.Pix, <variable>.Pix
	rsblt	sl, sl, #0	@ tmp6560, tmp6559
	ldrb	ip, [sp, #15]	@ zero_extendqisi2	@ SmpPat.Pix, SmpPat.Pix
	cmp	r3, #2	@ tmp6567,
	movle	r3, #0	@, tmp6569
	movgt	r3, #1	@, tmp6569
	ldrb	r9, [r6, #1695]	@ zero_extendqisi2	@ <variable>.Pix, <variable>.Pix
	cmp	sl, #2	@ tmp6560,
	addgt	r3, r3, #1	@,, MisCnt.1665, tmp6569
	cmp	r0, #0	@ tmp6573,
	ldrb	r1, [r6, #1696]	@ zero_extendqisi2	@ <variable>.Pix, <variable>.Pix
	rsb	r9, ip, r9	@ tmp6580, SmpPat.Pix, <variable>.Pix
	rsblt	r0, r0, #0	@ tmp6574, tmp6573
	ldrb	r2, [sp, #16]	@ zero_extendqisi2	@ SmpPat.Pix, SmpPat.Pix
	cmp	r0, #2	@ tmp6574,
	addgt	r3, r3, #1	@,, MisCnt.1675, MisCnt.1665
	cmp	r9, #0	@ tmp6580,
	ldrb	r0, [sp, #17]	@ zero_extendqisi2	@ SmpPat.Pix, SmpPat.Pix
	rsb	r2, r2, r1	@ tmp6587, SmpPat.Pix, <variable>.Pix
	rsblt	r9, r9, #0	@ tmp6581, tmp6580
	ldrb	ip, [r6, #1697]	@ zero_extendqisi2	@ <variable>.Pix, <variable>.Pix
	cmp	r9, #2	@ tmp6581,
	addgt	r3, r3, #1	@,, MisCnt.1686, MisCnt.1675
	cmp	r2, #0	@ tmp6587,
	ldrb	sl, [r6, #1698]	@ zero_extendqisi2	@ <variable>.Pix, <variable>.Pix
	rsb	ip, r0, ip	@ tmp6594, SmpPat.Pix, <variable>.Pix
	rsblt	r2, r2, #0	@ tmp6588, tmp6587
	ldrb	r1, [sp, #18]	@ zero_extendqisi2	@ SmpPat.Pix, SmpPat.Pix
	cmp	r2, #2	@ tmp6588,
	addgt	r3, r3, #1	@,, MisCnt.1697, MisCnt.1686
	cmp	ip, #0	@ tmp6594,
	ldrb	r0, [r6, #1699]	@ zero_extendqisi2	@ <variable>.Pix, <variable>.Pix
	rsblt	ip, ip, #0	@ tmp6595, tmp6594
	rsb	r1, r1, sl	@ tmp6601, SmpPat.Pix, <variable>.Pix
	ldrb	r2, [sp, #19]	@ zero_extendqisi2	@ SmpPat.Pix, SmpPat.Pix
	cmp	ip, #2	@ tmp6595,
	addgt	r3, r3, #1	@,, MisCnt.1705, MisCnt.1697
	cmp	r1, #0	@ tmp6601,
	rsb	ip, r2, r0	@ tmp6608, SmpPat.Pix, <variable>.Pix
	rsblt	r1, r1, #0	@ tmp6602, tmp6601
	cmp	r1, #2	@ tmp6602,
	addgt	r3, r3, #1	@,, MisCnt.1716, MisCnt.1705
	cmp	ip, #0	@ tmp6608,
	rsblt	ip, ip, #0	@ tmp6609, tmp6608
	cmp	ip, #2	@ tmp6609,
	addgt	r3, r3, #1	@,, tmp6612, MisCnt.1716
	cmp	r3, #2	@ tmp6612,
	movle	r0, #22	@ Result,
	ble	.L18	@,
.L43:
	ldr	ip, [r6, #1700]	@ <variable>.Comp, <variable>.Comp
	mov	r0, sp	@,
	ldr	r9, [r6, #1704]	@ <variable>.Px, <variable>.Px
	mov	r1, r5	@, pDetPara
	ldr	lr, [r6, #1708]	@ <variable>.Py, <variable>.Py
	movw	r7, #:lower16:.LANCHOR0	@ tmp6613,
	str	ip, [sp, #0]	@ <variable>.Comp, SmpPat.Comp
	movt	r7, #:upper16:.LANCHOR0	@ tmp6613,
	stmib	sp, {r9, lr}	@ phole stm
	bl	GetSample	@
	ldrb	r1, [r6, #1713]	@ zero_extendqisi2	@ <variable>.Pix, <variable>.Pix
	ldrb	r2, [sp, #13]	@ zero_extendqisi2	@ SmpPat.Pix, SmpPat.Pix
	ldrb	r0, [r6, #1712]	@ zero_extendqisi2	@ <variable>.Pix, <variable>.Pix
	ldrb	r3, [sp, #12]	@ zero_extendqisi2	@ SmpPat.Pix, SmpPat.Pix
	rsb	sl, r2, r1	@ tmp6630, SmpPat.Pix, <variable>.Pix
	cmp	sl, #0	@ tmp6630,
	ldrb	r9, [r6, #1714]	@ zero_extendqisi2	@ <variable>.Pix, <variable>.Pix
	rsb	lr, r3, r0	@ tmp6623, SmpPat.Pix, <variable>.Pix
	ldrb	ip, [sp, #14]	@ zero_extendqisi2	@ SmpPat.Pix, SmpPat.Pix
	rsblt	sl, sl, #0	@ tmp6631, tmp6630
	cmp	lr, #0	@ tmp6623,
	rsblt	lr, lr, #0	@ tmp6624, tmp6623
	ldrb	r0, [r6, #1715]	@ zero_extendqisi2	@ <variable>.Pix, <variable>.Pix
	cmp	sl, #2	@ tmp6631,
	movle	r1, #0	@, tmp6633
	movgt	r1, #1	@, tmp6633
	ldrb	r3, [sp, #15]	@ zero_extendqisi2	@ SmpPat.Pix, SmpPat.Pix
	rsb	sl, ip, r9	@ tmp6637, SmpPat.Pix, <variable>.Pix
	cmp	lr, #2	@ tmp6624,
	addgt	r1, r1, #1	@,, MisCnt.4949, tmp6633
	cmp	sl, #0	@ tmp6637,
	rsb	r9, r3, r0	@ tmp6644, SmpPat.Pix, <variable>.Pix
	ldrb	r2, [sp, #16]	@ zero_extendqisi2	@ SmpPat.Pix, SmpPat.Pix
	rsblt	sl, sl, #0	@ tmp6638, tmp6637
	ldrb	ip, [r6, #1716]	@ zero_extendqisi2	@ <variable>.Pix, <variable>.Pix
	cmp	sl, #2	@ tmp6638,
	movle	sl, r1	@, MisCnt.4957, MisCnt.4949
	addgt	sl, r1, #1	@,, MisCnt.4957, MisCnt.4949
	cmp	r9, #0	@ tmp6644,
	ldrb	r0, [r6, #1717]	@ zero_extendqisi2	@ <variable>.Pix, <variable>.Pix
	rsb	ip, r2, ip	@ tmp6651, SmpPat.Pix, <variable>.Pix
	rsblt	r9, r9, #0	@ tmp6645, tmp6644
	ldrb	r1, [sp, #17]	@ zero_extendqisi2	@ SmpPat.Pix, SmpPat.Pix
	cmp	r9, #2	@ tmp6645,
	movle	r3, sl	@, MisCnt.4965, MisCnt.4957
	addgt	r3, sl, #1	@,, MisCnt.4965, MisCnt.4957
	cmp	ip, #0	@ tmp6651,
	ldrb	lr, [r6, #1718]	@ zero_extendqisi2	@ <variable>.Pix, <variable>.Pix
	rsb	r9, r1, r0	@ tmp6658, SmpPat.Pix, <variable>.Pix
	rsblt	ip, ip, #0	@ tmp6652, tmp6651
	ldrb	r2, [sp, #18]	@ zero_extendqisi2	@ SmpPat.Pix, SmpPat.Pix
	cmp	ip, #2	@ tmp6652,
	movle	ip, r3	@, MisCnt.4973, MisCnt.4965
	addgt	ip, r3, #1	@,, MisCnt.4973, MisCnt.4965
	cmp	r9, #0	@ tmp6658,
	ldrb	r0, [r6, #1719]	@ zero_extendqisi2	@ <variable>.Pix, <variable>.Pix
	rsblt	r9, r9, #0	@ tmp6659, tmp6658
	rsb	sl, r2, lr	@ tmp6665, SmpPat.Pix, <variable>.Pix
	ldrb	r3, [sp, #19]	@ zero_extendqisi2	@ SmpPat.Pix, SmpPat.Pix
	cmp	r9, #2	@ tmp6659,
	movle	r1, ip	@, MisCnt.4981, MisCnt.4973
	addgt	r1, ip, #1	@,, MisCnt.4981, MisCnt.4973
	cmp	sl, #0	@ tmp6665,
	rsb	r9, r3, r0	@ tmp6672, SmpPat.Pix, <variable>.Pix
	rsblt	sl, sl, #0	@ tmp6666, tmp6665
	cmp	sl, #2	@ tmp6666,
	movle	ip, r1	@, MisCnt.4989, MisCnt.4981
	addgt	ip, r1, #1	@,, MisCnt.4989, MisCnt.4981
	cmp	r9, #0	@ tmp6672,
	rsblt	r9, r9, #0	@ tmp6673, tmp6672
	cmp	r9, #2	@ tmp6673,
	movle	r0, ip	@, tmp6676, MisCnt.4989
	addgt	r0, ip, #1	@,, tmp6676, MisCnt.4989
	cmp	r0, #2	@ tmp6676,
	bgt	.L44	@,
	ldr	ip, [r7, #1720]	@ <variable>.Comp, <variable>.Comp
	mov	r0, sp	@,
	ldr	sl, [r7, #1724]	@ <variable>.Px, <variable>.Px
	mov	r1, r5	@, pDetPara
	ldr	lr, [r7, #1728]	@ <variable>.Py, <variable>.Py
	str	ip, [sp, #0]	@ <variable>.Comp, SmpPat.Comp
	stmib	sp, {sl, lr}	@ phole stm
	bl	GetSample	@
	ldrb	r1, [r7, #1733]	@ zero_extendqisi2	@ <variable>.Pix, <variable>.Pix
	ldrb	r2, [sp, #13]	@ zero_extendqisi2	@ SmpPat.Pix, SmpPat.Pix
	ldrb	r0, [r7, #1732]	@ zero_extendqisi2	@ <variable>.Pix, <variable>.Pix
	ldrb	r3, [sp, #12]	@ zero_extendqisi2	@ SmpPat.Pix, SmpPat.Pix
	rsb	r9, r2, r1	@ tmp6694, SmpPat.Pix, <variable>.Pix
	cmp	r9, #0	@ tmp6694,
	ldrb	sl, [r7, #1734]	@ zero_extendqisi2	@ <variable>.Pix, <variable>.Pix
	rsb	lr, r3, r0	@ tmp6687, SmpPat.Pix, <variable>.Pix
	ldrb	ip, [sp, #14]	@ zero_extendqisi2	@ SmpPat.Pix, SmpPat.Pix
	rsblt	r9, r9, #0	@ tmp6695, tmp6694
	cmp	lr, #0	@ tmp6687,
	rsblt	lr, lr, #0	@ tmp6688, tmp6687
	ldrb	r0, [r7, #1735]	@ zero_extendqisi2	@ <variable>.Pix, <variable>.Pix
	cmp	r9, #2	@ tmp6695,
	movle	r1, #0	@, tmp6697
	movgt	r1, #1	@, tmp6697
	ldrb	r3, [sp, #15]	@ zero_extendqisi2	@ SmpPat.Pix, SmpPat.Pix
	rsb	r9, ip, sl	@ tmp6701, SmpPat.Pix, <variable>.Pix
	cmp	lr, #2	@ tmp6688,
	addgt	r1, r1, #1	@,, MisCnt.5015, tmp6697
	cmp	r9, #0	@ tmp6701,
	rsb	r3, r3, r0	@ tmp6708, SmpPat.Pix, <variable>.Pix
	rsblt	r9, r9, #0	@ tmp6702, tmp6701
	ldrb	ip, [r7, #1736]	@ zero_extendqisi2	@ <variable>.Pix, <variable>.Pix
	ldrb	r2, [sp, #16]	@ zero_extendqisi2	@ SmpPat.Pix, SmpPat.Pix
	cmp	r9, #2	@ tmp6702,
	movle	sl, r1	@, MisCnt.5023, MisCnt.5015
	addgt	sl, r1, #1	@,, MisCnt.5023, MisCnt.5015
	cmp	r3, #0	@ tmp6708,
	ldrb	r0, [r7, #1737]	@ zero_extendqisi2	@ <variable>.Pix, <variable>.Pix
	rsb	r9, r2, ip	@ tmp6715, SmpPat.Pix, <variable>.Pix
	rsblt	r3, r3, #0	@ tmp6709, tmp6708
	ldrb	r1, [sp, #17]	@ zero_extendqisi2	@ SmpPat.Pix, SmpPat.Pix
	cmp	r3, #2	@ tmp6709,
	movle	r3, sl	@, MisCnt.5031, MisCnt.5023
	addgt	r3, sl, #1	@,, MisCnt.5031, MisCnt.5023
	cmp	r9, #0	@ tmp6715,
	ldrb	lr, [r7, #1738]	@ zero_extendqisi2	@ <variable>.Pix, <variable>.Pix
	rsb	r1, r1, r0	@ tmp6722, SmpPat.Pix, <variable>.Pix
	rsblt	r9, r9, #0	@ tmp6716, tmp6715
	ldrb	r2, [sp, #18]	@ zero_extendqisi2	@ SmpPat.Pix, SmpPat.Pix
	cmp	r9, #2	@ tmp6716,
	movle	ip, r3	@, MisCnt.5039, MisCnt.5031
	addgt	ip, r3, #1	@,, MisCnt.5039, MisCnt.5031
	cmp	r1, #0	@ tmp6722,
	ldrb	sl, [r7, #1739]	@ zero_extendqisi2	@ <variable>.Pix, <variable>.Pix
	rsb	r2, r2, lr	@ tmp6729, SmpPat.Pix, <variable>.Pix
	rsblt	r1, r1, #0	@ tmp6723, tmp6722
	ldrb	r9, [sp, #19]	@ zero_extendqisi2	@ SmpPat.Pix, SmpPat.Pix
	cmp	r1, #2	@ tmp6723,
	movle	r1, ip	@, MisCnt.5047, MisCnt.5039
	addgt	r1, ip, #1	@,, MisCnt.5047, MisCnt.5039
	cmp	r2, #0	@ tmp6729,
	rsb	r3, r9, sl	@ tmp6736, SmpPat.Pix, <variable>.Pix
	rsblt	r2, r2, #0	@ tmp6730, tmp6729
	cmp	r2, #2	@ tmp6730,
	movle	r0, r1	@, MisCnt.5055, MisCnt.5047
	addgt	r0, r1, #1	@,, MisCnt.5055, MisCnt.5047
	cmp	r3, #0	@ tmp6736,
	rsblt	r3, r3, #0	@ tmp6737, tmp6736
	cmp	r3, #2	@ tmp6737,
	movle	sl, r0	@, tmp6740, MisCnt.5055
	addgt	sl, r0, #1	@,, tmp6740, MisCnt.5055
	cmp	sl, #2	@ tmp6740,
	bgt	.L44	@,
	ldr	r3, [r7, #1740]	@ <variable>.Comp, <variable>.Comp
	mov	r0, sp	@,
	ldr	r2, [r7, #1744]	@ <variable>.Px, <variable>.Px
	mov	r1, r5	@, pDetPara
	ldr	lr, [r7, #1748]	@ <variable>.Py, <variable>.Py
	str	r3, [sp, #0]	@ <variable>.Comp, SmpPat.Comp
	stmib	sp, {r2, lr}	@ phole stm
	bl	GetSample	@
	ldrb	ip, [r7, #1753]	@ zero_extendqisi2	@ <variable>.Pix, <variable>.Pix
	ldrb	sl, [sp, #13]	@ zero_extendqisi2	@ SmpPat.Pix, SmpPat.Pix
	ldrb	r9, [r7, #1752]	@ zero_extendqisi2	@ <variable>.Pix, <variable>.Pix
	ldrb	r1, [sp, #12]	@ zero_extendqisi2	@ SmpPat.Pix, SmpPat.Pix
	rsb	r3, sl, ip	@ tmp6758, SmpPat.Pix, <variable>.Pix
	cmp	r3, #0	@ tmp6758,
	ldrb	r2, [sp, #14]	@ zero_extendqisi2	@ SmpPat.Pix, SmpPat.Pix
	rsb	lr, r1, r9	@ tmp6751, SmpPat.Pix, <variable>.Pix
	ldrb	r0, [r7, #1754]	@ zero_extendqisi2	@ <variable>.Pix, <variable>.Pix
	rsblt	r3, r3, #0	@ tmp6759, tmp6758
	cmp	lr, #0	@ tmp6751,
	rsb	r0, r2, r0	@ tmp6765, SmpPat.Pix, <variable>.Pix
	rsblt	lr, lr, #0	@ tmp6752, tmp6751
	ldrb	ip, [sp, #15]	@ zero_extendqisi2	@ SmpPat.Pix, SmpPat.Pix
	cmp	r3, #2	@ tmp6759,
	movle	r9, #0	@, tmp6761
	movgt	r9, #1	@, tmp6761
	ldrb	sl, [r7, #1755]	@ zero_extendqisi2	@ <variable>.Pix, <variable>.Pix
	cmp	lr, #2	@ tmp6752,
	addgt	r9, r9, #1	@,, MisCnt.5081, tmp6761
	cmp	r0, #0	@ tmp6765,
	ldrb	r1, [r7, #1756]	@ zero_extendqisi2	@ <variable>.Pix, <variable>.Pix
	rsb	sl, ip, sl	@ tmp6772, SmpPat.Pix, <variable>.Pix
	rsblt	r0, r0, #0	@ tmp6766, tmp6765
	ldrb	r2, [sp, #16]	@ zero_extendqisi2	@ SmpPat.Pix, SmpPat.Pix
	cmp	r0, #2	@ tmp6766,
	addgt	r9, r9, #1	@,, MisCnt.5089, MisCnt.5081
	cmp	sl, #0	@ tmp6772,
	ldrb	r0, [sp, #17]	@ zero_extendqisi2	@ SmpPat.Pix, SmpPat.Pix
	rsb	r2, r2, r1	@ tmp6779, SmpPat.Pix, <variable>.Pix
	rsblt	sl, sl, #0	@ tmp6773, tmp6772
	ldrb	ip, [r7, #1757]	@ zero_extendqisi2	@ <variable>.Pix, <variable>.Pix
	cmp	sl, #2	@ tmp6773,
	addgt	r9, r9, #1	@,, MisCnt.5097, MisCnt.5089
	cmp	r2, #0	@ tmp6779,
	ldrb	lr, [r7, #1758]	@ zero_extendqisi2	@ <variable>.Pix, <variable>.Pix
	rsb	ip, r0, ip	@ tmp6786, SmpPat.Pix, <variable>.Pix
	rsblt	r2, r2, #0	@ tmp6780, tmp6779
	ldrb	r1, [sp, #18]	@ zero_extendqisi2	@ SmpPat.Pix, SmpPat.Pix
	cmp	r2, #2	@ tmp6780,
	addgt	r9, r9, #1	@,, MisCnt.5105, MisCnt.5097
	cmp	ip, #0	@ tmp6786,
	ldrb	r0, [r7, #1759]	@ zero_extendqisi2	@ <variable>.Pix, <variable>.Pix
	rsb	r1, r1, lr	@ tmp6793, SmpPat.Pix, <variable>.Pix
	rsblt	ip, ip, #0	@ tmp6787, tmp6786
	ldrb	sl, [sp, #19]	@ zero_extendqisi2	@ SmpPat.Pix, SmpPat.Pix
	cmp	ip, #2	@ tmp6787,
	addgt	r9, r9, #1	@,, MisCnt.5113, MisCnt.5105
	cmp	r1, #0	@ tmp6793,
	rsb	r2, sl, r0	@ tmp6800, SmpPat.Pix, <variable>.Pix
	rsblt	r1, r1, #0	@ tmp6794, tmp6793
	cmp	r1, #2	@ tmp6794,
	addgt	r9, r9, #1	@,, MisCnt.5121, MisCnt.5113
	cmp	r2, #0	@ tmp6800,
	rsblt	r2, r2, #0	@ tmp6801, tmp6800
	cmp	r2, #2	@ tmp6801,
	addgt	r9, r9, #1	@,, tmp6804, MisCnt.5121
	cmp	r9, #2	@ tmp6804,
	bgt	.L44	@,
	ldr	r3, [r7, #1760]	@ <variable>.Comp, <variable>.Comp
	mov	r0, sp	@,
	ldr	r2, [r7, #1764]	@ <variable>.Px, <variable>.Px
	mov	r1, r5	@, pDetPara
	ldr	lr, [r7, #1768]	@ <variable>.Py, <variable>.Py
	str	r3, [sp, #0]	@ <variable>.Comp, SmpPat.Comp
	stmib	sp, {r2, lr}	@ phole stm
	bl	GetSample	@
	ldrb	ip, [r7, #1773]	@ zero_extendqisi2	@ <variable>.Pix, <variable>.Pix
	ldrb	sl, [sp, #13]	@ zero_extendqisi2	@ SmpPat.Pix, SmpPat.Pix
	ldrb	r9, [r7, #1772]	@ zero_extendqisi2	@ <variable>.Pix, <variable>.Pix
	ldrb	r1, [sp, #12]	@ zero_extendqisi2	@ SmpPat.Pix, SmpPat.Pix
	rsb	r3, sl, ip	@ tmp6822, SmpPat.Pix, <variable>.Pix
	cmp	r3, #0	@ tmp6822,
	ldrb	r2, [sp, #14]	@ zero_extendqisi2	@ SmpPat.Pix, SmpPat.Pix
	rsb	lr, r1, r9	@ tmp6815, SmpPat.Pix, <variable>.Pix
	ldrb	r0, [r7, #1774]	@ zero_extendqisi2	@ <variable>.Pix, <variable>.Pix
	rsblt	r3, r3, #0	@ tmp6823, tmp6822
	cmp	lr, #0	@ tmp6815,
	rsb	r0, r2, r0	@ tmp6829, SmpPat.Pix, <variable>.Pix
	rsblt	lr, lr, #0	@ tmp6816, tmp6815
	ldrb	ip, [sp, #15]	@ zero_extendqisi2	@ SmpPat.Pix, SmpPat.Pix
	cmp	r3, #2	@ tmp6823,
	movle	r9, #0	@, tmp6825
	movgt	r9, #1	@, tmp6825
	ldrb	sl, [r7, #1775]	@ zero_extendqisi2	@ <variable>.Pix, <variable>.Pix
	cmp	lr, #2	@ tmp6816,
	addgt	r9, r9, #1	@,, MisCnt.5147, tmp6825
	cmp	r0, #0	@ tmp6829,
	ldrb	r1, [r7, #1776]	@ zero_extendqisi2	@ <variable>.Pix, <variable>.Pix
	rsb	sl, ip, sl	@ tmp6836, SmpPat.Pix, <variable>.Pix
	rsblt	r0, r0, #0	@ tmp6830, tmp6829
	ldrb	r2, [sp, #16]	@ zero_extendqisi2	@ SmpPat.Pix, SmpPat.Pix
	cmp	r0, #2	@ tmp6830,
	addgt	r9, r9, #1	@,, MisCnt.5155, MisCnt.5147
	cmp	sl, #0	@ tmp6836,
	ldrb	r0, [sp, #17]	@ zero_extendqisi2	@ SmpPat.Pix, SmpPat.Pix
	rsb	r2, r2, r1	@ tmp6843, SmpPat.Pix, <variable>.Pix
	rsblt	sl, sl, #0	@ tmp6837, tmp6836
	ldrb	ip, [r7, #1777]	@ zero_extendqisi2	@ <variable>.Pix, <variable>.Pix
	cmp	sl, #2	@ tmp6837,
	addgt	r9, r9, #1	@,, MisCnt.5163, MisCnt.5155
	cmp	r2, #0	@ tmp6843,
	ldrb	lr, [r7, #1778]	@ zero_extendqisi2	@ <variable>.Pix, <variable>.Pix
	rsb	ip, r0, ip	@ tmp6850, SmpPat.Pix, <variable>.Pix
	rsblt	r2, r2, #0	@ tmp6844, tmp6843
	ldrb	r1, [sp, #18]	@ zero_extendqisi2	@ SmpPat.Pix, SmpPat.Pix
	cmp	r2, #2	@ tmp6844,
	addgt	r9, r9, #1	@,, MisCnt.5171, MisCnt.5163
	cmp	ip, #0	@ tmp6850,
	ldrb	r0, [r7, #1779]	@ zero_extendqisi2	@ <variable>.Pix, <variable>.Pix
	rsb	r1, r1, lr	@ tmp6857, SmpPat.Pix, <variable>.Pix
	rsblt	ip, ip, #0	@ tmp6851, tmp6850
	ldrb	r2, [sp, #19]	@ zero_extendqisi2	@ SmpPat.Pix, SmpPat.Pix
	cmp	ip, #2	@ tmp6851,
	addgt	r9, r9, #1	@,, MisCnt.5179, MisCnt.5171
	cmp	r1, #0	@ tmp6857,
	rsb	sl, r2, r0	@ tmp6864, SmpPat.Pix, <variable>.Pix
	rsblt	r1, r1, #0	@ tmp6858, tmp6857
	cmp	r1, #2	@ tmp6858,
	addgt	r9, r9, #1	@,, MisCnt.5187, MisCnt.5179
	cmp	sl, #0	@ tmp6864,
	rsblt	sl, sl, #0	@ tmp6865, tmp6864
	cmp	sl, #2	@ tmp6865,
	addgt	r9, r9, #1	@,, tmp6868, MisCnt.5187
	cmp	r9, #2	@ tmp6868,
	bgt	.L44	@,
	ldr	r3, [r7, #1780]	@ <variable>.Comp, <variable>.Comp
	mov	r0, sp	@,
	ldr	r2, [r7, #1784]	@ <variable>.Px, <variable>.Px
	mov	r1, r5	@, pDetPara
	ldr	lr, [r7, #1788]	@ <variable>.Py, <variable>.Py
	str	r3, [sp, #0]	@ <variable>.Comp, SmpPat.Comp
	stmib	sp, {r2, lr}	@ phole stm
	bl	GetSample	@
	ldrb	sl, [r7, #1793]	@ zero_extendqisi2	@ <variable>.Pix, <variable>.Pix
	ldrb	ip, [sp, #13]	@ zero_extendqisi2	@ SmpPat.Pix, SmpPat.Pix
	ldrb	r9, [r7, #1792]	@ zero_extendqisi2	@ <variable>.Pix, <variable>.Pix
	ldrb	r1, [sp, #12]	@ zero_extendqisi2	@ SmpPat.Pix, SmpPat.Pix
	rsb	r3, ip, sl	@ tmp6886, SmpPat.Pix, <variable>.Pix
	cmp	r3, #0	@ tmp6886,
	ldrb	r2, [sp, #14]	@ zero_extendqisi2	@ SmpPat.Pix, SmpPat.Pix
	rsb	sl, r1, r9	@ tmp6879, SmpPat.Pix, <variable>.Pix
	ldrb	r0, [r7, #1794]	@ zero_extendqisi2	@ <variable>.Pix, <variable>.Pix
	rsblt	r3, r3, #0	@ tmp6887, tmp6886
	cmp	sl, #0	@ tmp6879,
	rsb	r0, r2, r0	@ tmp6893, SmpPat.Pix, <variable>.Pix
	rsblt	sl, sl, #0	@ tmp6880, tmp6879
	ldrb	ip, [sp, #15]	@ zero_extendqisi2	@ SmpPat.Pix, SmpPat.Pix
	cmp	r3, #2	@ tmp6887,
	movle	r3, #0	@, tmp6889
	movgt	r3, #1	@, tmp6889
	ldrb	r9, [r7, #1795]	@ zero_extendqisi2	@ <variable>.Pix, <variable>.Pix
	cmp	sl, #2	@ tmp6880,
	addgt	r3, r3, #1	@,, MisCnt.1736, tmp6889
	cmp	r0, #0	@ tmp6893,
	ldrb	r1, [r7, #1796]	@ zero_extendqisi2	@ <variable>.Pix, <variable>.Pix
	rsb	r9, ip, r9	@ tmp6900, SmpPat.Pix, <variable>.Pix
	rsblt	r0, r0, #0	@ tmp6894, tmp6893
	ldrb	r2, [sp, #16]	@ zero_extendqisi2	@ SmpPat.Pix, SmpPat.Pix
	cmp	r0, #2	@ tmp6894,
	addgt	r3, r3, #1	@,, MisCnt.1745, MisCnt.1736
	cmp	r9, #0	@ tmp6900,
	ldrb	r0, [sp, #17]	@ zero_extendqisi2	@ SmpPat.Pix, SmpPat.Pix
	rsb	r2, r2, r1	@ tmp6907, SmpPat.Pix, <variable>.Pix
	rsblt	r9, r9, #0	@ tmp6901, tmp6900
	ldrb	ip, [r7, #1797]	@ zero_extendqisi2	@ <variable>.Pix, <variable>.Pix
	cmp	r9, #2	@ tmp6901,
	addgt	r3, r3, #1	@,, MisCnt.1754, MisCnt.1745
	cmp	r2, #0	@ tmp6907,
	ldrb	sl, [r7, #1798]	@ zero_extendqisi2	@ <variable>.Pix, <variable>.Pix
	rsb	ip, r0, ip	@ tmp6914, SmpPat.Pix, <variable>.Pix
	rsblt	r2, r2, #0	@ tmp6908, tmp6907
	ldrb	r1, [sp, #18]	@ zero_extendqisi2	@ SmpPat.Pix, SmpPat.Pix
	cmp	r2, #2	@ tmp6908,
	addgt	r3, r3, #1	@,, MisCnt.1764, MisCnt.1754
	cmp	ip, #0	@ tmp6914,
	ldrb	r0, [r7, #1799]	@ zero_extendqisi2	@ <variable>.Pix, <variable>.Pix
	rsblt	ip, ip, #0	@ tmp6915, tmp6914
	rsb	r1, r1, sl	@ tmp6921, SmpPat.Pix, <variable>.Pix
	ldrb	r2, [sp, #19]	@ zero_extendqisi2	@ SmpPat.Pix, SmpPat.Pix
	cmp	ip, #2	@ tmp6915,
	addgt	r3, r3, #1	@,, MisCnt.1772, MisCnt.1764
	cmp	r1, #0	@ tmp6921,
	rsb	ip, r2, r0	@ tmp6928, SmpPat.Pix, <variable>.Pix
	rsblt	r1, r1, #0	@ tmp6922, tmp6921
	cmp	r1, #2	@ tmp6922,
	addgt	r3, r3, #1	@,, MisCnt.1780, MisCnt.1772
	cmp	ip, #0	@ tmp6928,
	rsblt	ip, ip, #0	@ tmp6929, tmp6928
	cmp	ip, #2	@ tmp6929,
	addgt	r3, r3, #1	@,, tmp6932, MisCnt.1780
	cmp	r3, #2	@ tmp6932,
	movle	r0, #20	@ Result,
	ble	.L18	@,
.L44:
	ldr	ip, [r6, #1800]	@ <variable>.Comp, <variable>.Comp
	mov	r0, sp	@,
	ldr	r9, [r6, #1804]	@ <variable>.Px, <variable>.Px
	mov	r1, r5	@, pDetPara
	ldr	lr, [r6, #1808]	@ <variable>.Py, <variable>.Py
	movw	r7, #:lower16:.LANCHOR0	@ tmp6933,
	str	ip, [sp, #0]	@ <variable>.Comp, SmpPat.Comp
	movt	r7, #:upper16:.LANCHOR0	@ tmp6933,
	stmib	sp, {r9, lr}	@ phole stm
	bl	GetSample	@
	ldrb	r1, [r6, #1813]	@ zero_extendqisi2	@ <variable>.Pix, <variable>.Pix
	ldrb	r2, [sp, #13]	@ zero_extendqisi2	@ SmpPat.Pix, SmpPat.Pix
	ldrb	r0, [r6, #1812]	@ zero_extendqisi2	@ <variable>.Pix, <variable>.Pix
	ldrb	r3, [sp, #12]	@ zero_extendqisi2	@ SmpPat.Pix, SmpPat.Pix
	rsb	sl, r2, r1	@ tmp6950, SmpPat.Pix, <variable>.Pix
	cmp	sl, #0	@ tmp6950,
	ldrb	r9, [r6, #1814]	@ zero_extendqisi2	@ <variable>.Pix, <variable>.Pix
	rsb	lr, r3, r0	@ tmp6943, SmpPat.Pix, <variable>.Pix
	ldrb	ip, [sp, #14]	@ zero_extendqisi2	@ SmpPat.Pix, SmpPat.Pix
	rsblt	sl, sl, #0	@ tmp6951, tmp6950
	cmp	lr, #0	@ tmp6943,
	rsblt	lr, lr, #0	@ tmp6944, tmp6943
	ldrb	r0, [r6, #1815]	@ zero_extendqisi2	@ <variable>.Pix, <variable>.Pix
	cmp	sl, #2	@ tmp6951,
	movle	r1, #0	@, tmp6953
	movgt	r1, #1	@, tmp6953
	ldrb	r3, [sp, #15]	@ zero_extendqisi2	@ SmpPat.Pix, SmpPat.Pix
	rsb	sl, ip, r9	@ tmp6957, SmpPat.Pix, <variable>.Pix
	cmp	lr, #2	@ tmp6944,
	addgt	r1, r1, #1	@,, MisCnt.5213, tmp6953
	cmp	sl, #0	@ tmp6957,
	rsb	r9, r3, r0	@ tmp6964, SmpPat.Pix, <variable>.Pix
	ldrb	r2, [sp, #16]	@ zero_extendqisi2	@ SmpPat.Pix, SmpPat.Pix
	rsblt	sl, sl, #0	@ tmp6958, tmp6957
	ldrb	ip, [r6, #1816]	@ zero_extendqisi2	@ <variable>.Pix, <variable>.Pix
	cmp	sl, #2	@ tmp6958,
	movle	sl, r1	@, MisCnt.5221, MisCnt.5213
	addgt	sl, r1, #1	@,, MisCnt.5221, MisCnt.5213
	cmp	r9, #0	@ tmp6964,
	ldrb	r0, [r6, #1817]	@ zero_extendqisi2	@ <variable>.Pix, <variable>.Pix
	rsb	ip, r2, ip	@ tmp6971, SmpPat.Pix, <variable>.Pix
	rsblt	r9, r9, #0	@ tmp6965, tmp6964
	ldrb	r1, [sp, #17]	@ zero_extendqisi2	@ SmpPat.Pix, SmpPat.Pix
	cmp	r9, #2	@ tmp6965,
	movle	r3, sl	@, MisCnt.5229, MisCnt.5221
	addgt	r3, sl, #1	@,, MisCnt.5229, MisCnt.5221
	cmp	ip, #0	@ tmp6971,
	ldrb	lr, [r6, #1818]	@ zero_extendqisi2	@ <variable>.Pix, <variable>.Pix
	rsb	r9, r1, r0	@ tmp6978, SmpPat.Pix, <variable>.Pix
	rsblt	ip, ip, #0	@ tmp6972, tmp6971
	ldrb	r2, [sp, #18]	@ zero_extendqisi2	@ SmpPat.Pix, SmpPat.Pix
	cmp	ip, #2	@ tmp6972,
	movle	ip, r3	@, MisCnt.5237, MisCnt.5229
	addgt	ip, r3, #1	@,, MisCnt.5237, MisCnt.5229
	cmp	r9, #0	@ tmp6978,
	ldrb	r0, [r6, #1819]	@ zero_extendqisi2	@ <variable>.Pix, <variable>.Pix
	rsblt	r9, r9, #0	@ tmp6979, tmp6978
	rsb	sl, r2, lr	@ tmp6985, SmpPat.Pix, <variable>.Pix
	ldrb	r3, [sp, #19]	@ zero_extendqisi2	@ SmpPat.Pix, SmpPat.Pix
	cmp	r9, #2	@ tmp6979,
	movle	r1, ip	@, MisCnt.5245, MisCnt.5237
	addgt	r1, ip, #1	@,, MisCnt.5245, MisCnt.5237
	cmp	sl, #0	@ tmp6985,
	rsb	r9, r3, r0	@ tmp6992, SmpPat.Pix, <variable>.Pix
	rsblt	sl, sl, #0	@ tmp6986, tmp6985
	cmp	sl, #2	@ tmp6986,
	movle	ip, r1	@, MisCnt.5253, MisCnt.5245
	addgt	ip, r1, #1	@,, MisCnt.5253, MisCnt.5245
	cmp	r9, #0	@ tmp6992,
	rsblt	r9, r9, #0	@ tmp6993, tmp6992
	cmp	r9, #2	@ tmp6993,
	movle	r0, ip	@, tmp6996, MisCnt.5253
	addgt	r0, ip, #1	@,, tmp6996, MisCnt.5253
	cmp	r0, #2	@ tmp6996,
	bgt	.L45	@,
	ldr	ip, [r7, #1820]	@ <variable>.Comp, <variable>.Comp
	mov	r0, sp	@,
	ldr	sl, [r7, #1824]	@ <variable>.Px, <variable>.Px
	mov	r1, r5	@, pDetPara
	ldr	lr, [r7, #1828]	@ <variable>.Py, <variable>.Py
	str	ip, [sp, #0]	@ <variable>.Comp, SmpPat.Comp
	stmib	sp, {sl, lr}	@ phole stm
	bl	GetSample	@
	ldrb	r1, [r7, #1833]	@ zero_extendqisi2	@ <variable>.Pix, <variable>.Pix
	ldrb	r2, [sp, #13]	@ zero_extendqisi2	@ SmpPat.Pix, SmpPat.Pix
	ldrb	r0, [r7, #1832]	@ zero_extendqisi2	@ <variable>.Pix, <variable>.Pix
	ldrb	r3, [sp, #12]	@ zero_extendqisi2	@ SmpPat.Pix, SmpPat.Pix
	rsb	r9, r2, r1	@ tmp7014, SmpPat.Pix, <variable>.Pix
	cmp	r9, #0	@ tmp7014,
	ldrb	sl, [r7, #1834]	@ zero_extendqisi2	@ <variable>.Pix, <variable>.Pix
	rsb	lr, r3, r0	@ tmp7007, SmpPat.Pix, <variable>.Pix
	ldrb	ip, [sp, #14]	@ zero_extendqisi2	@ SmpPat.Pix, SmpPat.Pix
	rsblt	r9, r9, #0	@ tmp7015, tmp7014
	cmp	lr, #0	@ tmp7007,
	rsblt	lr, lr, #0	@ tmp7008, tmp7007
	ldrb	r0, [r7, #1835]	@ zero_extendqisi2	@ <variable>.Pix, <variable>.Pix
	cmp	r9, #2	@ tmp7015,
	movle	r1, #0	@, tmp7017
	movgt	r1, #1	@, tmp7017
	ldrb	r3, [sp, #15]	@ zero_extendqisi2	@ SmpPat.Pix, SmpPat.Pix
	rsb	r9, ip, sl	@ tmp7021, SmpPat.Pix, <variable>.Pix
	cmp	lr, #2	@ tmp7008,
	addgt	r1, r1, #1	@,, MisCnt.5279, tmp7017
	cmp	r9, #0	@ tmp7021,
	rsb	r3, r3, r0	@ tmp7028, SmpPat.Pix, <variable>.Pix
	rsblt	r9, r9, #0	@ tmp7022, tmp7021
	ldrb	ip, [r7, #1836]	@ zero_extendqisi2	@ <variable>.Pix, <variable>.Pix
	ldrb	r2, [sp, #16]	@ zero_extendqisi2	@ SmpPat.Pix, SmpPat.Pix
	cmp	r9, #2	@ tmp7022,
	movle	sl, r1	@, MisCnt.5287, MisCnt.5279
	addgt	sl, r1, #1	@,, MisCnt.5287, MisCnt.5279
	cmp	r3, #0	@ tmp7028,
	ldrb	r0, [r7, #1837]	@ zero_extendqisi2	@ <variable>.Pix, <variable>.Pix
	rsb	r9, r2, ip	@ tmp7035, SmpPat.Pix, <variable>.Pix
	rsblt	r3, r3, #0	@ tmp7029, tmp7028
	ldrb	r1, [sp, #17]	@ zero_extendqisi2	@ SmpPat.Pix, SmpPat.Pix
	cmp	r3, #2	@ tmp7029,
	movle	r3, sl	@, MisCnt.5295, MisCnt.5287
	addgt	r3, sl, #1	@,, MisCnt.5295, MisCnt.5287
	cmp	r9, #0	@ tmp7035,
	ldrb	lr, [r7, #1838]	@ zero_extendqisi2	@ <variable>.Pix, <variable>.Pix
	rsb	r1, r1, r0	@ tmp7042, SmpPat.Pix, <variable>.Pix
	rsblt	r9, r9, #0	@ tmp7036, tmp7035
	ldrb	r2, [sp, #18]	@ zero_extendqisi2	@ SmpPat.Pix, SmpPat.Pix
	cmp	r9, #2	@ tmp7036,
	movle	ip, r3	@, MisCnt.5303, MisCnt.5295
	addgt	ip, r3, #1	@,, MisCnt.5303, MisCnt.5295
	cmp	r1, #0	@ tmp7042,
	ldrb	sl, [r7, #1839]	@ zero_extendqisi2	@ <variable>.Pix, <variable>.Pix
	rsb	r2, r2, lr	@ tmp7049, SmpPat.Pix, <variable>.Pix
	rsblt	r1, r1, #0	@ tmp7043, tmp7042
	ldrb	r9, [sp, #19]	@ zero_extendqisi2	@ SmpPat.Pix, SmpPat.Pix
	cmp	r1, #2	@ tmp7043,
	movle	r1, ip	@, MisCnt.5311, MisCnt.5303
	addgt	r1, ip, #1	@,, MisCnt.5311, MisCnt.5303
	cmp	r2, #0	@ tmp7049,
	rsb	r3, r9, sl	@ tmp7056, SmpPat.Pix, <variable>.Pix
	rsblt	r2, r2, #0	@ tmp7050, tmp7049
	cmp	r2, #2	@ tmp7050,
	movle	r0, r1	@, MisCnt.5319, MisCnt.5311
	addgt	r0, r1, #1	@,, MisCnt.5319, MisCnt.5311
	cmp	r3, #0	@ tmp7056,
	rsblt	r3, r3, #0	@ tmp7057, tmp7056
	cmp	r3, #2	@ tmp7057,
	movle	sl, r0	@, tmp7060, MisCnt.5319
	addgt	sl, r0, #1	@,, tmp7060, MisCnt.5319
	cmp	sl, #2	@ tmp7060,
	bgt	.L45	@,
	ldr	r3, [r7, #1840]	@ <variable>.Comp, <variable>.Comp
	mov	r0, sp	@,
	ldr	r2, [r7, #1844]	@ <variable>.Px, <variable>.Px
	mov	r1, r5	@, pDetPara
	ldr	lr, [r7, #1848]	@ <variable>.Py, <variable>.Py
	str	r3, [sp, #0]	@ <variable>.Comp, SmpPat.Comp
	stmib	sp, {r2, lr}	@ phole stm
	bl	GetSample	@
	ldrb	ip, [r7, #1853]	@ zero_extendqisi2	@ <variable>.Pix, <variable>.Pix
	ldrb	sl, [sp, #13]	@ zero_extendqisi2	@ SmpPat.Pix, SmpPat.Pix
	ldrb	r9, [r7, #1852]	@ zero_extendqisi2	@ <variable>.Pix, <variable>.Pix
	ldrb	r1, [sp, #12]	@ zero_extendqisi2	@ SmpPat.Pix, SmpPat.Pix
	rsb	r3, sl, ip	@ tmp7078, SmpPat.Pix, <variable>.Pix
	cmp	r3, #0	@ tmp7078,
	ldrb	r2, [sp, #14]	@ zero_extendqisi2	@ SmpPat.Pix, SmpPat.Pix
	rsb	lr, r1, r9	@ tmp7071, SmpPat.Pix, <variable>.Pix
	ldrb	r0, [r7, #1854]	@ zero_extendqisi2	@ <variable>.Pix, <variable>.Pix
	rsblt	r3, r3, #0	@ tmp7079, tmp7078
	cmp	lr, #0	@ tmp7071,
	rsb	r0, r2, r0	@ tmp7085, SmpPat.Pix, <variable>.Pix
	rsblt	lr, lr, #0	@ tmp7072, tmp7071
	ldrb	ip, [sp, #15]	@ zero_extendqisi2	@ SmpPat.Pix, SmpPat.Pix
	cmp	r3, #2	@ tmp7079,
	movle	r9, #0	@, tmp7081
	movgt	r9, #1	@, tmp7081
	ldrb	sl, [r7, #1855]	@ zero_extendqisi2	@ <variable>.Pix, <variable>.Pix
	cmp	lr, #2	@ tmp7072,
	addgt	r9, r9, #1	@,, MisCnt.5345, tmp7081
	cmp	r0, #0	@ tmp7085,
	ldrb	r1, [r7, #1856]	@ zero_extendqisi2	@ <variable>.Pix, <variable>.Pix
	rsb	sl, ip, sl	@ tmp7092, SmpPat.Pix, <variable>.Pix
	rsblt	r0, r0, #0	@ tmp7086, tmp7085
	ldrb	r2, [sp, #16]	@ zero_extendqisi2	@ SmpPat.Pix, SmpPat.Pix
	cmp	r0, #2	@ tmp7086,
	addgt	r9, r9, #1	@,, MisCnt.5353, MisCnt.5345
	cmp	sl, #0	@ tmp7092,
	ldrb	r0, [sp, #17]	@ zero_extendqisi2	@ SmpPat.Pix, SmpPat.Pix
	rsb	r2, r2, r1	@ tmp7099, SmpPat.Pix, <variable>.Pix
	rsblt	sl, sl, #0	@ tmp7093, tmp7092
	ldrb	ip, [r7, #1857]	@ zero_extendqisi2	@ <variable>.Pix, <variable>.Pix
	cmp	sl, #2	@ tmp7093,
	addgt	r9, r9, #1	@,, MisCnt.5361, MisCnt.5353
	cmp	r2, #0	@ tmp7099,
	ldrb	lr, [r7, #1858]	@ zero_extendqisi2	@ <variable>.Pix, <variable>.Pix
	rsb	ip, r0, ip	@ tmp7106, SmpPat.Pix, <variable>.Pix
	rsblt	r2, r2, #0	@ tmp7100, tmp7099
	ldrb	r1, [sp, #18]	@ zero_extendqisi2	@ SmpPat.Pix, SmpPat.Pix
	cmp	r2, #2	@ tmp7100,
	addgt	r9, r9, #1	@,, MisCnt.5369, MisCnt.5361
	cmp	ip, #0	@ tmp7106,
	ldrb	r0, [r7, #1859]	@ zero_extendqisi2	@ <variable>.Pix, <variable>.Pix
	rsb	r1, r1, lr	@ tmp7113, SmpPat.Pix, <variable>.Pix
	rsblt	ip, ip, #0	@ tmp7107, tmp7106
	ldrb	sl, [sp, #19]	@ zero_extendqisi2	@ SmpPat.Pix, SmpPat.Pix
	cmp	ip, #2	@ tmp7107,
	addgt	r9, r9, #1	@,, MisCnt.5377, MisCnt.5369
	cmp	r1, #0	@ tmp7113,
	rsb	r2, sl, r0	@ tmp7120, SmpPat.Pix, <variable>.Pix
	rsblt	r1, r1, #0	@ tmp7114, tmp7113
	cmp	r1, #2	@ tmp7114,
	addgt	r9, r9, #1	@,, MisCnt.5385, MisCnt.5377
	cmp	r2, #0	@ tmp7120,
	rsblt	r2, r2, #0	@ tmp7121, tmp7120
	cmp	r2, #2	@ tmp7121,
	addgt	r9, r9, #1	@,, tmp7124, MisCnt.5385
	cmp	r9, #2	@ tmp7124,
	bgt	.L45	@,
	ldr	r3, [r7, #1860]	@ <variable>.Comp, <variable>.Comp
	mov	r0, sp	@,
	ldr	r2, [r7, #1864]	@ <variable>.Px, <variable>.Px
	mov	r1, r5	@, pDetPara
	ldr	lr, [r7, #1868]	@ <variable>.Py, <variable>.Py
	str	r3, [sp, #0]	@ <variable>.Comp, SmpPat.Comp
	stmib	sp, {r2, lr}	@ phole stm
	bl	GetSample	@
	ldrb	ip, [r7, #1873]	@ zero_extendqisi2	@ <variable>.Pix, <variable>.Pix
	ldrb	sl, [sp, #13]	@ zero_extendqisi2	@ SmpPat.Pix, SmpPat.Pix
	ldrb	r9, [r7, #1872]	@ zero_extendqisi2	@ <variable>.Pix, <variable>.Pix
	ldrb	r1, [sp, #12]	@ zero_extendqisi2	@ SmpPat.Pix, SmpPat.Pix
	rsb	r3, sl, ip	@ tmp7142, SmpPat.Pix, <variable>.Pix
	cmp	r3, #0	@ tmp7142,
	ldrb	r2, [sp, #14]	@ zero_extendqisi2	@ SmpPat.Pix, SmpPat.Pix
	rsb	lr, r1, r9	@ tmp7135, SmpPat.Pix, <variable>.Pix
	ldrb	r0, [r7, #1874]	@ zero_extendqisi2	@ <variable>.Pix, <variable>.Pix
	rsblt	r3, r3, #0	@ tmp7143, tmp7142
	cmp	lr, #0	@ tmp7135,
	rsb	r0, r2, r0	@ tmp7149, SmpPat.Pix, <variable>.Pix
	rsblt	lr, lr, #0	@ tmp7136, tmp7135
	ldrb	ip, [sp, #15]	@ zero_extendqisi2	@ SmpPat.Pix, SmpPat.Pix
	cmp	r3, #2	@ tmp7143,
	movle	r9, #0	@, tmp7145
	movgt	r9, #1	@, tmp7145
	ldrb	sl, [r7, #1875]	@ zero_extendqisi2	@ <variable>.Pix, <variable>.Pix
	cmp	lr, #2	@ tmp7136,
	addgt	r9, r9, #1	@,, MisCnt.5411, tmp7145
	cmp	r0, #0	@ tmp7149,
	ldrb	r1, [r7, #1876]	@ zero_extendqisi2	@ <variable>.Pix, <variable>.Pix
	rsb	sl, ip, sl	@ tmp7156, SmpPat.Pix, <variable>.Pix
	rsblt	r0, r0, #0	@ tmp7150, tmp7149
	ldrb	r2, [sp, #16]	@ zero_extendqisi2	@ SmpPat.Pix, SmpPat.Pix
	cmp	r0, #2	@ tmp7150,
	addgt	r9, r9, #1	@,, MisCnt.5419, MisCnt.5411
	cmp	sl, #0	@ tmp7156,
	ldrb	r0, [sp, #17]	@ zero_extendqisi2	@ SmpPat.Pix, SmpPat.Pix
	rsb	r2, r2, r1	@ tmp7163, SmpPat.Pix, <variable>.Pix
	rsblt	sl, sl, #0	@ tmp7157, tmp7156
	ldrb	ip, [r7, #1877]	@ zero_extendqisi2	@ <variable>.Pix, <variable>.Pix
	cmp	sl, #2	@ tmp7157,
	addgt	r9, r9, #1	@,, MisCnt.5427, MisCnt.5419
	cmp	r2, #0	@ tmp7163,
	ldrb	lr, [r7, #1878]	@ zero_extendqisi2	@ <variable>.Pix, <variable>.Pix
	rsb	ip, r0, ip	@ tmp7170, SmpPat.Pix, <variable>.Pix
	rsblt	r2, r2, #0	@ tmp7164, tmp7163
	ldrb	r1, [sp, #18]	@ zero_extendqisi2	@ SmpPat.Pix, SmpPat.Pix
	cmp	r2, #2	@ tmp7164,
	addgt	r9, r9, #1	@,, MisCnt.5435, MisCnt.5427
	cmp	ip, #0	@ tmp7170,
	ldrb	r0, [r7, #1879]	@ zero_extendqisi2	@ <variable>.Pix, <variable>.Pix
	rsb	r1, r1, lr	@ tmp7177, SmpPat.Pix, <variable>.Pix
	rsblt	ip, ip, #0	@ tmp7171, tmp7170
	ldrb	r2, [sp, #19]	@ zero_extendqisi2	@ SmpPat.Pix, SmpPat.Pix
	cmp	ip, #2	@ tmp7171,
	addgt	r9, r9, #1	@,, MisCnt.5443, MisCnt.5435
	cmp	r1, #0	@ tmp7177,
	rsb	sl, r2, r0	@ tmp7184, SmpPat.Pix, <variable>.Pix
	rsblt	r1, r1, #0	@ tmp7178, tmp7177
	cmp	r1, #2	@ tmp7178,
	addgt	r9, r9, #1	@,, MisCnt.5451, MisCnt.5443
	cmp	sl, #0	@ tmp7184,
	rsblt	sl, sl, #0	@ tmp7185, tmp7184
	cmp	sl, #2	@ tmp7185,
	addgt	r9, r9, #1	@,, tmp7188, MisCnt.5451
	cmp	r9, #2	@ tmp7188,
	bgt	.L45	@,
	ldr	r3, [r7, #1880]	@ <variable>.Comp, <variable>.Comp
	mov	r0, sp	@,
	ldr	r2, [r7, #1884]	@ <variable>.Px, <variable>.Px
	mov	r1, r5	@, pDetPara
	ldr	lr, [r7, #1888]	@ <variable>.Py, <variable>.Py
	str	r3, [sp, #0]	@ <variable>.Comp, SmpPat.Comp
	stmib	sp, {r2, lr}	@ phole stm
	bl	GetSample	@
	ldrb	sl, [r7, #1893]	@ zero_extendqisi2	@ <variable>.Pix, <variable>.Pix
	ldrb	ip, [sp, #13]	@ zero_extendqisi2	@ SmpPat.Pix, SmpPat.Pix
	ldrb	r9, [r7, #1892]	@ zero_extendqisi2	@ <variable>.Pix, <variable>.Pix
	ldrb	r1, [sp, #12]	@ zero_extendqisi2	@ SmpPat.Pix, SmpPat.Pix
	rsb	r3, ip, sl	@ tmp7206, SmpPat.Pix, <variable>.Pix
	cmp	r3, #0	@ tmp7206,
	ldrb	r2, [sp, #14]	@ zero_extendqisi2	@ SmpPat.Pix, SmpPat.Pix
	rsb	sl, r1, r9	@ tmp7199, SmpPat.Pix, <variable>.Pix
	ldrb	r0, [r7, #1894]	@ zero_extendqisi2	@ <variable>.Pix, <variable>.Pix
	rsblt	r3, r3, #0	@ tmp7207, tmp7206
	cmp	sl, #0	@ tmp7199,
	rsb	r0, r2, r0	@ tmp7213, SmpPat.Pix, <variable>.Pix
	rsblt	sl, sl, #0	@ tmp7200, tmp7199
	ldrb	ip, [sp, #15]	@ zero_extendqisi2	@ SmpPat.Pix, SmpPat.Pix
	cmp	r3, #2	@ tmp7207,
	movle	r3, #0	@, tmp7209
	movgt	r3, #1	@, tmp7209
	ldrb	r9, [r7, #1895]	@ zero_extendqisi2	@ <variable>.Pix, <variable>.Pix
	cmp	sl, #2	@ tmp7200,
	addgt	r3, r3, #1	@,, MisCnt.1798, tmp7209
	cmp	r0, #0	@ tmp7213,
	ldrb	r1, [r7, #1896]	@ zero_extendqisi2	@ <variable>.Pix, <variable>.Pix
	rsb	r9, ip, r9	@ tmp7220, SmpPat.Pix, <variable>.Pix
	rsblt	r0, r0, #0	@ tmp7214, tmp7213
	ldrb	r2, [sp, #16]	@ zero_extendqisi2	@ SmpPat.Pix, SmpPat.Pix
	cmp	r0, #2	@ tmp7214,
	addgt	r3, r3, #1	@,, MisCnt.1806, MisCnt.1798
	cmp	r9, #0	@ tmp7220,
	ldrb	r0, [sp, #17]	@ zero_extendqisi2	@ SmpPat.Pix, SmpPat.Pix
	rsb	r2, r2, r1	@ tmp7227, SmpPat.Pix, <variable>.Pix
	rsblt	r9, r9, #0	@ tmp7221, tmp7220
	ldrb	ip, [r7, #1897]	@ zero_extendqisi2	@ <variable>.Pix, <variable>.Pix
	cmp	r9, #2	@ tmp7221,
	addgt	r3, r3, #1	@,, MisCnt.1817, MisCnt.1806
	cmp	r2, #0	@ tmp7227,
	ldrb	sl, [r7, #1898]	@ zero_extendqisi2	@ <variable>.Pix, <variable>.Pix
	rsb	ip, r0, ip	@ tmp7234, SmpPat.Pix, <variable>.Pix
	rsblt	r2, r2, #0	@ tmp7228, tmp7227
	ldrb	r1, [sp, #18]	@ zero_extendqisi2	@ SmpPat.Pix, SmpPat.Pix
	cmp	r2, #2	@ tmp7228,
	addgt	r3, r3, #1	@,, MisCnt.1828, MisCnt.1817
	cmp	ip, #0	@ tmp7234,
	ldrb	r0, [r7, #1899]	@ zero_extendqisi2	@ <variable>.Pix, <variable>.Pix
	rsblt	ip, ip, #0	@ tmp7235, tmp7234
	rsb	r1, r1, sl	@ tmp7241, SmpPat.Pix, <variable>.Pix
	ldrb	r2, [sp, #19]	@ zero_extendqisi2	@ SmpPat.Pix, SmpPat.Pix
	cmp	ip, #2	@ tmp7235,
	addgt	r3, r3, #1	@,, MisCnt.1838, MisCnt.1828
	cmp	r1, #0	@ tmp7241,
	rsb	ip, r2, r0	@ tmp7248, SmpPat.Pix, <variable>.Pix
	rsblt	r1, r1, #0	@ tmp7242, tmp7241
	cmp	r1, #2	@ tmp7242,
	addgt	r3, r3, #1	@,, MisCnt.1846, MisCnt.1838
	cmp	ip, #0	@ tmp7248,
	rsblt	ip, ip, #0	@ tmp7249, tmp7248
	cmp	ip, #2	@ tmp7249,
	addgt	r3, r3, #1	@,, tmp7252, MisCnt.1846
	cmp	r3, #2	@ tmp7252,
	movle	r0, #21	@ Result,
	ble	.L18	@,
.L45:
	ldr	ip, [r6, #1900]	@ <variable>.Comp, <variable>.Comp
	mov	r0, sp	@,
	ldr	r9, [r6, #1904]	@ <variable>.Px, <variable>.Px
	mov	r1, r5	@, pDetPara
	ldr	lr, [r6, #1908]	@ <variable>.Py, <variable>.Py
	movw	r7, #:lower16:.LANCHOR0	@ tmp7253,
	str	ip, [sp, #0]	@ <variable>.Comp, SmpPat.Comp
	movt	r7, #:upper16:.LANCHOR0	@ tmp7253,
	stmib	sp, {r9, lr}	@ phole stm
	bl	GetSample	@
	ldrb	r1, [r6, #1913]	@ zero_extendqisi2	@ <variable>.Pix, <variable>.Pix
	ldrb	r2, [sp, #13]	@ zero_extendqisi2	@ SmpPat.Pix, SmpPat.Pix
	ldrb	r0, [r6, #1912]	@ zero_extendqisi2	@ <variable>.Pix, <variable>.Pix
	ldrb	r3, [sp, #12]	@ zero_extendqisi2	@ SmpPat.Pix, SmpPat.Pix
	rsb	sl, r2, r1	@ tmp7270, SmpPat.Pix, <variable>.Pix
	cmp	sl, #0	@ tmp7270,
	ldrb	r9, [r6, #1914]	@ zero_extendqisi2	@ <variable>.Pix, <variable>.Pix
	rsb	lr, r3, r0	@ tmp7263, SmpPat.Pix, <variable>.Pix
	ldrb	ip, [sp, #14]	@ zero_extendqisi2	@ SmpPat.Pix, SmpPat.Pix
	rsblt	sl, sl, #0	@ tmp7271, tmp7270
	cmp	lr, #0	@ tmp7263,
	rsblt	lr, lr, #0	@ tmp7264, tmp7263
	ldrb	r0, [r6, #1915]	@ zero_extendqisi2	@ <variable>.Pix, <variable>.Pix
	cmp	sl, #2	@ tmp7271,
	movle	r1, #0	@, tmp7273
	movgt	r1, #1	@, tmp7273
	ldrb	r3, [sp, #15]	@ zero_extendqisi2	@ SmpPat.Pix, SmpPat.Pix
	rsb	sl, ip, r9	@ tmp7277, SmpPat.Pix, <variable>.Pix
	cmp	lr, #2	@ tmp7264,
	addgt	r1, r1, #1	@,, MisCnt.5477, tmp7273
	cmp	sl, #0	@ tmp7277,
	rsb	r9, r3, r0	@ tmp7284, SmpPat.Pix, <variable>.Pix
	ldrb	r2, [sp, #16]	@ zero_extendqisi2	@ SmpPat.Pix, SmpPat.Pix
	rsblt	sl, sl, #0	@ tmp7278, tmp7277
	ldrb	ip, [r6, #1916]	@ zero_extendqisi2	@ <variable>.Pix, <variable>.Pix
	cmp	sl, #2	@ tmp7278,
	movle	sl, r1	@, MisCnt.5485, MisCnt.5477
	addgt	sl, r1, #1	@,, MisCnt.5485, MisCnt.5477
	cmp	r9, #0	@ tmp7284,
	ldrb	r0, [r6, #1917]	@ zero_extendqisi2	@ <variable>.Pix, <variable>.Pix
	rsb	ip, r2, ip	@ tmp7291, SmpPat.Pix, <variable>.Pix
	rsblt	r9, r9, #0	@ tmp7285, tmp7284
	ldrb	r1, [sp, #17]	@ zero_extendqisi2	@ SmpPat.Pix, SmpPat.Pix
	cmp	r9, #2	@ tmp7285,
	movle	r3, sl	@, MisCnt.5493, MisCnt.5485
	addgt	r3, sl, #1	@,, MisCnt.5493, MisCnt.5485
	cmp	ip, #0	@ tmp7291,
	ldrb	lr, [r6, #1918]	@ zero_extendqisi2	@ <variable>.Pix, <variable>.Pix
	rsb	r9, r1, r0	@ tmp7298, SmpPat.Pix, <variable>.Pix
	rsblt	ip, ip, #0	@ tmp7292, tmp7291
	ldrb	r2, [sp, #18]	@ zero_extendqisi2	@ SmpPat.Pix, SmpPat.Pix
	cmp	ip, #2	@ tmp7292,
	movle	ip, r3	@, MisCnt.5501, MisCnt.5493
	addgt	ip, r3, #1	@,, MisCnt.5501, MisCnt.5493
	cmp	r9, #0	@ tmp7298,
	ldrb	r0, [r6, #1919]	@ zero_extendqisi2	@ <variable>.Pix, <variable>.Pix
	rsblt	r9, r9, #0	@ tmp7299, tmp7298
	rsb	sl, r2, lr	@ tmp7305, SmpPat.Pix, <variable>.Pix
	ldrb	r3, [sp, #19]	@ zero_extendqisi2	@ SmpPat.Pix, SmpPat.Pix
	cmp	r9, #2	@ tmp7299,
	movle	r1, ip	@, MisCnt.5509, MisCnt.5501
	addgt	r1, ip, #1	@,, MisCnt.5509, MisCnt.5501
	cmp	sl, #0	@ tmp7305,
	rsb	r9, r3, r0	@ tmp7312, SmpPat.Pix, <variable>.Pix
	rsblt	sl, sl, #0	@ tmp7306, tmp7305
	cmp	sl, #2	@ tmp7306,
	movle	ip, r1	@, MisCnt.5517, MisCnt.5509
	addgt	ip, r1, #1	@,, MisCnt.5517, MisCnt.5509
	cmp	r9, #0	@ tmp7312,
	rsblt	r9, r9, #0	@ tmp7313, tmp7312
	cmp	r9, #2	@ tmp7313,
	movle	r0, ip	@, tmp7316, MisCnt.5517
	addgt	r0, ip, #1	@,, tmp7316, MisCnt.5517
	cmp	r0, #2	@ tmp7316,
	bgt	.L46	@,
	ldr	r2, [r7, #1920]	@ <variable>.Comp, <variable>.Comp
	mov	r0, sp	@,
	ldr	r9, [r7, #1924]	@ <variable>.Px, <variable>.Px
	mov	r1, r5	@, pDetPara
	ldr	lr, [r7, #1928]	@ <variable>.Py, <variable>.Py
	stmia	sp, {r2, r9, lr}	@ phole stm
	bl	GetSample	@
	ldrb	ip, [r7, #1933]	@ zero_extendqisi2	@ <variable>.Pix, <variable>.Pix
	ldrb	sl, [sp, #13]	@ zero_extendqisi2	@ SmpPat.Pix, SmpPat.Pix
	ldrb	r0, [r7, #1932]	@ zero_extendqisi2	@ <variable>.Pix, <variable>.Pix
	ldrb	r1, [sp, #12]	@ zero_extendqisi2	@ SmpPat.Pix, SmpPat.Pix
	rsb	r3, sl, ip	@ tmp7334, SmpPat.Pix, <variable>.Pix
	cmp	r3, #0	@ tmp7334,
	ldrb	r9, [r7, #1934]	@ zero_extendqisi2	@ <variable>.Pix, <variable>.Pix
	rsb	lr, r1, r0	@ tmp7327, SmpPat.Pix, <variable>.Pix
	ldrb	r2, [sp, #14]	@ zero_extendqisi2	@ SmpPat.Pix, SmpPat.Pix
	rsblt	r3, r3, #0	@ tmp7335, tmp7334
	cmp	lr, #0	@ tmp7327,
	rsb	r0, r2, r9	@ tmp7341, SmpPat.Pix, <variable>.Pix
	rsblt	lr, lr, #0	@ tmp7328, tmp7327
	ldrb	ip, [sp, #15]	@ zero_extendqisi2	@ SmpPat.Pix, SmpPat.Pix
	cmp	r3, #2	@ tmp7335,
	movle	r3, #0	@, tmp7337
	movgt	r3, #1	@, tmp7337
	ldrb	sl, [r7, #1935]	@ zero_extendqisi2	@ <variable>.Pix, <variable>.Pix
	cmp	lr, #2	@ tmp7328,
	addgt	r3, r3, #1	@,, MisCnt.5543, tmp7337
	cmp	r0, #0	@ tmp7341,
	ldrb	r1, [r7, #1936]	@ zero_extendqisi2	@ <variable>.Pix, <variable>.Pix
	rsb	sl, ip, sl	@ tmp7348, SmpPat.Pix, <variable>.Pix
	rsblt	r0, r0, #0	@ tmp7342, tmp7341
	ldrb	r9, [sp, #16]	@ zero_extendqisi2	@ SmpPat.Pix, SmpPat.Pix
	cmp	r0, #2	@ tmp7342,
	addgt	r3, r3, #1	@,, MisCnt.5551, MisCnt.5543
	cmp	sl, #0	@ tmp7348,
	ldrb	r0, [sp, #17]	@ zero_extendqisi2	@ SmpPat.Pix, SmpPat.Pix
	rsb	r2, r9, r1	@ tmp7355, SmpPat.Pix, <variable>.Pix
	rsblt	sl, sl, #0	@ tmp7349, tmp7348
	ldrb	ip, [r7, #1937]	@ zero_extendqisi2	@ <variable>.Pix, <variable>.Pix
	cmp	sl, #2	@ tmp7349,
	addgt	r3, r3, #1	@,, MisCnt.5559, MisCnt.5551
	cmp	r2, #0	@ tmp7355,
	ldrb	lr, [r7, #1938]	@ zero_extendqisi2	@ <variable>.Pix, <variable>.Pix
	rsb	r9, r0, ip	@ tmp7362, SmpPat.Pix, <variable>.Pix
	rsblt	r2, r2, #0	@ tmp7356, tmp7355
	ldrb	r1, [sp, #18]	@ zero_extendqisi2	@ SmpPat.Pix, SmpPat.Pix
	cmp	r2, #2	@ tmp7356,
	addgt	r3, r3, #1	@,, MisCnt.5567, MisCnt.5559
	cmp	r9, #0	@ tmp7362,
	ldrb	r0, [r7, #1939]	@ zero_extendqisi2	@ <variable>.Pix, <variable>.Pix
	rsb	r1, r1, lr	@ tmp7369, SmpPat.Pix, <variable>.Pix
	rsblt	r9, r9, #0	@ tmp7363, tmp7362
	ldrb	r2, [sp, #19]	@ zero_extendqisi2	@ SmpPat.Pix, SmpPat.Pix
	cmp	r9, #2	@ tmp7363,
	addgt	r3, r3, #1	@,, MisCnt.5575, MisCnt.5567
	cmp	r1, #0	@ tmp7369,
	rsb	sl, r2, r0	@ tmp7376, SmpPat.Pix, <variable>.Pix
	rsblt	r1, r1, #0	@ tmp7370, tmp7369
	cmp	r1, #2	@ tmp7370,
	addgt	r3, r3, #1	@,, MisCnt.5583, MisCnt.5575
	cmp	sl, #0	@ tmp7376,
	rsblt	sl, sl, #0	@ tmp7377, tmp7376
	cmp	sl, #2	@ tmp7377,
	addgt	r3, r3, #1	@,, tmp7380, MisCnt.5583
	cmp	r3, #2	@ tmp7380,
	bgt	.L46	@,
	ldr	r2, [r7, #1940]	@ <variable>.Comp, <variable>.Comp
	mov	r0, sp	@,
	ldr	sl, [r7, #1944]	@ <variable>.Px, <variable>.Px
	mov	r1, r5	@, pDetPara
	ldr	lr, [r7, #1948]	@ <variable>.Py, <variable>.Py
	stmia	sp, {r2, sl, lr}	@ phole stm
	bl	GetSample	@
	ldrb	ip, [r7, #1953]	@ zero_extendqisi2	@ <variable>.Pix, <variable>.Pix
	ldrb	r9, [sp, #13]	@ zero_extendqisi2	@ SmpPat.Pix, SmpPat.Pix
	ldrb	r0, [r7, #1952]	@ zero_extendqisi2	@ <variable>.Pix, <variable>.Pix
	ldrb	r1, [sp, #12]	@ zero_extendqisi2	@ SmpPat.Pix, SmpPat.Pix
	rsb	r3, r9, ip	@ tmp7398, SmpPat.Pix, <variable>.Pix
	cmp	r3, #0	@ tmp7398,
	ldrb	sl, [r7, #1954]	@ zero_extendqisi2	@ <variable>.Pix, <variable>.Pix
	rsb	lr, r1, r0	@ tmp7391, SmpPat.Pix, <variable>.Pix
	ldrb	r2, [sp, #14]	@ zero_extendqisi2	@ SmpPat.Pix, SmpPat.Pix
	rsblt	r3, r3, #0	@ tmp7399, tmp7398
	cmp	lr, #0	@ tmp7391,
	rsb	r0, r2, sl	@ tmp7405, SmpPat.Pix, <variable>.Pix
	rsblt	lr, lr, #0	@ tmp7392, tmp7391
	ldrb	r9, [r7, #1955]	@ zero_extendqisi2	@ <variable>.Pix, <variable>.Pix
	cmp	r3, #2	@ tmp7399,
	movle	r3, #0	@, tmp7401
	movgt	r3, #1	@, tmp7401
	ldrb	ip, [sp, #15]	@ zero_extendqisi2	@ SmpPat.Pix, SmpPat.Pix
	cmp	lr, #2	@ tmp7392,
	addgt	r3, r3, #1	@,, MisCnt.5609, tmp7401
	cmp	r0, #0	@ tmp7405,
	ldrb	r1, [r7, #1956]	@ zero_extendqisi2	@ <variable>.Pix, <variable>.Pix
	rsb	sl, ip, r9	@ tmp7412, SmpPat.Pix, <variable>.Pix
	rsblt	r0, r0, #0	@ tmp7406, tmp7405
	ldrb	r2, [sp, #16]	@ zero_extendqisi2	@ SmpPat.Pix, SmpPat.Pix
	cmp	r0, #2	@ tmp7406,
	addgt	r3, r3, #1	@,, MisCnt.5617, MisCnt.5609
	cmp	sl, #0	@ tmp7412,
	ldrb	r9, [r7, #1957]	@ zero_extendqisi2	@ <variable>.Pix, <variable>.Pix
	rsb	r2, r2, r1	@ tmp7419, SmpPat.Pix, <variable>.Pix
	rsblt	sl, sl, #0	@ tmp7413, tmp7412
	ldrb	r0, [sp, #17]	@ zero_extendqisi2	@ SmpPat.Pix, SmpPat.Pix
	cmp	sl, #2	@ tmp7413,
	addgt	r3, r3, #1	@,, MisCnt.5625, MisCnt.5617
	cmp	r2, #0	@ tmp7419,
	ldrb	lr, [r7, #1958]	@ zero_extendqisi2	@ <variable>.Pix, <variable>.Pix
	rsb	ip, r0, r9	@ tmp7426, SmpPat.Pix, <variable>.Pix
	rsblt	r2, r2, #0	@ tmp7420, tmp7419
	ldrb	r1, [sp, #18]	@ zero_extendqisi2	@ SmpPat.Pix, SmpPat.Pix
	cmp	r2, #2	@ tmp7420,
	addgt	r3, r3, #1	@,, MisCnt.5633, MisCnt.5625
	cmp	ip, #0	@ tmp7426,
	ldrb	r0, [r7, #1959]	@ zero_extendqisi2	@ <variable>.Pix, <variable>.Pix
	rsb	r1, r1, lr	@ tmp7433, SmpPat.Pix, <variable>.Pix
	rsblt	ip, ip, #0	@ tmp7427, tmp7426
	ldrb	r9, [sp, #19]	@ zero_extendqisi2	@ SmpPat.Pix, SmpPat.Pix
	cmp	ip, #2	@ tmp7427,
	addgt	r3, r3, #1	@,, MisCnt.5641, MisCnt.5633
	cmp	r1, #0	@ tmp7433,
	rsb	sl, r9, r0	@ tmp7440, SmpPat.Pix, <variable>.Pix
	rsblt	r1, r1, #0	@ tmp7434, tmp7433
	cmp	r1, #2	@ tmp7434,
	addgt	r3, r3, #1	@,, MisCnt.5649, MisCnt.5641
	cmp	sl, #0	@ tmp7440,
	rsblt	sl, sl, #0	@ tmp7441, tmp7440
	cmp	sl, #2	@ tmp7441,
	addgt	r3, r3, #1	@,, tmp7444, MisCnt.5649
	cmp	r3, #2	@ tmp7444,
	bgt	.L46	@,
	ldr	r2, [r7, #1960]	@ <variable>.Comp, <variable>.Comp
	mov	r0, sp	@,
	ldr	r9, [r7, #1964]	@ <variable>.Px, <variable>.Px
	mov	r1, r5	@, pDetPara
	ldr	lr, [r7, #1968]	@ <variable>.Py, <variable>.Py
	stmia	sp, {r2, r9, lr}	@ phole stm
	bl	GetSample	@
	ldrb	ip, [r7, #1973]	@ zero_extendqisi2	@ <variable>.Pix, <variable>.Pix
	ldrb	sl, [sp, #13]	@ zero_extendqisi2	@ SmpPat.Pix, SmpPat.Pix
	ldrb	r0, [r7, #1972]	@ zero_extendqisi2	@ <variable>.Pix, <variable>.Pix
	ldrb	r1, [sp, #12]	@ zero_extendqisi2	@ SmpPat.Pix, SmpPat.Pix
	rsb	r3, sl, ip	@ tmp7462, SmpPat.Pix, <variable>.Pix
	cmp	r3, #0	@ tmp7462,
	ldrb	r9, [r7, #1974]	@ zero_extendqisi2	@ <variable>.Pix, <variable>.Pix
	rsb	lr, r1, r0	@ tmp7455, SmpPat.Pix, <variable>.Pix
	ldrb	r2, [sp, #14]	@ zero_extendqisi2	@ SmpPat.Pix, SmpPat.Pix
	rsblt	r3, r3, #0	@ tmp7463, tmp7462
	cmp	lr, #0	@ tmp7455,
	rsb	r0, r2, r9	@ tmp7469, SmpPat.Pix, <variable>.Pix
	rsblt	lr, lr, #0	@ tmp7456, tmp7455
	ldrb	ip, [sp, #15]	@ zero_extendqisi2	@ SmpPat.Pix, SmpPat.Pix
	cmp	r3, #2	@ tmp7463,
	movle	r3, #0	@, tmp7465
	movgt	r3, #1	@, tmp7465
	ldrb	sl, [r7, #1975]	@ zero_extendqisi2	@ <variable>.Pix, <variable>.Pix
	cmp	lr, #2	@ tmp7456,
	addgt	r3, r3, #1	@,, MisCnt.5675, tmp7465
	cmp	r0, #0	@ tmp7469,
	ldrb	r1, [r7, #1976]	@ zero_extendqisi2	@ <variable>.Pix, <variable>.Pix
	rsb	sl, ip, sl	@ tmp7476, SmpPat.Pix, <variable>.Pix
	rsblt	r0, r0, #0	@ tmp7470, tmp7469
	ldrb	r9, [sp, #16]	@ zero_extendqisi2	@ SmpPat.Pix, SmpPat.Pix
	cmp	r0, #2	@ tmp7470,
	addgt	r3, r3, #1	@,, MisCnt.5683, MisCnt.5675
	cmp	sl, #0	@ tmp7476,
	ldrb	r0, [sp, #17]	@ zero_extendqisi2	@ SmpPat.Pix, SmpPat.Pix
	rsb	r2, r9, r1	@ tmp7483, SmpPat.Pix, <variable>.Pix
	rsblt	sl, sl, #0	@ tmp7477, tmp7476
	ldrb	ip, [r7, #1977]	@ zero_extendqisi2	@ <variable>.Pix, <variable>.Pix
	cmp	sl, #2	@ tmp7477,
	addgt	r3, r3, #1	@,, MisCnt.5691, MisCnt.5683
	cmp	r2, #0	@ tmp7483,
	ldrb	r9, [sp, #18]	@ zero_extendqisi2	@ SmpPat.Pix, SmpPat.Pix
	rsb	ip, r0, ip	@ tmp7490, SmpPat.Pix, <variable>.Pix
	rsblt	r2, r2, #0	@ tmp7484, tmp7483
	ldrb	lr, [r7, #1978]	@ zero_extendqisi2	@ <variable>.Pix, <variable>.Pix
	cmp	r2, #2	@ tmp7484,
	addgt	r3, r3, #1	@,, MisCnt.5699, MisCnt.5691
	cmp	ip, #0	@ tmp7490,
	ldrb	r0, [r7, #1979]	@ zero_extendqisi2	@ <variable>.Pix, <variable>.Pix
	rsb	r1, r9, lr	@ tmp7497, SmpPat.Pix, <variable>.Pix
	rsblt	ip, ip, #0	@ tmp7491, tmp7490
	ldrb	sl, [sp, #19]	@ zero_extendqisi2	@ SmpPat.Pix, SmpPat.Pix
	cmp	ip, #2	@ tmp7491,
	addgt	r3, r3, #1	@,, MisCnt.5707, MisCnt.5699
	cmp	r1, #0	@ tmp7497,
	rsb	r9, sl, r0	@ tmp7504, SmpPat.Pix, <variable>.Pix
	rsblt	r1, r1, #0	@ tmp7498, tmp7497
	cmp	r1, #2	@ tmp7498,
	addgt	r3, r3, #1	@,, MisCnt.5715, MisCnt.5707
	cmp	r9, #0	@ tmp7504,
	rsblt	r9, r9, #0	@ tmp7505, tmp7504
	cmp	r9, #2	@ tmp7505,
	addgt	r3, r3, #1	@,, tmp7508, MisCnt.5715
	cmp	r3, #2	@ tmp7508,
	bgt	.L46	@,
	ldr	r3, [r7, #1980]	@ <variable>.Comp, <variable>.Comp
	mov	r0, sp	@,
	ldr	r2, [r7, #1984]	@ <variable>.Px, <variable>.Px
	mov	r1, r5	@, pDetPara
	ldr	lr, [r7, #1988]	@ <variable>.Py, <variable>.Py
	str	r3, [sp, #0]	@ <variable>.Comp, SmpPat.Comp
	stmib	sp, {r2, lr}	@ phole stm
	bl	GetSample	@
	ldrb	sl, [r7, #1993]	@ zero_extendqisi2	@ <variable>.Pix, <variable>.Pix
	ldrb	ip, [sp, #13]	@ zero_extendqisi2	@ SmpPat.Pix, SmpPat.Pix
	ldrb	r9, [r7, #1992]	@ zero_extendqisi2	@ <variable>.Pix, <variable>.Pix
	ldrb	r1, [sp, #12]	@ zero_extendqisi2	@ SmpPat.Pix, SmpPat.Pix
	rsb	r3, ip, sl	@ tmp7526, SmpPat.Pix, <variable>.Pix
	cmp	r3, #0	@ tmp7526,
	ldrb	r2, [sp, #14]	@ zero_extendqisi2	@ SmpPat.Pix, SmpPat.Pix
	rsb	sl, r1, r9	@ tmp7519, SmpPat.Pix, <variable>.Pix
	ldrb	r0, [r7, #1994]	@ zero_extendqisi2	@ <variable>.Pix, <variable>.Pix
	rsblt	r3, r3, #0	@ tmp7527, tmp7526
	cmp	sl, #0	@ tmp7519,
	rsb	r0, r2, r0	@ tmp7533, SmpPat.Pix, <variable>.Pix
	rsblt	sl, sl, #0	@ tmp7520, tmp7519
	ldrb	ip, [sp, #15]	@ zero_extendqisi2	@ SmpPat.Pix, SmpPat.Pix
	cmp	r3, #2	@ tmp7527,
	movle	r3, #0	@, tmp7529
	movgt	r3, #1	@, tmp7529
	ldrb	r9, [r7, #1995]	@ zero_extendqisi2	@ <variable>.Pix, <variable>.Pix
	cmp	sl, #2	@ tmp7520,
	addgt	r3, r3, #1	@,, MisCnt.1866, tmp7529
	cmp	r0, #0	@ tmp7533,
	ldrb	r1, [r7, #1996]	@ zero_extendqisi2	@ <variable>.Pix, <variable>.Pix
	rsb	r9, ip, r9	@ tmp7540, SmpPat.Pix, <variable>.Pix
	rsblt	r0, r0, #0	@ tmp7534, tmp7533
	ldrb	r2, [sp, #16]	@ zero_extendqisi2	@ SmpPat.Pix, SmpPat.Pix
	cmp	r0, #2	@ tmp7534,
	addgt	r3, r3, #1	@,, MisCnt.1877, MisCnt.1866
	cmp	r9, #0	@ tmp7540,
	ldrb	r0, [sp, #17]	@ zero_extendqisi2	@ SmpPat.Pix, SmpPat.Pix
	rsb	r2, r2, r1	@ tmp7547, SmpPat.Pix, <variable>.Pix
	rsblt	r9, r9, #0	@ tmp7541, tmp7540
	ldrb	ip, [r7, #1997]	@ zero_extendqisi2	@ <variable>.Pix, <variable>.Pix
	cmp	r9, #2	@ tmp7541,
	addgt	r3, r3, #1	@,, MisCnt.1888, MisCnt.1877
	cmp	r2, #0	@ tmp7547,
	ldrb	sl, [r7, #1998]	@ zero_extendqisi2	@ <variable>.Pix, <variable>.Pix
	rsb	ip, r0, ip	@ tmp7554, SmpPat.Pix, <variable>.Pix
	rsblt	r2, r2, #0	@ tmp7548, tmp7547
	ldrb	r1, [sp, #18]	@ zero_extendqisi2	@ SmpPat.Pix, SmpPat.Pix
	cmp	r2, #2	@ tmp7548,
	addgt	r3, r3, #1	@,, MisCnt.1897, MisCnt.1888
	cmp	ip, #0	@ tmp7554,
	ldrb	r0, [r7, #1999]	@ zero_extendqisi2	@ <variable>.Pix, <variable>.Pix
	rsblt	ip, ip, #0	@ tmp7555, tmp7554
	rsb	r1, r1, sl	@ tmp7561, SmpPat.Pix, <variable>.Pix
	ldrb	r2, [sp, #19]	@ zero_extendqisi2	@ SmpPat.Pix, SmpPat.Pix
	cmp	ip, #2	@ tmp7555,
	addgt	r3, r3, #1	@,, MisCnt.1908, MisCnt.1897
	cmp	r1, #0	@ tmp7561,
	rsb	ip, r2, r0	@ tmp7568, SmpPat.Pix, <variable>.Pix
	rsblt	r1, r1, #0	@ tmp7562, tmp7561
	cmp	r1, #2	@ tmp7562,
	addgt	r3, r3, #1	@,, MisCnt.1919, MisCnt.1908
	cmp	ip, #0	@ tmp7568,
	rsblt	ip, ip, #0	@ tmp7569, tmp7568
	cmp	ip, #2	@ tmp7569,
	addgt	r3, r3, #1	@,, tmp7572, MisCnt.1919
	cmp	r3, #2	@ tmp7572,
	movle	r0, #25	@ Result,
	ble	.L18	@,
.L46:
	ldr	ip, [r6, #2000]	@ <variable>.Comp, <variable>.Comp
	mov	r0, sp	@,
	ldr	r9, [r6, #2004]	@ <variable>.Px, <variable>.Px
	mov	r1, r5	@, pDetPara
	ldr	lr, [r6, #2008]	@ <variable>.Py, <variable>.Py
	movw	r7, #:lower16:.LANCHOR0	@ tmp7573,
	str	ip, [sp, #0]	@ <variable>.Comp, SmpPat.Comp
	movt	r7, #:upper16:.LANCHOR0	@ tmp7573,
	stmib	sp, {r9, lr}	@ phole stm
	bl	GetSample	@
	ldrb	r1, [r6, #2013]	@ zero_extendqisi2	@ <variable>.Pix, <variable>.Pix
	ldrb	r2, [sp, #13]	@ zero_extendqisi2	@ SmpPat.Pix, SmpPat.Pix
	ldrb	r0, [r6, #2012]	@ zero_extendqisi2	@ <variable>.Pix, <variable>.Pix
	ldrb	r3, [sp, #12]	@ zero_extendqisi2	@ SmpPat.Pix, SmpPat.Pix
	rsb	sl, r2, r1	@ tmp7590, SmpPat.Pix, <variable>.Pix
	cmp	sl, #0	@ tmp7590,
	ldrb	r9, [r6, #2014]	@ zero_extendqisi2	@ <variable>.Pix, <variable>.Pix
	rsb	lr, r3, r0	@ tmp7583, SmpPat.Pix, <variable>.Pix
	ldrb	ip, [sp, #14]	@ zero_extendqisi2	@ SmpPat.Pix, SmpPat.Pix
	rsblt	sl, sl, #0	@ tmp7591, tmp7590
	cmp	lr, #0	@ tmp7583,
	rsblt	lr, lr, #0	@ tmp7584, tmp7583
	ldrb	r0, [r6, #2015]	@ zero_extendqisi2	@ <variable>.Pix, <variable>.Pix
	cmp	sl, #2	@ tmp7591,
	movle	r1, #0	@, tmp7593
	movgt	r1, #1	@, tmp7593
	ldrb	r3, [sp, #15]	@ zero_extendqisi2	@ SmpPat.Pix, SmpPat.Pix
	rsb	sl, ip, r9	@ tmp7597, SmpPat.Pix, <variable>.Pix
	cmp	lr, #2	@ tmp7584,
	addgt	r1, r1, #1	@,, MisCnt.5741, tmp7593
	cmp	sl, #0	@ tmp7597,
	rsb	r9, r3, r0	@ tmp7604, SmpPat.Pix, <variable>.Pix
	ldrb	r2, [sp, #16]	@ zero_extendqisi2	@ SmpPat.Pix, SmpPat.Pix
	rsblt	sl, sl, #0	@ tmp7598, tmp7597
	ldrb	ip, [r6, #2016]	@ zero_extendqisi2	@ <variable>.Pix, <variable>.Pix
	cmp	sl, #2	@ tmp7598,
	movle	sl, r1	@, MisCnt.5749, MisCnt.5741
	addgt	sl, r1, #1	@,, MisCnt.5749, MisCnt.5741
	cmp	r9, #0	@ tmp7604,
	ldrb	r0, [r6, #2017]	@ zero_extendqisi2	@ <variable>.Pix, <variable>.Pix
	rsb	ip, r2, ip	@ tmp7611, SmpPat.Pix, <variable>.Pix
	rsblt	r9, r9, #0	@ tmp7605, tmp7604
	ldrb	r1, [sp, #17]	@ zero_extendqisi2	@ SmpPat.Pix, SmpPat.Pix
	cmp	r9, #2	@ tmp7605,
	movle	r3, sl	@, MisCnt.5757, MisCnt.5749
	addgt	r3, sl, #1	@,, MisCnt.5757, MisCnt.5749
	cmp	ip, #0	@ tmp7611,
	ldrb	lr, [r6, #2018]	@ zero_extendqisi2	@ <variable>.Pix, <variable>.Pix
	rsb	r9, r1, r0	@ tmp7618, SmpPat.Pix, <variable>.Pix
	rsblt	ip, ip, #0	@ tmp7612, tmp7611
	ldrb	r2, [sp, #18]	@ zero_extendqisi2	@ SmpPat.Pix, SmpPat.Pix
	cmp	ip, #2	@ tmp7612,
	movle	ip, r3	@, MisCnt.5765, MisCnt.5757
	addgt	ip, r3, #1	@,, MisCnt.5765, MisCnt.5757
	cmp	r9, #0	@ tmp7618,
	ldrb	r0, [r6, #2019]	@ zero_extendqisi2	@ <variable>.Pix, <variable>.Pix
	rsblt	r9, r9, #0	@ tmp7619, tmp7618
	rsb	sl, r2, lr	@ tmp7625, SmpPat.Pix, <variable>.Pix
	ldrb	r3, [sp, #19]	@ zero_extendqisi2	@ SmpPat.Pix, SmpPat.Pix
	cmp	r9, #2	@ tmp7619,
	movle	r1, ip	@, MisCnt.5773, MisCnt.5765
	addgt	r1, ip, #1	@,, MisCnt.5773, MisCnt.5765
	cmp	sl, #0	@ tmp7625,
	rsb	r9, r3, r0	@ tmp7632, SmpPat.Pix, <variable>.Pix
	rsblt	sl, sl, #0	@ tmp7626, tmp7625
	cmp	sl, #2	@ tmp7626,
	movle	ip, r1	@, MisCnt.5781, MisCnt.5773
	addgt	ip, r1, #1	@,, MisCnt.5781, MisCnt.5773
	cmp	r9, #0	@ tmp7632,
	rsblt	r9, r9, #0	@ tmp7633, tmp7632
	cmp	r9, #2	@ tmp7633,
	movle	r0, ip	@, tmp7636, MisCnt.5781
	addgt	r0, ip, #1	@,, tmp7636, MisCnt.5781
	cmp	r0, #2	@ tmp7636,
	bgt	.L47	@,
	ldr	r2, [r7, #2020]	@ <variable>.Comp, <variable>.Comp
	mov	r0, sp	@,
	ldr	r9, [r7, #2024]	@ <variable>.Px, <variable>.Px
	mov	r1, r5	@, pDetPara
	ldr	lr, [r7, #2028]	@ <variable>.Py, <variable>.Py
	stmia	sp, {r2, r9, lr}	@ phole stm
	bl	GetSample	@
	ldrb	ip, [r7, #2033]	@ zero_extendqisi2	@ <variable>.Pix, <variable>.Pix
	ldrb	sl, [sp, #13]	@ zero_extendqisi2	@ SmpPat.Pix, SmpPat.Pix
	ldrb	r0, [r7, #2032]	@ zero_extendqisi2	@ <variable>.Pix, <variable>.Pix
	ldrb	r1, [sp, #12]	@ zero_extendqisi2	@ SmpPat.Pix, SmpPat.Pix
	rsb	r3, sl, ip	@ tmp7654, SmpPat.Pix, <variable>.Pix
	cmp	r3, #0	@ tmp7654,
	ldrb	r9, [r7, #2034]	@ zero_extendqisi2	@ <variable>.Pix, <variable>.Pix
	rsb	lr, r1, r0	@ tmp7647, SmpPat.Pix, <variable>.Pix
	ldrb	r2, [sp, #14]	@ zero_extendqisi2	@ SmpPat.Pix, SmpPat.Pix
	rsblt	r3, r3, #0	@ tmp7655, tmp7654
	cmp	lr, #0	@ tmp7647,
	rsb	r0, r2, r9	@ tmp7661, SmpPat.Pix, <variable>.Pix
	rsblt	lr, lr, #0	@ tmp7648, tmp7647
	ldrb	ip, [sp, #15]	@ zero_extendqisi2	@ SmpPat.Pix, SmpPat.Pix
	cmp	r3, #2	@ tmp7655,
	movle	r3, #0	@, tmp7657
	movgt	r3, #1	@, tmp7657
	ldrb	sl, [r7, #2035]	@ zero_extendqisi2	@ <variable>.Pix, <variable>.Pix
	cmp	lr, #2	@ tmp7648,
	addgt	r3, r3, #1	@,, MisCnt.5807, tmp7657
	cmp	r0, #0	@ tmp7661,
	ldrb	r1, [r7, #2036]	@ zero_extendqisi2	@ <variable>.Pix, <variable>.Pix
	rsb	sl, ip, sl	@ tmp7668, SmpPat.Pix, <variable>.Pix
	rsblt	r0, r0, #0	@ tmp7662, tmp7661
	ldrb	r9, [sp, #16]	@ zero_extendqisi2	@ SmpPat.Pix, SmpPat.Pix
	cmp	r0, #2	@ tmp7662,
	addgt	r3, r3, #1	@,, MisCnt.5815, MisCnt.5807
	cmp	sl, #0	@ tmp7668,
	ldrb	r0, [sp, #17]	@ zero_extendqisi2	@ SmpPat.Pix, SmpPat.Pix
	rsb	r2, r9, r1	@ tmp7675, SmpPat.Pix, <variable>.Pix
	rsblt	sl, sl, #0	@ tmp7669, tmp7668
	ldrb	ip, [r7, #2037]	@ zero_extendqisi2	@ <variable>.Pix, <variable>.Pix
	cmp	sl, #2	@ tmp7669,
	addgt	r3, r3, #1	@,, MisCnt.5823, MisCnt.5815
	cmp	r2, #0	@ tmp7675,
	ldrb	lr, [r7, #2038]	@ zero_extendqisi2	@ <variable>.Pix, <variable>.Pix
	rsb	r9, r0, ip	@ tmp7682, SmpPat.Pix, <variable>.Pix
