	.arch armv7-a
	.fpu softvfp
	.eabi_attribute 20, 1
	.eabi_attribute 21, 1
	.eabi_attribute 23, 3
	.eabi_attribute 24, 1
	.eabi_attribute 25, 1
	.eabi_attribute 26, 2
	.eabi_attribute 30, 2
	.eabi_attribute 18, 4
	.file	"dnr_patch.c"
@ GNU C (Hisilicon_v200(gcc4.4-290+glibc-2.11+eabi+nptl)) version 4.4.1 (arm-hisiv200-linux-gnueabi)
@	compiled by GNU C version 4.1.1 20061011 (Red Hat 4.1.1-30), GMP version 4.3.1, MPFR version 2.4.2.
@ GGC heuristics: --param ggc-min-expand=100 --param ggc-min-heapsize=131072
@ options passed:  -nostdinc
@ -I/usr1/code/v1r4_v1r6_sourceCode/code/current/v1r6_hi3716mv330_pack/work/source/kernel/linux-3.10.y/arch/arm/include
@ -Iarch/arm/include/generated -Iinclude
@ -I/usr1/code/v1r4_v1r6_sourceCode/code/current/v1r6_hi3716mv330_pack/work/source/kernel/linux-3.10.y/arch/arm/include/uapi
@ -Iarch/arm/include/generated/uapi
@ -I/usr1/code/v1r4_v1r6_sourceCode/code/current/v1r6_hi3716mv330_pack/work/source/kernel/linux-3.10.y/include/uapi
@ -Iinclude/generated/uapi -Iarch/arm/mach-hi3716mv310/include
@ -I/usr1/code/v1r4_v1r6_sourceCode/code/current/v1r6_hi3716mv330_pack/work/source/kernel/linux-3.10.y/../../../source/common/include
@ -I/usr1/code/v1r4_v1r6_sourceCode/code/current/v1r6_hi3716mv330_pack/work/source/kernel/linux-3.10.y/../../../source/common/drv/include
@ -I/usr1/code/v1r4_v1r6_sourceCode/code/current/v1r6_hi3716mv330_pack/work/source/kernel/linux-3.10.y/../../../source/msp/drv/vfmw/vfmw_v4.0/drv/memmap
@ -I/usr1/code/v1r4_v1r6_sourceCode/code/current/v1r6_hi3716mv330_pack/work/source/kernel/linux-3.10.y/../../../source/msp/drv/vfmw/vfmw_v4.0/model/scd
@ -I/usr1/code/v1r4_v1r6_sourceCode/code/current/v1r6_hi3716mv330_pack/work/source/kernel/linux-3.10.y/../../../source/msp/drv/vfmw/vfmw_v4.0/firmware/common/softlib
@ -I/usr1/code/v1r4_v1r6_sourceCode/code/current/v1r6_hi3716mv330_pack/work/source/kernel/linux-3.10.y/../../../source/msp/drv/vfmw/vfmw_v4.0/firmware/common
@ -I/usr1/code/v1r4_v1r6_sourceCode/code/current/v1r6_hi3716mv330_pack/work/source/kernel/linux-3.10.y/../../../source/msp/drv/vfmw/vfmw_v4.0/firmware/common/syntax
@ -I/usr1/code/v1r4_v1r6_sourceCode/code/current/v1r6_hi3716mv330_pack/work/source/kernel/linux-3.10.y/../../../source/msp/drv/vfmw/vfmw_v4.0/firmware/driver/HiSCDV300
@ -I/usr1/code/v1r4_v1r6_sourceCode/code/current/v1r6_hi3716mv330_pack/work/source/kernel/linux-3.10.y/../../../source/msp/drv/vfmw/vfmw_v4.0/firmware/driver/HiVDHV100
@ -I/usr1/code/v1r4_v1r6_sourceCode/code/current/v1r6_hi3716mv330_pack/work/source/kernel/linux-3.10.y/../../../source/msp/drv/vfmw/vfmw_v4.0/firmware/driver/HiVDHV200R001
@ -I/usr1/code/v1r4_v1r6_sourceCode/code/current/v1r6_hi3716mv330_pack/work/source/kernel/linux-3.10.y/../../../source/msp/drv/vfmw/vfmw_v4.0/firmware/driver/HiVDHV200R002
@ -I/usr1/code/v1r4_v1r6_sourceCode/code/current/v1r6_hi3716mv330_pack/work/source/kernel/linux-3.10.y/../../../source/msp/drv/vfmw/vfmw_v4.0/firmware/driver/HiVDHV200R003
@ -I/usr1/code/v1r4_v1r6_sourceCode/code/current/v1r6_hi3716mv330_pack/work/source/kernel/linux-3.10.y/../../../source/msp/drv/vfmw/vfmw_v4.0/firmware/driver/HiVDHV200R004
@ -I/usr1/code/v1r4_v1r6_sourceCode/code/current/v1r6_hi3716mv330_pack/work/source/kernel/linux-3.10.y/../../../source/msp/drv/vfmw/vfmw_v4.0/model/rawpacket
@ -I/usr1/code/v1r4_v1r6_sourceCode/code/current/v1r6_hi3716mv330_pack/work/source/kernel/linux-3.10.y/../../../source/msp/drv/vfmw/vfmw_v4.0/firmware/product/Hi3716MV330/osal/linux_kernel
@ -I/usr1/code/v1r4_v1r6_sourceCode/code/current/v1r6_hi3716mv330_pack/work/source/kernel/linux-3.10.y/../../../source/msp/drv/vfmw/vfmw_v4.0/firmware/product/Hi3716MV330
@ -I/usr1/code/v1r4_v1r6_sourceCode/code/current/v1r6_hi3716mv330_pack/work/source/kernel/linux-3.10.y/../../../source/msp/drv/vfmw/vfmw_v4.0/firmware/driver/HiDNR
@ -I/usr1/code/v1r4_v1r6_sourceCode/code/current/v1r6_hi3716mv330_pack/work/source/kernel/linux-3.10.y/../../../source/msp/drv/vfmw/vfmw_v4.0/firmware/driver/HiBTLV100
@ -I/usr1/code/v1r4_v1r6_sourceCode/code/current/v1r6_hi3716mv330_pack/work/source/kernel/linux-3.10.y/../../../source/msp/drv/vfmw/vfmw_v4.0/firmware/common_test/vdecko
@ -imultilib armv7a_soft -iprefix
@ /opt/hisi-linux/x86-arm/arm-hisiv200-linux/bin/../lib/gcc/arm-hisiv200-linux-gnueabi/4.4.1/
@ -isysroot /opt/hisi-linux/x86-arm/arm-hisiv200-linux/bin/../target
@ -D__KERNEL__ -D__LINUX_ARM_ARCH__=7 -Uarm -DHi3716MV330
@ -DENV_ARMLINUX_KERNEL -DOFF_LINE_DNR_ENABLE -DSCD_MP4_SLICE_ENABLE
@ -DSUPPORT_JPEG_444 -DVFMW_EXTRA_TYPE_DEFINE -DPRODUCT_STB
@ -D__VFMW_REGISTER_ISR__ -DVFMW_VDH_V200R004_SUPPORT -DVFMW_H264_SUPPORT
@ -DVFMW_MPEG2_SUPPORT -DVFMW_MPEG4_SUPPORT -DVFMW_AVS_SUPPORT
@ -DVFMW_VC1_SUPPORT -DVFMW_BPD_H_SUPPORT -DVFMW_VP6_SUPPORT
@ -DVFMW_VP8_SUPPORT -DVFMW_DIVX3_SUPPORT -DVFMW_DNR_SUPPORT
@ -DVFMW_H263_SUPPORT -DVFMW_JPEG_SUPPORT -DVFMW_RAW_SUPPORT
@ -DVFMW_USER_SUPPORT -DCFG_MAX_CHAN_NUM=4 -DCFG_MAX_CHAN_NUM=4
@ -DVFMW_DPRINT_SUPPORT -DVFMW_AVSPLUS_SUPPORT -DVFMW_SYSTEM_REG_DISABLE
@ -DREPAIR_ENABLE -D_FORTIFY_SOURCE=2 -DCHIP_TYPE_hi3716mv330
@ -DSDK_VERSION=HiSTBLinuxV100R006C00SPC052 -DHI_LOG_SUPPORT=1
@ -DHI_LOG_LEVEL=4 -DHI_PROC_SUPPORT=1 -DHI_PNG_DECODER_SUPPORT
@ -DHI_KEYLED_SUPPORT -DHI_HDCP_SUPPORT -DHI_SCI_SUPPORT
@ -DHI_GPIOI2C_SUPPORT -DHI_IR_S2_SUPPORT -DHI_DSC_SUPPORT -DMODULE
@ -DKBUILD_STR(s)=#s -DKBUILD_BASENAME=KBUILD_STR(dnr_patch)
@ -DKBUILD_MODNAME=KBUILD_STR(hi_vfmw) -isystem
@ /opt/hisi-linux/x86-arm/arm-hisiv200-linux/bin/../lib/gcc/arm-hisiv200-linux-gnueabi/4.4.1/include
@ -include
@ /usr1/code/v1r4_v1r6_sourceCode/code/current/v1r6_hi3716mv330_pack/work/source/kernel/linux-3.10.y/include/linux/kconfig.h
@ -MD
@ /usr1/code/v1r4_v1r6_sourceCode/code/current/v1r6_hi3716mv330_pack/work/source/msp/drv/vfmw/vfmw_v4.0/firmware/driver/HiDNR/.dnr_patch.o.d
@ /usr1/code/v1r4_v1r6_sourceCode/code/current/v1r6_hi3716mv330_pack/work/source/msp/drv/vfmw/vfmw_v4.0/firmware/driver/HiDNR/dnr_patch.c
@ -mlittle-endian -mabi=aapcs-linux -mno-thumb-interwork -marm
@ -march=armv7-a -msoft-float -auxbase-strip
@ /usr1/code/v1r4_v1r6_sourceCode/code/current/v1r6_hi3716mv330_pack/work/source/msp/drv/vfmw/vfmw_v4.0/firmware/driver/HiDNR/dnr_patch.o
@ -O2 -Wall -Wundef -Wstrict-prototypes -Wno-trigraphs
@ -Werror-implicit-function-declaration -Wno-format-security
@ -Wframe-larger-than=1024 -Wdeclaration-after-statement -Wno-pointer-sign
@ -fno-strict-aliasing -fno-common -fno-delete-null-pointer-checks
@ -fno-dwarf2-cfi-asm -funwind-tables -fno-stack-protector
@ -fomit-frame-pointer -fno-strict-overflow -fconserve-stack -fno-pic
@ -fverbose-asm
@ options enabled:  -falign-loops -fargument-alias -fauto-inc-dec
@ -fbranch-count-reg -fcaller-saves -fcprop-registers -fcrossjumping
@ -fcse-follow-jumps -fdefer-pop -fearly-inlining
@ -feliminate-unused-debug-types -fexpensive-optimizations
@ -fforward-propagate -ffunction-cse -fgcse -fgcse-lm
@ -fguess-branch-probability -fident -fif-conversion -fif-conversion2
@ -findirect-inlining -finline -finline-functions-called-once
@ -finline-small-functions -fipa-cp -fipa-pure-const -fipa-reference
@ -fira-share-save-slots -fira-share-spill-slots -fivopts
@ -fkeep-static-consts -fleading-underscore -fmath-errno -fmerge-constants
@ -fmerge-debug-strings -fmove-loop-invariants -fomit-frame-pointer
@ -foptimize-register-move -foptimize-sibling-calls -fpeephole -fpeephole2
@ -fpromote-loop-indices -freg-struct-return -fregmove -frename-registers
@ -freorder-blocks -freorder-functions -frerun-cse-after-loop
@ -fsched-interblock -fsched-spec -fsched-stalled-insns-dep
@ -fschedule-insns -fschedule-insns2 -fsection-anchors -fsigned-zeros
@ -fsplit-ivs-in-unroller -fsplit-wide-types -fthread-jumps
@ -ftoplevel-reorder -ftrapping-math -ftree-builtin-call-dce -ftree-ccp
@ -ftree-ch -ftree-copy-prop -ftree-copyrename -ftree-cselim -ftree-dce
@ -ftree-dominator-opts -ftree-dse -ftree-fre -ftree-loop-im
@ -ftree-loop-ivcanon -ftree-loop-optimize -ftree-parallelize-loops=
@ -ftree-pre -ftree-reassoc -ftree-scev-cprop -ftree-sink -ftree-sra
@ -ftree-switch-conversion -ftree-ter -ftree-vect-loop-version -ftree-vrp
@ -funit-at-a-time -funroll-loops -funwind-tables -fverbose-asm -fweb
@ -fzero-initialized-in-bss -mglibc -mlittle-endian -msched-prolog

@ Compiler executable checksum: fa59e0bd179ef45b3a3c3e6f3383fdac

	.text
	.align	2
	.global	ComparePattern
	.type	ComparePattern, %function
ComparePattern:
	.fnstart
.LFB1599:
	@ args = 0, pretend = 0, frame = 0
	@ frame_needed = 0, uses_anonymous_args = 0
	@ link register save eliminated.
	stmfd	sp!, {r4, r5, r6, r7}	@,
	.save {r4, r5, r6, r7}
	ldrb	r2, [r0, #13]	@ zero_extendqisi2	@ <variable>.Pix, <variable>.Pix
	ldrb	r6, [r1, #13]	@ zero_extendqisi2	@ <variable>.Pix, <variable>.Pix
	ldrb	r7, [r0, #12]	@ zero_extendqisi2	@ <variable>.Pix, <variable>.Pix
	ldrb	r4, [r1, #12]	@ zero_extendqisi2	@ <variable>.Pix, <variable>.Pix
	rsb	ip, r6, r2	@ tmp150, <variable>.Pix, <variable>.Pix
	ldrb	r5, [r0, #14]	@ zero_extendqisi2	@ <variable>.Pix, <variable>.Pix
	cmp	ip, #0	@ tmp150,
	rsb	r6, r4, r7	@ tmp144, <variable>.Pix, <variable>.Pix
	ldrb	r3, [r1, #14]	@ zero_extendqisi2	@ <variable>.Pix, <variable>.Pix
	rsblt	ip, ip, #0	@ tmp151, tmp150
	cmp	r6, #0	@ tmp144,
	rsblt	r6, r6, #0	@ tmp145, tmp144
	ldrb	r4, [r1, #15]	@ zero_extendqisi2	@ <variable>.Pix, <variable>.Pix
	ldrb	r7, [r0, #15]	@ zero_extendqisi2	@ <variable>.Pix, <variable>.Pix
	cmp	ip, #2	@ tmp151,
	movle	r2, #0	@, tmp153
	movgt	r2, #1	@, tmp153
	rsb	ip, r3, r5	@ tmp156, <variable>.Pix, <variable>.Pix
	cmp	r6, #2	@ tmp145,
	addgt	r2, r2, #1	@,, MisCnt.511, tmp153
	cmp	ip, #0	@ tmp156,
	rsb	r7, r4, r7	@ tmp162, <variable>.Pix, <variable>.Pix
	ldrb	r3, [r1, #16]	@ zero_extendqisi2	@ <variable>.Pix, <variable>.Pix
	rsblt	ip, ip, #0	@ tmp157, tmp156
	ldrb	r5, [r0, #16]	@ zero_extendqisi2	@ <variable>.Pix, <variable>.Pix
	cmp	ip, #2	@ tmp157,
	movle	ip, r2	@, MisCnt.519, MisCnt.511
	addgt	ip, r2, #1	@,, MisCnt.519, MisCnt.511
	cmp	r7, #0	@ tmp162,
	ldrb	r6, [r0, #17]	@ zero_extendqisi2	@ <variable>.Pix, <variable>.Pix
	rsb	r5, r3, r5	@ tmp168, <variable>.Pix, <variable>.Pix
	ldrb	r2, [r1, #17]	@ zero_extendqisi2	@ <variable>.Pix, <variable>.Pix
	rsblt	r7, r7, #0	@ tmp163, tmp162
	ldrb	r4, [r0, #18]	@ zero_extendqisi2	@ <variable>.Pix, <variable>.Pix
	cmp	r7, #2	@ tmp163,
	addgt	ip, ip, #1	@,, MisCnt.527, MisCnt.519
	cmp	r5, #0	@ tmp168,
	rsb	r2, r2, r6	@ tmp174, <variable>.Pix, <variable>.Pix
	ldrb	r3, [r1, #18]	@ zero_extendqisi2	@ <variable>.Pix, <variable>.Pix
	rsblt	r5, r5, #0	@ tmp169, tmp168
	ldrb	r0, [r0, #19]	@ zero_extendqisi2	@ <variable>.Pix, <variable>.Pix
	cmp	r5, #2	@ tmp169,
	addgt	ip, ip, #1	@,, MisCnt.535, MisCnt.527
	cmp	r2, #0	@ tmp174,
	rsb	r3, r3, r4	@ tmp180, <variable>.Pix, <variable>.Pix
	rsblt	r2, r2, #0	@ tmp175, tmp174
	ldrb	r1, [r1, #19]	@ zero_extendqisi2	@ <variable>.Pix, <variable>.Pix
	cmp	r2, #2	@ tmp175,
	movle	r2, ip	@, MisCnt.543, MisCnt.535
	addgt	r2, ip, #1	@,, MisCnt.543, MisCnt.535
	cmp	r3, #0	@ tmp180,
	rsb	ip, r1, r0	@ tmp187, <variable>.Pix, <variable>.Pix
	rsblt	r3, r3, #0	@ tmp181, tmp180
	cmp	r3, #2	@ tmp181,
	movle	r3, r2	@, MisCnt.551, MisCnt.543
	addgt	r3, r2, #1	@,, MisCnt.551, MisCnt.543
	cmp	ip, #0	@ tmp187,
	rsblt	ip, ip, #0	@ tmp188, tmp187
	cmp	ip, #2	@ tmp188,
	movle	r0, r3	@, tmp191, MisCnt.551
	addgt	r0, r3, #1	@,, tmp191, MisCnt.551
	cmp	r0, #2	@ tmp191,
	movgt	r0, #0	@,
	movle	r0, #1	@,
	ldmfd	sp!, {r4, r5, r6, r7}
	bx	lr
	.fnend
	.size	ComparePattern, .-ComparePattern
	.align	2
	.global	GetSample
	.type	GetSample, %function
GetSample:
	.fnstart
.LFB1598:
	@ args = 0, pretend = 0, frame = 0
	@ frame_needed = 0, uses_anonymous_args = 0
	@ link register save eliminated.
	stmfd	sp!, {r4, r5}	@,
	.save {r4, r5}
	ldr	r2, [r0, #0]	@ <variable>.Comp, <variable>.Comp
	mov	r3, r0	@ pSmp, pSmp
	cmp	r2, #1	@ <variable>.Comp,
	ldreq	ip, [r1, #12]	@ pRd, <variable>.pPicBufU
	beq	.L7	@,
	cmp	r2, #2	@ <variable>.Comp,
	ldrne	ip, [r1, #8]	@ pRd, <variable>.pPicBufY
	ldreq	ip, [r1, #16]	@ pRd, <variable>.pPicBufV
.L7:
	ldr	r4, [r1, #28]	@ <variable>.PicStride, <variable>.PicStride
	add	r0, r3, #12	@, pSmp,
	ldr	r1, [r3, #4]	@ <variable>.Px, <variable>.Px
	mov	r2, #8	@,
	ldr	r5, [r3, #8]	@ <variable>.Py, <variable>.Py
	mla	r3, r5, r4, r1	@ tmp141, <variable>.Py, <variable>.PicStride, <variable>.Px
	add	r1, ip, r3	@, pRd, tmp141
	ldmfd	sp!, {r4, r5}
	b	memcpy	@
	.fnend
	.size	GetSample, .-GetSample
	.align	2
	.global	DetPic
	.type	DetPic, %function
DetPic:
	.fnstart
.LFB1597:
	@ args = 0, pretend = 0, frame = 24
	@ frame_needed = 0, uses_anonymous_args = 0
	stmfd	sp!, {r4, r5, r6, r7, r8, sl, lr}	@,
	.save {r4, r5, r6, r7, r8, sl, lr}
	subs	r5, r0, #0	@ pDetPara, pDetPara
	.pad #36
	sub	sp, sp, #36	@,,
	beq	.L66	@,
	ldr	r4, [r5, #8]	@ <variable>.pPicBufY, <variable>.pPicBufY
	cmp	r4, #0	@ <variable>.pPicBufY,
	beq	.L67	@,
	ldr	r2, [r5, #24]	@ D.34602, <variable>.PicHeight
	cmp	r2, #1088	@ D.34602,
	ldrgt	r3, [r5, #20]	@ prephitmp.801, <variable>.PicWidth
	bgt	.L16	@,
	ldr	r3, [r5, #20]	@ prephitmp.801, <variable>.PicWidth
	cmp	r3, #1920	@ prephitmp.801,
	bgt	.L16	@,
	cmp	r2, #0	@ D.34602,
	beq	.L16	@,
	cmp	r3, #0	@ prephitmp.801,
	beq	.L16	@,
	cmp	r2, #576	@ D.34602,
	beq	.L68	@,
	cmp	r2, #480	@ D.34602,
	beq	.L69	@,
	cmp	r2, #720	@ D.34602,
	beq	.L70	@,
.L49:
	movw	r0, #1079	@ tmp11864,
	cmp	r2, r0	@ D.34602, tmp11864
	ble	.L46	@,
	cmp	r3, #1920	@ prephitmp.801,
	bne	.L46	@,
	movw	r4, #:lower16:.LANCHOR0	@ tmp11865,
	movt	r4, #:upper16:.LANCHOR0	@ tmp11865,
	add	r6, sp, #12	@ tmp11871,,
	mov	r1, r5	@, pDetPara
	ldr	ip, [r4, #3380]	@ <variable>.Comp, <variable>.Comp
	ldr	r2, [r4, #3384]	@ <variable>.Px, <variable>.Px
	mov	r0, r6	@, tmp11871
	ldr	lr, [r4, #3388]	@ <variable>.Py, <variable>.Py
	str	ip, [sp, #12]	@ <variable>.Comp, SmpPat.Comp
	str	r2, [sp, #16]	@ <variable>.Px, SmpPat.Px
	str	lr, [sp, #20]	@ <variable>.Py, SmpPat.Py
	bl	GetSample	@
	ldrb	r1, [r4, #3393]	@ zero_extendqisi2	@ <variable>.Pix, <variable>.Pix
	ldrb	r7, [sp, #25]	@ zero_extendqisi2	@ SmpPat.Pix, SmpPat.Pix
	ldrb	r0, [r4, #3392]	@ zero_extendqisi2	@ <variable>.Pix, <variable>.Pix
	ldrb	r3, [sp, #24]	@ zero_extendqisi2	@ SmpPat.Pix, SmpPat.Pix
	rsb	r8, r7, r1	@ tmp11882, SmpPat.Pix, <variable>.Pix
	cmp	r8, #0	@ tmp11882,
	ldrb	ip, [r4, #3394]	@ zero_extendqisi2	@ <variable>.Pix, <variable>.Pix
	rsb	r7, r3, r0	@ tmp11875, SmpPat.Pix, <variable>.Pix
	ldrb	r2, [sp, #26]	@ zero_extendqisi2	@ SmpPat.Pix, SmpPat.Pix
	rsblt	r8, r8, #0	@ tmp11883, tmp11882
	cmp	r7, #0	@ tmp11875,
	rsblt	r7, r7, #0	@ tmp11876, tmp11875
	ldrb	r0, [r4, #3395]	@ zero_extendqisi2	@ <variable>.Pix, <variable>.Pix
	cmp	r8, #2	@ tmp11883,
	movle	r1, #0	@, tmp11885
	movgt	r1, #1	@, tmp11885
	ldrb	r3, [sp, #27]	@ zero_extendqisi2	@ SmpPat.Pix, SmpPat.Pix
	rsb	r8, r2, ip	@ tmp11889, SmpPat.Pix, <variable>.Pix
	cmp	r7, #2	@ tmp11876,
	addgt	r1, r1, #1	@,, MisCnt.6463, tmp11885
	cmp	r8, #0	@ tmp11889,
	rsb	r3, r3, r0	@ tmp11896, SmpPat.Pix, <variable>.Pix
	ldrb	r2, [sp, #28]	@ zero_extendqisi2	@ SmpPat.Pix, SmpPat.Pix
	rsblt	r8, r8, #0	@ tmp11890, tmp11889
	ldrb	ip, [r4, #3396]	@ zero_extendqisi2	@ <variable>.Pix, <variable>.Pix
	cmp	r8, #2	@ tmp11890,
	movle	r8, r1	@, MisCnt.6471, MisCnt.6463
	addgt	r8, r1, #1	@,, MisCnt.6471, MisCnt.6463
	cmp	r3, #0	@ tmp11896,
	ldrb	r0, [r4, #3397]	@ zero_extendqisi2	@ <variable>.Pix, <variable>.Pix
	rsb	ip, r2, ip	@ tmp11903, SmpPat.Pix, <variable>.Pix
	rsblt	r3, r3, #0	@ tmp11897, tmp11896
	ldrb	r1, [sp, #29]	@ zero_extendqisi2	@ SmpPat.Pix, SmpPat.Pix
	cmp	r3, #2	@ tmp11897,
	movle	r3, r8	@, MisCnt.6479, MisCnt.6471
	addgt	r3, r8, #1	@,, MisCnt.6479, MisCnt.6471
	cmp	ip, #0	@ tmp11903,
	ldrb	r7, [r4, #3398]	@ zero_extendqisi2	@ <variable>.Pix, <variable>.Pix
	rsb	r1, r1, r0	@ tmp11910, SmpPat.Pix, <variable>.Pix
	rsblt	ip, ip, #0	@ tmp11904, tmp11903
	ldrb	r2, [sp, #30]	@ zero_extendqisi2	@ SmpPat.Pix, SmpPat.Pix
	cmp	ip, #2	@ tmp11904,
	movle	ip, r3	@, MisCnt.6487, MisCnt.6479
	addgt	ip, r3, #1	@,, MisCnt.6487, MisCnt.6479
	cmp	r1, #0	@ tmp11910,
	ldrb	r0, [r4, #3399]	@ zero_extendqisi2	@ <variable>.Pix, <variable>.Pix
	rsb	r2, r2, r7	@ tmp11917, SmpPat.Pix, <variable>.Pix
	rsblt	r1, r1, #0	@ tmp11911, tmp11910
	ldrb	r3, [sp, #31]	@ zero_extendqisi2	@ SmpPat.Pix, SmpPat.Pix
	cmp	r1, #2	@ tmp11911,
	movle	r1, ip	@, MisCnt.6495, MisCnt.6487
	addgt	r1, ip, #1	@,, MisCnt.6495, MisCnt.6487
	cmp	r2, #0	@ tmp11917,
	rsb	ip, r3, r0	@ tmp11924, SmpPat.Pix, <variable>.Pix
	rsblt	r2, r2, #0	@ tmp11918, tmp11917
	cmp	r2, #2	@ tmp11918,
	movle	r2, r1	@, MisCnt.6503, MisCnt.6495
	addgt	r2, r1, #1	@,, MisCnt.6503, MisCnt.6495
	cmp	ip, #0	@ tmp11924,
	rsblt	ip, ip, #0	@ tmp11925, tmp11924
	cmp	ip, #2	@ tmp11925,
	movle	r1, r2	@, tmp11928, MisCnt.6503
	addgt	r1, r2, #1	@,, tmp11928, MisCnt.6503
	cmp	r1, #2	@ tmp11928,
	bgt	.L46	@,
	ldr	r3, [r4, #3400]	@ <variable>.Comp, <variable>.Comp
	mov	r0, r6	@, tmp11871
	ldr	r2, [r4, #3404]	@ <variable>.Px, <variable>.Px
	mov	r1, r5	@, pDetPara
	ldr	lr, [r4, #3408]	@ <variable>.Py, <variable>.Py
	str	r3, [sp, #12]	@ <variable>.Comp, SmpPat.Comp
	str	r2, [sp, #16]	@ <variable>.Px, SmpPat.Px
	str	lr, [sp, #20]	@ <variable>.Py, SmpPat.Py
	bl	GetSample	@
	ldrb	r7, [r4, #3413]	@ zero_extendqisi2	@ <variable>.Pix, <variable>.Pix
	ldrb	ip, [sp, #25]	@ zero_extendqisi2	@ SmpPat.Pix, SmpPat.Pix
	ldrb	r8, [r4, #3412]	@ zero_extendqisi2	@ <variable>.Pix, <variable>.Pix
	ldrb	r1, [sp, #24]	@ zero_extendqisi2	@ SmpPat.Pix, SmpPat.Pix
	rsb	r3, ip, r7	@ tmp11946, SmpPat.Pix, <variable>.Pix
	cmp	r3, #0	@ tmp11946,
	ldrb	r2, [sp, #26]	@ zero_extendqisi2	@ SmpPat.Pix, SmpPat.Pix
	rsb	r7, r1, r8	@ tmp11939, SmpPat.Pix, <variable>.Pix
	ldrb	r0, [r4, #3414]	@ zero_extendqisi2	@ <variable>.Pix, <variable>.Pix
	rsblt	r3, r3, #0	@ tmp11947, tmp11946
	cmp	r7, #0	@ tmp11939,
	rsb	r0, r2, r0	@ tmp11953, SmpPat.Pix, <variable>.Pix
	rsblt	r7, r7, #0	@ tmp11940, tmp11939
	ldrb	ip, [sp, #27]	@ zero_extendqisi2	@ SmpPat.Pix, SmpPat.Pix
	cmp	r3, #2	@ tmp11947,
	movle	r3, #0	@, tmp11949
	movgt	r3, #1	@, tmp11949
	ldrb	r8, [r4, #3415]	@ zero_extendqisi2	@ <variable>.Pix, <variable>.Pix
	cmp	r7, #2	@ tmp11940,
	addgt	r3, r3, #1	@,, MisCnt.6529, tmp11949
	cmp	r0, #0	@ tmp11953,
	ldrb	r1, [r4, #3416]	@ zero_extendqisi2	@ <variable>.Pix, <variable>.Pix
	rsb	r8, ip, r8	@ tmp11960, SmpPat.Pix, <variable>.Pix
	rsblt	r0, r0, #0	@ tmp11954, tmp11953
	ldrb	r2, [sp, #28]	@ zero_extendqisi2	@ SmpPat.Pix, SmpPat.Pix
	cmp	r0, #2	@ tmp11954,
	addgt	r3, r3, #1	@,, MisCnt.6537, MisCnt.6529
	cmp	r8, #0	@ tmp11960,
	ldrb	r0, [sp, #29]	@ zero_extendqisi2	@ SmpPat.Pix, SmpPat.Pix
	rsb	r2, r2, r1	@ tmp11967, SmpPat.Pix, <variable>.Pix
	rsblt	r8, r8, #0	@ tmp11961, tmp11960
	ldrb	ip, [r4, #3417]	@ zero_extendqisi2	@ <variable>.Pix, <variable>.Pix
	cmp	r8, #2	@ tmp11961,
	addgt	r3, r3, #1	@,, MisCnt.6545, MisCnt.6537
	cmp	r2, #0	@ tmp11967,
	ldrb	r7, [r4, #3418]	@ zero_extendqisi2	@ <variable>.Pix, <variable>.Pix
	rsb	ip, r0, ip	@ tmp11974, SmpPat.Pix, <variable>.Pix
	rsblt	r2, r2, #0	@ tmp11968, tmp11967
	ldrb	r1, [sp, #30]	@ zero_extendqisi2	@ SmpPat.Pix, SmpPat.Pix
	cmp	r2, #2	@ tmp11968,
	addgt	r3, r3, #1	@,, MisCnt.6553, MisCnt.6545
	cmp	ip, #0	@ tmp11974,
	ldrb	r0, [r4, #3419]	@ zero_extendqisi2	@ <variable>.Pix, <variable>.Pix
	rsb	r1, r1, r7	@ tmp11981, SmpPat.Pix, <variable>.Pix
	rsblt	ip, ip, #0	@ tmp11975, tmp11974
	ldrb	r2, [sp, #31]	@ zero_extendqisi2	@ SmpPat.Pix, SmpPat.Pix
	cmp	ip, #2	@ tmp11975,
	addgt	r3, r3, #1	@,, MisCnt.6561, MisCnt.6553
	cmp	r1, #0	@ tmp11981,
	rsb	r2, r2, r0	@ tmp11988, SmpPat.Pix, <variable>.Pix
	rsblt	r1, r1, #0	@ tmp11982, tmp11981
	cmp	r1, #2	@ tmp11982,
	addgt	r3, r3, #1	@,, MisCnt.6569, MisCnt.6561
	cmp	r2, #0	@ tmp11988,
	rsblt	r2, r2, #0	@ tmp11989, tmp11988
	cmp	r2, #2	@ tmp11989,
	addgt	r3, r3, #1	@,, tmp11992, MisCnt.6569
	cmp	r3, #2	@ tmp11992,
	bgt	.L46	@,
	ldr	r3, [r4, #3420]	@ <variable>.Comp, <variable>.Comp
	mov	r0, r6	@, tmp11871
	ldr	r2, [r4, #3424]	@ <variable>.Px, <variable>.Px
	mov	r1, r5	@, pDetPara
	ldr	lr, [r4, #3428]	@ <variable>.Py, <variable>.Py
	str	r3, [sp, #12]	@ <variable>.Comp, SmpPat.Comp
	str	r2, [sp, #16]	@ <variable>.Px, SmpPat.Px
	str	lr, [sp, #20]	@ <variable>.Py, SmpPat.Py
	bl	GetSample	@
	ldrb	r7, [r4, #3433]	@ zero_extendqisi2	@ <variable>.Pix, <variable>.Pix
	ldrb	ip, [sp, #25]	@ zero_extendqisi2	@ SmpPat.Pix, SmpPat.Pix
	ldrb	r8, [r4, #3432]	@ zero_extendqisi2	@ <variable>.Pix, <variable>.Pix
	ldrb	r1, [sp, #24]	@ zero_extendqisi2	@ SmpPat.Pix, SmpPat.Pix
	rsb	r3, ip, r7	@ tmp12010, SmpPat.Pix, <variable>.Pix
	cmp	r3, #0	@ tmp12010,
	ldrb	r2, [sp, #26]	@ zero_extendqisi2	@ SmpPat.Pix, SmpPat.Pix
	rsb	r7, r1, r8	@ tmp12003, SmpPat.Pix, <variable>.Pix
	ldrb	r0, [r4, #3434]	@ zero_extendqisi2	@ <variable>.Pix, <variable>.Pix
	rsblt	r3, r3, #0	@ tmp12011, tmp12010
	cmp	r7, #0	@ tmp12003,
	rsb	r0, r2, r0	@ tmp12017, SmpPat.Pix, <variable>.Pix
	rsblt	r7, r7, #0	@ tmp12004, tmp12003
	ldrb	ip, [sp, #27]	@ zero_extendqisi2	@ SmpPat.Pix, SmpPat.Pix
	cmp	r3, #2	@ tmp12011,
	movle	r3, #0	@, tmp12013
	movgt	r3, #1	@, tmp12013
	ldrb	r8, [r4, #3435]	@ zero_extendqisi2	@ <variable>.Pix, <variable>.Pix
	cmp	r7, #2	@ tmp12004,
	addgt	r3, r3, #1	@,, MisCnt.6595, tmp12013
	cmp	r0, #0	@ tmp12017,
	ldrb	r1, [r4, #3436]	@ zero_extendqisi2	@ <variable>.Pix, <variable>.Pix
	rsb	r8, ip, r8	@ tmp12024, SmpPat.Pix, <variable>.Pix
	rsblt	r0, r0, #0	@ tmp12018, tmp12017
	ldrb	r2, [sp, #28]	@ zero_extendqisi2	@ SmpPat.Pix, SmpPat.Pix
	cmp	r0, #2	@ tmp12018,
	addgt	r3, r3, #1	@,, MisCnt.6603, MisCnt.6595
	cmp	r8, #0	@ tmp12024,
	ldrb	r0, [sp, #29]	@ zero_extendqisi2	@ SmpPat.Pix, SmpPat.Pix
	rsb	r2, r2, r1	@ tmp12031, SmpPat.Pix, <variable>.Pix
	rsblt	r8, r8, #0	@ tmp12025, tmp12024
	ldrb	ip, [r4, #3437]	@ zero_extendqisi2	@ <variable>.Pix, <variable>.Pix
	cmp	r8, #2	@ tmp12025,
	addgt	r3, r3, #1	@,, MisCnt.6611, MisCnt.6603
	cmp	r2, #0	@ tmp12031,
	ldrb	r7, [r4, #3438]	@ zero_extendqisi2	@ <variable>.Pix, <variable>.Pix
	rsb	ip, r0, ip	@ tmp12038, SmpPat.Pix, <variable>.Pix
	rsblt	r2, r2, #0	@ tmp12032, tmp12031
	ldrb	r1, [sp, #30]	@ zero_extendqisi2	@ SmpPat.Pix, SmpPat.Pix
	cmp	r2, #2	@ tmp12032,
	addgt	r3, r3, #1	@,, MisCnt.6619, MisCnt.6611
	cmp	ip, #0	@ tmp12038,
	ldrb	r0, [r4, #3439]	@ zero_extendqisi2	@ <variable>.Pix, <variable>.Pix
	rsblt	ip, ip, #0	@ tmp12039, tmp12038
	rsb	r1, r1, r7	@ tmp12045, SmpPat.Pix, <variable>.Pix
	ldrb	r2, [sp, #31]	@ zero_extendqisi2	@ SmpPat.Pix, SmpPat.Pix
	cmp	ip, #2	@ tmp12039,
	addgt	r3, r3, #1	@,, MisCnt.6627, MisCnt.6619
	cmp	r1, #0	@ tmp12045,
	rsb	ip, r2, r0	@ tmp12052, SmpPat.Pix, <variable>.Pix
	rsblt	r1, r1, #0	@ tmp12046, tmp12045
	cmp	r1, #2	@ tmp12046,
	addgt	r3, r3, #1	@,, MisCnt.6635, MisCnt.6627
	cmp	ip, #0	@ tmp12052,
	rsblt	ip, ip, #0	@ tmp12053, tmp12052
	cmp	ip, #2	@ tmp12053,
	addgt	r3, r3, #1	@,, tmp12056, MisCnt.6635
	cmp	r3, #2	@ tmp12056,
	bgt	.L46	@,
	ldr	r3, [r4, #3440]	@ <variable>.Comp, <variable>.Comp
	mov	r0, r6	@, tmp11871
	ldr	r2, [r4, #3444]	@ <variable>.Px, <variable>.Px
	mov	r1, r5	@, pDetPara
	ldr	lr, [r4, #3448]	@ <variable>.Py, <variable>.Py
	str	r3, [sp, #12]	@ <variable>.Comp, SmpPat.Comp
	str	r2, [sp, #16]	@ <variable>.Px, SmpPat.Px
	str	lr, [sp, #20]	@ <variable>.Py, SmpPat.Py
	bl	GetSample	@
	ldrb	r7, [r4, #3453]	@ zero_extendqisi2	@ <variable>.Pix, <variable>.Pix
	ldrb	ip, [sp, #25]	@ zero_extendqisi2	@ SmpPat.Pix, SmpPat.Pix
	ldrb	r8, [r4, #3452]	@ zero_extendqisi2	@ <variable>.Pix, <variable>.Pix
	ldrb	r1, [sp, #24]	@ zero_extendqisi2	@ SmpPat.Pix, SmpPat.Pix
	rsb	r3, ip, r7	@ tmp12074, SmpPat.Pix, <variable>.Pix
	cmp	r3, #0	@ tmp12074,
	ldrb	r2, [sp, #26]	@ zero_extendqisi2	@ SmpPat.Pix, SmpPat.Pix
	rsb	r7, r1, r8	@ tmp12067, SmpPat.Pix, <variable>.Pix
	ldrb	r0, [r4, #3454]	@ zero_extendqisi2	@ <variable>.Pix, <variable>.Pix
	rsblt	r3, r3, #0	@ tmp12075, tmp12074
	cmp	r7, #0	@ tmp12067,
	rsb	r0, r2, r0	@ tmp12081, SmpPat.Pix, <variable>.Pix
	rsblt	r7, r7, #0	@ tmp12068, tmp12067
	ldrb	ip, [sp, #27]	@ zero_extendqisi2	@ SmpPat.Pix, SmpPat.Pix
	cmp	r3, #2	@ tmp12075,
	movle	r3, #0	@, tmp12077
	movgt	r3, #1	@, tmp12077
	ldrb	r8, [r4, #3455]	@ zero_extendqisi2	@ <variable>.Pix, <variable>.Pix
	cmp	r7, #2	@ tmp12068,
	addgt	r3, r3, #1	@,, MisCnt.6661, tmp12077
	cmp	r0, #0	@ tmp12081,
	ldrb	r1, [r4, #3456]	@ zero_extendqisi2	@ <variable>.Pix, <variable>.Pix
	rsb	r8, ip, r8	@ tmp12088, SmpPat.Pix, <variable>.Pix
	rsblt	r0, r0, #0	@ tmp12082, tmp12081
	ldrb	r2, [sp, #28]	@ zero_extendqisi2	@ SmpPat.Pix, SmpPat.Pix
	cmp	r0, #2	@ tmp12082,
	addgt	r3, r3, #1	@,, MisCnt.6669, MisCnt.6661
	cmp	r8, #0	@ tmp12088,
	ldrb	r0, [sp, #29]	@ zero_extendqisi2	@ SmpPat.Pix, SmpPat.Pix
	rsb	r2, r2, r1	@ tmp12095, SmpPat.Pix, <variable>.Pix
	rsblt	r8, r8, #0	@ tmp12089, tmp12088
	ldrb	ip, [r4, #3457]	@ zero_extendqisi2	@ <variable>.Pix, <variable>.Pix
	cmp	r8, #2	@ tmp12089,
	addgt	r3, r3, #1	@,, MisCnt.6677, MisCnt.6669
	cmp	r2, #0	@ tmp12095,
	ldrb	r7, [r4, #3458]	@ zero_extendqisi2	@ <variable>.Pix, <variable>.Pix
	rsb	ip, r0, ip	@ tmp12102, SmpPat.Pix, <variable>.Pix
	rsblt	r2, r2, #0	@ tmp12096, tmp12095
	ldrb	r1, [sp, #30]	@ zero_extendqisi2	@ SmpPat.Pix, SmpPat.Pix
	cmp	r2, #2	@ tmp12096,
	addgt	r3, r3, #1	@,, MisCnt.6685, MisCnt.6677
	cmp	ip, #0	@ tmp12102,
	ldrb	r0, [r4, #3459]	@ zero_extendqisi2	@ <variable>.Pix, <variable>.Pix
	rsblt	ip, ip, #0	@ tmp12103, tmp12102
	rsb	r1, r1, r7	@ tmp12109, SmpPat.Pix, <variable>.Pix
	ldrb	r2, [sp, #31]	@ zero_extendqisi2	@ SmpPat.Pix, SmpPat.Pix
	cmp	ip, #2	@ tmp12103,
	addgt	r3, r3, #1	@,, MisCnt.6693, MisCnt.6685
	cmp	r1, #0	@ tmp12109,
	rsb	ip, r2, r0	@ tmp12116, SmpPat.Pix, <variable>.Pix
	rsblt	r1, r1, #0	@ tmp12110, tmp12109
	cmp	r1, #2	@ tmp12110,
	addgt	r3, r3, #1	@,, MisCnt.6701, MisCnt.6693
	cmp	ip, #0	@ tmp12116,
	rsblt	ip, ip, #0	@ tmp12117, tmp12116
	cmp	ip, #2	@ tmp12117,
	addgt	r3, r3, #1	@,, tmp12120, MisCnt.6701
	cmp	r3, #2	@ tmp12120,
	bgt	.L46	@,
	ldr	r3, [r4, #3460]	@ <variable>.Comp, <variable>.Comp
	mov	r0, r6	@, tmp11871
	ldr	r2, [r4, #3464]	@ <variable>.Px, <variable>.Px
	mov	r1, r5	@, pDetPara
	ldr	lr, [r4, #3468]	@ <variable>.Py, <variable>.Py
	str	r3, [sp, #12]	@ <variable>.Comp, SmpPat.Comp
	str	r2, [sp, #16]	@ <variable>.Px, SmpPat.Px
	str	lr, [sp, #20]	@ <variable>.Py, SmpPat.Py
	bl	GetSample	@
	ldrb	r5, [r4, #3473]	@ zero_extendqisi2	@ <variable>.Pix, <variable>.Pix
	ldrb	ip, [sp, #25]	@ zero_extendqisi2	@ SmpPat.Pix, SmpPat.Pix
	ldrb	r6, [r4, #3472]	@ zero_extendqisi2	@ <variable>.Pix, <variable>.Pix
	ldrb	r1, [sp, #24]	@ zero_extendqisi2	@ SmpPat.Pix, SmpPat.Pix
	rsb	r3, ip, r5	@ tmp12138, SmpPat.Pix, <variable>.Pix
	cmp	r3, #0	@ tmp12138,
	ldrb	r2, [sp, #26]	@ zero_extendqisi2	@ SmpPat.Pix, SmpPat.Pix
	rsb	r5, r1, r6	@ tmp12131, SmpPat.Pix, <variable>.Pix
	ldrb	r0, [r4, #3474]	@ zero_extendqisi2	@ <variable>.Pix, <variable>.Pix
	rsblt	r3, r3, #0	@ tmp12139, tmp12138
	cmp	r5, #0	@ tmp12131,
	rsb	r0, r2, r0	@ tmp12145, SmpPat.Pix, <variable>.Pix
	rsblt	r5, r5, #0	@ tmp12132, tmp12131
	ldrb	ip, [sp, #27]	@ zero_extendqisi2	@ SmpPat.Pix, SmpPat.Pix
	cmp	r3, #2	@ tmp12139,
	movle	r3, #0	@, tmp12141
	movgt	r3, #1	@, tmp12141
	ldrb	r6, [r4, #3475]	@ zero_extendqisi2	@ <variable>.Pix, <variable>.Pix
	cmp	r5, #2	@ tmp12132,
	addgt	r3, r3, #1	@,, MisCnt.2081, tmp12141
	cmp	r0, #0	@ tmp12145,
	ldrb	r1, [r4, #3476]	@ zero_extendqisi2	@ <variable>.Pix, <variable>.Pix
	rsb	r6, ip, r6	@ tmp12152, SmpPat.Pix, <variable>.Pix
	rsblt	r0, r0, #0	@ tmp12146, tmp12145
	ldrb	r2, [sp, #28]	@ zero_extendqisi2	@ SmpPat.Pix, SmpPat.Pix
	cmp	r0, #2	@ tmp12146,
	addgt	r3, r3, #1	@,, MisCnt.2089, MisCnt.2081
	cmp	r6, #0	@ tmp12152,
	ldrb	r0, [sp, #29]	@ zero_extendqisi2	@ SmpPat.Pix, SmpPat.Pix
	rsb	r2, r2, r1	@ tmp12159, SmpPat.Pix, <variable>.Pix
	rsblt	r6, r6, #0	@ tmp12153, tmp12152
	ldrb	ip, [r4, #3477]	@ zero_extendqisi2	@ <variable>.Pix, <variable>.Pix
	cmp	r6, #2	@ tmp12153,
	addgt	r3, r3, #1	@,, MisCnt.2099, MisCnt.2089
	cmp	r2, #0	@ tmp12159,
	ldrb	r5, [r4, #3478]	@ zero_extendqisi2	@ <variable>.Pix, <variable>.Pix
	rsb	ip, r0, ip	@ tmp12166, SmpPat.Pix, <variable>.Pix
	rsblt	r2, r2, #0	@ tmp12160, tmp12159
	ldrb	r1, [sp, #30]	@ zero_extendqisi2	@ SmpPat.Pix, SmpPat.Pix
	cmp	r2, #2	@ tmp12160,
	addgt	r3, r3, #1	@,, MisCnt.2108, MisCnt.2099
	cmp	ip, #0	@ tmp12166,
	ldrb	r0, [r4, #3479]	@ zero_extendqisi2	@ <variable>.Pix, <variable>.Pix
	rsblt	ip, ip, #0	@ tmp12167, tmp12166
	rsb	r1, r1, r5	@ tmp12173, SmpPat.Pix, <variable>.Pix
	ldrb	r2, [sp, #31]	@ zero_extendqisi2	@ SmpPat.Pix, SmpPat.Pix
	cmp	ip, #2	@ tmp12167,
	addgt	r3, r3, #1	@,, MisCnt.2116, MisCnt.2108
	cmp	r1, #0	@ tmp12173,
	rsb	ip, r2, r0	@ tmp12180, SmpPat.Pix, <variable>.Pix
	rsblt	r1, r1, #0	@ tmp12174, tmp12173
	cmp	r1, #2	@ tmp12174,
	addgt	r3, r3, #1	@,, MisCnt.2124, MisCnt.2116
	cmp	ip, #0	@ tmp12180,
	rsblt	ip, ip, #0	@ tmp12181, tmp12180
	cmp	ip, #2	@ tmp12181,
	addgt	r3, r3, #1	@,, tmp12184, MisCnt.2124
	cmp	r3, #2	@ tmp12184,
	movle	r0, #7	@ Result,
	ble	.L13	@,
.L46:
	mov	r0, #0	@ Result,
	b	.L13	@
.L16:
	mov	r0, #1	@,
	movw	r1, #:lower16:.LC2	@,
	movt	r1, #:upper16:.LC2	@,
	bl	dprint_vfmw	@
	mov	r0, #0	@ Result,
.L13:
	add	sp, sp, #36	@,,
	ldmfd	sp!, {r4, r5, r6, r7, r8, sl, pc}
.L70:
	cmp	r3, #1280	@ prephitmp.801,
	bne	.L46	@,
	movw	r4, #:lower16:.LANCHOR0	@ tmp12194,
	movt	r4, #:upper16:.LANCHOR0	@ tmp12194,
	add	r7, sp, #12	@ tmp12195,,
	mov	r1, r5	@, pDetPara
	ldr	r3, [r4, #3180]	@ <variable>.Comp, <variable>.Comp
	ldr	r2, [r4, #3184]	@ <variable>.Px, <variable>.Px
	mov	r0, r7	@, tmp12195
	ldr	lr, [r4, #3188]	@ <variable>.Py, <variable>.Py
	str	r3, [sp, #12]	@ <variable>.Comp, SmpPat.Comp
	str	r2, [sp, #16]	@ <variable>.Px, SmpPat.Px
	str	lr, [sp, #20]	@ <variable>.Py, SmpPat.Py
	bl	GetSample	@
	ldrb	ip, [r4, #3193]	@ zero_extendqisi2	@ <variable>.Pix, <variable>.Pix
	ldrb	r6, [sp, #25]	@ zero_extendqisi2	@ SmpPat.Pix, SmpPat.Pix
	ldrb	r8, [r4, #3192]	@ zero_extendqisi2	@ <variable>.Pix, <variable>.Pix
	ldrb	r1, [sp, #24]	@ zero_extendqisi2	@ SmpPat.Pix, SmpPat.Pix
	rsb	r3, r6, ip	@ tmp11241, SmpPat.Pix, <variable>.Pix
	cmp	r3, #0	@ tmp11241,
	ldrb	r2, [sp, #26]	@ zero_extendqisi2	@ SmpPat.Pix, SmpPat.Pix
	rsb	lr, r1, r8	@ tmp11234, SmpPat.Pix, <variable>.Pix
	ldrb	r0, [r4, #3194]	@ zero_extendqisi2	@ <variable>.Pix, <variable>.Pix
	rsblt	r3, r3, #0	@ tmp11242, tmp11241
	cmp	lr, #0	@ tmp11234,
	rsb	r0, r2, r0	@ tmp11248, SmpPat.Pix, <variable>.Pix
	rsblt	lr, lr, #0	@ tmp11235, tmp11234
	ldrb	ip, [sp, #27]	@ zero_extendqisi2	@ SmpPat.Pix, SmpPat.Pix
	cmp	r3, #2	@ tmp11242,
	movle	r8, #0	@, tmp11244
	movgt	r8, #1	@, tmp11244
	ldrb	r6, [r4, #3195]	@ zero_extendqisi2	@ <variable>.Pix, <variable>.Pix
	cmp	lr, #2	@ tmp11235,
	addgt	r8, r8, #1	@,, MisCnt.6727, tmp11244
	cmp	r0, #0	@ tmp11248,
	ldrb	r1, [r4, #3196]	@ zero_extendqisi2	@ <variable>.Pix, <variable>.Pix
	rsb	r6, ip, r6	@ tmp11255, SmpPat.Pix, <variable>.Pix
	rsblt	r0, r0, #0	@ tmp11249, tmp11248
	ldrb	r2, [sp, #28]	@ zero_extendqisi2	@ SmpPat.Pix, SmpPat.Pix
	cmp	r0, #2	@ tmp11249,
	addgt	r8, r8, #1	@,, MisCnt.6735, MisCnt.6727
	cmp	r6, #0	@ tmp11255,
	ldrb	r0, [sp, #29]	@ zero_extendqisi2	@ SmpPat.Pix, SmpPat.Pix
	rsb	r2, r2, r1	@ tmp11262, SmpPat.Pix, <variable>.Pix
	rsblt	r6, r6, #0	@ tmp11256, tmp11255
	ldrb	ip, [r4, #3197]	@ zero_extendqisi2	@ <variable>.Pix, <variable>.Pix
	cmp	r6, #2	@ tmp11256,
	addgt	r8, r8, #1	@,, MisCnt.6743, MisCnt.6735
	cmp	r2, #0	@ tmp11262,
	ldrb	lr, [r4, #3198]	@ zero_extendqisi2	@ <variable>.Pix, <variable>.Pix
	rsb	ip, r0, ip	@ tmp11269, SmpPat.Pix, <variable>.Pix
	rsblt	r2, r2, #0	@ tmp11263, tmp11262
	ldrb	r1, [sp, #30]	@ zero_extendqisi2	@ SmpPat.Pix, SmpPat.Pix
	cmp	r2, #2	@ tmp11263,
	addgt	r8, r8, #1	@,, MisCnt.6751, MisCnt.6743
	cmp	ip, #0	@ tmp11269,
	ldrb	r0, [r4, #3199]	@ zero_extendqisi2	@ <variable>.Pix, <variable>.Pix
	rsb	r1, r1, lr	@ tmp11276, SmpPat.Pix, <variable>.Pix
	rsblt	ip, ip, #0	@ tmp11270, tmp11269
	ldrb	r2, [sp, #31]	@ zero_extendqisi2	@ SmpPat.Pix, SmpPat.Pix
	cmp	ip, #2	@ tmp11270,
	addgt	r8, r8, #1	@,, MisCnt.6759, MisCnt.6751
	cmp	r1, #0	@ tmp11276,
	rsb	r6, r2, r0	@ tmp11283, SmpPat.Pix, <variable>.Pix
	rsblt	r1, r1, #0	@ tmp11277, tmp11276
	cmp	r1, #2	@ tmp11277,
	addgt	r8, r8, #1	@,, MisCnt.6767, MisCnt.6759
	cmp	r6, #0	@ tmp11283,
	rsblt	r6, r6, #0	@ tmp11284, tmp11283
	cmp	r6, #2	@ tmp11284,
	addgt	r8, r8, #1	@,, tmp11287, MisCnt.6767
	cmp	r8, #2	@ tmp11287,
	bgt	.L57	@,
	ldr	r3, [r4, #3200]	@ <variable>.Comp, <variable>.Comp
	mov	r0, r7	@, tmp12195
	ldr	r2, [r4, #3204]	@ <variable>.Px, <variable>.Px
	mov	r1, r5	@, pDetPara
	ldr	lr, [r4, #3208]	@ <variable>.Py, <variable>.Py
	str	r3, [sp, #12]	@ <variable>.Comp, SmpPat.Comp
	str	r2, [sp, #16]	@ <variable>.Px, SmpPat.Px
	str	lr, [sp, #20]	@ <variable>.Py, SmpPat.Py
	bl	GetSample	@
	ldrb	ip, [r4, #3213]	@ zero_extendqisi2	@ <variable>.Pix, <variable>.Pix
	ldrb	r6, [sp, #25]	@ zero_extendqisi2	@ SmpPat.Pix, SmpPat.Pix
	ldrb	r8, [r4, #3212]	@ zero_extendqisi2	@ <variable>.Pix, <variable>.Pix
	ldrb	r1, [sp, #24]	@ zero_extendqisi2	@ SmpPat.Pix, SmpPat.Pix
	rsb	r3, r6, ip	@ tmp11305, SmpPat.Pix, <variable>.Pix
	cmp	r3, #0	@ tmp11305,
	ldrb	r2, [sp, #26]	@ zero_extendqisi2	@ SmpPat.Pix, SmpPat.Pix
	rsb	lr, r1, r8	@ tmp11298, SmpPat.Pix, <variable>.Pix
	ldrb	r0, [r4, #3214]	@ zero_extendqisi2	@ <variable>.Pix, <variable>.Pix
	rsblt	r3, r3, #0	@ tmp11306, tmp11305
	cmp	lr, #0	@ tmp11298,
	rsb	r0, r2, r0	@ tmp11312, SmpPat.Pix, <variable>.Pix
	rsblt	lr, lr, #0	@ tmp11299, tmp11298
	ldrb	ip, [sp, #27]	@ zero_extendqisi2	@ SmpPat.Pix, SmpPat.Pix
	cmp	r3, #2	@ tmp11306,
	movle	r8, #0	@, tmp11308
	movgt	r8, #1	@, tmp11308
	ldrb	r6, [r4, #3215]	@ zero_extendqisi2	@ <variable>.Pix, <variable>.Pix
	cmp	lr, #2	@ tmp11299,
	addgt	r8, r8, #1	@,, MisCnt.6793, tmp11308
	cmp	r0, #0	@ tmp11312,
	ldrb	r1, [r4, #3216]	@ zero_extendqisi2	@ <variable>.Pix, <variable>.Pix
	rsb	r6, ip, r6	@ tmp11319, SmpPat.Pix, <variable>.Pix
	rsblt	r0, r0, #0	@ tmp11313, tmp11312
	ldrb	r2, [sp, #28]	@ zero_extendqisi2	@ SmpPat.Pix, SmpPat.Pix
	cmp	r0, #2	@ tmp11313,
	addgt	r8, r8, #1	@,, MisCnt.6801, MisCnt.6793
	cmp	r6, #0	@ tmp11319,
	ldrb	r0, [sp, #29]	@ zero_extendqisi2	@ SmpPat.Pix, SmpPat.Pix
	rsb	r2, r2, r1	@ tmp11326, SmpPat.Pix, <variable>.Pix
	rsblt	r6, r6, #0	@ tmp11320, tmp11319
	ldrb	ip, [r4, #3217]	@ zero_extendqisi2	@ <variable>.Pix, <variable>.Pix
	cmp	r6, #2	@ tmp11320,
	addgt	r8, r8, #1	@,, MisCnt.6809, MisCnt.6801
	cmp	r2, #0	@ tmp11326,
	ldrb	lr, [r4, #3218]	@ zero_extendqisi2	@ <variable>.Pix, <variable>.Pix
	rsb	ip, r0, ip	@ tmp11333, SmpPat.Pix, <variable>.Pix
	rsblt	r2, r2, #0	@ tmp11327, tmp11326
	ldrb	r1, [sp, #30]	@ zero_extendqisi2	@ SmpPat.Pix, SmpPat.Pix
	cmp	r2, #2	@ tmp11327,
	addgt	r8, r8, #1	@,, MisCnt.6817, MisCnt.6809
	cmp	ip, #0	@ tmp11333,
	ldrb	r0, [r4, #3219]	@ zero_extendqisi2	@ <variable>.Pix, <variable>.Pix
	rsb	r1, r1, lr	@ tmp11340, SmpPat.Pix, <variable>.Pix
	rsblt	ip, ip, #0	@ tmp11334, tmp11333
	ldrb	r2, [sp, #31]	@ zero_extendqisi2	@ SmpPat.Pix, SmpPat.Pix
	cmp	ip, #2	@ tmp11334,
	addgt	r8, r8, #1	@,, MisCnt.6825, MisCnt.6817
	cmp	r1, #0	@ tmp11340,
	rsb	r6, r2, r0	@ tmp11347, SmpPat.Pix, <variable>.Pix
	rsblt	r1, r1, #0	@ tmp11341, tmp11340
	cmp	r1, #2	@ tmp11341,
	addgt	r8, r8, #1	@,, MisCnt.6833, MisCnt.6825
	cmp	r6, #0	@ tmp11347,
	rsblt	r6, r6, #0	@ tmp11348, tmp11347
	cmp	r6, #2	@ tmp11348,
	addgt	r8, r8, #1	@,, tmp11351, MisCnt.6833
	cmp	r8, #2	@ tmp11351,
	bgt	.L57	@,
	ldr	r3, [r4, #3220]	@ <variable>.Comp, <variable>.Comp
	mov	r0, r7	@, tmp12195
	ldr	r2, [r4, #3224]	@ <variable>.Px, <variable>.Px
	mov	r1, r5	@, pDetPara
	ldr	lr, [r4, #3228]	@ <variable>.Py, <variable>.Py
	str	r3, [sp, #12]	@ <variable>.Comp, SmpPat.Comp
	str	r2, [sp, #16]	@ <variable>.Px, SmpPat.Px
	str	lr, [sp, #20]	@ <variable>.Py, SmpPat.Py
	bl	GetSample	@
	ldrb	ip, [r4, #3233]	@ zero_extendqisi2	@ <variable>.Pix, <variable>.Pix
	ldrb	r6, [sp, #25]	@ zero_extendqisi2	@ SmpPat.Pix, SmpPat.Pix
	ldrb	r8, [r4, #3232]	@ zero_extendqisi2	@ <variable>.Pix, <variable>.Pix
	ldrb	r1, [sp, #24]	@ zero_extendqisi2	@ SmpPat.Pix, SmpPat.Pix
	rsb	r3, r6, ip	@ tmp11369, SmpPat.Pix, <variable>.Pix
	cmp	r3, #0	@ tmp11369,
	ldrb	r2, [sp, #26]	@ zero_extendqisi2	@ SmpPat.Pix, SmpPat.Pix
	rsb	lr, r1, r8	@ tmp11362, SmpPat.Pix, <variable>.Pix
	ldrb	r0, [r4, #3234]	@ zero_extendqisi2	@ <variable>.Pix, <variable>.Pix
	rsblt	r3, r3, #0	@ tmp11370, tmp11369
	cmp	lr, #0	@ tmp11362,
	rsb	r0, r2, r0	@ tmp11376, SmpPat.Pix, <variable>.Pix
	rsblt	lr, lr, #0	@ tmp11363, tmp11362
	ldrb	ip, [sp, #27]	@ zero_extendqisi2	@ SmpPat.Pix, SmpPat.Pix
	cmp	r3, #2	@ tmp11370,
	movle	r8, #0	@, tmp11372
	movgt	r8, #1	@, tmp11372
	ldrb	r6, [r4, #3235]	@ zero_extendqisi2	@ <variable>.Pix, <variable>.Pix
	cmp	lr, #2	@ tmp11363,
	addgt	r8, r8, #1	@,, MisCnt.6859, tmp11372
	cmp	r0, #0	@ tmp11376,
	ldrb	r1, [r4, #3236]	@ zero_extendqisi2	@ <variable>.Pix, <variable>.Pix
	rsb	r6, ip, r6	@ tmp11383, SmpPat.Pix, <variable>.Pix
	rsblt	r0, r0, #0	@ tmp11377, tmp11376
	ldrb	r2, [sp, #28]	@ zero_extendqisi2	@ SmpPat.Pix, SmpPat.Pix
	cmp	r0, #2	@ tmp11377,
	addgt	r8, r8, #1	@,, MisCnt.6867, MisCnt.6859
	cmp	r6, #0	@ tmp11383,
	ldrb	r0, [sp, #29]	@ zero_extendqisi2	@ SmpPat.Pix, SmpPat.Pix
	rsb	r2, r2, r1	@ tmp11390, SmpPat.Pix, <variable>.Pix
	rsblt	r6, r6, #0	@ tmp11384, tmp11383
	ldrb	ip, [r4, #3237]	@ zero_extendqisi2	@ <variable>.Pix, <variable>.Pix
	cmp	r6, #2	@ tmp11384,
	addgt	r8, r8, #1	@,, MisCnt.6875, MisCnt.6867
	cmp	r2, #0	@ tmp11390,
	ldrb	lr, [r4, #3238]	@ zero_extendqisi2	@ <variable>.Pix, <variable>.Pix
	rsb	ip, r0, ip	@ tmp11397, SmpPat.Pix, <variable>.Pix
	rsblt	r2, r2, #0	@ tmp11391, tmp11390
	ldrb	r1, [sp, #30]	@ zero_extendqisi2	@ SmpPat.Pix, SmpPat.Pix
	cmp	r2, #2	@ tmp11391,
	addgt	r8, r8, #1	@,, MisCnt.6883, MisCnt.6875
	cmp	ip, #0	@ tmp11397,
	ldrb	r0, [r4, #3239]	@ zero_extendqisi2	@ <variable>.Pix, <variable>.Pix
	rsb	r1, r1, lr	@ tmp11404, SmpPat.Pix, <variable>.Pix
	rsblt	ip, ip, #0	@ tmp11398, tmp11397
	ldrb	r2, [sp, #31]	@ zero_extendqisi2	@ SmpPat.Pix, SmpPat.Pix
	cmp	ip, #2	@ tmp11398,
	addgt	r8, r8, #1	@,, MisCnt.6891, MisCnt.6883
	cmp	r1, #0	@ tmp11404,
	rsb	r6, r2, r0	@ tmp11411, SmpPat.Pix, <variable>.Pix
	rsblt	r1, r1, #0	@ tmp11405, tmp11404
	cmp	r1, #2	@ tmp11405,
	addgt	r8, r8, #1	@,, MisCnt.6899, MisCnt.6891
	cmp	r6, #0	@ tmp11411,
	rsblt	r6, r6, #0	@ tmp11412, tmp11411
	cmp	r6, #2	@ tmp11412,
	addgt	r8, r8, #1	@,, tmp11415, MisCnt.6899
	cmp	r8, #2	@ tmp11415,
	bgt	.L57	@,
	ldr	r3, [r4, #3240]	@ <variable>.Comp, <variable>.Comp
	mov	r0, r7	@, tmp12195
	ldr	r2, [r4, #3244]	@ <variable>.Px, <variable>.Px
	mov	r1, r5	@, pDetPara
	ldr	lr, [r4, #3248]	@ <variable>.Py, <variable>.Py
	str	r3, [sp, #12]	@ <variable>.Comp, SmpPat.Comp
	str	r2, [sp, #16]	@ <variable>.Px, SmpPat.Px
	str	lr, [sp, #20]	@ <variable>.Py, SmpPat.Py
	bl	GetSample	@
	ldrb	ip, [r4, #3253]	@ zero_extendqisi2	@ <variable>.Pix, <variable>.Pix
	ldrb	r6, [sp, #25]	@ zero_extendqisi2	@ SmpPat.Pix, SmpPat.Pix
	ldrb	r8, [r4, #3252]	@ zero_extendqisi2	@ <variable>.Pix, <variable>.Pix
	ldrb	r1, [sp, #24]	@ zero_extendqisi2	@ SmpPat.Pix, SmpPat.Pix
	rsb	r3, r6, ip	@ tmp11433, SmpPat.Pix, <variable>.Pix
	cmp	r3, #0	@ tmp11433,
	ldrb	r2, [sp, #26]	@ zero_extendqisi2	@ SmpPat.Pix, SmpPat.Pix
	rsb	lr, r1, r8	@ tmp11426, SmpPat.Pix, <variable>.Pix
	ldrb	r0, [r4, #3254]	@ zero_extendqisi2	@ <variable>.Pix, <variable>.Pix
	rsblt	r3, r3, #0	@ tmp11434, tmp11433
	cmp	lr, #0	@ tmp11426,
	rsb	r0, r2, r0	@ tmp11440, SmpPat.Pix, <variable>.Pix
	rsblt	lr, lr, #0	@ tmp11427, tmp11426
	ldrb	ip, [sp, #27]	@ zero_extendqisi2	@ SmpPat.Pix, SmpPat.Pix
	cmp	r3, #2	@ tmp11434,
	movle	r8, #0	@, tmp11436
	movgt	r8, #1	@, tmp11436
	ldrb	r6, [r4, #3255]	@ zero_extendqisi2	@ <variable>.Pix, <variable>.Pix
	cmp	lr, #2	@ tmp11427,
	addgt	r8, r8, #1	@,, MisCnt.6925, tmp11436
	cmp	r0, #0	@ tmp11440,
	ldrb	r1, [r4, #3256]	@ zero_extendqisi2	@ <variable>.Pix, <variable>.Pix
	rsb	r6, ip, r6	@ tmp11447, SmpPat.Pix, <variable>.Pix
	rsblt	r0, r0, #0	@ tmp11441, tmp11440
	ldrb	r2, [sp, #28]	@ zero_extendqisi2	@ SmpPat.Pix, SmpPat.Pix
	cmp	r0, #2	@ tmp11441,
	addgt	r8, r8, #1	@,, MisCnt.6933, MisCnt.6925
	cmp	r6, #0	@ tmp11447,
	ldrb	r0, [sp, #29]	@ zero_extendqisi2	@ SmpPat.Pix, SmpPat.Pix
	rsb	r2, r2, r1	@ tmp11454, SmpPat.Pix, <variable>.Pix
	rsblt	r6, r6, #0	@ tmp11448, tmp11447
	ldrb	ip, [r4, #3257]	@ zero_extendqisi2	@ <variable>.Pix, <variable>.Pix
	cmp	r6, #2	@ tmp11448,
	addgt	r8, r8, #1	@,, MisCnt.6941, MisCnt.6933
	cmp	r2, #0	@ tmp11454,
	ldrb	lr, [r4, #3258]	@ zero_extendqisi2	@ <variable>.Pix, <variable>.Pix
	rsb	ip, r0, ip	@ tmp11461, SmpPat.Pix, <variable>.Pix
	rsblt	r2, r2, #0	@ tmp11455, tmp11454
	ldrb	r1, [sp, #30]	@ zero_extendqisi2	@ SmpPat.Pix, SmpPat.Pix
	cmp	r2, #2	@ tmp11455,
	addgt	r8, r8, #1	@,, MisCnt.6949, MisCnt.6941
	cmp	ip, #0	@ tmp11461,
	ldrb	r0, [r4, #3259]	@ zero_extendqisi2	@ <variable>.Pix, <variable>.Pix
	rsb	r1, r1, lr	@ tmp11468, SmpPat.Pix, <variable>.Pix
	rsblt	ip, ip, #0	@ tmp11462, tmp11461
	ldrb	r2, [sp, #31]	@ zero_extendqisi2	@ SmpPat.Pix, SmpPat.Pix
	cmp	ip, #2	@ tmp11462,
	addgt	r8, r8, #1	@,, MisCnt.6957, MisCnt.6949
	cmp	r1, #0	@ tmp11468,
	rsb	r6, r2, r0	@ tmp11475, SmpPat.Pix, <variable>.Pix
	rsblt	r1, r1, #0	@ tmp11469, tmp11468
	cmp	r1, #2	@ tmp11469,
	addgt	r8, r8, #1	@,, MisCnt.6965, MisCnt.6957
	cmp	r6, #0	@ tmp11475,
	rsblt	r6, r6, #0	@ tmp11476, tmp11475
	cmp	r6, #2	@ tmp11476,
	addgt	r8, r8, #1	@,, tmp11479, MisCnt.6965
	cmp	r8, #2	@ tmp11479,
	bgt	.L57	@,
	ldr	r3, [r4, #3260]	@ <variable>.Comp, <variable>.Comp
	mov	r0, r7	@, tmp12195
	ldr	r2, [r4, #3264]	@ <variable>.Px, <variable>.Px
	mov	r1, r5	@, pDetPara
	ldr	lr, [r4, #3268]	@ <variable>.Py, <variable>.Py
	str	r3, [sp, #12]	@ <variable>.Comp, SmpPat.Comp
	str	r2, [sp, #16]	@ <variable>.Px, SmpPat.Px
	str	lr, [sp, #20]	@ <variable>.Py, SmpPat.Py
	bl	GetSample	@
	ldrb	r6, [r4, #3273]	@ zero_extendqisi2	@ <variable>.Pix, <variable>.Pix
	ldrb	ip, [sp, #25]	@ zero_extendqisi2	@ SmpPat.Pix, SmpPat.Pix
	ldrb	r8, [r4, #3272]	@ zero_extendqisi2	@ <variable>.Pix, <variable>.Pix
	ldrb	r1, [sp, #24]	@ zero_extendqisi2	@ SmpPat.Pix, SmpPat.Pix
	rsb	r3, ip, r6	@ tmp11497, SmpPat.Pix, <variable>.Pix
	cmp	r3, #0	@ tmp11497,
	ldrb	r2, [sp, #26]	@ zero_extendqisi2	@ SmpPat.Pix, SmpPat.Pix
	rsb	r6, r1, r8	@ tmp11490, SmpPat.Pix, <variable>.Pix
	ldrb	r0, [r4, #3274]	@ zero_extendqisi2	@ <variable>.Pix, <variable>.Pix
	rsblt	r3, r3, #0	@ tmp11498, tmp11497
	cmp	r6, #0	@ tmp11490,
	rsb	r0, r2, r0	@ tmp11504, SmpPat.Pix, <variable>.Pix
	rsblt	r6, r6, #0	@ tmp11491, tmp11490
	ldrb	ip, [sp, #27]	@ zero_extendqisi2	@ SmpPat.Pix, SmpPat.Pix
	cmp	r3, #2	@ tmp11498,
	movle	r3, #0	@, tmp11500
	movgt	r3, #1	@, tmp11500
	ldrb	r8, [r4, #3275]	@ zero_extendqisi2	@ <variable>.Pix, <variable>.Pix
	cmp	r6, #2	@ tmp11491,
	addgt	r3, r3, #1	@,, MisCnt.2144, tmp11500
	cmp	r0, #0	@ tmp11504,
	ldrb	r1, [r4, #3276]	@ zero_extendqisi2	@ <variable>.Pix, <variable>.Pix
	rsb	r8, ip, r8	@ tmp11511, SmpPat.Pix, <variable>.Pix
	rsblt	r0, r0, #0	@ tmp11505, tmp11504
	ldrb	r2, [sp, #28]	@ zero_extendqisi2	@ SmpPat.Pix, SmpPat.Pix
	cmp	r0, #2	@ tmp11505,
	addgt	r3, r3, #1	@,, MisCnt.2155, MisCnt.2144
	cmp	r8, #0	@ tmp11511,
	ldrb	r0, [sp, #29]	@ zero_extendqisi2	@ SmpPat.Pix, SmpPat.Pix
	rsb	r2, r2, r1	@ tmp11518, SmpPat.Pix, <variable>.Pix
	rsblt	r8, r8, #0	@ tmp11512, tmp11511
	ldrb	ip, [r4, #3277]	@ zero_extendqisi2	@ <variable>.Pix, <variable>.Pix
	cmp	r8, #2	@ tmp11512,
	addgt	r3, r3, #1	@,, MisCnt.2166, MisCnt.2155
	cmp	r2, #0	@ tmp11518,
	ldrb	r6, [r4, #3278]	@ zero_extendqisi2	@ <variable>.Pix, <variable>.Pix
	rsb	ip, r0, ip	@ tmp11525, SmpPat.Pix, <variable>.Pix
	rsblt	r2, r2, #0	@ tmp11519, tmp11518
	ldrb	r1, [sp, #30]	@ zero_extendqisi2	@ SmpPat.Pix, SmpPat.Pix
	cmp	r2, #2	@ tmp11519,
	addgt	r3, r3, #1	@,, MisCnt.2175, MisCnt.2166
	cmp	ip, #0	@ tmp11525,
	ldrb	r0, [r4, #3279]	@ zero_extendqisi2	@ <variable>.Pix, <variable>.Pix
	rsblt	ip, ip, #0	@ tmp11526, tmp11525
	rsb	r1, r1, r6	@ tmp11532, SmpPat.Pix, <variable>.Pix
	ldrb	r2, [sp, #31]	@ zero_extendqisi2	@ SmpPat.Pix, SmpPat.Pix
	cmp	ip, #2	@ tmp11526,
	addgt	r3, r3, #1	@,, MisCnt.2186, MisCnt.2175
	cmp	r1, #0	@ tmp11532,
	rsb	ip, r2, r0	@ tmp11539, SmpPat.Pix, <variable>.Pix
	rsblt	r1, r1, #0	@ tmp11533, tmp11532
	cmp	r1, #2	@ tmp11533,
	addgt	r3, r3, #1	@,, MisCnt.2197, MisCnt.2186
	cmp	ip, #0	@ tmp11539,
	rsblt	ip, ip, #0	@ tmp11540, tmp11539
	cmp	ip, #2	@ tmp11540,
	addgt	r3, r3, #1	@,, tmp11543, MisCnt.2197
	cmp	r3, #2	@ tmp11543,
	movle	r0, #5	@ Result,
	ble	.L13	@,
.L57:
	ldr	ip, [r4, #3280]	@ <variable>.Comp, <variable>.Comp
	mov	r0, r7	@, tmp12195
	ldr	r2, [r4, #3284]	@ <variable>.Px, <variable>.Px
	mov	r1, r5	@, pDetPara
	ldr	lr, [r4, #3288]	@ <variable>.Py, <variable>.Py
	movw	r6, #:lower16:.LANCHOR0	@ tmp11544,
	str	ip, [sp, #12]	@ <variable>.Comp, SmpPat.Comp
	movt	r6, #:upper16:.LANCHOR0	@ tmp11544,
	str	r2, [sp, #16]	@ <variable>.Px, SmpPat.Px
	str	lr, [sp, #20]	@ <variable>.Py, SmpPat.Py
	bl	GetSample	@
	ldrb	r1, [r4, #3293]	@ zero_extendqisi2	@ <variable>.Pix, <variable>.Pix
	ldrb	r8, [sp, #25]	@ zero_extendqisi2	@ SmpPat.Pix, SmpPat.Pix
	ldrb	r0, [r4, #3292]	@ zero_extendqisi2	@ <variable>.Pix, <variable>.Pix
	ldrb	r3, [sp, #24]	@ zero_extendqisi2	@ SmpPat.Pix, SmpPat.Pix
	rsb	sl, r8, r1	@ tmp11561, SmpPat.Pix, <variable>.Pix
	cmp	sl, #0	@ tmp11561,
	ldrb	ip, [r4, #3294]	@ zero_extendqisi2	@ <variable>.Pix, <variable>.Pix
	rsb	r8, r3, r0	@ tmp11554, SmpPat.Pix, <variable>.Pix
	ldrb	r2, [sp, #26]	@ zero_extendqisi2	@ SmpPat.Pix, SmpPat.Pix
	rsblt	sl, sl, #0	@ tmp11562, tmp11561
	cmp	r8, #0	@ tmp11554,
	rsblt	r8, r8, #0	@ tmp11555, tmp11554
	ldrb	r0, [r4, #3295]	@ zero_extendqisi2	@ <variable>.Pix, <variable>.Pix
	cmp	sl, #2	@ tmp11562,
	movle	r1, #0	@, tmp11564
	movgt	r1, #1	@, tmp11564
	ldrb	r3, [sp, #27]	@ zero_extendqisi2	@ SmpPat.Pix, SmpPat.Pix
	rsb	sl, r2, ip	@ tmp11568, SmpPat.Pix, <variable>.Pix
	cmp	r8, #2	@ tmp11555,
	addgt	r1, r1, #1	@,, MisCnt.6991, tmp11564
	cmp	sl, #0	@ tmp11568,
	rsb	r3, r3, r0	@ tmp11575, SmpPat.Pix, <variable>.Pix
	ldrb	r2, [sp, #28]	@ zero_extendqisi2	@ SmpPat.Pix, SmpPat.Pix
	rsblt	sl, sl, #0	@ tmp11569, tmp11568
	ldrb	ip, [r4, #3296]	@ zero_extendqisi2	@ <variable>.Pix, <variable>.Pix
	cmp	sl, #2	@ tmp11569,
	movle	sl, r1	@, MisCnt.6999, MisCnt.6991
	addgt	sl, r1, #1	@,, MisCnt.6999, MisCnt.6991
	cmp	r3, #0	@ tmp11575,
	ldrb	r0, [r4, #3297]	@ zero_extendqisi2	@ <variable>.Pix, <variable>.Pix
	rsb	ip, r2, ip	@ tmp11582, SmpPat.Pix, <variable>.Pix
	rsblt	r3, r3, #0	@ tmp11576, tmp11575
	ldrb	r1, [sp, #29]	@ zero_extendqisi2	@ SmpPat.Pix, SmpPat.Pix
	cmp	r3, #2	@ tmp11576,
	movle	r3, sl	@, MisCnt.7007, MisCnt.6999
	addgt	r3, sl, #1	@,, MisCnt.7007, MisCnt.6999
	cmp	ip, #0	@ tmp11582,
	ldrb	r8, [r4, #3298]	@ zero_extendqisi2	@ <variable>.Pix, <variable>.Pix
	rsb	r1, r1, r0	@ tmp11589, SmpPat.Pix, <variable>.Pix
	rsblt	ip, ip, #0	@ tmp11583, tmp11582
	ldrb	r2, [sp, #30]	@ zero_extendqisi2	@ SmpPat.Pix, SmpPat.Pix
	cmp	ip, #2	@ tmp11583,
	movle	ip, r3	@, MisCnt.7015, MisCnt.7007
	addgt	ip, r3, #1	@,, MisCnt.7015, MisCnt.7007
	cmp	r1, #0	@ tmp11589,
	ldrb	r0, [r4, #3299]	@ zero_extendqisi2	@ <variable>.Pix, <variable>.Pix
	rsb	r2, r2, r8	@ tmp11596, SmpPat.Pix, <variable>.Pix
	rsblt	r1, r1, #0	@ tmp11590, tmp11589
	ldrb	r3, [sp, #31]	@ zero_extendqisi2	@ SmpPat.Pix, SmpPat.Pix
	cmp	r1, #2	@ tmp11590,
	movle	r1, ip	@, MisCnt.7023, MisCnt.7015
	addgt	r1, ip, #1	@,, MisCnt.7023, MisCnt.7015
	cmp	r2, #0	@ tmp11596,
	rsb	ip, r3, r0	@ tmp11603, SmpPat.Pix, <variable>.Pix
	rsblt	r2, r2, #0	@ tmp11597, tmp11596
	cmp	r2, #2	@ tmp11597,
	movle	r2, r1	@, MisCnt.7031, MisCnt.7023
	addgt	r2, r1, #1	@,, MisCnt.7031, MisCnt.7023
	cmp	ip, #0	@ tmp11603,
	rsblt	ip, ip, #0	@ tmp11604, tmp11603
	cmp	ip, #2	@ tmp11604,
	movle	r0, r2	@, tmp11607, MisCnt.7031
	addgt	r0, r2, #1	@,, tmp11607, MisCnt.7031
	cmp	r0, #2	@ tmp11607,
	bgt	.L46	@,
	ldr	r3, [r6, #3300]	@ <variable>.Comp, <variable>.Comp
	mov	r0, r7	@, tmp12195
	ldr	r2, [r6, #3304]	@ <variable>.Px, <variable>.Px
	mov	r1, r5	@, pDetPara
	ldr	lr, [r6, #3308]	@ <variable>.Py, <variable>.Py
	str	r3, [sp, #12]	@ <variable>.Comp, SmpPat.Comp
	str	r2, [sp, #16]	@ <variable>.Px, SmpPat.Px
	str	lr, [sp, #20]	@ <variable>.Py, SmpPat.Py
	bl	GetSample	@
	ldrb	r4, [r6, #3313]	@ zero_extendqisi2	@ <variable>.Pix, <variable>.Pix
	ldrb	ip, [sp, #25]	@ zero_extendqisi2	@ SmpPat.Pix, SmpPat.Pix
	ldrb	r8, [r6, #3312]	@ zero_extendqisi2	@ <variable>.Pix, <variable>.Pix
	ldrb	r1, [sp, #24]	@ zero_extendqisi2	@ SmpPat.Pix, SmpPat.Pix
	rsb	r3, ip, r4	@ tmp11625, SmpPat.Pix, <variable>.Pix
	cmp	r3, #0	@ tmp11625,
	ldrb	r2, [sp, #26]	@ zero_extendqisi2	@ SmpPat.Pix, SmpPat.Pix
	rsb	r4, r1, r8	@ tmp11618, SmpPat.Pix, <variable>.Pix
	ldrb	r0, [r6, #3314]	@ zero_extendqisi2	@ <variable>.Pix, <variable>.Pix
	rsblt	r3, r3, #0	@ tmp11626, tmp11625
	cmp	r4, #0	@ tmp11618,
	rsb	r0, r2, r0	@ tmp11632, SmpPat.Pix, <variable>.Pix
	rsblt	r4, r4, #0	@ tmp11619, tmp11618
	ldrb	ip, [sp, #27]	@ zero_extendqisi2	@ SmpPat.Pix, SmpPat.Pix
	cmp	r3, #2	@ tmp11626,
	movle	r3, #0	@, tmp11628
	movgt	r3, #1	@, tmp11628
	ldrb	r8, [r6, #3315]	@ zero_extendqisi2	@ <variable>.Pix, <variable>.Pix
	cmp	r4, #2	@ tmp11619,
	addgt	r3, r3, #1	@,, MisCnt.7057, tmp11628
	cmp	r0, #0	@ tmp11632,
	ldrb	r1, [r6, #3316]	@ zero_extendqisi2	@ <variable>.Pix, <variable>.Pix
	rsb	r8, ip, r8	@ tmp11639, SmpPat.Pix, <variable>.Pix
	rsblt	r0, r0, #0	@ tmp11633, tmp11632
	ldrb	r2, [sp, #28]	@ zero_extendqisi2	@ SmpPat.Pix, SmpPat.Pix
	cmp	r0, #2	@ tmp11633,
	addgt	r3, r3, #1	@,, MisCnt.7065, MisCnt.7057
	cmp	r8, #0	@ tmp11639,
	ldrb	r0, [sp, #29]	@ zero_extendqisi2	@ SmpPat.Pix, SmpPat.Pix
	rsb	r2, r2, r1	@ tmp11646, SmpPat.Pix, <variable>.Pix
	rsblt	r8, r8, #0	@ tmp11640, tmp11639
	ldrb	ip, [r6, #3317]	@ zero_extendqisi2	@ <variable>.Pix, <variable>.Pix
	cmp	r8, #2	@ tmp11640,
	addgt	r3, r3, #1	@,, MisCnt.7073, MisCnt.7065
	cmp	r2, #0	@ tmp11646,
	ldrb	r4, [r6, #3318]	@ zero_extendqisi2	@ <variable>.Pix, <variable>.Pix
	rsb	ip, r0, ip	@ tmp11653, SmpPat.Pix, <variable>.Pix
	rsblt	r2, r2, #0	@ tmp11647, tmp11646
	ldrb	r1, [sp, #30]	@ zero_extendqisi2	@ SmpPat.Pix, SmpPat.Pix
	cmp	r2, #2	@ tmp11647,
	addgt	r3, r3, #1	@,, MisCnt.7081, MisCnt.7073
	cmp	ip, #0	@ tmp11653,
	ldrb	r0, [r6, #3319]	@ zero_extendqisi2	@ <variable>.Pix, <variable>.Pix
	rsb	r1, r1, r4	@ tmp11660, SmpPat.Pix, <variable>.Pix
	rsblt	ip, ip, #0	@ tmp11654, tmp11653
	ldrb	r2, [sp, #31]	@ zero_extendqisi2	@ SmpPat.Pix, SmpPat.Pix
	cmp	ip, #2	@ tmp11654,
	addgt	r3, r3, #1	@,, MisCnt.7089, MisCnt.7081
	cmp	r1, #0	@ tmp11660,
	rsb	r2, r2, r0	@ tmp11667, SmpPat.Pix, <variable>.Pix
	rsblt	r1, r1, #0	@ tmp11661, tmp11660
	cmp	r1, #2	@ tmp11661,
	addgt	r3, r3, #1	@,, MisCnt.7097, MisCnt.7089
	cmp	r2, #0	@ tmp11667,
	rsblt	r2, r2, #0	@ tmp11668, tmp11667
	cmp	r2, #2	@ tmp11668,
	addgt	r3, r3, #1	@,, tmp11671, MisCnt.7097
	cmp	r3, #2	@ tmp11671,
	bgt	.L46	@,
	ldr	r3, [r6, #3320]	@ <variable>.Comp, <variable>.Comp
	mov	r0, r7	@, tmp12195
	ldr	r2, [r6, #3324]	@ <variable>.Px, <variable>.Px
	mov	r1, r5	@, pDetPara
	ldr	lr, [r6, #3328]	@ <variable>.Py, <variable>.Py
	str	r3, [sp, #12]	@ <variable>.Comp, SmpPat.Comp
	str	r2, [sp, #16]	@ <variable>.Px, SmpPat.Px
	str	lr, [sp, #20]	@ <variable>.Py, SmpPat.Py
	bl	GetSample	@
	ldrb	r4, [r6, #3333]	@ zero_extendqisi2	@ <variable>.Pix, <variable>.Pix
	ldrb	ip, [sp, #25]	@ zero_extendqisi2	@ SmpPat.Pix, SmpPat.Pix
	ldrb	r8, [r6, #3332]	@ zero_extendqisi2	@ <variable>.Pix, <variable>.Pix
	ldrb	r1, [sp, #24]	@ zero_extendqisi2	@ SmpPat.Pix, SmpPat.Pix
	rsb	r3, ip, r4	@ tmp11689, SmpPat.Pix, <variable>.Pix
	cmp	r3, #0	@ tmp11689,
	ldrb	r2, [sp, #26]	@ zero_extendqisi2	@ SmpPat.Pix, SmpPat.Pix
	rsb	r4, r1, r8	@ tmp11682, SmpPat.Pix, <variable>.Pix
	ldrb	r0, [r6, #3334]	@ zero_extendqisi2	@ <variable>.Pix, <variable>.Pix
	rsblt	r3, r3, #0	@ tmp11690, tmp11689
	cmp	r4, #0	@ tmp11682,
	rsb	r0, r2, r0	@ tmp11696, SmpPat.Pix, <variable>.Pix
	rsblt	r4, r4, #0	@ tmp11683, tmp11682
	ldrb	ip, [sp, #27]	@ zero_extendqisi2	@ SmpPat.Pix, SmpPat.Pix
	cmp	r3, #2	@ tmp11690,
	movle	r3, #0	@, tmp11692
	movgt	r3, #1	@, tmp11692
	ldrb	r8, [r6, #3335]	@ zero_extendqisi2	@ <variable>.Pix, <variable>.Pix
	cmp	r4, #2	@ tmp11683,
	addgt	r3, r3, #1	@,, MisCnt.7123, tmp11692
	cmp	r0, #0	@ tmp11696,
	ldrb	r1, [r6, #3336]	@ zero_extendqisi2	@ <variable>.Pix, <variable>.Pix
	rsb	r8, ip, r8	@ tmp11703, SmpPat.Pix, <variable>.Pix
	rsblt	r0, r0, #0	@ tmp11697, tmp11696
	ldrb	r2, [sp, #28]	@ zero_extendqisi2	@ SmpPat.Pix, SmpPat.Pix
	cmp	r0, #2	@ tmp11697,
	addgt	r3, r3, #1	@,, MisCnt.7131, MisCnt.7123
	cmp	r8, #0	@ tmp11703,
	ldrb	r0, [sp, #29]	@ zero_extendqisi2	@ SmpPat.Pix, SmpPat.Pix
	rsb	r2, r2, r1	@ tmp11710, SmpPat.Pix, <variable>.Pix
	rsblt	r8, r8, #0	@ tmp11704, tmp11703
	ldrb	ip, [r6, #3337]	@ zero_extendqisi2	@ <variable>.Pix, <variable>.Pix
	cmp	r8, #2	@ tmp11704,
	addgt	r3, r3, #1	@,, MisCnt.7139, MisCnt.7131
	cmp	r2, #0	@ tmp11710,
	ldrb	r4, [r6, #3338]	@ zero_extendqisi2	@ <variable>.Pix, <variable>.Pix
	rsb	ip, r0, ip	@ tmp11717, SmpPat.Pix, <variable>.Pix
	rsblt	r2, r2, #0	@ tmp11711, tmp11710
	ldrb	r1, [sp, #30]	@ zero_extendqisi2	@ SmpPat.Pix, SmpPat.Pix
	cmp	r2, #2	@ tmp11711,
	addgt	r3, r3, #1	@,, MisCnt.7147, MisCnt.7139
	cmp	ip, #0	@ tmp11717,
	ldrb	r0, [r6, #3339]	@ zero_extendqisi2	@ <variable>.Pix, <variable>.Pix
	rsblt	ip, ip, #0	@ tmp11718, tmp11717
	rsb	r1, r1, r4	@ tmp11724, SmpPat.Pix, <variable>.Pix
	ldrb	r2, [sp, #31]	@ zero_extendqisi2	@ SmpPat.Pix, SmpPat.Pix
	cmp	ip, #2	@ tmp11718,
	addgt	r3, r3, #1	@,, MisCnt.7155, MisCnt.7147
	cmp	r1, #0	@ tmp11724,
	rsb	ip, r2, r0	@ tmp11731, SmpPat.Pix, <variable>.Pix
	rsblt	r1, r1, #0	@ tmp11725, tmp11724
	cmp	r1, #2	@ tmp11725,
	addgt	r3, r3, #1	@,, MisCnt.7163, MisCnt.7155
	cmp	ip, #0	@ tmp11731,
	rsblt	ip, ip, #0	@ tmp11732, tmp11731
	cmp	ip, #2	@ tmp11732,
	addgt	r3, r3, #1	@,, tmp11735, MisCnt.7163
	cmp	r3, #2	@ tmp11735,
	bgt	.L46	@,
	ldr	r3, [r6, #3340]	@ <variable>.Comp, <variable>.Comp
	mov	r0, r7	@, tmp12195
	ldr	r2, [r6, #3344]	@ <variable>.Px, <variable>.Px
	mov	r1, r5	@, pDetPara
	ldr	lr, [r6, #3348]	@ <variable>.Py, <variable>.Py
	str	r3, [sp, #12]	@ <variable>.Comp, SmpPat.Comp
	str	r2, [sp, #16]	@ <variable>.Px, SmpPat.Px
	str	lr, [sp, #20]	@ <variable>.Py, SmpPat.Py
	bl	GetSample	@
	ldrb	r4, [r6, #3353]	@ zero_extendqisi2	@ <variable>.Pix, <variable>.Pix
	ldrb	ip, [sp, #25]	@ zero_extendqisi2	@ SmpPat.Pix, SmpPat.Pix
	ldrb	r8, [r6, #3352]	@ zero_extendqisi2	@ <variable>.Pix, <variable>.Pix
	ldrb	r1, [sp, #24]	@ zero_extendqisi2	@ SmpPat.Pix, SmpPat.Pix
	rsb	r3, ip, r4	@ tmp11753, SmpPat.Pix, <variable>.Pix
	cmp	r3, #0	@ tmp11753,
	ldrb	r2, [sp, #26]	@ zero_extendqisi2	@ SmpPat.Pix, SmpPat.Pix
	rsb	r4, r1, r8	@ tmp11746, SmpPat.Pix, <variable>.Pix
	ldrb	r0, [r6, #3354]	@ zero_extendqisi2	@ <variable>.Pix, <variable>.Pix
	rsblt	r3, r3, #0	@ tmp11754, tmp11753
	cmp	r4, #0	@ tmp11746,
	rsb	r0, r2, r0	@ tmp11760, SmpPat.Pix, <variable>.Pix
	rsblt	r4, r4, #0	@ tmp11747, tmp11746
	ldrb	ip, [sp, #27]	@ zero_extendqisi2	@ SmpPat.Pix, SmpPat.Pix
	cmp	r3, #2	@ tmp11754,
	movle	r3, #0	@, tmp11756
	movgt	r3, #1	@, tmp11756
	ldrb	r8, [r6, #3355]	@ zero_extendqisi2	@ <variable>.Pix, <variable>.Pix
	cmp	r4, #2	@ tmp11747,
	addgt	r3, r3, #1	@,, MisCnt.7189, tmp11756
	cmp	r0, #0	@ tmp11760,
	ldrb	r1, [r6, #3356]	@ zero_extendqisi2	@ <variable>.Pix, <variable>.Pix
	rsb	r8, ip, r8	@ tmp11767, SmpPat.Pix, <variable>.Pix
	rsblt	r0, r0, #0	@ tmp11761, tmp11760
	ldrb	r2, [sp, #28]	@ zero_extendqisi2	@ SmpPat.Pix, SmpPat.Pix
	cmp	r0, #2	@ tmp11761,
	addgt	r3, r3, #1	@,, MisCnt.7197, MisCnt.7189
	cmp	r8, #0	@ tmp11767,
	ldrb	r0, [sp, #29]	@ zero_extendqisi2	@ SmpPat.Pix, SmpPat.Pix
	rsb	r2, r2, r1	@ tmp11774, SmpPat.Pix, <variable>.Pix
	rsblt	r8, r8, #0	@ tmp11768, tmp11767
	ldrb	ip, [r6, #3357]	@ zero_extendqisi2	@ <variable>.Pix, <variable>.Pix
	cmp	r8, #2	@ tmp11768,
	addgt	r3, r3, #1	@,, MisCnt.7205, MisCnt.7197
	cmp	r2, #0	@ tmp11774,
	ldrb	r4, [r6, #3358]	@ zero_extendqisi2	@ <variable>.Pix, <variable>.Pix
	rsb	ip, r0, ip	@ tmp11781, SmpPat.Pix, <variable>.Pix
	rsblt	r2, r2, #0	@ tmp11775, tmp11774
	ldrb	r1, [sp, #30]	@ zero_extendqisi2	@ SmpPat.Pix, SmpPat.Pix
	cmp	r2, #2	@ tmp11775,
	addgt	r3, r3, #1	@,, MisCnt.7213, MisCnt.7205
	cmp	ip, #0	@ tmp11781,
	ldrb	r0, [r6, #3359]	@ zero_extendqisi2	@ <variable>.Pix, <variable>.Pix
	rsblt	ip, ip, #0	@ tmp11782, tmp11781
	rsb	r1, r1, r4	@ tmp11788, SmpPat.Pix, <variable>.Pix
	ldrb	r2, [sp, #31]	@ zero_extendqisi2	@ SmpPat.Pix, SmpPat.Pix
	cmp	ip, #2	@ tmp11782,
	addgt	r3, r3, #1	@,, MisCnt.7221, MisCnt.7213
	cmp	r1, #0	@ tmp11788,
	rsb	ip, r2, r0	@ tmp11795, SmpPat.Pix, <variable>.Pix
	rsblt	r1, r1, #0	@ tmp11789, tmp11788
	cmp	r1, #2	@ tmp11789,
	addgt	r3, r3, #1	@,, MisCnt.7229, MisCnt.7221
	cmp	ip, #0	@ tmp11795,
	rsblt	ip, ip, #0	@ tmp11796, tmp11795
	cmp	ip, #2	@ tmp11796,
	addgt	r3, r3, #1	@,, tmp11799, MisCnt.7229
	cmp	r3, #2	@ tmp11799,
	bgt	.L46	@,
	ldr	r3, [r6, #3360]	@ <variable>.Comp, <variable>.Comp
	mov	r1, r5	@, pDetPara
	ldr	r2, [r6, #3364]	@ <variable>.Px, <variable>.Px
	mov	r0, r7	@, tmp12195
	ldr	lr, [r6, #3368]	@ <variable>.Py, <variable>.Py
	str	r3, [sp, #12]	@ <variable>.Comp, SmpPat.Comp
	str	r2, [sp, #16]	@ <variable>.Px, SmpPat.Px
	str	lr, [sp, #20]	@ <variable>.Py, SmpPat.Py
	bl	GetSample	@
	ldrb	r4, [r6, #3373]	@ zero_extendqisi2	@ <variable>.Pix, <variable>.Pix
	ldrb	ip, [sp, #25]	@ zero_extendqisi2	@ SmpPat.Pix, SmpPat.Pix
	ldrb	r5, [r6, #3372]	@ zero_extendqisi2	@ <variable>.Pix, <variable>.Pix
	ldrb	r1, [sp, #24]	@ zero_extendqisi2	@ SmpPat.Pix, SmpPat.Pix
	rsb	r3, ip, r4	@ tmp11817, SmpPat.Pix, <variable>.Pix
	cmp	r3, #0	@ tmp11817,
	ldrb	r2, [sp, #26]	@ zero_extendqisi2	@ SmpPat.Pix, SmpPat.Pix
	rsb	r4, r1, r5	@ tmp11810, SmpPat.Pix, <variable>.Pix
	ldrb	r0, [r6, #3374]	@ zero_extendqisi2	@ <variable>.Pix, <variable>.Pix
	rsblt	r3, r3, #0	@ tmp11818, tmp11817
	cmp	r4, #0	@ tmp11810,
	rsb	r0, r2, r0	@ tmp11824, SmpPat.Pix, <variable>.Pix
	rsblt	r4, r4, #0	@ tmp11811, tmp11810
	ldrb	ip, [sp, #27]	@ zero_extendqisi2	@ SmpPat.Pix, SmpPat.Pix
	cmp	r3, #2	@ tmp11818,
	movle	r3, #0	@, tmp11820
	movgt	r3, #1	@, tmp11820
	ldrb	r5, [r6, #3375]	@ zero_extendqisi2	@ <variable>.Pix, <variable>.Pix
	cmp	r4, #2	@ tmp11811,
	addgt	r3, r3, #1	@,, MisCnt.2214, tmp11820
	cmp	r0, #0	@ tmp11824,
	ldrb	r1, [r6, #3376]	@ zero_extendqisi2	@ <variable>.Pix, <variable>.Pix
	rsb	r5, ip, r5	@ tmp11831, SmpPat.Pix, <variable>.Pix
	rsblt	r0, r0, #0	@ tmp11825, tmp11824
	ldrb	r2, [sp, #28]	@ zero_extendqisi2	@ SmpPat.Pix, SmpPat.Pix
	cmp	r0, #2	@ tmp11825,
	addgt	r3, r3, #1	@,, MisCnt.2225, MisCnt.2214
	cmp	r5, #0	@ tmp11831,
	ldrb	r0, [sp, #29]	@ zero_extendqisi2	@ SmpPat.Pix, SmpPat.Pix
	rsb	r2, r2, r1	@ tmp11838, SmpPat.Pix, <variable>.Pix
	rsblt	r5, r5, #0	@ tmp11832, tmp11831
	ldrb	ip, [r6, #3377]	@ zero_extendqisi2	@ <variable>.Pix, <variable>.Pix
	cmp	r5, #2	@ tmp11832,
	addgt	r3, r3, #1	@,, MisCnt.2236, MisCnt.2225
	cmp	r2, #0	@ tmp11838,
	ldrb	r4, [r6, #3378]	@ zero_extendqisi2	@ <variable>.Pix, <variable>.Pix
	rsb	ip, r0, ip	@ tmp11845, SmpPat.Pix, <variable>.Pix
	rsblt	r2, r2, #0	@ tmp11839, tmp11838
	ldrb	r1, [sp, #30]	@ zero_extendqisi2	@ SmpPat.Pix, SmpPat.Pix
	cmp	r2, #2	@ tmp11839,
	addgt	r3, r3, #1	@,, MisCnt.2246, MisCnt.2236
	cmp	ip, #0	@ tmp11845,
	ldrb	r0, [r6, #3379]	@ zero_extendqisi2	@ <variable>.Pix, <variable>.Pix
	rsblt	ip, ip, #0	@ tmp11846, tmp11845
	rsb	r1, r1, r4	@ tmp11852, SmpPat.Pix, <variable>.Pix
	ldrb	r2, [sp, #31]	@ zero_extendqisi2	@ SmpPat.Pix, SmpPat.Pix
	cmp	ip, #2	@ tmp11846,
	addgt	r3, r3, #1	@,, MisCnt.2255, MisCnt.2246
	cmp	r1, #0	@ tmp11852,
	rsb	ip, r2, r0	@ tmp11859, SmpPat.Pix, <variable>.Pix
	rsblt	r1, r1, #0	@ tmp11853, tmp11852
	cmp	r1, #2	@ tmp11853,
	addgt	r3, r3, #1	@,, MisCnt.2266, MisCnt.2255
	cmp	ip, #0	@ tmp11859,
	rsblt	ip, ip, #0	@ tmp11860, tmp11859
	cmp	ip, #2	@ tmp11860,
	addgt	r3, r3, #1	@,, tmp11863, MisCnt.2266
	cmp	r3, #2	@ tmp11863,
	bgt	.L46	@,
	mov	r0, #6	@ Result,
	b	.L13	@
.L68:
	cmp	r3, #720	@ prephitmp.801,
	beq	.L71	@,
	cmp	r3, #704	@ prephitmp.801,
	bne	.L46	@,
	movw	r4, #:lower16:.LANCHOR0	@ tmp12190,
	movt	r4, #:upper16:.LANCHOR0	@ tmp12190,
	add	r7, sp, #12	@ tmp12191,,
	mov	r1, r5	@, pDetPara
	ldr	r2, [r4, #2300]	@ <variable>.Comp, <variable>.Comp
	ldr	r6, [r4, #2304]	@ <variable>.Px, <variable>.Px
	mov	r0, r7	@, tmp12191
	ldr	lr, [r4, #2308]	@ <variable>.Py, <variable>.Py
	str	r2, [sp, #12]	@ <variable>.Comp, SmpPat.Comp
	str	r6, [sp, #16]	@ <variable>.Px, SmpPat.Px
	str	lr, [sp, #20]	@ <variable>.Py, SmpPat.Py
	bl	GetSample	@
	ldrb	r1, [r4, #2313]	@ zero_extendqisi2	@ <variable>.Pix, <variable>.Pix
	ldrb	r3, [sp, #25]	@ zero_extendqisi2	@ SmpPat.Pix, SmpPat.Pix
	ldrb	sl, [r4, #2312]	@ zero_extendqisi2	@ <variable>.Pix, <variable>.Pix
	ldrb	r8, [sp, #24]	@ zero_extendqisi2	@ SmpPat.Pix, SmpPat.Pix
	rsb	ip, r3, r1	@ tmp8553, SmpPat.Pix, <variable>.Pix
	cmp	ip, #0	@ tmp8553,
	ldrb	r6, [r4, #2314]	@ zero_extendqisi2	@ <variable>.Pix, <variable>.Pix
	rsb	lr, r8, sl	@ tmp8546, SmpPat.Pix, <variable>.Pix
	ldrb	r2, [sp, #26]	@ zero_extendqisi2	@ SmpPat.Pix, SmpPat.Pix
	rsblt	ip, ip, #0	@ tmp8554, tmp8553
	cmp	lr, #0	@ tmp8546,
	rsb	r8, r2, r6	@ tmp8560, SmpPat.Pix, <variable>.Pix
	rsblt	lr, lr, #0	@ tmp8547, tmp8546
	ldrb	r0, [r4, #2315]	@ zero_extendqisi2	@ <variable>.Pix, <variable>.Pix
	cmp	ip, #2	@ tmp8554,
	movle	r1, #0	@, tmp8556
	movgt	r1, #1	@, tmp8556
	ldrb	r3, [sp, #27]	@ zero_extendqisi2	@ SmpPat.Pix, SmpPat.Pix
	cmp	lr, #2	@ tmp8547,
	addgt	r1, r1, #1	@,, MisCnt.7255, tmp8556
	cmp	r8, #0	@ tmp8560,
	ldrb	ip, [r4, #2316]	@ zero_extendqisi2	@ <variable>.Pix, <variable>.Pix
	rsb	r3, r3, r0	@ tmp8567, SmpPat.Pix, <variable>.Pix
	rsblt	r8, r8, #0	@ tmp8561, tmp8560
	ldrb	sl, [sp, #28]	@ zero_extendqisi2	@ SmpPat.Pix, SmpPat.Pix
	cmp	r8, #2	@ tmp8561,
	movle	r6, r1	@, MisCnt.7263, MisCnt.7255
	addgt	r6, r1, #1	@,, MisCnt.7263, MisCnt.7255
	cmp	r3, #0	@ tmp8567,
	ldrb	r0, [r4, #2317]	@ zero_extendqisi2	@ <variable>.Pix, <variable>.Pix
	rsb	r8, sl, ip	@ tmp8574, SmpPat.Pix, <variable>.Pix
	rsblt	r3, r3, #0	@ tmp8568, tmp8567
	ldrb	r1, [sp, #29]	@ zero_extendqisi2	@ SmpPat.Pix, SmpPat.Pix
	cmp	r3, #2	@ tmp8568,
	movle	r2, r6	@, MisCnt.7271, MisCnt.7263
	addgt	r2, r6, #1	@,, MisCnt.7271, MisCnt.7263
	cmp	r8, #0	@ tmp8574,
	ldrb	sl, [sp, #30]	@ zero_extendqisi2	@ SmpPat.Pix, SmpPat.Pix
	rsb	r6, r1, r0	@ tmp8581, SmpPat.Pix, <variable>.Pix
	rsblt	r8, r8, #0	@ tmp8575, tmp8574
	ldrb	lr, [r4, #2318]	@ zero_extendqisi2	@ <variable>.Pix, <variable>.Pix
	cmp	r8, #2	@ tmp8575,
	movle	ip, r2	@, MisCnt.7279, MisCnt.7271
	addgt	ip, r2, #1	@,, MisCnt.7279, MisCnt.7271
	cmp	r6, #0	@ tmp8581,
	ldrb	r0, [r4, #2319]	@ zero_extendqisi2	@ <variable>.Pix, <variable>.Pix
	rsb	r2, sl, lr	@ tmp8588, SmpPat.Pix, <variable>.Pix
	rsblt	r6, r6, #0	@ tmp8582, tmp8581
	ldrb	r3, [sp, #31]	@ zero_extendqisi2	@ SmpPat.Pix, SmpPat.Pix
	cmp	r6, #2	@ tmp8582,
	movle	r1, ip	@, MisCnt.7287, MisCnt.7279
	addgt	r1, ip, #1	@,, MisCnt.7287, MisCnt.7279
	cmp	r2, #0	@ tmp8588,
	rsb	sl, r3, r0	@ tmp8595, SmpPat.Pix, <variable>.Pix
	rsblt	r2, r2, #0	@ tmp8589, tmp8588
	cmp	r2, #2	@ tmp8589,
	movle	r8, r1	@, MisCnt.7295, MisCnt.7287
	addgt	r8, r1, #1	@,, MisCnt.7295, MisCnt.7287
	cmp	sl, #0	@ tmp8595,
	rsblt	sl, sl, #0	@ tmp8596, tmp8595
	cmp	sl, #2	@ tmp8596,
	movle	r6, r8	@, tmp8599, MisCnt.7295
	addgt	r6, r8, #1	@,, tmp8599, MisCnt.7295
	cmp	r6, #2	@ tmp8599,
	bgt	.L47	@,
	ldr	r6, [r4, #2320]	@ <variable>.Comp, <variable>.Comp
	mov	r0, r7	@, tmp12191
	ldr	r2, [r4, #2324]	@ <variable>.Px, <variable>.Px
	mov	r1, r5	@, pDetPara
	ldr	lr, [r4, #2328]	@ <variable>.Py, <variable>.Py
	str	r6, [sp, #12]	@ <variable>.Comp, SmpPat.Comp
	mov	r6, r4	@ tmp8600, tmp12190
	str	r2, [sp, #16]	@ <variable>.Px, SmpPat.Px
	str	lr, [sp, #20]	@ <variable>.Py, SmpPat.Py
	bl	GetSample	@
	ldrb	ip, [r4, #2333]	@ zero_extendqisi2	@ <variable>.Pix, <variable>.Pix
	ldrb	r8, [sp, #25]	@ zero_extendqisi2	@ SmpPat.Pix, SmpPat.Pix
	ldrb	sl, [r4, #2332]	@ zero_extendqisi2	@ <variable>.Pix, <variable>.Pix
	ldrb	r1, [sp, #24]	@ zero_extendqisi2	@ SmpPat.Pix, SmpPat.Pix
	rsb	r3, r8, ip	@ tmp8617, SmpPat.Pix, <variable>.Pix
	cmp	r3, #0	@ tmp8617,
	ldrb	r2, [sp, #26]	@ zero_extendqisi2	@ SmpPat.Pix, SmpPat.Pix
	rsb	lr, r1, sl	@ tmp8610, SmpPat.Pix, <variable>.Pix
	ldrb	r0, [r4, #2334]	@ zero_extendqisi2	@ <variable>.Pix, <variable>.Pix
	rsblt	r3, r3, #0	@ tmp8618, tmp8617
	cmp	lr, #0	@ tmp8610,
	rsb	r0, r2, r0	@ tmp8624, SmpPat.Pix, <variable>.Pix
	rsblt	lr, lr, #0	@ tmp8611, tmp8610
	ldrb	ip, [sp, #27]	@ zero_extendqisi2	@ SmpPat.Pix, SmpPat.Pix
	cmp	r3, #2	@ tmp8618,
	movle	sl, #0	@, tmp8620
	movgt	sl, #1	@, tmp8620
	ldrb	r8, [r4, #2335]	@ zero_extendqisi2	@ <variable>.Pix, <variable>.Pix
	cmp	lr, #2	@ tmp8611,
	addgt	sl, sl, #1	@,, MisCnt.7321, tmp8620
	cmp	r0, #0	@ tmp8624,
	ldrb	r1, [r4, #2336]	@ zero_extendqisi2	@ <variable>.Pix, <variable>.Pix
	rsb	r8, ip, r8	@ tmp8631, SmpPat.Pix, <variable>.Pix
	rsblt	r0, r0, #0	@ tmp8625, tmp8624
	ldrb	r2, [sp, #28]	@ zero_extendqisi2	@ SmpPat.Pix, SmpPat.Pix
	cmp	r0, #2	@ tmp8625,
	addgt	sl, sl, #1	@,, MisCnt.7329, MisCnt.7321
	cmp	r8, #0	@ tmp8631,
	ldrb	r0, [sp, #29]	@ zero_extendqisi2	@ SmpPat.Pix, SmpPat.Pix
	rsb	r2, r2, r1	@ tmp8638, SmpPat.Pix, <variable>.Pix
	rsblt	r8, r8, #0	@ tmp8632, tmp8631
	ldrb	ip, [r4, #2337]	@ zero_extendqisi2	@ <variable>.Pix, <variable>.Pix
	cmp	r8, #2	@ tmp8632,
	addgt	sl, sl, #1	@,, MisCnt.7337, MisCnt.7329
	cmp	r2, #0	@ tmp8638,
	ldrb	lr, [r4, #2338]	@ zero_extendqisi2	@ <variable>.Pix, <variable>.Pix
	rsb	ip, r0, ip	@ tmp8645, SmpPat.Pix, <variable>.Pix
	rsblt	r2, r2, #0	@ tmp8639, tmp8638
	ldrb	r1, [sp, #30]	@ zero_extendqisi2	@ SmpPat.Pix, SmpPat.Pix
	cmp	r2, #2	@ tmp8639,
	addgt	sl, sl, #1	@,, MisCnt.7345, MisCnt.7337
	cmp	ip, #0	@ tmp8645,
	ldrb	r0, [r4, #2339]	@ zero_extendqisi2	@ <variable>.Pix, <variable>.Pix
	rsblt	ip, ip, #0	@ tmp8646, tmp8645
	rsb	r8, r1, lr	@ tmp8652, SmpPat.Pix, <variable>.Pix
	ldrb	r2, [sp, #31]	@ zero_extendqisi2	@ SmpPat.Pix, SmpPat.Pix
	cmp	ip, #2	@ tmp8646,
	addgt	sl, sl, #1	@,, MisCnt.7353, MisCnt.7345
	cmp	r8, #0	@ tmp8652,
	rsb	ip, r2, r0	@ tmp8659, SmpPat.Pix, <variable>.Pix
	rsblt	r8, r8, #0	@ tmp8653, tmp8652
	cmp	r8, #2	@ tmp8653,
	addgt	sl, sl, #1	@,, MisCnt.7361, MisCnt.7353
	cmp	ip, #0	@ tmp8659,
	rsblt	ip, ip, #0	@ tmp8660, tmp8659
	cmp	ip, #2	@ tmp8660,
	addgt	sl, sl, #1	@,, tmp8663, MisCnt.7361
	cmp	sl, #2	@ tmp8663,
	bgt	.L47	@,
	ldr	r2, [r4, #2340]	@ <variable>.Comp, <variable>.Comp
	mov	r0, r7	@, tmp12191
	ldr	sl, [r4, #2344]	@ <variable>.Px, <variable>.Px
	mov	r1, r5	@, pDetPara
	ldr	lr, [r4, #2348]	@ <variable>.Py, <variable>.Py
	str	r2, [sp, #12]	@ <variable>.Comp, SmpPat.Comp
	str	sl, [sp, #16]	@ <variable>.Px, SmpPat.Px
	str	lr, [sp, #20]	@ <variable>.Py, SmpPat.Py
	bl	GetSample	@
	ldrb	ip, [r4, #2353]	@ zero_extendqisi2	@ <variable>.Pix, <variable>.Pix
	ldrb	r8, [sp, #25]	@ zero_extendqisi2	@ SmpPat.Pix, SmpPat.Pix
	ldrb	r0, [r4, #2352]	@ zero_extendqisi2	@ <variable>.Pix, <variable>.Pix
	ldrb	r1, [sp, #24]	@ zero_extendqisi2	@ SmpPat.Pix, SmpPat.Pix
	rsb	r3, r8, ip	@ tmp8681, SmpPat.Pix, <variable>.Pix
	cmp	r3, #0	@ tmp8681,
	ldrb	sl, [r4, #2354]	@ zero_extendqisi2	@ <variable>.Pix, <variable>.Pix
	rsb	lr, r1, r0	@ tmp8674, SmpPat.Pix, <variable>.Pix
	ldrb	r2, [sp, #26]	@ zero_extendqisi2	@ SmpPat.Pix, SmpPat.Pix
	rsblt	r3, r3, #0	@ tmp8682, tmp8681
	cmp	lr, #0	@ tmp8674,
	rsb	r0, r2, sl	@ tmp8688, SmpPat.Pix, <variable>.Pix
	rsblt	lr, lr, #0	@ tmp8675, tmp8674
	ldrb	ip, [sp, #27]	@ zero_extendqisi2	@ SmpPat.Pix, SmpPat.Pix
	cmp	r3, #2	@ tmp8682,
	movle	r3, #0	@, tmp8684
	movgt	r3, #1	@, tmp8684
	ldrb	r8, [r4, #2355]	@ zero_extendqisi2	@ <variable>.Pix, <variable>.Pix
	cmp	lr, #2	@ tmp8675,
	addgt	r3, r3, #1	@,, MisCnt.7387, tmp8684
	cmp	r0, #0	@ tmp8688,
	ldrb	r1, [r4, #2356]	@ zero_extendqisi2	@ <variable>.Pix, <variable>.Pix
	rsb	r8, ip, r8	@ tmp8695, SmpPat.Pix, <variable>.Pix
	rsblt	r0, r0, #0	@ tmp8689, tmp8688
	ldrb	sl, [sp, #28]	@ zero_extendqisi2	@ SmpPat.Pix, SmpPat.Pix
	cmp	r0, #2	@ tmp8689,
	addgt	r3, r3, #1	@,, MisCnt.7395, MisCnt.7387
	cmp	r8, #0	@ tmp8695,
	ldrb	r0, [sp, #29]	@ zero_extendqisi2	@ SmpPat.Pix, SmpPat.Pix
	rsb	r2, sl, r1	@ tmp8702, SmpPat.Pix, <variable>.Pix
	rsblt	r8, r8, #0	@ tmp8696, tmp8695
	ldrb	ip, [r4, #2357]	@ zero_extendqisi2	@ <variable>.Pix, <variable>.Pix
	cmp	r8, #2	@ tmp8696,
	addgt	r3, r3, #1	@,, MisCnt.7403, MisCnt.7395
	cmp	r2, #0	@ tmp8702,
	ldrb	sl, [sp, #30]	@ zero_extendqisi2	@ SmpPat.Pix, SmpPat.Pix
	rsb	ip, r0, ip	@ tmp8709, SmpPat.Pix, <variable>.Pix
	rsblt	r2, r2, #0	@ tmp8703, tmp8702
	ldrb	lr, [r4, #2358]	@ zero_extendqisi2	@ <variable>.Pix, <variable>.Pix
	cmp	r2, #2	@ tmp8703,
	addgt	r3, r3, #1	@,, MisCnt.7411, MisCnt.7403
	cmp	ip, #0	@ tmp8709,
	ldrb	r0, [r4, #2359]	@ zero_extendqisi2	@ <variable>.Pix, <variable>.Pix
	rsb	r1, sl, lr	@ tmp8716, SmpPat.Pix, <variable>.Pix
	rsblt	ip, ip, #0	@ tmp8710, tmp8709
	ldrb	r8, [sp, #31]	@ zero_extendqisi2	@ SmpPat.Pix, SmpPat.Pix
	cmp	ip, #2	@ tmp8710,
	addgt	r3, r3, #1	@,, MisCnt.7419, MisCnt.7411
	cmp	r1, #0	@ tmp8716,
	rsb	sl, r8, r0	@ tmp8723, SmpPat.Pix, <variable>.Pix
	rsblt	r1, r1, #0	@ tmp8717, tmp8716
	cmp	r1, #2	@ tmp8717,
	addgt	r3, r3, #1	@,, MisCnt.7427, MisCnt.7419
	cmp	sl, #0	@ tmp8723,
	rsblt	sl, sl, #0	@ tmp8724, tmp8723
	cmp	sl, #2	@ tmp8724,
	addgt	r3, r3, #1	@,, tmp8727, MisCnt.7427
	cmp	r3, #2	@ tmp8727,
	bgt	.L47	@,
	ldr	r2, [r4, #2360]	@ <variable>.Comp, <variable>.Comp
	mov	r0, r7	@, tmp12191
	ldr	r8, [r4, #2364]	@ <variable>.Px, <variable>.Px
	mov	r1, r5	@, pDetPara
	ldr	lr, [r4, #2368]	@ <variable>.Py, <variable>.Py
	str	r2, [sp, #12]	@ <variable>.Comp, SmpPat.Comp
	str	r8, [sp, #16]	@ <variable>.Px, SmpPat.Px
	str	lr, [sp, #20]	@ <variable>.Py, SmpPat.Py
	bl	GetSample	@
	ldrb	ip, [r4, #2373]	@ zero_extendqisi2	@ <variable>.Pix, <variable>.Pix
	ldrb	sl, [sp, #25]	@ zero_extendqisi2	@ SmpPat.Pix, SmpPat.Pix
	ldrb	r0, [r4, #2372]	@ zero_extendqisi2	@ <variable>.Pix, <variable>.Pix
	ldrb	r1, [sp, #24]	@ zero_extendqisi2	@ SmpPat.Pix, SmpPat.Pix
	rsb	r3, sl, ip	@ tmp8745, SmpPat.Pix, <variable>.Pix
	cmp	r3, #0	@ tmp8745,
	ldrb	r8, [r4, #2374]	@ zero_extendqisi2	@ <variable>.Pix, <variable>.Pix
	rsb	lr, r1, r0	@ tmp8738, SmpPat.Pix, <variable>.Pix
	ldrb	r2, [sp, #26]	@ zero_extendqisi2	@ SmpPat.Pix, SmpPat.Pix
	rsblt	r3, r3, #0	@ tmp8746, tmp8745
	cmp	lr, #0	@ tmp8738,
	rsb	r0, r2, r8	@ tmp8752, SmpPat.Pix, <variable>.Pix
	rsblt	lr, lr, #0	@ tmp8739, tmp8738
	ldrb	sl, [r4, #2375]	@ zero_extendqisi2	@ <variable>.Pix, <variable>.Pix
	cmp	r3, #2	@ tmp8746,
	movle	r3, #0	@, tmp8748
	movgt	r3, #1	@, tmp8748
	ldrb	ip, [sp, #27]	@ zero_extendqisi2	@ SmpPat.Pix, SmpPat.Pix
	cmp	lr, #2	@ tmp8739,
	addgt	r3, r3, #1	@,, MisCnt.7453, tmp8748
	cmp	r0, #0	@ tmp8752,
	ldrb	r1, [r4, #2376]	@ zero_extendqisi2	@ <variable>.Pix, <variable>.Pix
	rsb	r8, ip, sl	@ tmp8759, SmpPat.Pix, <variable>.Pix
	rsblt	r0, r0, #0	@ tmp8753, tmp8752
	ldrb	r2, [sp, #28]	@ zero_extendqisi2	@ SmpPat.Pix, SmpPat.Pix
	cmp	r0, #2	@ tmp8753,
	addgt	r3, r3, #1	@,, MisCnt.7461, MisCnt.7453
	cmp	r8, #0	@ tmp8759,
	ldrb	sl, [r4, #2377]	@ zero_extendqisi2	@ <variable>.Pix, <variable>.Pix
	rsb	r2, r2, r1	@ tmp8766, SmpPat.Pix, <variable>.Pix
	rsblt	r8, r8, #0	@ tmp8760, tmp8759
	ldrb	r0, [sp, #29]	@ zero_extendqisi2	@ SmpPat.Pix, SmpPat.Pix
	cmp	r8, #2	@ tmp8760,
	addgt	r3, r3, #1	@,, MisCnt.7469, MisCnt.7461
	cmp	r2, #0	@ tmp8766,
	ldrb	lr, [r4, #2378]	@ zero_extendqisi2	@ <variable>.Pix, <variable>.Pix
	rsb	ip, r0, sl	@ tmp8773, SmpPat.Pix, <variable>.Pix
	rsblt	r2, r2, #0	@ tmp8767, tmp8766
	ldrb	r1, [sp, #30]	@ zero_extendqisi2	@ SmpPat.Pix, SmpPat.Pix
	cmp	r2, #2	@ tmp8767,
	addgt	r3, r3, #1	@,, MisCnt.7477, MisCnt.7469
	cmp	ip, #0	@ tmp8773,
	ldrb	r0, [r4, #2379]	@ zero_extendqisi2	@ <variable>.Pix, <variable>.Pix
	rsb	r1, r1, lr	@ tmp8780, SmpPat.Pix, <variable>.Pix
	rsblt	ip, ip, #0	@ tmp8774, tmp8773
	ldrb	sl, [sp, #31]	@ zero_extendqisi2	@ SmpPat.Pix, SmpPat.Pix
	cmp	ip, #2	@ tmp8774,
	addgt	r3, r3, #1	@,, MisCnt.7485, MisCnt.7477
	cmp	r1, #0	@ tmp8780,
	rsb	r8, sl, r0	@ tmp8787, SmpPat.Pix, <variable>.Pix
	rsblt	r1, r1, #0	@ tmp8781, tmp8780
	cmp	r1, #2	@ tmp8781,
	addgt	r3, r3, #1	@,, MisCnt.7493, MisCnt.7485
	cmp	r8, #0	@ tmp8787,
	rsblt	r8, r8, #0	@ tmp8788, tmp8787
	cmp	r8, #2	@ tmp8788,
	addgt	r3, r3, #1	@,, tmp8791, MisCnt.7493
	cmp	r3, #2	@ tmp8791,
	bgt	.L47	@,
	ldr	r3, [r4, #2380]	@ <variable>.Comp, <variable>.Comp
	mov	r0, r7	@, tmp12191
	ldr	r2, [r4, #2384]	@ <variable>.Px, <variable>.Px
	mov	r1, r5	@, pDetPara
	ldr	lr, [r4, #2388]	@ <variable>.Py, <variable>.Py
	str	r3, [sp, #12]	@ <variable>.Comp, SmpPat.Comp
	str	r2, [sp, #16]	@ <variable>.Px, SmpPat.Px
	str	lr, [sp, #20]	@ <variable>.Py, SmpPat.Py
	bl	GetSample	@
	ldrb	r8, [r4, #2393]	@ zero_extendqisi2	@ <variable>.Pix, <variable>.Pix
	ldrb	ip, [sp, #25]	@ zero_extendqisi2	@ SmpPat.Pix, SmpPat.Pix
	ldrb	sl, [r4, #2392]	@ zero_extendqisi2	@ <variable>.Pix, <variable>.Pix
	ldrb	r1, [sp, #24]	@ zero_extendqisi2	@ SmpPat.Pix, SmpPat.Pix
	rsb	r3, ip, r8	@ tmp8809, SmpPat.Pix, <variable>.Pix
	cmp	r3, #0	@ tmp8809,
	ldrb	r2, [sp, #26]	@ zero_extendqisi2	@ SmpPat.Pix, SmpPat.Pix
	rsb	r8, r1, sl	@ tmp8802, SmpPat.Pix, <variable>.Pix
	ldrb	r0, [r4, #2394]	@ zero_extendqisi2	@ <variable>.Pix, <variable>.Pix
	rsblt	r3, r3, #0	@ tmp8810, tmp8809
	cmp	r8, #0	@ tmp8802,
	rsb	r0, r2, r0	@ tmp8816, SmpPat.Pix, <variable>.Pix
	rsblt	r8, r8, #0	@ tmp8803, tmp8802
	ldrb	ip, [sp, #27]	@ zero_extendqisi2	@ SmpPat.Pix, SmpPat.Pix
	cmp	r3, #2	@ tmp8810,
	movle	r3, #0	@, tmp8812
	movgt	r3, #1	@, tmp8812
	ldrb	sl, [r4, #2395]	@ zero_extendqisi2	@ <variable>.Pix, <variable>.Pix
	cmp	r8, #2	@ tmp8803,
	addgt	r3, r3, #1	@,, MisCnt.2284, tmp8812
	cmp	r0, #0	@ tmp8816,
	ldrb	r1, [r4, #2396]	@ zero_extendqisi2	@ <variable>.Pix, <variable>.Pix
	rsb	sl, ip, sl	@ tmp8823, SmpPat.Pix, <variable>.Pix
	rsblt	r0, r0, #0	@ tmp8817, tmp8816
	ldrb	r2, [sp, #28]	@ zero_extendqisi2	@ SmpPat.Pix, SmpPat.Pix
	cmp	r0, #2	@ tmp8817,
	addgt	r3, r3, #1	@,, MisCnt.2293, MisCnt.2284
	cmp	sl, #0	@ tmp8823,
	ldrb	r0, [sp, #29]	@ zero_extendqisi2	@ SmpPat.Pix, SmpPat.Pix
	rsb	r2, r2, r1	@ tmp8830, SmpPat.Pix, <variable>.Pix
	rsblt	sl, sl, #0	@ tmp8824, tmp8823
	ldrb	ip, [r4, #2397]	@ zero_extendqisi2	@ <variable>.Pix, <variable>.Pix
	cmp	sl, #2	@ tmp8824,
	addgt	r3, r3, #1	@,, MisCnt.2301, MisCnt.2293
	cmp	r2, #0	@ tmp8830,
	ldrb	r8, [r4, #2398]	@ zero_extendqisi2	@ <variable>.Pix, <variable>.Pix
	rsb	ip, r0, ip	@ tmp8837, SmpPat.Pix, <variable>.Pix
	rsblt	r2, r2, #0	@ tmp8831, tmp8830
	ldrb	r1, [sp, #30]	@ zero_extendqisi2	@ SmpPat.Pix, SmpPat.Pix
	cmp	r2, #2	@ tmp8831,
	addgt	r3, r3, #1	@,, MisCnt.2309, MisCnt.2301
	cmp	ip, #0	@ tmp8837,
	ldrb	r0, [r4, #2399]	@ zero_extendqisi2	@ <variable>.Pix, <variable>.Pix
	rsblt	ip, ip, #0	@ tmp8838, tmp8837
	rsb	r1, r1, r8	@ tmp8844, SmpPat.Pix, <variable>.Pix
	ldrb	r2, [sp, #31]	@ zero_extendqisi2	@ SmpPat.Pix, SmpPat.Pix
	cmp	ip, #2	@ tmp8838,
	addgt	r3, r3, #1	@,, MisCnt.2317, MisCnt.2309
	cmp	r1, #0	@ tmp8844,
	rsb	ip, r2, r0	@ tmp8851, SmpPat.Pix, <variable>.Pix
	rsblt	r1, r1, #0	@ tmp8845, tmp8844
	cmp	r1, #2	@ tmp8845,
	addgt	r3, r3, #1	@,, MisCnt.2325, MisCnt.2317
	cmp	ip, #0	@ tmp8851,
	rsblt	ip, ip, #0	@ tmp8852, tmp8851
	cmp	ip, #2	@ tmp8852,
	addgt	r3, r3, #1	@,, tmp8855, MisCnt.2325
	cmp	r3, #2	@ tmp8855,
	movle	r0, #24	@ Result,
	ble	.L13	@,
.L47:
	ldr	ip, [r4, #2400]	@ <variable>.Comp, <variable>.Comp
	mov	r0, r7	@, tmp12191
	ldr	r2, [r4, #2404]	@ <variable>.Px, <variable>.Px
	mov	r1, r5	@, pDetPara
	ldr	lr, [r4, #2408]	@ <variable>.Py, <variable>.Py
	movw	r6, #:lower16:.LANCHOR0	@ tmp8856,
	str	ip, [sp, #12]	@ <variable>.Comp, SmpPat.Comp
	movt	r6, #:upper16:.LANCHOR0	@ tmp8856,
	str	r2, [sp, #16]	@ <variable>.Px, SmpPat.Px
	str	lr, [sp, #20]	@ <variable>.Py, SmpPat.Py
	bl	GetSample	@
	ldrb	r8, [r4, #2413]	@ zero_extendqisi2	@ <variable>.Pix, <variable>.Pix
	ldrb	r3, [sp, #25]	@ zero_extendqisi2	@ SmpPat.Pix, SmpPat.Pix
	ldrb	sl, [r4, #2412]	@ zero_extendqisi2	@ <variable>.Pix, <variable>.Pix
	ldrb	r0, [sp, #24]	@ zero_extendqisi2	@ SmpPat.Pix, SmpPat.Pix
	rsb	r1, r3, r8	@ tmp8873, SmpPat.Pix, <variable>.Pix
	cmp	r1, #0	@ tmp8873,
	ldrb	r2, [r4, #2414]	@ zero_extendqisi2	@ <variable>.Pix, <variable>.Pix
	rsb	r8, r0, sl	@ tmp8866, SmpPat.Pix, <variable>.Pix
	ldrb	ip, [sp, #26]	@ zero_extendqisi2	@ SmpPat.Pix, SmpPat.Pix
	rsblt	r1, r1, #0	@ tmp8874, tmp8873
	cmp	r8, #0	@ tmp8866,
	rsb	r3, ip, r2	@ tmp8880, SmpPat.Pix, <variable>.Pix
	rsblt	r8, r8, #0	@ tmp8867, tmp8866
	ldrb	r0, [sp, #27]	@ zero_extendqisi2	@ SmpPat.Pix, SmpPat.Pix
	cmp	r1, #2	@ tmp8874,
	movle	r1, #0	@, tmp8876
	movgt	r1, #1	@, tmp8876
	ldrb	sl, [r4, #2415]	@ zero_extendqisi2	@ <variable>.Pix, <variable>.Pix
	cmp	r8, #2	@ tmp8867,
	addgt	r1, r1, #1	@,, MisCnt.7519, tmp8876
	cmp	r3, #0	@ tmp8880,
	ldrb	r2, [sp, #28]	@ zero_extendqisi2	@ SmpPat.Pix, SmpPat.Pix
	rsb	sl, r0, sl	@ tmp8887, SmpPat.Pix, <variable>.Pix
	rsblt	r3, r3, #0	@ tmp8881, tmp8880
	ldrb	ip, [r4, #2416]	@ zero_extendqisi2	@ <variable>.Pix, <variable>.Pix
	cmp	r3, #2	@ tmp8881,
	movle	r3, r1	@, MisCnt.7527, MisCnt.7519
	addgt	r3, r1, #1	@,, MisCnt.7527, MisCnt.7519
	cmp	sl, #0	@ tmp8887,
	ldrb	r0, [r4, #2417]	@ zero_extendqisi2	@ <variable>.Pix, <variable>.Pix
	rsb	ip, r2, ip	@ tmp8894, SmpPat.Pix, <variable>.Pix
	rsblt	sl, sl, #0	@ tmp8888, tmp8887
	ldrb	r1, [sp, #29]	@ zero_extendqisi2	@ SmpPat.Pix, SmpPat.Pix
	cmp	sl, #2	@ tmp8888,
	addgt	r3, r3, #1	@,, MisCnt.7535, MisCnt.7527
	cmp	ip, #0	@ tmp8894,
	ldrb	r8, [r4, #2418]	@ zero_extendqisi2	@ <variable>.Pix, <variable>.Pix
	rsb	r1, r1, r0	@ tmp8901, SmpPat.Pix, <variable>.Pix
	rsblt	ip, ip, #0	@ tmp8895, tmp8894
	ldrb	r2, [sp, #30]	@ zero_extendqisi2	@ SmpPat.Pix, SmpPat.Pix
	cmp	ip, #2	@ tmp8895,
	movle	ip, r3	@, MisCnt.7543, MisCnt.7535
	addgt	ip, r3, #1	@,, MisCnt.7543, MisCnt.7535
	cmp	r1, #0	@ tmp8901,
	ldrb	r0, [r4, #2419]	@ zero_extendqisi2	@ <variable>.Pix, <variable>.Pix
	rsb	r2, r2, r8	@ tmp8908, SmpPat.Pix, <variable>.Pix
	rsblt	r1, r1, #0	@ tmp8902, tmp8901
	ldrb	r3, [sp, #31]	@ zero_extendqisi2	@ SmpPat.Pix, SmpPat.Pix
	cmp	r1, #2	@ tmp8902,
	movle	r1, ip	@, MisCnt.7551, MisCnt.7543
	addgt	r1, ip, #1	@,, MisCnt.7551, MisCnt.7543
	cmp	r2, #0	@ tmp8908,
	rsb	ip, r3, r0	@ tmp8915, SmpPat.Pix, <variable>.Pix
	rsblt	r2, r2, #0	@ tmp8909, tmp8908
	cmp	r2, #2	@ tmp8909,
	movle	r2, r1	@, MisCnt.7559, MisCnt.7551
	addgt	r2, r1, #1	@,, MisCnt.7559, MisCnt.7551
	cmp	ip, #0	@ tmp8915,
	rsblt	ip, ip, #0	@ tmp8916, tmp8915
	cmp	ip, #2	@ tmp8916,
	movle	r0, r2	@, tmp8919, MisCnt.7559
	addgt	r0, r2, #1	@,, tmp8919, MisCnt.7559
	cmp	r0, #2	@ tmp8919,
	bgt	.L46	@,
	ldr	ip, [r6, #2420]	@ <variable>.Comp, <variable>.Comp
	mov	r0, r7	@, tmp12191
	ldr	r2, [r6, #2424]	@ <variable>.Px, <variable>.Px
	mov	r1, r5	@, pDetPara
	ldr	lr, [r6, #2428]	@ <variable>.Py, <variable>.Py
	str	ip, [sp, #12]	@ <variable>.Comp, SmpPat.Comp
	str	r2, [sp, #16]	@ <variable>.Px, SmpPat.Px
	str	lr, [sp, #20]	@ <variable>.Py, SmpPat.Py
	bl	GetSample	@
	ldrb	r1, [r6, #2433]	@ zero_extendqisi2	@ <variable>.Pix, <variable>.Pix
	ldrb	r4, [sp, #25]	@ zero_extendqisi2	@ SmpPat.Pix, SmpPat.Pix
	ldrb	r0, [r6, #2432]	@ zero_extendqisi2	@ <variable>.Pix, <variable>.Pix
	ldrb	r3, [sp, #24]	@ zero_extendqisi2	@ SmpPat.Pix, SmpPat.Pix
	rsb	r8, r4, r1	@ tmp8937, SmpPat.Pix, <variable>.Pix
	cmp	r8, #0	@ tmp8937,
	ldrb	ip, [r6, #2434]	@ zero_extendqisi2	@ <variable>.Pix, <variable>.Pix
	rsb	r4, r3, r0	@ tmp8930, SmpPat.Pix, <variable>.Pix
	ldrb	r2, [sp, #26]	@ zero_extendqisi2	@ SmpPat.Pix, SmpPat.Pix
	rsblt	r8, r8, #0	@ tmp8938, tmp8937
	cmp	r4, #0	@ tmp8930,
	rsblt	r4, r4, #0	@ tmp8931, tmp8930
	ldrb	r0, [r6, #2435]	@ zero_extendqisi2	@ <variable>.Pix, <variable>.Pix
	cmp	r8, #2	@ tmp8938,
	movle	r1, #0	@, tmp8940
	movgt	r1, #1	@, tmp8940
	ldrb	r3, [sp, #27]	@ zero_extendqisi2	@ SmpPat.Pix, SmpPat.Pix
	rsb	r8, r2, ip	@ tmp8944, SmpPat.Pix, <variable>.Pix
	cmp	r4, #2	@ tmp8931,
	addgt	r1, r1, #1	@,, MisCnt.7585, tmp8940
	cmp	r8, #0	@ tmp8944,
	rsb	r3, r3, r0	@ tmp8951, SmpPat.Pix, <variable>.Pix
	ldrb	r2, [sp, #28]	@ zero_extendqisi2	@ SmpPat.Pix, SmpPat.Pix
	rsblt	r8, r8, #0	@ tmp8945, tmp8944
	ldrb	ip, [r6, #2436]	@ zero_extendqisi2	@ <variable>.Pix, <variable>.Pix
	cmp	r8, #2	@ tmp8945,
	movle	r8, r1	@, MisCnt.7593, MisCnt.7585
	addgt	r8, r1, #1	@,, MisCnt.7593, MisCnt.7585
	cmp	r3, #0	@ tmp8951,
	ldrb	r0, [r6, #2437]	@ zero_extendqisi2	@ <variable>.Pix, <variable>.Pix
	rsb	ip, r2, ip	@ tmp8958, SmpPat.Pix, <variable>.Pix
	rsblt	r3, r3, #0	@ tmp8952, tmp8951
	ldrb	r1, [sp, #29]	@ zero_extendqisi2	@ SmpPat.Pix, SmpPat.Pix
	cmp	r3, #2	@ tmp8952,
	movle	r3, r8	@, MisCnt.7601, MisCnt.7593
	addgt	r3, r8, #1	@,, MisCnt.7601, MisCnt.7593
	cmp	ip, #0	@ tmp8958,
	ldrb	r4, [r6, #2438]	@ zero_extendqisi2	@ <variable>.Pix, <variable>.Pix
	rsb	r1, r1, r0	@ tmp8965, SmpPat.Pix, <variable>.Pix
	rsblt	ip, ip, #0	@ tmp8959, tmp8958
	ldrb	r2, [sp, #30]	@ zero_extendqisi2	@ SmpPat.Pix, SmpPat.Pix
	cmp	ip, #2	@ tmp8959,
	movle	ip, r3	@, MisCnt.7609, MisCnt.7601
	addgt	ip, r3, #1	@,, MisCnt.7609, MisCnt.7601
	cmp	r1, #0	@ tmp8965,
	ldrb	r0, [r6, #2439]	@ zero_extendqisi2	@ <variable>.Pix, <variable>.Pix
	rsb	r2, r2, r4	@ tmp8972, SmpPat.Pix, <variable>.Pix
	rsblt	r1, r1, #0	@ tmp8966, tmp8965
	ldrb	r3, [sp, #31]	@ zero_extendqisi2	@ SmpPat.Pix, SmpPat.Pix
	cmp	r1, #2	@ tmp8966,
	movle	r1, ip	@, MisCnt.7617, MisCnt.7609
	addgt	r1, ip, #1	@,, MisCnt.7617, MisCnt.7609
	cmp	r2, #0	@ tmp8972,
	rsb	r3, r3, r0	@ tmp8979, SmpPat.Pix, <variable>.Pix
	rsblt	r2, r2, #0	@ tmp8973, tmp8972
	cmp	r2, #2	@ tmp8973,
	movle	r0, r1	@, MisCnt.7625, MisCnt.7617
	addgt	r0, r1, #1	@,, MisCnt.7625, MisCnt.7617
	cmp	r3, #0	@ tmp8979,
	rsblt	r3, r3, #0	@ tmp8980, tmp8979
	cmp	r3, #2	@ tmp8980,
	movle	r1, r0	@, tmp8983, MisCnt.7625
	addgt	r1, r0, #1	@,, tmp8983, MisCnt.7625
	cmp	r1, #2	@ tmp8983,
	bgt	.L46	@,
	ldr	r3, [r6, #2440]	@ <variable>.Comp, <variable>.Comp
	mov	r0, r7	@, tmp12191
	ldr	r2, [r6, #2444]	@ <variable>.Px, <variable>.Px
	mov	r1, r5	@, pDetPara
	ldr	lr, [r6, #2448]	@ <variable>.Py, <variable>.Py
	str	r3, [sp, #12]	@ <variable>.Comp, SmpPat.Comp
	str	r2, [sp, #16]	@ <variable>.Px, SmpPat.Px
	str	lr, [sp, #20]	@ <variable>.Py, SmpPat.Py
	bl	GetSample	@
	ldrb	r4, [r6, #2453]	@ zero_extendqisi2	@ <variable>.Pix, <variable>.Pix
	ldrb	ip, [sp, #25]	@ zero_extendqisi2	@ SmpPat.Pix, SmpPat.Pix
	ldrb	r8, [r6, #2452]	@ zero_extendqisi2	@ <variable>.Pix, <variable>.Pix
	ldrb	r1, [sp, #24]	@ zero_extendqisi2	@ SmpPat.Pix, SmpPat.Pix
	rsb	r3, ip, r4	@ tmp9001, SmpPat.Pix, <variable>.Pix
	cmp	r3, #0	@ tmp9001,
	ldrb	r2, [sp, #26]	@ zero_extendqisi2	@ SmpPat.Pix, SmpPat.Pix
	rsb	r4, r1, r8	@ tmp8994, SmpPat.Pix, <variable>.Pix
	ldrb	r0, [r6, #2454]	@ zero_extendqisi2	@ <variable>.Pix, <variable>.Pix
	rsblt	r3, r3, #0	@ tmp9002, tmp9001
	cmp	r4, #0	@ tmp8994,
	rsb	r0, r2, r0	@ tmp9008, SmpPat.Pix, <variable>.Pix
	rsblt	r4, r4, #0	@ tmp8995, tmp8994
	ldrb	ip, [sp, #27]	@ zero_extendqisi2	@ SmpPat.Pix, SmpPat.Pix
	cmp	r3, #2	@ tmp9002,
	movle	r3, #0	@, tmp9004
	movgt	r3, #1	@, tmp9004
	ldrb	r8, [r6, #2455]	@ zero_extendqisi2	@ <variable>.Pix, <variable>.Pix
	cmp	r4, #2	@ tmp8995,
	addgt	r3, r3, #1	@,, MisCnt.7651, tmp9004
	cmp	r0, #0	@ tmp9008,
	ldrb	r1, [r6, #2456]	@ zero_extendqisi2	@ <variable>.Pix, <variable>.Pix
	rsb	r8, ip, r8	@ tmp9015, SmpPat.Pix, <variable>.Pix
	rsblt	r0, r0, #0	@ tmp9009, tmp9008
	ldrb	r2, [sp, #28]	@ zero_extendqisi2	@ SmpPat.Pix, SmpPat.Pix
	cmp	r0, #2	@ tmp9009,
	addgt	r3, r3, #1	@,, MisCnt.7659, MisCnt.7651
	cmp	r8, #0	@ tmp9015,
	ldrb	r0, [sp, #29]	@ zero_extendqisi2	@ SmpPat.Pix, SmpPat.Pix
	rsb	r2, r2, r1	@ tmp9022, SmpPat.Pix, <variable>.Pix
	rsblt	r8, r8, #0	@ tmp9016, tmp9015
	ldrb	ip, [r6, #2457]	@ zero_extendqisi2	@ <variable>.Pix, <variable>.Pix
	cmp	r8, #2	@ tmp9016,
	addgt	r3, r3, #1	@,, MisCnt.7667, MisCnt.7659
	cmp	r2, #0	@ tmp9022,
	ldrb	r4, [r6, #2458]	@ zero_extendqisi2	@ <variable>.Pix, <variable>.Pix
	rsb	ip, r0, ip	@ tmp9029, SmpPat.Pix, <variable>.Pix
	rsblt	r2, r2, #0	@ tmp9023, tmp9022
	ldrb	r1, [sp, #30]	@ zero_extendqisi2	@ SmpPat.Pix, SmpPat.Pix
	cmp	r2, #2	@ tmp9023,
	addgt	r3, r3, #1	@,, MisCnt.7675, MisCnt.7667
	cmp	ip, #0	@ tmp9029,
	ldrb	r0, [r6, #2459]	@ zero_extendqisi2	@ <variable>.Pix, <variable>.Pix
	rsb	r1, r1, r4	@ tmp9036, SmpPat.Pix, <variable>.Pix
	rsblt	ip, ip, #0	@ tmp9030, tmp9029
	ldrb	r2, [sp, #31]	@ zero_extendqisi2	@ SmpPat.Pix, SmpPat.Pix
	cmp	ip, #2	@ tmp9030,
	addgt	r3, r3, #1	@,, MisCnt.7683, MisCnt.7675
	cmp	r1, #0	@ tmp9036,
	rsb	r2, r2, r0	@ tmp9043, SmpPat.Pix, <variable>.Pix
	rsblt	r1, r1, #0	@ tmp9037, tmp9036
	cmp	r1, #2	@ tmp9037,
	addgt	r3, r3, #1	@,, MisCnt.7691, MisCnt.7683
	cmp	r2, #0	@ tmp9043,
	rsblt	r2, r2, #0	@ tmp9044, tmp9043
	cmp	r2, #2	@ tmp9044,
	addgt	r3, r3, #1	@,, tmp9047, MisCnt.7691
	cmp	r3, #2	@ tmp9047,
	bgt	.L46	@,
	ldr	r3, [r6, #2460]	@ <variable>.Comp, <variable>.Comp
	mov	r0, r7	@, tmp12191
	ldr	r2, [r6, #2464]	@ <variable>.Px, <variable>.Px
	mov	r1, r5	@, pDetPara
	ldr	lr, [r6, #2468]	@ <variable>.Py, <variable>.Py
	str	r3, [sp, #12]	@ <variable>.Comp, SmpPat.Comp
	str	r2, [sp, #16]	@ <variable>.Px, SmpPat.Px
	str	lr, [sp, #20]	@ <variable>.Py, SmpPat.Py
	bl	GetSample	@
	ldrb	r4, [r6, #2473]	@ zero_extendqisi2	@ <variable>.Pix, <variable>.Pix
	ldrb	ip, [sp, #25]	@ zero_extendqisi2	@ SmpPat.Pix, SmpPat.Pix
	ldrb	r8, [r6, #2472]	@ zero_extendqisi2	@ <variable>.Pix, <variable>.Pix
	ldrb	r1, [sp, #24]	@ zero_extendqisi2	@ SmpPat.Pix, SmpPat.Pix
	rsb	r3, ip, r4	@ tmp9065, SmpPat.Pix, <variable>.Pix
	cmp	r3, #0	@ tmp9065,
	ldrb	r2, [sp, #26]	@ zero_extendqisi2	@ SmpPat.Pix, SmpPat.Pix
	rsb	r4, r1, r8	@ tmp9058, SmpPat.Pix, <variable>.Pix
	ldrb	r0, [r6, #2474]	@ zero_extendqisi2	@ <variable>.Pix, <variable>.Pix
	rsblt	r3, r3, #0	@ tmp9066, tmp9065
	cmp	r4, #0	@ tmp9058,
	rsb	r0, r2, r0	@ tmp9072, SmpPat.Pix, <variable>.Pix
	rsblt	r4, r4, #0	@ tmp9059, tmp9058
	ldrb	ip, [sp, #27]	@ zero_extendqisi2	@ SmpPat.Pix, SmpPat.Pix
	cmp	r3, #2	@ tmp9066,
	movle	r3, #0	@, tmp9068
	movgt	r3, #1	@, tmp9068
	ldrb	r8, [r6, #2475]	@ zero_extendqisi2	@ <variable>.Pix, <variable>.Pix
	cmp	r4, #2	@ tmp9059,
	addgt	r3, r3, #1	@,, MisCnt.7717, tmp9068
	cmp	r0, #0	@ tmp9072,
	ldrb	r1, [r6, #2476]	@ zero_extendqisi2	@ <variable>.Pix, <variable>.Pix
	rsb	r8, ip, r8	@ tmp9079, SmpPat.Pix, <variable>.Pix
	rsblt	r0, r0, #0	@ tmp9073, tmp9072
	ldrb	r2, [sp, #28]	@ zero_extendqisi2	@ SmpPat.Pix, SmpPat.Pix
	cmp	r0, #2	@ tmp9073,
	addgt	r3, r3, #1	@,, MisCnt.7725, MisCnt.7717
	cmp	r8, #0	@ tmp9079,
	ldrb	r0, [sp, #29]	@ zero_extendqisi2	@ SmpPat.Pix, SmpPat.Pix
	rsb	r2, r2, r1	@ tmp9086, SmpPat.Pix, <variable>.Pix
	rsblt	r8, r8, #0	@ tmp9080, tmp9079
	ldrb	ip, [r6, #2477]	@ zero_extendqisi2	@ <variable>.Pix, <variable>.Pix
	cmp	r8, #2	@ tmp9080,
	addgt	r3, r3, #1	@,, MisCnt.7733, MisCnt.7725
	cmp	r2, #0	@ tmp9086,
	ldrb	r4, [r6, #2478]	@ zero_extendqisi2	@ <variable>.Pix, <variable>.Pix
	rsb	ip, r0, ip	@ tmp9093, SmpPat.Pix, <variable>.Pix
	rsblt	r2, r2, #0	@ tmp9087, tmp9086
	ldrb	r1, [sp, #30]	@ zero_extendqisi2	@ SmpPat.Pix, SmpPat.Pix
	cmp	r2, #2	@ tmp9087,
	addgt	r3, r3, #1	@,, MisCnt.7741, MisCnt.7733
	cmp	ip, #0	@ tmp9093,
	ldrb	r0, [r6, #2479]	@ zero_extendqisi2	@ <variable>.Pix, <variable>.Pix
	rsblt	ip, ip, #0	@ tmp9094, tmp9093
	rsb	r1, r1, r4	@ tmp9100, SmpPat.Pix, <variable>.Pix
	ldrb	r2, [sp, #31]	@ zero_extendqisi2	@ SmpPat.Pix, SmpPat.Pix
	cmp	ip, #2	@ tmp9094,
	addgt	r3, r3, #1	@,, MisCnt.7749, MisCnt.7741
	cmp	r1, #0	@ tmp9100,
	rsb	ip, r2, r0	@ tmp9107, SmpPat.Pix, <variable>.Pix
	rsblt	r1, r1, #0	@ tmp9101, tmp9100
	cmp	r1, #2	@ tmp9101,
	addgt	r3, r3, #1	@,, MisCnt.7757, MisCnt.7749
	cmp	ip, #0	@ tmp9107,
	rsblt	ip, ip, #0	@ tmp9108, tmp9107
	cmp	ip, #2	@ tmp9108,
	addgt	r3, r3, #1	@,, tmp9111, MisCnt.7757
	cmp	r3, #2	@ tmp9111,
	bgt	.L46	@,
	ldr	r3, [r6, #2480]	@ <variable>.Comp, <variable>.Comp
	mov	r0, r7	@, tmp12191
	ldr	r2, [r6, #2484]	@ <variable>.Px, <variable>.Px
	mov	r1, r5	@, pDetPara
	ldr	lr, [r6, #2488]	@ <variable>.Py, <variable>.Py
	str	r3, [sp, #12]	@ <variable>.Comp, SmpPat.Comp
	str	r2, [sp, #16]	@ <variable>.Px, SmpPat.Px
	str	lr, [sp, #20]	@ <variable>.Py, SmpPat.Py
	bl	GetSample	@
	ldrb	r4, [r6, #2493]	@ zero_extendqisi2	@ <variable>.Pix, <variable>.Pix
	ldrb	ip, [sp, #25]	@ zero_extendqisi2	@ SmpPat.Pix, SmpPat.Pix
	ldrb	r8, [r6, #2492]	@ zero_extendqisi2	@ <variable>.Pix, <variable>.Pix
	ldrb	r1, [sp, #24]	@ zero_extendqisi2	@ SmpPat.Pix, SmpPat.Pix
	rsb	r3, ip, r4	@ tmp9129, SmpPat.Pix, <variable>.Pix
	cmp	r3, #0	@ tmp9129,
	ldrb	r2, [sp, #26]	@ zero_extendqisi2	@ SmpPat.Pix, SmpPat.Pix
	rsb	r4, r1, r8	@ tmp9122, SmpPat.Pix, <variable>.Pix
	ldrb	r0, [r6, #2494]	@ zero_extendqisi2	@ <variable>.Pix, <variable>.Pix
	rsblt	r3, r3, #0	@ tmp9130, tmp9129
	cmp	r4, #0	@ tmp9122,
	rsb	r0, r2, r0	@ tmp9136, SmpPat.Pix, <variable>.Pix
	rsblt	r4, r4, #0	@ tmp9123, tmp9122
	ldrb	ip, [sp, #27]	@ zero_extendqisi2	@ SmpPat.Pix, SmpPat.Pix
	cmp	r3, #2	@ tmp9130,
	movle	r3, #0	@, tmp9132
	movgt	r3, #1	@, tmp9132
	ldrb	r8, [r6, #2495]	@ zero_extendqisi2	@ <variable>.Pix, <variable>.Pix
	cmp	r4, #2	@ tmp9123,
	addgt	r3, r3, #1	@,, MisCnt.7783, tmp9132
	cmp	r0, #0	@ tmp9136,
	ldrb	r1, [r6, #2496]	@ zero_extendqisi2	@ <variable>.Pix, <variable>.Pix
	rsb	r8, ip, r8	@ tmp9143, SmpPat.Pix, <variable>.Pix
	rsblt	r0, r0, #0	@ tmp9137, tmp9136
	ldrb	r2, [sp, #28]	@ zero_extendqisi2	@ SmpPat.Pix, SmpPat.Pix
	cmp	r0, #2	@ tmp9137,
	addgt	r3, r3, #1	@,, MisCnt.7791, MisCnt.7783
	cmp	r8, #0	@ tmp9143,
	ldrb	r0, [sp, #29]	@ zero_extendqisi2	@ SmpPat.Pix, SmpPat.Pix
	rsb	r2, r2, r1	@ tmp9150, SmpPat.Pix, <variable>.Pix
	rsblt	r8, r8, #0	@ tmp9144, tmp9143
	ldrb	ip, [r6, #2497]	@ zero_extendqisi2	@ <variable>.Pix, <variable>.Pix
	cmp	r8, #2	@ tmp9144,
	addgt	r3, r3, #1	@,, MisCnt.7799, MisCnt.7791
	cmp	r2, #0	@ tmp9150,
	ldrb	r4, [r6, #2498]	@ zero_extendqisi2	@ <variable>.Pix, <variable>.Pix
	rsb	ip, r0, ip	@ tmp9157, SmpPat.Pix, <variable>.Pix
	rsblt	r2, r2, #0	@ tmp9151, tmp9150
	ldrb	r1, [sp, #30]	@ zero_extendqisi2	@ SmpPat.Pix, SmpPat.Pix
	cmp	r2, #2	@ tmp9151,
	addgt	r3, r3, #1	@,, MisCnt.7807, MisCnt.7799
	cmp	ip, #0	@ tmp9157,
	ldrb	r0, [r6, #2499]	@ zero_extendqisi2	@ <variable>.Pix, <variable>.Pix
	rsblt	ip, ip, #0	@ tmp9158, tmp9157
	rsb	r1, r1, r4	@ tmp9164, SmpPat.Pix, <variable>.Pix
	ldrb	r2, [sp, #31]	@ zero_extendqisi2	@ SmpPat.Pix, SmpPat.Pix
	cmp	ip, #2	@ tmp9158,
	addgt	r3, r3, #1	@,, MisCnt.7815, MisCnt.7807
	cmp	r1, #0	@ tmp9164,
	rsb	ip, r2, r0	@ tmp9171, SmpPat.Pix, <variable>.Pix
	rsblt	r1, r1, #0	@ tmp9165, tmp9164
	cmp	r1, #2	@ tmp9165,
	addgt	r3, r3, #1	@,, MisCnt.7823, MisCnt.7815
	cmp	ip, #0	@ tmp9171,
	rsblt	ip, ip, #0	@ tmp9172, tmp9171
	cmp	ip, #2	@ tmp9172,
	addgt	r3, r3, #1	@,, tmp9175, MisCnt.7823
	cmp	r3, #2	@ tmp9175,
	bgt	.L46	@,
	ldr	r3, [r6, #2500]	@ <variable>.Comp, <variable>.Comp
	mov	r1, r5	@, pDetPara
	ldr	r2, [r6, #2504]	@ <variable>.Px, <variable>.Px
	mov	r0, r7	@, tmp12191
	ldr	lr, [r6, #2508]	@ <variable>.Py, <variable>.Py
	str	r3, [sp, #12]	@ <variable>.Comp, SmpPat.Comp
	str	r2, [sp, #16]	@ <variable>.Px, SmpPat.Px
	str	lr, [sp, #20]	@ <variable>.Py, SmpPat.Py
	bl	GetSample	@
	ldrb	r4, [r6, #2513]	@ zero_extendqisi2	@ <variable>.Pix, <variable>.Pix
	ldrb	ip, [sp, #25]	@ zero_extendqisi2	@ SmpPat.Pix, SmpPat.Pix
	ldrb	r5, [r6, #2512]	@ zero_extendqisi2	@ <variable>.Pix, <variable>.Pix
	ldrb	r1, [sp, #24]	@ zero_extendqisi2	@ SmpPat.Pix, SmpPat.Pix
	rsb	r3, ip, r4	@ tmp9193, SmpPat.Pix, <variable>.Pix
	cmp	r3, #0	@ tmp9193,
	ldrb	r2, [sp, #26]	@ zero_extendqisi2	@ SmpPat.Pix, SmpPat.Pix
	rsb	r4, r1, r5	@ tmp9186, SmpPat.Pix, <variable>.Pix
	ldrb	r0, [r6, #2514]	@ zero_extendqisi2	@ <variable>.Pix, <variable>.Pix
	rsblt	r3, r3, #0	@ tmp9194, tmp9193
	cmp	r4, #0	@ tmp9186,
	rsb	r0, r2, r0	@ tmp9200, SmpPat.Pix, <variable>.Pix
	rsblt	r4, r4, #0	@ tmp9187, tmp9186
	ldrb	ip, [sp, #27]	@ zero_extendqisi2	@ SmpPat.Pix, SmpPat.Pix
	cmp	r3, #2	@ tmp9194,
	movle	r3, #0	@, tmp9196
	movgt	r3, #1	@, tmp9196
	ldrb	r5, [r6, #2515]	@ zero_extendqisi2	@ <variable>.Pix, <variable>.Pix
	cmp	r4, #2	@ tmp9187,
	addgt	r3, r3, #1	@,, MisCnt.2345, tmp9196
	cmp	r0, #0	@ tmp9200,
	ldrb	r1, [r6, #2516]	@ zero_extendqisi2	@ <variable>.Pix, <variable>.Pix
	rsb	r5, ip, r5	@ tmp9207, SmpPat.Pix, <variable>.Pix
	rsblt	r0, r0, #0	@ tmp9201, tmp9200
	ldrb	r2, [sp, #28]	@ zero_extendqisi2	@ SmpPat.Pix, SmpPat.Pix
	cmp	r0, #2	@ tmp9201,
	addgt	r3, r3, #1	@,, MisCnt.2356, MisCnt.2345
	cmp	r5, #0	@ tmp9207,
	ldrb	r0, [sp, #29]	@ zero_extendqisi2	@ SmpPat.Pix, SmpPat.Pix
	rsb	r2, r2, r1	@ tmp9214, SmpPat.Pix, <variable>.Pix
	rsblt	r5, r5, #0	@ tmp9208, tmp9207
	ldrb	ip, [r6, #2517]	@ zero_extendqisi2	@ <variable>.Pix, <variable>.Pix
	cmp	r5, #2	@ tmp9208,
	addgt	r3, r3, #1	@,, MisCnt.2367, MisCnt.2356
	cmp	r2, #0	@ tmp9214,
	ldrb	r4, [r6, #2518]	@ zero_extendqisi2	@ <variable>.Pix, <variable>.Pix
	rsb	ip, r0, ip	@ tmp9221, SmpPat.Pix, <variable>.Pix
	rsblt	r2, r2, #0	@ tmp9215, tmp9214
	ldrb	r1, [sp, #30]	@ zero_extendqisi2	@ SmpPat.Pix, SmpPat.Pix
	cmp	r2, #2	@ tmp9215,
	addgt	r3, r3, #1	@,, MisCnt.2375, MisCnt.2367
	cmp	ip, #0	@ tmp9221,
	ldrb	r0, [r6, #2519]	@ zero_extendqisi2	@ <variable>.Pix, <variable>.Pix
	rsblt	ip, ip, #0	@ tmp9222, tmp9221
	rsb	r1, r1, r4	@ tmp9228, SmpPat.Pix, <variable>.Pix
	ldrb	r2, [sp, #31]	@ zero_extendqisi2	@ SmpPat.Pix, SmpPat.Pix
	cmp	ip, #2	@ tmp9222,
	addgt	r3, r3, #1	@,, MisCnt.2384, MisCnt.2375
	cmp	r1, #0	@ tmp9228,
	rsb	ip, r2, r0	@ tmp9235, SmpPat.Pix, <variable>.Pix
	rsblt	r1, r1, #0	@ tmp9229, tmp9228
	cmp	r1, #2	@ tmp9229,
	addgt	r3, r3, #1	@,, MisCnt.2395, MisCnt.2384
	cmp	ip, #0	@ tmp9235,
	rsblt	ip, ip, #0	@ tmp9236, tmp9235
	cmp	ip, #2	@ tmp9236,
	addgt	r3, r3, #1	@,, tmp9239, MisCnt.2395
	cmp	r3, #2	@ tmp9239,
	bgt	.L46	@,
	mov	r0, #10	@ Result,
	b	.L13	@
.L66:
	mov	r0, #1	@,
	movw	r1, #:lower16:.LC0	@,
	movt	r1, #:upper16:.LC0	@,
	bl	dprint_vfmw	@
	mov	r0, r5	@ Result, pDetPara
	b	.L13	@
.L69:
	cmp	r3, #720	@ prephitmp.801,
	beq	.L72	@,
	cmp	r3, #704	@ prephitmp.801,
	bne	.L49	@,
	movw	r4, #:lower16:.LANCHOR0	@ tmp12192,
	movt	r4, #:upper16:.LANCHOR0	@ tmp12192,
	add	r7, sp, #12	@ tmp12193,,
	mov	r1, r5	@, pDetPara
	ldr	r3, [r4, #2520]	@ <variable>.Comp, <variable>.Comp
	ldr	r2, [r4, #2524]	@ <variable>.Px, <variable>.Px
	mov	r0, r7	@, tmp12193
	ldr	lr, [r4, #2528]	@ <variable>.Py, <variable>.Py
	str	r3, [sp, #12]	@ <variable>.Comp, SmpPat.Comp
	str	r2, [sp, #16]	@ <variable>.Px, SmpPat.Px
	str	lr, [sp, #20]	@ <variable>.Py, SmpPat.Py
	bl	GetSample	@
	ldrb	ip, [r4, #2532]	@ zero_extendqisi2	@ <variable>.Pix, <variable>.Pix
	ldrb	r6, [sp, #24]	@ zero_extendqisi2	@ SmpPat.Pix, SmpPat.Pix
	ldrb	r8, [r4, #2533]	@ zero_extendqisi2	@ <variable>.Pix, <variable>.Pix
	ldrb	r1, [sp, #25]	@ zero_extendqisi2	@ SmpPat.Pix, SmpPat.Pix
	rsb	r3, r6, ip	@ tmp9257, SmpPat.Pix, <variable>.Pix
	cmp	r3, #0	@ tmp9257,
	ldrb	r2, [sp, #26]	@ zero_extendqisi2	@ SmpPat.Pix, SmpPat.Pix
	rsb	lr, r1, r8	@ tmp9250, SmpPat.Pix, <variable>.Pix
	ldrb	r0, [r4, #2534]	@ zero_extendqisi2	@ <variable>.Pix, <variable>.Pix
	rsblt	r3, r3, #0	@ tmp9258, tmp9257
	cmp	lr, #0	@ tmp9250,
	rsb	r0, r2, r0	@ tmp9264, SmpPat.Pix, <variable>.Pix
	rsblt	lr, lr, #0	@ tmp9251, tmp9250
	ldrb	ip, [sp, #27]	@ zero_extendqisi2	@ SmpPat.Pix, SmpPat.Pix
	cmp	r3, #2	@ tmp9258,
	movle	r8, #0	@, tmp9260
	movgt	r8, #1	@, tmp9260
	ldrb	r6, [r4, #2535]	@ zero_extendqisi2	@ <variable>.Pix, <variable>.Pix
	cmp	lr, #2	@ tmp9251,
	addgt	r8, r8, #1	@,, MisCnt.2215, tmp9260
	cmp	r0, #0	@ tmp9264,
	ldrb	r1, [r4, #2536]	@ zero_extendqisi2	@ <variable>.Pix, <variable>.Pix
	rsb	r6, ip, r6	@ tmp9271, SmpPat.Pix, <variable>.Pix
	rsblt	r0, r0, #0	@ tmp9265, tmp9264
	ldrb	r2, [sp, #28]	@ zero_extendqisi2	@ SmpPat.Pix, SmpPat.Pix
	cmp	r0, #2	@ tmp9265,
	addgt	r8, r8, #1	@,, MisCnt.2167, MisCnt.2215
	cmp	r6, #0	@ tmp9271,
	ldrb	r0, [sp, #29]	@ zero_extendqisi2	@ SmpPat.Pix, SmpPat.Pix
	rsb	r2, r2, r1	@ tmp9278, SmpPat.Pix, <variable>.Pix
	rsblt	r6, r6, #0	@ tmp9272, tmp9271
	ldrb	ip, [r4, #2537]	@ zero_extendqisi2	@ <variable>.Pix, <variable>.Pix
	cmp	r6, #2	@ tmp9272,
	addgt	r8, r8, #1	@,, MisCnt.2135, MisCnt.2167
	cmp	r2, #0	@ tmp9278,
	ldrb	lr, [r4, #2538]	@ zero_extendqisi2	@ <variable>.Pix, <variable>.Pix
	rsb	ip, r0, ip	@ tmp9285, SmpPat.Pix, <variable>.Pix
	rsblt	r2, r2, #0	@ tmp9279, tmp9278
	ldrb	r1, [sp, #30]	@ zero_extendqisi2	@ SmpPat.Pix, SmpPat.Pix
	cmp	r2, #2	@ tmp9279,
	addgt	r8, r8, #1	@,, MisCnt.1545, MisCnt.2135
	cmp	ip, #0	@ tmp9285,
	ldrb	r0, [r4, #2539]	@ zero_extendqisi2	@ <variable>.Pix, <variable>.Pix
	rsb	r1, r1, lr	@ tmp9292, SmpPat.Pix, <variable>.Pix
	rsblt	ip, ip, #0	@ tmp9286, tmp9285
	ldrb	r2, [sp, #31]	@ zero_extendqisi2	@ SmpPat.Pix, SmpPat.Pix
	cmp	ip, #2	@ tmp9286,
	addgt	r8, r8, #1	@,, MisCnt.1495, MisCnt.1545
	cmp	r1, #0	@ tmp9292,
	rsb	r6, r2, r0	@ tmp9299, SmpPat.Pix, <variable>.Pix
	rsblt	r1, r1, #0	@ tmp9293, tmp9292
	cmp	r1, #2	@ tmp9293,
	addgt	r8, r8, #1	@,, MisCnt.1463, MisCnt.1495
	cmp	r6, #0	@ tmp9299,
	rsblt	r6, r6, #0	@ tmp9300, tmp9299
	cmp	r6, #2	@ tmp9300,
	addgt	r8, r8, #1	@,, tmp9303, MisCnt.1463
	cmp	r8, #2	@ tmp9303,
	bgt	.L50	@,
	ldr	r3, [r4, #2540]	@ <variable>.Comp, <variable>.Comp
	mov	r0, r7	@, tmp12193
	ldr	r2, [r4, #2544]	@ <variable>.Px, <variable>.Px
	mov	r1, r5	@, pDetPara
	ldr	lr, [r4, #2548]	@ <variable>.Py, <variable>.Py
	str	r3, [sp, #12]	@ <variable>.Comp, SmpPat.Comp
	str	r2, [sp, #16]	@ <variable>.Px, SmpPat.Px
	str	lr, [sp, #20]	@ <variable>.Py, SmpPat.Py
	bl	GetSample	@
	ldrb	ip, [r4, #2552]	@ zero_extendqisi2	@ <variable>.Pix, <variable>.Pix
	ldrb	r6, [sp, #24]	@ zero_extendqisi2	@ SmpPat.Pix, SmpPat.Pix
	ldrb	r8, [r4, #2553]	@ zero_extendqisi2	@ <variable>.Pix, <variable>.Pix
	ldrb	r1, [sp, #25]	@ zero_extendqisi2	@ SmpPat.Pix, SmpPat.Pix
	rsb	r3, r6, ip	@ tmp9321, SmpPat.Pix, <variable>.Pix
	cmp	r3, #0	@ tmp9321,
	ldrb	r2, [sp, #26]	@ zero_extendqisi2	@ SmpPat.Pix, SmpPat.Pix
	rsb	lr, r1, r8	@ tmp9314, SmpPat.Pix, <variable>.Pix
	ldrb	r0, [r4, #2554]	@ zero_extendqisi2	@ <variable>.Pix, <variable>.Pix
	rsblt	r3, r3, #0	@ tmp9322, tmp9321
	cmp	lr, #0	@ tmp9314,
	rsb	r0, r2, r0	@ tmp9328, SmpPat.Pix, <variable>.Pix
	rsblt	lr, lr, #0	@ tmp9315, tmp9314
	ldrb	ip, [sp, #27]	@ zero_extendqisi2	@ SmpPat.Pix, SmpPat.Pix
	cmp	r3, #2	@ tmp9322,
	movle	r8, #0	@, tmp9324
	movgt	r8, #1	@, tmp9324
	ldrb	r6, [r4, #2555]	@ zero_extendqisi2	@ <variable>.Pix, <variable>.Pix
	cmp	lr, #2	@ tmp9315,
	addgt	r8, r8, #1	@,, MisCnt.1273, tmp9324
	cmp	r0, #0	@ tmp9328,
	ldrb	r1, [r4, #2556]	@ zero_extendqisi2	@ <variable>.Pix, <variable>.Pix
	rsb	r6, ip, r6	@ tmp9335, SmpPat.Pix, <variable>.Pix
	rsblt	r0, r0, #0	@ tmp9329, tmp9328
	ldrb	r2, [sp, #28]	@ zero_extendqisi2	@ SmpPat.Pix, SmpPat.Pix
	cmp	r0, #2	@ tmp9329,
	addgt	r8, r8, #1	@,, MisCnt.1241, MisCnt.1273
	cmp	r6, #0	@ tmp9335,
	ldrb	r0, [sp, #29]	@ zero_extendqisi2	@ SmpPat.Pix, SmpPat.Pix
	rsb	r2, r2, r1	@ tmp9342, SmpPat.Pix, <variable>.Pix
	rsblt	r6, r6, #0	@ tmp9336, tmp9335
	ldrb	ip, [r4, #2557]	@ zero_extendqisi2	@ <variable>.Pix, <variable>.Pix
	cmp	r6, #2	@ tmp9336,
	addgt	r8, r8, #1	@,, MisCnt.1192, MisCnt.1241
	cmp	r2, #0	@ tmp9342,
	ldrb	lr, [r4, #2558]	@ zero_extendqisi2	@ <variable>.Pix, <variable>.Pix
	rsb	ip, r0, ip	@ tmp9349, SmpPat.Pix, <variable>.Pix
	rsblt	r2, r2, #0	@ tmp9343, tmp9342
	ldrb	r1, [sp, #30]	@ zero_extendqisi2	@ SmpPat.Pix, SmpPat.Pix
	cmp	r2, #2	@ tmp9343,
	addgt	r8, r8, #1	@,, MisCnt.1151, MisCnt.1192
	cmp	ip, #0	@ tmp9349,
	ldrb	r0, [r4, #2559]	@ zero_extendqisi2	@ <variable>.Pix, <variable>.Pix
	rsb	r1, r1, lr	@ tmp9356, SmpPat.Pix, <variable>.Pix
	rsblt	ip, ip, #0	@ tmp9350, tmp9349
	ldrb	r2, [sp, #31]	@ zero_extendqisi2	@ SmpPat.Pix, SmpPat.Pix
	cmp	ip, #2	@ tmp9350,
	addgt	r8, r8, #1	@,, MisCnt.1119, MisCnt.1151
	cmp	r1, #0	@ tmp9356,
	rsb	r6, r2, r0	@ tmp9363, SmpPat.Pix, <variable>.Pix
	rsblt	r1, r1, #0	@ tmp9357, tmp9356
	cmp	r1, #2	@ tmp9357,
	addgt	r8, r8, #1	@,, MisCnt.2376, MisCnt.1119
	cmp	r6, #0	@ tmp9363,
	rsblt	r6, r6, #0	@ tmp9364, tmp9363
	cmp	r6, #2	@ tmp9364,
	addgt	r8, r8, #1	@,, tmp9367, MisCnt.2376
	cmp	r8, #2	@ tmp9367,
	bgt	.L50	@,
	ldr	r3, [r4, #2560]	@ <variable>.Comp, <variable>.Comp
	mov	r0, r7	@, tmp12193
	ldr	r2, [r4, #2564]	@ <variable>.Px, <variable>.Px
	mov	r1, r5	@, pDetPara
	ldr	lr, [r4, #2568]	@ <variable>.Py, <variable>.Py
	str	r3, [sp, #12]	@ <variable>.Comp, SmpPat.Comp
	str	r2, [sp, #16]	@ <variable>.Px, SmpPat.Px
	str	lr, [sp, #20]	@ <variable>.Py, SmpPat.Py
	bl	GetSample	@
	ldrb	r6, [r4, #2573]	@ zero_extendqisi2	@ <variable>.Pix, <variable>.Pix
	ldrb	ip, [sp, #25]	@ zero_extendqisi2	@ SmpPat.Pix, SmpPat.Pix
	ldrb	r8, [r4, #2572]	@ zero_extendqisi2	@ <variable>.Pix, <variable>.Pix
	ldrb	r1, [sp, #24]	@ zero_extendqisi2	@ SmpPat.Pix, SmpPat.Pix
	rsb	r3, ip, r6	@ tmp9385, SmpPat.Pix, <variable>.Pix
	cmp	r3, #0	@ tmp9385,
	ldrb	r2, [sp, #26]	@ zero_extendqisi2	@ SmpPat.Pix, SmpPat.Pix
	rsb	r6, r1, r8	@ tmp9378, SmpPat.Pix, <variable>.Pix
	ldrb	r0, [r4, #2574]	@ zero_extendqisi2	@ <variable>.Pix, <variable>.Pix
	rsblt	r3, r3, #0	@ tmp9386, tmp9385
	cmp	r6, #0	@ tmp9378,
	rsb	r0, r2, r0	@ tmp9392, SmpPat.Pix, <variable>.Pix
	rsblt	r6, r6, #0	@ tmp9379, tmp9378
	ldrb	ip, [sp, #27]	@ zero_extendqisi2	@ SmpPat.Pix, SmpPat.Pix
	cmp	r3, #2	@ tmp9386,
	movle	r3, #0	@, tmp9388
	movgt	r3, #1	@, tmp9388
	ldrb	r8, [r4, #2575]	@ zero_extendqisi2	@ <variable>.Pix, <variable>.Pix
	cmp	r6, #2	@ tmp9379,
	addgt	r3, r3, #1	@,, MisCnt.1109, tmp9388
	cmp	r0, #0	@ tmp9392,
	ldrb	r1, [r4, #2576]	@ zero_extendqisi2	@ <variable>.Pix, <variable>.Pix
	rsb	r8, ip, r8	@ tmp9399, SmpPat.Pix, <variable>.Pix
	rsblt	r0, r0, #0	@ tmp9393, tmp9392
	ldrb	r2, [sp, #28]	@ zero_extendqisi2	@ SmpPat.Pix, SmpPat.Pix
	cmp	r0, #2	@ tmp9393,
	addgt	r3, r3, #1	@,, MisCnt.1118, MisCnt.1109
	cmp	r8, #0	@ tmp9399,
	ldrb	r0, [sp, #29]	@ zero_extendqisi2	@ SmpPat.Pix, SmpPat.Pix
	rsb	r2, r2, r1	@ tmp9406, SmpPat.Pix, <variable>.Pix
	rsblt	r8, r8, #0	@ tmp9400, tmp9399
	ldrb	ip, [r4, #2577]	@ zero_extendqisi2	@ <variable>.Pix, <variable>.Pix
	cmp	r8, #2	@ tmp9400,
	addgt	r3, r3, #1	@,, MisCnt.1129, MisCnt.1118
	cmp	r2, #0	@ tmp9406,
	ldrb	r6, [r4, #2578]	@ zero_extendqisi2	@ <variable>.Pix, <variable>.Pix
	rsb	ip, r0, ip	@ tmp9413, SmpPat.Pix, <variable>.Pix
	rsblt	r2, r2, #0	@ tmp9407, tmp9406
	ldrb	r1, [sp, #30]	@ zero_extendqisi2	@ SmpPat.Pix, SmpPat.Pix
	cmp	r2, #2	@ tmp9407,
	addgt	r3, r3, #1	@,, MisCnt.1140, MisCnt.1129
	cmp	ip, #0	@ tmp9413,
	ldrb	r0, [r4, #2579]	@ zero_extendqisi2	@ <variable>.Pix, <variable>.Pix
	rsblt	ip, ip, #0	@ tmp9414, tmp9413
	rsb	r1, r1, r6	@ tmp9420, SmpPat.Pix, <variable>.Pix
	ldrb	r2, [sp, #31]	@ zero_extendqisi2	@ SmpPat.Pix, SmpPat.Pix
	cmp	ip, #2	@ tmp9414,
	addgt	r3, r3, #1	@,, MisCnt.1150, MisCnt.1140
	cmp	r1, #0	@ tmp9420,
	rsb	ip, r2, r0	@ tmp9427, SmpPat.Pix, <variable>.Pix
	rsblt	r1, r1, #0	@ tmp9421, tmp9420
	cmp	r1, #2	@ tmp9421,
	addgt	r3, r3, #1	@,, MisCnt.1160, MisCnt.1150
	cmp	ip, #0	@ tmp9427,
	rsblt	ip, ip, #0	@ tmp9428, tmp9427
	cmp	ip, #2	@ tmp9428,
	addgt	r3, r3, #1	@,, tmp9431, MisCnt.1160
	cmp	r3, #2	@ tmp9431,
	movle	r0, #23	@ Result,
	ble	.L13	@,
.L50:
	ldr	ip, [r4, #2620]	@ <variable>.Comp, <variable>.Comp
	mov	r0, r7	@, tmp12193
	ldr	sl, [r4, #2624]	@ <variable>.Px, <variable>.Px
	mov	r1, r5	@, pDetPara
	ldr	lr, [r4, #2628]	@ <variable>.Py, <variable>.Py
	movw	r6, #:lower16:.LANCHOR0	@ tmp9432,
	str	ip, [sp, #12]	@ <variable>.Comp, SmpPat.Comp
	movt	r6, #:upper16:.LANCHOR0	@ tmp9432,
	str	sl, [sp, #16]	@ <variable>.Px, SmpPat.Px
	str	lr, [sp, #20]	@ <variable>.Py, SmpPat.Py
	bl	GetSample	@
	ldrb	r1, [r4, #2632]	@ zero_extendqisi2	@ <variable>.Pix, <variable>.Pix
	ldrb	r2, [sp, #24]	@ zero_extendqisi2	@ SmpPat.Pix, SmpPat.Pix
	ldrb	r0, [r4, #2633]	@ zero_extendqisi2	@ <variable>.Pix, <variable>.Pix
	ldrb	r3, [sp, #25]	@ zero_extendqisi2	@ SmpPat.Pix, SmpPat.Pix
	rsb	r8, r2, r1	@ tmp9449, SmpPat.Pix, <variable>.Pix
	cmp	r8, #0	@ tmp9449,
	ldrb	sl, [r4, #2634]	@ zero_extendqisi2	@ <variable>.Pix, <variable>.Pix
	rsb	lr, r3, r0	@ tmp9442, SmpPat.Pix, <variable>.Pix
	ldrb	ip, [sp, #26]	@ zero_extendqisi2	@ SmpPat.Pix, SmpPat.Pix
	rsblt	r8, r8, #0	@ tmp9450, tmp9449
	cmp	lr, #0	@ tmp9442,
	rsblt	lr, lr, #0	@ tmp9443, tmp9442
	ldrb	r0, [r4, #2635]	@ zero_extendqisi2	@ <variable>.Pix, <variable>.Pix
	cmp	r8, #2	@ tmp9450,
	movle	r1, #0	@, tmp9452
	movgt	r1, #1	@, tmp9452
	ldrb	r3, [sp, #27]	@ zero_extendqisi2	@ SmpPat.Pix, SmpPat.Pix
	rsb	r8, ip, sl	@ tmp9456, SmpPat.Pix, <variable>.Pix
	cmp	lr, #2	@ tmp9443,
	addgt	r1, r1, #1	@,, MisCnt.1981, tmp9452
	cmp	r8, #0	@ tmp9456,
	rsb	sl, r3, r0	@ tmp9463, SmpPat.Pix, <variable>.Pix
	ldrb	r2, [sp, #28]	@ zero_extendqisi2	@ SmpPat.Pix, SmpPat.Pix
	rsblt	r8, r8, #0	@ tmp9457, tmp9456
	ldrb	ip, [r4, #2636]	@ zero_extendqisi2	@ <variable>.Pix, <variable>.Pix
	cmp	r8, #2	@ tmp9457,
	movle	r8, r1	@, MisCnt.1941, MisCnt.1981
	addgt	r8, r1, #1	@,, MisCnt.1941, MisCnt.1981
	cmp	sl, #0	@ tmp9463,
	ldrb	r0, [r4, #2637]	@ zero_extendqisi2	@ <variable>.Pix, <variable>.Pix
	rsb	ip, r2, ip	@ tmp9470, SmpPat.Pix, <variable>.Pix
	rsblt	sl, sl, #0	@ tmp9464, tmp9463
	ldrb	r1, [sp, #29]	@ zero_extendqisi2	@ SmpPat.Pix, SmpPat.Pix
	cmp	sl, #2	@ tmp9464,
	movle	r3, r8	@, MisCnt.1899, MisCnt.1941
	addgt	r3, r8, #1	@,, MisCnt.1899, MisCnt.1941
	cmp	ip, #0	@ tmp9470,
	ldrb	lr, [r4, #2638]	@ zero_extendqisi2	@ <variable>.Pix, <variable>.Pix
	rsb	r8, r1, r0	@ tmp9477, SmpPat.Pix, <variable>.Pix
	rsblt	ip, ip, #0	@ tmp9471, tmp9470
	ldrb	r2, [sp, #30]	@ zero_extendqisi2	@ SmpPat.Pix, SmpPat.Pix
	cmp	ip, #2	@ tmp9471,
	movle	ip, r3	@, MisCnt.1867, MisCnt.1899
	addgt	ip, r3, #1	@,, MisCnt.1867, MisCnt.1899
	cmp	r8, #0	@ tmp9477,
	ldrb	sl, [r4, #2639]	@ zero_extendqisi2	@ <variable>.Pix, <variable>.Pix
	rsblt	r8, r8, #0	@ tmp9478, tmp9477
	rsb	r2, r2, lr	@ tmp9484, SmpPat.Pix, <variable>.Pix
	ldrb	r3, [sp, #31]	@ zero_extendqisi2	@ SmpPat.Pix, SmpPat.Pix
	cmp	r8, #2	@ tmp9478,
	movle	r1, ip	@, MisCnt.1819, MisCnt.1867
	addgt	r1, ip, #1	@,, MisCnt.1819, MisCnt.1867
	cmp	r2, #0	@ tmp9484,
	rsb	r8, r3, sl	@ tmp9491, SmpPat.Pix, <variable>.Pix
	rsblt	r2, r2, #0	@ tmp9485, tmp9484
	cmp	r2, #2	@ tmp9485,
	movle	r0, r1	@, MisCnt.1787, MisCnt.1819
	addgt	r0, r1, #1	@,, MisCnt.1787, MisCnt.1819
	cmp	r8, #0	@ tmp9491,
	rsblt	r8, r8, #0	@ tmp9492, tmp9491
	cmp	r8, #2	@ tmp9492,
	movle	sl, r0	@, tmp9495, MisCnt.1787
	addgt	sl, r0, #1	@,, tmp9495, MisCnt.1787
	cmp	sl, #2	@ tmp9495,
	bgt	.L51	@,
	ldr	r2, [r6, #2640]	@ <variable>.Comp, <variable>.Comp
	mov	r0, r7	@, tmp12193
	ldr	sl, [r6, #2644]	@ <variable>.Px, <variable>.Px
	mov	r1, r5	@, pDetPara
	ldr	lr, [r6, #2648]	@ <variable>.Py, <variable>.Py
	str	r2, [sp, #12]	@ <variable>.Comp, SmpPat.Comp
	str	sl, [sp, #16]	@ <variable>.Px, SmpPat.Px
	str	lr, [sp, #20]	@ <variable>.Py, SmpPat.Py
	bl	GetSample	@
	ldrb	ip, [r6, #2652]	@ zero_extendqisi2	@ <variable>.Pix, <variable>.Pix
	ldrb	r8, [sp, #24]	@ zero_extendqisi2	@ SmpPat.Pix, SmpPat.Pix
	ldrb	r0, [r6, #2653]	@ zero_extendqisi2	@ <variable>.Pix, <variable>.Pix
	ldrb	r1, [sp, #25]	@ zero_extendqisi2	@ SmpPat.Pix, SmpPat.Pix
	rsb	r3, r8, ip	@ tmp9513, SmpPat.Pix, <variable>.Pix
	cmp	r3, #0	@ tmp9513,
	ldrb	sl, [r6, #2654]	@ zero_extendqisi2	@ <variable>.Pix, <variable>.Pix
	rsb	lr, r1, r0	@ tmp9506, SmpPat.Pix, <variable>.Pix
	ldrb	r2, [sp, #26]	@ zero_extendqisi2	@ SmpPat.Pix, SmpPat.Pix
	rsblt	r3, r3, #0	@ tmp9514, tmp9513
	cmp	lr, #0	@ tmp9506,
	rsb	r0, r2, sl	@ tmp9520, SmpPat.Pix, <variable>.Pix
	rsblt	lr, lr, #0	@ tmp9507, tmp9506
	ldrb	ip, [sp, #27]	@ zero_extendqisi2	@ SmpPat.Pix, SmpPat.Pix
	cmp	r3, #2	@ tmp9514,
	movle	r3, #0	@, tmp9516
	movgt	r3, #1	@, tmp9516
	ldrb	r8, [r6, #2655]	@ zero_extendqisi2	@ <variable>.Pix, <variable>.Pix
	cmp	lr, #2	@ tmp9507,
	addgt	r3, r3, #1	@,, MisCnt.1596, tmp9516
	cmp	r0, #0	@ tmp9520,
	ldrb	r1, [r6, #2656]	@ zero_extendqisi2	@ <variable>.Pix, <variable>.Pix
	rsb	r8, ip, r8	@ tmp9527, SmpPat.Pix, <variable>.Pix
	rsblt	r0, r0, #0	@ tmp9521, tmp9520
	ldrb	sl, [sp, #28]	@ zero_extendqisi2	@ SmpPat.Pix, SmpPat.Pix
	cmp	r0, #2	@ tmp9521,
	addgt	r3, r3, #1	@,, MisCnt.3464, MisCnt.1596
	cmp	r8, #0	@ tmp9527,
	ldrb	r0, [sp, #29]	@ zero_extendqisi2	@ SmpPat.Pix, SmpPat.Pix
	rsb	r2, sl, r1	@ tmp9534, SmpPat.Pix, <variable>.Pix
	rsblt	r8, r8, #0	@ tmp9528, tmp9527
	ldrb	ip, [r6, #2657]	@ zero_extendqisi2	@ <variable>.Pix, <variable>.Pix
	cmp	r8, #2	@ tmp9528,
	addgt	r3, r3, #1	@,, MisCnt.3424, MisCnt.3464
	cmp	r2, #0	@ tmp9534,
	ldrb	lr, [r6, #2658]	@ zero_extendqisi2	@ <variable>.Pix, <variable>.Pix
	rsb	sl, r0, ip	@ tmp9541, SmpPat.Pix, <variable>.Pix
	rsblt	r2, r2, #0	@ tmp9535, tmp9534
	ldrb	r1, [sp, #30]	@ zero_extendqisi2	@ SmpPat.Pix, SmpPat.Pix
	cmp	r2, #2	@ tmp9535,
	addgt	r3, r3, #1	@,, MisCnt.3382, MisCnt.3424
	cmp	sl, #0	@ tmp9541,
	ldrb	r0, [r6, #2659]	@ zero_extendqisi2	@ <variable>.Pix, <variable>.Pix
	rsb	r1, r1, lr	@ tmp9548, SmpPat.Pix, <variable>.Pix
	rsblt	sl, sl, #0	@ tmp9542, tmp9541
	ldrb	r2, [sp, #31]	@ zero_extendqisi2	@ SmpPat.Pix, SmpPat.Pix
	cmp	sl, #2	@ tmp9542,
	addgt	r3, r3, #1	@,, MisCnt.3350, MisCnt.3382
	cmp	r1, #0	@ tmp9548,
	rsb	r8, r2, r0	@ tmp9555, SmpPat.Pix, <variable>.Pix
	rsblt	r1, r1, #0	@ tmp9549, tmp9548
	cmp	r1, #2	@ tmp9549,
	addgt	r3, r3, #1	@,, MisCnt.3300, MisCnt.3350
	cmp	r8, #0	@ tmp9555,
	rsblt	r8, r8, #0	@ tmp9556, tmp9555
	cmp	r8, #2	@ tmp9556,
	addgt	r3, r3, #1	@,, tmp9559, MisCnt.3300
	cmp	r3, #2	@ tmp9559,
	bgt	.L51	@,
	ldr	r3, [r6, #2660]	@ <variable>.Comp, <variable>.Comp
	mov	r0, r7	@, tmp12193
	ldr	r2, [r6, #2664]	@ <variable>.Px, <variable>.Px
	mov	r1, r5	@, pDetPara
	ldr	lr, [r6, #2668]	@ <variable>.Py, <variable>.Py
	str	r3, [sp, #12]	@ <variable>.Comp, SmpPat.Comp
	str	r2, [sp, #16]	@ <variable>.Px, SmpPat.Px
	str	lr, [sp, #20]	@ <variable>.Py, SmpPat.Py
	bl	GetSample	@
	ldrb	r8, [r6, #2673]	@ zero_extendqisi2	@ <variable>.Pix, <variable>.Pix
	ldrb	ip, [sp, #25]	@ zero_extendqisi2	@ SmpPat.Pix, SmpPat.Pix
	ldrb	sl, [r6, #2672]	@ zero_extendqisi2	@ <variable>.Pix, <variable>.Pix
	ldrb	r1, [sp, #24]	@ zero_extendqisi2	@ SmpPat.Pix, SmpPat.Pix
	rsb	r3, ip, r8	@ tmp9577, SmpPat.Pix, <variable>.Pix
	cmp	r3, #0	@ tmp9577,
	ldrb	r2, [sp, #26]	@ zero_extendqisi2	@ SmpPat.Pix, SmpPat.Pix
	rsb	r8, r1, sl	@ tmp9570, SmpPat.Pix, <variable>.Pix
	ldrb	r0, [r6, #2674]	@ zero_extendqisi2	@ <variable>.Pix, <variable>.Pix
	rsblt	r3, r3, #0	@ tmp9578, tmp9577
	cmp	r8, #0	@ tmp9570,
	rsb	r0, r2, r0	@ tmp9584, SmpPat.Pix, <variable>.Pix
	rsblt	r8, r8, #0	@ tmp9571, tmp9570
	ldrb	ip, [sp, #27]	@ zero_extendqisi2	@ SmpPat.Pix, SmpPat.Pix
	cmp	r3, #2	@ tmp9578,
	movle	r3, #0	@, tmp9580
	movgt	r3, #1	@, tmp9580
	ldrb	sl, [r6, #2675]	@ zero_extendqisi2	@ <variable>.Pix, <variable>.Pix
	cmp	r8, #2	@ tmp9571,
	addgt	r3, r3, #1	@,, MisCnt.1180, tmp9580
	cmp	r0, #0	@ tmp9584,
	ldrb	r1, [r6, #2676]	@ zero_extendqisi2	@ <variable>.Pix, <variable>.Pix
	rsb	sl, ip, sl	@ tmp9591, SmpPat.Pix, <variable>.Pix
	rsblt	r0, r0, #0	@ tmp9585, tmp9584
	ldrb	r2, [sp, #28]	@ zero_extendqisi2	@ SmpPat.Pix, SmpPat.Pix
	cmp	r0, #2	@ tmp9585,
	addgt	r3, r3, #1	@,, MisCnt.1191, MisCnt.1180
	cmp	sl, #0	@ tmp9591,
	ldrb	r0, [sp, #29]	@ zero_extendqisi2	@ SmpPat.Pix, SmpPat.Pix
	rsb	r2, r2, r1	@ tmp9598, SmpPat.Pix, <variable>.Pix
	rsblt	sl, sl, #0	@ tmp9592, tmp9591
	ldrb	ip, [r6, #2677]	@ zero_extendqisi2	@ <variable>.Pix, <variable>.Pix
	cmp	sl, #2	@ tmp9592,
	addgt	r3, r3, #1	@,, MisCnt.1200, MisCnt.1191
	cmp	r2, #0	@ tmp9598,
	ldrb	r8, [r6, #2678]	@ zero_extendqisi2	@ <variable>.Pix, <variable>.Pix
	rsb	ip, r0, ip	@ tmp9605, SmpPat.Pix, <variable>.Pix
	rsblt	r2, r2, #0	@ tmp9599, tmp9598
	ldrb	r1, [sp, #30]	@ zero_extendqisi2	@ SmpPat.Pix, SmpPat.Pix
	cmp	r2, #2	@ tmp9599,
	addgt	r3, r3, #1	@,, MisCnt.1211, MisCnt.1200
	cmp	ip, #0	@ tmp9605,
	ldrb	r0, [r6, #2679]	@ zero_extendqisi2	@ <variable>.Pix, <variable>.Pix
	rsblt	ip, ip, #0	@ tmp9606, tmp9605
	rsb	r1, r1, r8	@ tmp9612, SmpPat.Pix, <variable>.Pix
	ldrb	r2, [sp, #31]	@ zero_extendqisi2	@ SmpPat.Pix, SmpPat.Pix
	cmp	ip, #2	@ tmp9606,
	addgt	r3, r3, #1	@,, MisCnt.1222, MisCnt.1211
	cmp	r1, #0	@ tmp9612,
	rsb	ip, r2, r0	@ tmp9619, SmpPat.Pix, <variable>.Pix
	rsblt	r1, r1, #0	@ tmp9613, tmp9612
	cmp	r1, #2	@ tmp9613,
	addgt	r3, r3, #1	@,, MisCnt.1231, MisCnt.1222
	cmp	ip, #0	@ tmp9619,
	rsblt	ip, ip, #0	@ tmp9620, tmp9619
	cmp	ip, #2	@ tmp9620,
	addgt	r3, r3, #1	@,, tmp9623, MisCnt.1231
	cmp	r3, #2	@ tmp9623,
	movle	r0, #4	@ Result,
	ble	.L13	@,
.L51:
	ldr	ip, [r4, #2680]	@ <variable>.Comp, <variable>.Comp
	mov	r0, r7	@, tmp12193
	ldr	sl, [r4, #2684]	@ <variable>.Px, <variable>.Px
	mov	r1, r5	@, pDetPara
	ldr	lr, [r4, #2688]	@ <variable>.Py, <variable>.Py
	movw	r6, #:lower16:.LANCHOR0	@ tmp9624,
	str	ip, [sp, #12]	@ <variable>.Comp, SmpPat.Comp
	movt	r6, #:upper16:.LANCHOR0	@ tmp9624,
	str	sl, [sp, #16]	@ <variable>.Px, SmpPat.Px
	str	lr, [sp, #20]	@ <variable>.Py, SmpPat.Py
	bl	GetSample	@
	ldrb	r1, [r4, #2692]	@ zero_extendqisi2	@ <variable>.Pix, <variable>.Pix
	ldrb	r2, [sp, #24]	@ zero_extendqisi2	@ SmpPat.Pix, SmpPat.Pix
	ldrb	r0, [r4, #2693]	@ zero_extendqisi2	@ <variable>.Pix, <variable>.Pix
	ldrb	r3, [sp, #25]	@ zero_extendqisi2	@ SmpPat.Pix, SmpPat.Pix
	rsb	r8, r2, r1	@ tmp9641, SmpPat.Pix, <variable>.Pix
	cmp	r8, #0	@ tmp9641,
	ldrb	sl, [r4, #2694]	@ zero_extendqisi2	@ <variable>.Pix, <variable>.Pix
	rsb	lr, r3, r0	@ tmp9634, SmpPat.Pix, <variable>.Pix
	ldrb	ip, [sp, #26]	@ zero_extendqisi2	@ SmpPat.Pix, SmpPat.Pix
	rsblt	r8, r8, #0	@ tmp9642, tmp9641
	cmp	lr, #0	@ tmp9634,
	rsblt	lr, lr, #0	@ tmp9635, tmp9634
	ldrb	r0, [r4, #2695]	@ zero_extendqisi2	@ <variable>.Pix, <variable>.Pix
	cmp	r8, #2	@ tmp9642,
	movle	r1, #0	@, tmp9644
	movgt	r1, #1	@, tmp9644
	ldrb	r3, [sp, #27]	@ zero_extendqisi2	@ SmpPat.Pix, SmpPat.Pix
	rsb	r8, ip, sl	@ tmp9648, SmpPat.Pix, <variable>.Pix
	cmp	lr, #2	@ tmp9635,
	addgt	r1, r1, #1	@,, MisCnt.3113, tmp9644
	cmp	r8, #0	@ tmp9648,
	rsb	sl, r3, r0	@ tmp9655, SmpPat.Pix, <variable>.Pix
	ldrb	r2, [sp, #28]	@ zero_extendqisi2	@ SmpPat.Pix, SmpPat.Pix
	rsblt	r8, r8, #0	@ tmp9649, tmp9648
	ldrb	ip, [r4, #2696]	@ zero_extendqisi2	@ <variable>.Pix, <variable>.Pix
	cmp	r8, #2	@ tmp9649,
	movle	r8, r1	@, MisCnt.3063, MisCnt.3113
	addgt	r8, r1, #1	@,, MisCnt.3063, MisCnt.3113
	cmp	sl, #0	@ tmp9655,
	ldrb	r0, [r4, #2697]	@ zero_extendqisi2	@ <variable>.Pix, <variable>.Pix
	rsb	ip, r2, ip	@ tmp9662, SmpPat.Pix, <variable>.Pix
	rsblt	sl, sl, #0	@ tmp9656, tmp9655
	ldrb	r1, [sp, #29]	@ zero_extendqisi2	@ SmpPat.Pix, SmpPat.Pix
	cmp	sl, #2	@ tmp9656,
	movle	r3, r8	@, MisCnt.3031, MisCnt.3063
	addgt	r3, r8, #1	@,, MisCnt.3031, MisCnt.3063
	cmp	ip, #0	@ tmp9662,
	ldrb	lr, [r4, #2698]	@ zero_extendqisi2	@ <variable>.Pix, <variable>.Pix
	rsb	sl, r1, r0	@ tmp9669, SmpPat.Pix, <variable>.Pix
	rsblt	ip, ip, #0	@ tmp9663, tmp9662
	ldrb	r2, [sp, #30]	@ zero_extendqisi2	@ SmpPat.Pix, SmpPat.Pix
	cmp	ip, #2	@ tmp9663,
	movle	ip, r3	@, MisCnt.2991, MisCnt.3031
	addgt	ip, r3, #1	@,, MisCnt.2991, MisCnt.3031
	cmp	sl, #0	@ tmp9669,
	ldrb	r0, [r4, #2699]	@ zero_extendqisi2	@ <variable>.Pix, <variable>.Pix
	rsblt	sl, sl, #0	@ tmp9670, tmp9669
	rsb	r8, r2, lr	@ tmp9676, SmpPat.Pix, <variable>.Pix
	ldrb	r3, [sp, #31]	@ zero_extendqisi2	@ SmpPat.Pix, SmpPat.Pix
	cmp	sl, #2	@ tmp9670,
	movle	r1, ip	@, MisCnt.2951, MisCnt.2991
	addgt	r1, ip, #1	@,, MisCnt.2951, MisCnt.2991
	cmp	r8, #0	@ tmp9676,
	rsb	sl, r3, r0	@ tmp9683, SmpPat.Pix, <variable>.Pix
	rsblt	r8, r8, #0	@ tmp9677, tmp9676
	cmp	r8, #2	@ tmp9677,
	movle	ip, r1	@, MisCnt.2912, MisCnt.2951
	addgt	ip, r1, #1	@,, MisCnt.2912, MisCnt.2951
	cmp	sl, #0	@ tmp9683,
	rsblt	sl, sl, #0	@ tmp9684, tmp9683
	cmp	sl, #2	@ tmp9684,
	movle	r0, ip	@, tmp9687, MisCnt.2912
	addgt	r0, ip, #1	@,, tmp9687, MisCnt.2912
	cmp	r0, #2	@ tmp9687,
	bgt	.L52	@,
	ldr	r2, [r6, #2700]	@ <variable>.Comp, <variable>.Comp
	mov	r0, r7	@, tmp12193
	ldr	sl, [r6, #2704]	@ <variable>.Px, <variable>.Px
	mov	r1, r5	@, pDetPara
	ldr	lr, [r6, #2708]	@ <variable>.Py, <variable>.Py
	str	r2, [sp, #12]	@ <variable>.Comp, SmpPat.Comp
	str	sl, [sp, #16]	@ <variable>.Px, SmpPat.Px
	str	lr, [sp, #20]	@ <variable>.Py, SmpPat.Py
	bl	GetSample	@
	ldrb	ip, [r6, #2712]	@ zero_extendqisi2	@ <variable>.Pix, <variable>.Pix
	ldrb	r8, [sp, #24]	@ zero_extendqisi2	@ SmpPat.Pix, SmpPat.Pix
	ldrb	r0, [r6, #2713]	@ zero_extendqisi2	@ <variable>.Pix, <variable>.Pix
	ldrb	r1, [sp, #25]	@ zero_extendqisi2	@ SmpPat.Pix, SmpPat.Pix
	rsb	r3, r8, ip	@ tmp9705, SmpPat.Pix, <variable>.Pix
	cmp	r3, #0	@ tmp9705,
	ldrb	sl, [r6, #2714]	@ zero_extendqisi2	@ <variable>.Pix, <variable>.Pix
	rsb	lr, r1, r0	@ tmp9698, SmpPat.Pix, <variable>.Pix
	ldrb	r2, [sp, #26]	@ zero_extendqisi2	@ SmpPat.Pix, SmpPat.Pix
	rsblt	r3, r3, #0	@ tmp9706, tmp9705
	cmp	lr, #0	@ tmp9698,
	rsb	r0, r2, sl	@ tmp9712, SmpPat.Pix, <variable>.Pix
	rsblt	lr, lr, #0	@ tmp9699, tmp9698
	ldrb	ip, [sp, #27]	@ zero_extendqisi2	@ SmpPat.Pix, SmpPat.Pix
	cmp	r3, #2	@ tmp9706,
	movle	r3, #0	@, tmp9708
	movgt	r3, #1	@, tmp9708
	ldrb	r8, [r6, #2715]	@ zero_extendqisi2	@ <variable>.Pix, <variable>.Pix
	cmp	lr, #2	@ tmp9699,
	addgt	r3, r3, #1	@,, MisCnt.2728, tmp9708
	cmp	r0, #0	@ tmp9712,
	ldrb	r1, [r6, #2716]	@ zero_extendqisi2	@ <variable>.Pix, <variable>.Pix
	rsb	r8, ip, r8	@ tmp9719, SmpPat.Pix, <variable>.Pix
	rsblt	r0, r0, #0	@ tmp9713, tmp9712
	ldrb	sl, [sp, #28]	@ zero_extendqisi2	@ SmpPat.Pix, SmpPat.Pix
	cmp	r0, #2	@ tmp9713,
	addgt	r3, r3, #1	@,, MisCnt.2696, MisCnt.2728
	cmp	r8, #0	@ tmp9719,
	ldrb	r0, [sp, #29]	@ zero_extendqisi2	@ SmpPat.Pix, SmpPat.Pix
	rsb	r2, sl, r1	@ tmp9726, SmpPat.Pix, <variable>.Pix
	rsblt	r8, r8, #0	@ tmp9720, tmp9719
	ldrb	ip, [r6, #2717]	@ zero_extendqisi2	@ <variable>.Pix, <variable>.Pix
	cmp	r8, #2	@ tmp9720,
	addgt	r3, r3, #1	@,, MisCnt.2647, MisCnt.2696
	cmp	r2, #0	@ tmp9726,
	ldrb	lr, [r6, #2718]	@ zero_extendqisi2	@ <variable>.Pix, <variable>.Pix
	rsb	sl, r0, ip	@ tmp9733, SmpPat.Pix, <variable>.Pix
	rsblt	r2, r2, #0	@ tmp9727, tmp9726
	ldrb	r1, [sp, #30]	@ zero_extendqisi2	@ SmpPat.Pix, SmpPat.Pix
	cmp	r2, #2	@ tmp9727,
	addgt	r3, r3, #1	@,, MisCnt.2615, MisCnt.2647
	cmp	sl, #0	@ tmp9733,
	ldrb	r0, [r6, #2719]	@ zero_extendqisi2	@ <variable>.Pix, <variable>.Pix
	rsb	r1, r1, lr	@ tmp9740, SmpPat.Pix, <variable>.Pix
	rsblt	sl, sl, #0	@ tmp9734, tmp9733
	ldrb	r2, [sp, #31]	@ zero_extendqisi2	@ SmpPat.Pix, SmpPat.Pix
	cmp	sl, #2	@ tmp9734,
	addgt	r3, r3, #1	@,, MisCnt.2576, MisCnt.2615
	cmp	r1, #0	@ tmp9740,
	rsb	r8, r2, r0	@ tmp9747, SmpPat.Pix, <variable>.Pix
	rsblt	r1, r1, #0	@ tmp9741, tmp9740
	cmp	r1, #2	@ tmp9741,
	addgt	r3, r3, #1	@,, MisCnt.2536, MisCnt.2576
	cmp	r8, #0	@ tmp9747,
	rsblt	r8, r8, #0	@ tmp9748, tmp9747
	cmp	r8, #2	@ tmp9748,
	addgt	r3, r3, #1	@,, tmp9751, MisCnt.2536
	cmp	r3, #2	@ tmp9751,
	bgt	.L52	@,
	ldr	r2, [r6, #2720]	@ <variable>.Comp, <variable>.Comp
	mov	r0, r7	@, tmp12193
	ldr	r8, [r6, #2724]	@ <variable>.Px, <variable>.Px
	mov	r1, r5	@, pDetPara
	ldr	lr, [r6, #2728]	@ <variable>.Py, <variable>.Py
	str	r2, [sp, #12]	@ <variable>.Comp, SmpPat.Comp
	str	r8, [sp, #16]	@ <variable>.Px, SmpPat.Px
	str	lr, [sp, #20]	@ <variable>.Py, SmpPat.Py
	bl	GetSample	@
	ldrb	ip, [r6, #2732]	@ zero_extendqisi2	@ <variable>.Pix, <variable>.Pix
	ldrb	sl, [sp, #24]	@ zero_extendqisi2	@ SmpPat.Pix, SmpPat.Pix
	ldrb	r0, [r6, #2733]	@ zero_extendqisi2	@ <variable>.Pix, <variable>.Pix
	ldrb	r1, [sp, #25]	@ zero_extendqisi2	@ SmpPat.Pix, SmpPat.Pix
	rsb	r3, sl, ip	@ tmp9769, SmpPat.Pix, <variable>.Pix
	cmp	r3, #0	@ tmp9769,
	ldrb	r8, [r6, #2734]	@ zero_extendqisi2	@ <variable>.Pix, <variable>.Pix
	rsb	lr, r1, r0	@ tmp9762, SmpPat.Pix, <variable>.Pix
	ldrb	r2, [sp, #26]	@ zero_extendqisi2	@ SmpPat.Pix, SmpPat.Pix
	rsblt	r3, r3, #0	@ tmp9770, tmp9769
	cmp	lr, #0	@ tmp9762,
	rsb	r0, r2, r8	@ tmp9776, SmpPat.Pix, <variable>.Pix
	rsblt	lr, lr, #0	@ tmp9763, tmp9762
	ldrb	sl, [r6, #2735]	@ zero_extendqisi2	@ <variable>.Pix, <variable>.Pix
	cmp	r3, #2	@ tmp9770,
	movle	r3, #0	@, tmp9772
	movgt	r3, #1	@, tmp9772
	ldrb	ip, [sp, #27]	@ zero_extendqisi2	@ SmpPat.Pix, SmpPat.Pix
	cmp	lr, #2	@ tmp9763,
	addgt	r3, r3, #1	@,, MisCnt.1437, tmp9772
	cmp	r0, #0	@ tmp9776,
	ldrb	r1, [r6, #2736]	@ zero_extendqisi2	@ <variable>.Pix, <variable>.Pix
	rsb	r8, ip, sl	@ tmp9783, SmpPat.Pix, <variable>.Pix
	rsblt	r0, r0, #0	@ tmp9777, tmp9776
	ldrb	r2, [sp, #28]	@ zero_extendqisi2	@ SmpPat.Pix, SmpPat.Pix
	cmp	r0, #2	@ tmp9777,
	addgt	r3, r3, #1	@,, MisCnt.1232, MisCnt.1437
	cmp	r8, #0	@ tmp9783,
	ldrb	sl, [r6, #2737]	@ zero_extendqisi2	@ <variable>.Pix, <variable>.Pix
	rsb	r2, r2, r1	@ tmp9790, SmpPat.Pix, <variable>.Pix
	rsblt	r8, r8, #0	@ tmp9784, tmp9783
	ldrb	r0, [sp, #29]	@ zero_extendqisi2	@ SmpPat.Pix, SmpPat.Pix
	cmp	r8, #2	@ tmp9784,
	addgt	r3, r3, #1	@,, MisCnt.2326, MisCnt.1232
	cmp	r2, #0	@ tmp9790,
	ldrb	lr, [r6, #2738]	@ zero_extendqisi2	@ <variable>.Pix, <variable>.Pix
	rsb	ip, r0, sl	@ tmp9797, SmpPat.Pix, <variable>.Pix
	rsblt	r2, r2, #0	@ tmp9791, tmp9790
	ldrb	r1, [sp, #30]	@ zero_extendqisi2	@ SmpPat.Pix, SmpPat.Pix
	cmp	r2, #2	@ tmp9791,
	addgt	r3, r3, #1	@,, MisCnt.1850, MisCnt.2326
	cmp	ip, #0	@ tmp9797,
	ldrb	r0, [r6, #2739]	@ zero_extendqisi2	@ <variable>.Pix, <variable>.Pix
	rsb	r1, r1, lr	@ tmp9804, SmpPat.Pix, <variable>.Pix
	rsblt	ip, ip, #0	@ tmp9798, tmp9797
	ldrb	sl, [sp, #31]	@ zero_extendqisi2	@ SmpPat.Pix, SmpPat.Pix
	cmp	ip, #2	@ tmp9798,
	addgt	r3, r3, #1	@,, MisCnt.1647, MisCnt.1850
	cmp	r1, #0	@ tmp9804,
	rsb	r8, sl, r0	@ tmp9811, SmpPat.Pix, <variable>.Pix
	rsblt	r1, r1, #0	@ tmp9805, tmp9804
	cmp	r1, #2	@ tmp9805,
	addgt	r3, r3, #1	@,, MisCnt.3340, MisCnt.1647
	cmp	r8, #0	@ tmp9811,
	rsblt	r8, r8, #0	@ tmp9812, tmp9811
	cmp	r8, #2	@ tmp9812,
	addgt	r3, r3, #1	@,, tmp9815, MisCnt.3340
	cmp	r3, #2	@ tmp9815,
	bgt	.L52	@,
	ldr	r2, [r6, #2740]	@ <variable>.Comp, <variable>.Comp
	mov	r0, r7	@, tmp12193
	ldr	sl, [r6, #2744]	@ <variable>.Px, <variable>.Px
	mov	r1, r5	@, pDetPara
	ldr	lr, [r6, #2748]	@ <variable>.Py, <variable>.Py
	str	r2, [sp, #12]	@ <variable>.Comp, SmpPat.Comp
	str	sl, [sp, #16]	@ <variable>.Px, SmpPat.Px
	str	lr, [sp, #20]	@ <variable>.Py, SmpPat.Py
	bl	GetSample	@
	ldrb	ip, [r6, #2753]	@ zero_extendqisi2	@ <variable>.Pix, <variable>.Pix
	ldrb	r8, [sp, #25]	@ zero_extendqisi2	@ SmpPat.Pix, SmpPat.Pix
	ldrb	r0, [r6, #2752]	@ zero_extendqisi2	@ <variable>.Pix, <variable>.Pix
	ldrb	r1, [sp, #24]	@ zero_extendqisi2	@ SmpPat.Pix, SmpPat.Pix
	rsb	r3, r8, ip	@ tmp9833, SmpPat.Pix, <variable>.Pix
	cmp	r3, #0	@ tmp9833,
	ldrb	sl, [r6, #2754]	@ zero_extendqisi2	@ <variable>.Pix, <variable>.Pix
	rsb	lr, r1, r0	@ tmp9826, SmpPat.Pix, <variable>.Pix
	ldrb	r2, [sp, #26]	@ zero_extendqisi2	@ SmpPat.Pix, SmpPat.Pix
	rsblt	r3, r3, #0	@ tmp9834, tmp9833
	cmp	lr, #0	@ tmp9826,
	rsb	r0, r2, sl	@ tmp9840, SmpPat.Pix, <variable>.Pix
	rsblt	lr, lr, #0	@ tmp9827, tmp9826
	ldrb	ip, [sp, #27]	@ zero_extendqisi2	@ SmpPat.Pix, SmpPat.Pix
	cmp	r3, #2	@ tmp9834,
	movle	r3, #0	@, tmp9836
	movgt	r3, #1	@, tmp9836
	ldrb	r8, [r6, #2755]	@ zero_extendqisi2	@ <variable>.Pix, <variable>.Pix
	cmp	lr, #2	@ tmp9827,
	addgt	r3, r3, #1	@,, MisCnt.3493, tmp9836
	cmp	r0, #0	@ tmp9840,
	ldrb	r1, [r6, #2756]	@ zero_extendqisi2	@ <variable>.Pix, <variable>.Pix
	rsb	r8, ip, r8	@ tmp9847, SmpPat.Pix, <variable>.Pix
	rsblt	r0, r0, #0	@ tmp9841, tmp9840
	ldrb	sl, [sp, #28]	@ zero_extendqisi2	@ SmpPat.Pix, SmpPat.Pix
	cmp	r0, #2	@ tmp9841,
	addgt	r3, r3, #1	@,, MisCnt.3501, MisCnt.3493
	cmp	r8, #0	@ tmp9847,
	ldrb	r0, [sp, #29]	@ zero_extendqisi2	@ SmpPat.Pix, SmpPat.Pix
	rsb	r2, sl, r1	@ tmp9854, SmpPat.Pix, <variable>.Pix
	rsblt	r8, r8, #0	@ tmp9848, tmp9847
	ldrb	ip, [r6, #2757]	@ zero_extendqisi2	@ <variable>.Pix, <variable>.Pix
	cmp	r8, #2	@ tmp9848,
	addgt	r3, r3, #1	@,, MisCnt.3509, MisCnt.3501
	cmp	r2, #0	@ tmp9854,
	ldrb	sl, [sp, #30]	@ zero_extendqisi2	@ SmpPat.Pix, SmpPat.Pix
	rsb	ip, r0, ip	@ tmp9861, SmpPat.Pix, <variable>.Pix
	rsblt	r2, r2, #0	@ tmp9855, tmp9854
	ldrb	lr, [r6, #2758]	@ zero_extendqisi2	@ <variable>.Pix, <variable>.Pix
	cmp	r2, #2	@ tmp9855,
	addgt	r3, r3, #1	@,, MisCnt.3517, MisCnt.3509
	cmp	ip, #0	@ tmp9861,
	ldrb	r0, [r6, #2759]	@ zero_extendqisi2	@ <variable>.Pix, <variable>.Pix
	rsb	r1, sl, lr	@ tmp9868, SmpPat.Pix, <variable>.Pix
	rsblt	ip, ip, #0	@ tmp9862, tmp9861
	ldrb	r8, [sp, #31]	@ zero_extendqisi2	@ SmpPat.Pix, SmpPat.Pix
	cmp	ip, #2	@ tmp9862,
	addgt	r3, r3, #1	@,, MisCnt.3525, MisCnt.3517
	cmp	r1, #0	@ tmp9868,
	rsb	sl, r8, r0	@ tmp9875, SmpPat.Pix, <variable>.Pix
	rsblt	r1, r1, #0	@ tmp9869, tmp9868
	cmp	r1, #2	@ tmp9869,
	addgt	r3, r3, #1	@,, MisCnt.3533, MisCnt.3525
	cmp	sl, #0	@ tmp9875,
	rsblt	sl, sl, #0	@ tmp9876, tmp9875
	cmp	sl, #2	@ tmp9876,
	addgt	r3, r3, #1	@,, tmp9879, MisCnt.3533
	cmp	r3, #2	@ tmp9879,
	bgt	.L52	@,
	ldr	r3, [r6, #2760]	@ <variable>.Comp, <variable>.Comp
	mov	r0, r7	@, tmp12193
	ldr	r2, [r6, #2764]	@ <variable>.Px, <variable>.Px
	mov	r1, r5	@, pDetPara
	ldr	lr, [r6, #2768]	@ <variable>.Py, <variable>.Py
	str	r3, [sp, #12]	@ <variable>.Comp, SmpPat.Comp
	str	r2, [sp, #16]	@ <variable>.Px, SmpPat.Px
	str	lr, [sp, #20]	@ <variable>.Py, SmpPat.Py
	bl	GetSample	@
	ldrb	r8, [r6, #2773]	@ zero_extendqisi2	@ <variable>.Pix, <variable>.Pix
	ldrb	ip, [sp, #25]	@ zero_extendqisi2	@ SmpPat.Pix, SmpPat.Pix
	ldrb	sl, [r6, #2772]	@ zero_extendqisi2	@ <variable>.Pix, <variable>.Pix
	ldrb	r1, [sp, #24]	@ zero_extendqisi2	@ SmpPat.Pix, SmpPat.Pix
	rsb	r3, ip, r8	@ tmp9897, SmpPat.Pix, <variable>.Pix
	cmp	r3, #0	@ tmp9897,
	ldrb	r2, [sp, #26]	@ zero_extendqisi2	@ SmpPat.Pix, SmpPat.Pix
	rsb	r8, r1, sl	@ tmp9890, SmpPat.Pix, <variable>.Pix
	ldrb	r0, [r6, #2774]	@ zero_extendqisi2	@ <variable>.Pix, <variable>.Pix
	rsblt	r3, r3, #0	@ tmp9898, tmp9897
	cmp	r8, #0	@ tmp9890,
	rsb	r0, r2, r0	@ tmp9904, SmpPat.Pix, <variable>.Pix
	rsblt	r8, r8, #0	@ tmp9891, tmp9890
	ldrb	ip, [sp, #27]	@ zero_extendqisi2	@ SmpPat.Pix, SmpPat.Pix
	cmp	r3, #2	@ tmp9898,
	movle	r3, #0	@, tmp9900
	movgt	r3, #1	@, tmp9900
	ldrb	sl, [r6, #2775]	@ zero_extendqisi2	@ <variable>.Pix, <variable>.Pix
	cmp	r8, #2	@ tmp9891,
	addgt	r3, r3, #1	@,, MisCnt.1251, tmp9900
	cmp	r0, #0	@ tmp9904,
	ldrb	r1, [r6, #2776]	@ zero_extendqisi2	@ <variable>.Pix, <variable>.Pix
	rsb	sl, ip, sl	@ tmp9911, SmpPat.Pix, <variable>.Pix
	rsblt	r0, r0, #0	@ tmp9905, tmp9904
	ldrb	r2, [sp, #28]	@ zero_extendqisi2	@ SmpPat.Pix, SmpPat.Pix
	cmp	r0, #2	@ tmp9905,
	addgt	r3, r3, #1	@,, MisCnt.1262, MisCnt.1251
	cmp	sl, #0	@ tmp9911,
	ldrb	r0, [sp, #29]	@ zero_extendqisi2	@ SmpPat.Pix, SmpPat.Pix
	rsb	r2, r2, r1	@ tmp9918, SmpPat.Pix, <variable>.Pix
	rsblt	sl, sl, #0	@ tmp9912, tmp9911
	ldrb	ip, [r6, #2777]	@ zero_extendqisi2	@ <variable>.Pix, <variable>.Pix
	cmp	sl, #2	@ tmp9912,
	addgt	r3, r3, #1	@,, MisCnt.1272, MisCnt.1262
	cmp	r2, #0	@ tmp9918,
	ldrb	r8, [r6, #2778]	@ zero_extendqisi2	@ <variable>.Pix, <variable>.Pix
	rsb	ip, r0, ip	@ tmp9925, SmpPat.Pix, <variable>.Pix
	rsblt	r2, r2, #0	@ tmp9919, tmp9918
	ldrb	r1, [sp, #30]	@ zero_extendqisi2	@ SmpPat.Pix, SmpPat.Pix
	cmp	r2, #2	@ tmp9919,
	addgt	r3, r3, #1	@,, MisCnt.1282, MisCnt.1272
	cmp	ip, #0	@ tmp9925,
	ldrb	r0, [r6, #2779]	@ zero_extendqisi2	@ <variable>.Pix, <variable>.Pix
	rsblt	ip, ip, #0	@ tmp9926, tmp9925
	rsb	r1, r1, r8	@ tmp9932, SmpPat.Pix, <variable>.Pix
	ldrb	r2, [sp, #31]	@ zero_extendqisi2	@ SmpPat.Pix, SmpPat.Pix
	cmp	ip, #2	@ tmp9926,
	addgt	r3, r3, #1	@,, MisCnt.1293, MisCnt.1282
	cmp	r1, #0	@ tmp9932,
	rsb	ip, r2, r0	@ tmp9939, SmpPat.Pix, <variable>.Pix
	rsblt	r1, r1, #0	@ tmp9933, tmp9932
	cmp	r1, #2	@ tmp9933,
	addgt	r3, r3, #1	@,, MisCnt.1304, MisCnt.1293
	cmp	ip, #0	@ tmp9939,
	rsblt	ip, ip, #0	@ tmp9940, tmp9939
	cmp	ip, #2	@ tmp9940,
	addgt	r3, r3, #1	@,, tmp9943, MisCnt.1304
	cmp	r3, #2	@ tmp9943,
	movle	r0, #31	@ Result,
	ble	.L13	@,
.L52:
	ldr	ip, [r4, #2780]	@ <variable>.Comp, <variable>.Comp
	mov	r0, r7	@, tmp12193
	ldr	sl, [r4, #2784]	@ <variable>.Px, <variable>.Px
	mov	r1, r5	@, pDetPara
	ldr	lr, [r4, #2788]	@ <variable>.Py, <variable>.Py
	movw	r6, #:lower16:.LANCHOR0	@ tmp9944,
	str	ip, [sp, #12]	@ <variable>.Comp, SmpPat.Comp
	movt	r6, #:upper16:.LANCHOR0	@ tmp9944,
	str	sl, [sp, #16]	@ <variable>.Px, SmpPat.Px
	str	lr, [sp, #20]	@ <variable>.Py, SmpPat.Py
	bl	GetSample	@
	ldrb	r1, [r4, #2793]	@ zero_extendqisi2	@ <variable>.Pix, <variable>.Pix
	ldrb	r2, [sp, #25]	@ zero_extendqisi2	@ SmpPat.Pix, SmpPat.Pix
	ldrb	r0, [r4, #2792]	@ zero_extendqisi2	@ <variable>.Pix, <variable>.Pix
	ldrb	r3, [sp, #24]	@ zero_extendqisi2	@ SmpPat.Pix, SmpPat.Pix
	rsb	r8, r2, r1	@ tmp9961, SmpPat.Pix, <variable>.Pix
	cmp	r8, #0	@ tmp9961,
	ldrb	sl, [r4, #2794]	@ zero_extendqisi2	@ <variable>.Pix, <variable>.Pix
	rsb	lr, r3, r0	@ tmp9954, SmpPat.Pix, <variable>.Pix
	ldrb	ip, [sp, #26]	@ zero_extendqisi2	@ SmpPat.Pix, SmpPat.Pix
	rsblt	r8, r8, #0	@ tmp9962, tmp9961
	cmp	lr, #0	@ tmp9954,
	rsblt	lr, lr, #0	@ tmp9955, tmp9954
	ldrb	r0, [r4, #2795]	@ zero_extendqisi2	@ <variable>.Pix, <variable>.Pix
	cmp	r8, #2	@ tmp9962,
	movle	r1, #0	@, tmp9964
	movgt	r1, #1	@, tmp9964
	ldrb	r3, [sp, #27]	@ zero_extendqisi2	@ SmpPat.Pix, SmpPat.Pix
	rsb	r8, ip, sl	@ tmp9968, SmpPat.Pix, <variable>.Pix
	cmp	lr, #2	@ tmp9955,
	addgt	r1, r1, #1	@,, MisCnt.3559, tmp9964
	cmp	r8, #0	@ tmp9968,
	rsb	sl, r3, r0	@ tmp9975, SmpPat.Pix, <variable>.Pix
	ldrb	r2, [sp, #28]	@ zero_extendqisi2	@ SmpPat.Pix, SmpPat.Pix
	rsblt	r8, r8, #0	@ tmp9969, tmp9968
	ldrb	ip, [r4, #2796]	@ zero_extendqisi2	@ <variable>.Pix, <variable>.Pix
	cmp	r8, #2	@ tmp9969,
	movle	r8, r1	@, MisCnt.3567, MisCnt.3559
	addgt	r8, r1, #1	@,, MisCnt.3567, MisCnt.3559
	cmp	sl, #0	@ tmp9975,
	ldrb	r0, [r4, #2797]	@ zero_extendqisi2	@ <variable>.Pix, <variable>.Pix
	rsb	ip, r2, ip	@ tmp9982, SmpPat.Pix, <variable>.Pix
	rsblt	sl, sl, #0	@ tmp9976, tmp9975
	ldrb	r1, [sp, #29]	@ zero_extendqisi2	@ SmpPat.Pix, SmpPat.Pix
	cmp	sl, #2	@ tmp9976,
	movle	r3, r8	@, MisCnt.3575, MisCnt.3567
	addgt	r3, r8, #1	@,, MisCnt.3575, MisCnt.3567
	cmp	ip, #0	@ tmp9982,
	ldrb	lr, [r4, #2798]	@ zero_extendqisi2	@ <variable>.Pix, <variable>.Pix
	rsb	sl, r1, r0	@ tmp9989, SmpPat.Pix, <variable>.Pix
	rsblt	ip, ip, #0	@ tmp9983, tmp9982
	ldrb	r2, [sp, #30]	@ zero_extendqisi2	@ SmpPat.Pix, SmpPat.Pix
	cmp	ip, #2	@ tmp9983,
	movle	ip, r3	@, MisCnt.3583, MisCnt.3575
	addgt	ip, r3, #1	@,, MisCnt.3583, MisCnt.3575
	cmp	sl, #0	@ tmp9989,
	ldrb	r0, [r4, #2799]	@ zero_extendqisi2	@ <variable>.Pix, <variable>.Pix
	rsblt	sl, sl, #0	@ tmp9990, tmp9989
	rsb	r8, r2, lr	@ tmp9996, SmpPat.Pix, <variable>.Pix
	ldrb	r3, [sp, #31]	@ zero_extendqisi2	@ SmpPat.Pix, SmpPat.Pix
	cmp	sl, #2	@ tmp9990,
	movle	r1, ip	@, MisCnt.3591, MisCnt.3583
	addgt	r1, ip, #1	@,, MisCnt.3591, MisCnt.3583
	cmp	r8, #0	@ tmp9996,
	rsb	sl, r3, r0	@ tmp10003, SmpPat.Pix, <variable>.Pix
	rsblt	r8, r8, #0	@ tmp9997, tmp9996
	cmp	r8, #2	@ tmp9997,
	movle	ip, r1	@, MisCnt.3599, MisCnt.3591
	addgt	ip, r1, #1	@,, MisCnt.3599, MisCnt.3591
	cmp	sl, #0	@ tmp10003,
	rsblt	sl, sl, #0	@ tmp10004, tmp10003
	cmp	sl, #2	@ tmp10004,
	movle	r0, ip	@, tmp10007, MisCnt.3599
	addgt	r0, ip, #1	@,, tmp10007, MisCnt.3599
	cmp	r0, #2	@ tmp10007,
	bgt	.L53	@,
	ldr	r2, [r6, #2800]	@ <variable>.Comp, <variable>.Comp
	mov	r0, r7	@, tmp12193
	ldr	sl, [r6, #2804]	@ <variable>.Px, <variable>.Px
	mov	r1, r5	@, pDetPara
	ldr	lr, [r6, #2808]	@ <variable>.Py, <variable>.Py
	str	r2, [sp, #12]	@ <variable>.Comp, SmpPat.Comp
	str	sl, [sp, #16]	@ <variable>.Px, SmpPat.Px
	str	lr, [sp, #20]	@ <variable>.Py, SmpPat.Py
	bl	GetSample	@
	ldrb	ip, [r6, #2813]	@ zero_extendqisi2	@ <variable>.Pix, <variable>.Pix
	ldrb	r8, [sp, #25]	@ zero_extendqisi2	@ SmpPat.Pix, SmpPat.Pix
	ldrb	r0, [r6, #2812]	@ zero_extendqisi2	@ <variable>.Pix, <variable>.Pix
	ldrb	r1, [sp, #24]	@ zero_extendqisi2	@ SmpPat.Pix, SmpPat.Pix
	rsb	r3, r8, ip	@ tmp10025, SmpPat.Pix, <variable>.Pix
	cmp	r3, #0	@ tmp10025,
	ldrb	sl, [r6, #2814]	@ zero_extendqisi2	@ <variable>.Pix, <variable>.Pix
	rsb	lr, r1, r0	@ tmp10018, SmpPat.Pix, <variable>.Pix
	ldrb	r2, [sp, #26]	@ zero_extendqisi2	@ SmpPat.Pix, SmpPat.Pix
	rsblt	r3, r3, #0	@ tmp10026, tmp10025
	cmp	lr, #0	@ tmp10018,
	rsb	r0, r2, sl	@ tmp10032, SmpPat.Pix, <variable>.Pix
	rsblt	lr, lr, #0	@ tmp10019, tmp10018
	ldrb	ip, [sp, #27]	@ zero_extendqisi2	@ SmpPat.Pix, SmpPat.Pix
	cmp	r3, #2	@ tmp10026,
	movle	r3, #0	@, tmp10028
	movgt	r3, #1	@, tmp10028
	ldrb	r8, [r6, #2815]	@ zero_extendqisi2	@ <variable>.Pix, <variable>.Pix
	cmp	lr, #2	@ tmp10019,
	addgt	r3, r3, #1	@,, MisCnt.3625, tmp10028
	cmp	r0, #0	@ tmp10032,
	ldrb	r1, [r6, #2816]	@ zero_extendqisi2	@ <variable>.Pix, <variable>.Pix
	rsb	r8, ip, r8	@ tmp10039, SmpPat.Pix, <variable>.Pix
	rsblt	r0, r0, #0	@ tmp10033, tmp10032
	ldrb	sl, [sp, #28]	@ zero_extendqisi2	@ SmpPat.Pix, SmpPat.Pix
	cmp	r0, #2	@ tmp10033,
	addgt	r3, r3, #1	@,, MisCnt.3633, MisCnt.3625
	cmp	r8, #0	@ tmp10039,
	ldrb	r0, [sp, #29]	@ zero_extendqisi2	@ SmpPat.Pix, SmpPat.Pix
	rsb	r2, sl, r1	@ tmp10046, SmpPat.Pix, <variable>.Pix
	rsblt	r8, r8, #0	@ tmp10040, tmp10039
	ldrb	ip, [r6, #2817]	@ zero_extendqisi2	@ <variable>.Pix, <variable>.Pix
	cmp	r8, #2	@ tmp10040,
	addgt	r3, r3, #1	@,, MisCnt.3641, MisCnt.3633
	cmp	r2, #0	@ tmp10046,
	ldrb	lr, [r6, #2818]	@ zero_extendqisi2	@ <variable>.Pix, <variable>.Pix
	rsb	sl, r0, ip	@ tmp10053, SmpPat.Pix, <variable>.Pix
	rsblt	r2, r2, #0	@ tmp10047, tmp10046
	ldrb	r1, [sp, #30]	@ zero_extendqisi2	@ SmpPat.Pix, SmpPat.Pix
	cmp	r2, #2	@ tmp10047,
	addgt	r3, r3, #1	@,, MisCnt.3649, MisCnt.3641
	cmp	sl, #0	@ tmp10053,
	ldrb	r0, [r6, #2819]	@ zero_extendqisi2	@ <variable>.Pix, <variable>.Pix
	rsb	r1, r1, lr	@ tmp10060, SmpPat.Pix, <variable>.Pix
	rsblt	sl, sl, #0	@ tmp10054, tmp10053
	ldrb	r2, [sp, #31]	@ zero_extendqisi2	@ SmpPat.Pix, SmpPat.Pix
	cmp	sl, #2	@ tmp10054,
	addgt	r3, r3, #1	@,, MisCnt.3657, MisCnt.3649
	cmp	r1, #0	@ tmp10060,
	rsb	r8, r2, r0	@ tmp10067, SmpPat.Pix, <variable>.Pix
	rsblt	r1, r1, #0	@ tmp10061, tmp10060
	cmp	r1, #2	@ tmp10061,
	addgt	r3, r3, #1	@,, MisCnt.3665, MisCnt.3657
	cmp	r8, #0	@ tmp10067,
	rsblt	r8, r8, #0	@ tmp10068, tmp10067
	cmp	r8, #2	@ tmp10068,
	addgt	r3, r3, #1	@,, tmp10071, MisCnt.3665
	cmp	r3, #2	@ tmp10071,
	bgt	.L53	@,
	ldr	r2, [r6, #2820]	@ <variable>.Comp, <variable>.Comp
	mov	r0, r7	@, tmp12193
	ldr	r8, [r6, #2824]	@ <variable>.Px, <variable>.Px
	mov	r1, r5	@, pDetPara
	ldr	lr, [r6, #2828]	@ <variable>.Py, <variable>.Py
	str	r2, [sp, #12]	@ <variable>.Comp, SmpPat.Comp
	str	r8, [sp, #16]	@ <variable>.Px, SmpPat.Px
	str	lr, [sp, #20]	@ <variable>.Py, SmpPat.Py
	bl	GetSample	@
	ldrb	ip, [r6, #2833]	@ zero_extendqisi2	@ <variable>.Pix, <variable>.Pix
	ldrb	sl, [sp, #25]	@ zero_extendqisi2	@ SmpPat.Pix, SmpPat.Pix
	ldrb	r0, [r6, #2832]	@ zero_extendqisi2	@ <variable>.Pix, <variable>.Pix
	ldrb	r1, [sp, #24]	@ zero_extendqisi2	@ SmpPat.Pix, SmpPat.Pix
	rsb	r3, sl, ip	@ tmp10089, SmpPat.Pix, <variable>.Pix
	cmp	r3, #0	@ tmp10089,
	ldrb	r8, [r6, #2834]	@ zero_extendqisi2	@ <variable>.Pix, <variable>.Pix
	rsb	lr, r1, r0	@ tmp10082, SmpPat.Pix, <variable>.Pix
	ldrb	r2, [sp, #26]	@ zero_extendqisi2	@ SmpPat.Pix, SmpPat.Pix
	rsblt	r3, r3, #0	@ tmp10090, tmp10089
	cmp	lr, #0	@ tmp10082,
	rsb	r0, r2, r8	@ tmp10096, SmpPat.Pix, <variable>.Pix
	rsblt	lr, lr, #0	@ tmp10083, tmp10082
	ldrb	sl, [r6, #2835]	@ zero_extendqisi2	@ <variable>.Pix, <variable>.Pix
	cmp	r3, #2	@ tmp10090,
	movle	r3, #0	@, tmp10092
	movgt	r3, #1	@, tmp10092
	ldrb	ip, [sp, #27]	@ zero_extendqisi2	@ SmpPat.Pix, SmpPat.Pix
	cmp	lr, #2	@ tmp10083,
	addgt	r3, r3, #1	@,, MisCnt.3691, tmp10092
	cmp	r0, #0	@ tmp10096,
	ldrb	r1, [r6, #2836]	@ zero_extendqisi2	@ <variable>.Pix, <variable>.Pix
	rsb	r8, ip, sl	@ tmp10103, SmpPat.Pix, <variable>.Pix
	rsblt	r0, r0, #0	@ tmp10097, tmp10096
	ldrb	r2, [sp, #28]	@ zero_extendqisi2	@ SmpPat.Pix, SmpPat.Pix
	cmp	r0, #2	@ tmp10097,
	addgt	r3, r3, #1	@,, MisCnt.3699, MisCnt.3691
	cmp	r8, #0	@ tmp10103,
	ldrb	sl, [r6, #2837]	@ zero_extendqisi2	@ <variable>.Pix, <variable>.Pix
	rsb	r2, r2, r1	@ tmp10110, SmpPat.Pix, <variable>.Pix
	rsblt	r8, r8, #0	@ tmp10104, tmp10103
	ldrb	r0, [sp, #29]	@ zero_extendqisi2	@ SmpPat.Pix, SmpPat.Pix
	cmp	r8, #2	@ tmp10104,
	addgt	r3, r3, #1	@,, MisCnt.3707, MisCnt.3699
	cmp	r2, #0	@ tmp10110,
	ldrb	lr, [r6, #2838]	@ zero_extendqisi2	@ <variable>.Pix, <variable>.Pix
	rsb	ip, r0, sl	@ tmp10117, SmpPat.Pix, <variable>.Pix
	rsblt	r2, r2, #0	@ tmp10111, tmp10110
	ldrb	r1, [sp, #30]	@ zero_extendqisi2	@ SmpPat.Pix, SmpPat.Pix
	cmp	r2, #2	@ tmp10111,
	addgt	r3, r3, #1	@,, MisCnt.3715, MisCnt.3707
	cmp	ip, #0	@ tmp10117,
	ldrb	r0, [r6, #2839]	@ zero_extendqisi2	@ <variable>.Pix, <variable>.Pix
	rsb	r1, r1, lr	@ tmp10124, SmpPat.Pix, <variable>.Pix
	rsblt	ip, ip, #0	@ tmp10118, tmp10117
	ldrb	sl, [sp, #31]	@ zero_extendqisi2	@ SmpPat.Pix, SmpPat.Pix
	cmp	ip, #2	@ tmp10118,
	addgt	r3, r3, #1	@,, MisCnt.3723, MisCnt.3715
	cmp	r1, #0	@ tmp10124,
	rsb	r8, sl, r0	@ tmp10131, SmpPat.Pix, <variable>.Pix
	rsblt	r1, r1, #0	@ tmp10125, tmp10124
	cmp	r1, #2	@ tmp10125,
	addgt	r3, r3, #1	@,, MisCnt.3731, MisCnt.3723
	cmp	r8, #0	@ tmp10131,
	rsblt	r8, r8, #0	@ tmp10132, tmp10131
	cmp	r8, #2	@ tmp10132,
	addgt	r3, r3, #1	@,, tmp10135, MisCnt.3731
	cmp	r3, #2	@ tmp10135,
	bgt	.L53	@,
	ldr	r2, [r6, #2840]	@ <variable>.Comp, <variable>.Comp
	mov	r0, r7	@, tmp12193
	ldr	sl, [r6, #2844]	@ <variable>.Px, <variable>.Px
	mov	r1, r5	@, pDetPara
	ldr	lr, [r6, #2848]	@ <variable>.Py, <variable>.Py
	str	r2, [sp, #12]	@ <variable>.Comp, SmpPat.Comp
	str	sl, [sp, #16]	@ <variable>.Px, SmpPat.Px
	str	lr, [sp, #20]	@ <variable>.Py, SmpPat.Py
	bl	GetSample	@
	ldrb	ip, [r6, #2853]	@ zero_extendqisi2	@ <variable>.Pix, <variable>.Pix
	ldrb	r8, [sp, #25]	@ zero_extendqisi2	@ SmpPat.Pix, SmpPat.Pix
	ldrb	r0, [r6, #2852]	@ zero_extendqisi2	@ <variable>.Pix, <variable>.Pix
	ldrb	r1, [sp, #24]	@ zero_extendqisi2	@ SmpPat.Pix, SmpPat.Pix
	rsb	r3, r8, ip	@ tmp10153, SmpPat.Pix, <variable>.Pix
	cmp	r3, #0	@ tmp10153,
	ldrb	sl, [r6, #2854]	@ zero_extendqisi2	@ <variable>.Pix, <variable>.Pix
	rsb	lr, r1, r0	@ tmp10146, SmpPat.Pix, <variable>.Pix
	ldrb	r2, [sp, #26]	@ zero_extendqisi2	@ SmpPat.Pix, SmpPat.Pix
	rsblt	r3, r3, #0	@ tmp10154, tmp10153
	cmp	lr, #0	@ tmp10146,
	rsb	r0, r2, sl	@ tmp10160, SmpPat.Pix, <variable>.Pix
	rsblt	lr, lr, #0	@ tmp10147, tmp10146
	ldrb	ip, [sp, #27]	@ zero_extendqisi2	@ SmpPat.Pix, SmpPat.Pix
	cmp	r3, #2	@ tmp10154,
	movle	r3, #0	@, tmp10156
	movgt	r3, #1	@, tmp10156
	ldrb	r8, [r6, #2855]	@ zero_extendqisi2	@ <variable>.Pix, <variable>.Pix
	cmp	lr, #2	@ tmp10147,
	addgt	r3, r3, #1	@,, MisCnt.3757, tmp10156
	cmp	r0, #0	@ tmp10160,
	ldrb	r1, [r6, #2856]	@ zero_extendqisi2	@ <variable>.Pix, <variable>.Pix
	rsb	r8, ip, r8	@ tmp10167, SmpPat.Pix, <variable>.Pix
	rsblt	r0, r0, #0	@ tmp10161, tmp10160
	ldrb	sl, [sp, #28]	@ zero_extendqisi2	@ SmpPat.Pix, SmpPat.Pix
	cmp	r0, #2	@ tmp10161,
	addgt	r3, r3, #1	@,, MisCnt.3765, MisCnt.3757
	cmp	r8, #0	@ tmp10167,
	ldrb	r0, [sp, #29]	@ zero_extendqisi2	@ SmpPat.Pix, SmpPat.Pix
	rsb	r2, sl, r1	@ tmp10174, SmpPat.Pix, <variable>.Pix
	rsblt	r8, r8, #0	@ tmp10168, tmp10167
	ldrb	ip, [r6, #2857]	@ zero_extendqisi2	@ <variable>.Pix, <variable>.Pix
	cmp	r8, #2	@ tmp10168,
	addgt	r3, r3, #1	@,, MisCnt.3773, MisCnt.3765
	cmp	r2, #0	@ tmp10174,
	ldrb	sl, [sp, #30]	@ zero_extendqisi2	@ SmpPat.Pix, SmpPat.Pix
	rsb	ip, r0, ip	@ tmp10181, SmpPat.Pix, <variable>.Pix
	rsblt	r2, r2, #0	@ tmp10175, tmp10174
	ldrb	lr, [r6, #2858]	@ zero_extendqisi2	@ <variable>.Pix, <variable>.Pix
	cmp	r2, #2	@ tmp10175,
	addgt	r3, r3, #1	@,, MisCnt.3781, MisCnt.3773
	cmp	ip, #0	@ tmp10181,
	ldrb	r0, [r6, #2859]	@ zero_extendqisi2	@ <variable>.Pix, <variable>.Pix
	rsb	r1, sl, lr	@ tmp10188, SmpPat.Pix, <variable>.Pix
	rsblt	ip, ip, #0	@ tmp10182, tmp10181
	ldrb	r8, [sp, #31]	@ zero_extendqisi2	@ SmpPat.Pix, SmpPat.Pix
	cmp	ip, #2	@ tmp10182,
	addgt	r3, r3, #1	@,, MisCnt.3789, MisCnt.3781
	cmp	r1, #0	@ tmp10188,
	rsb	sl, r8, r0	@ tmp10195, SmpPat.Pix, <variable>.Pix
	rsblt	r1, r1, #0	@ tmp10189, tmp10188
	cmp	r1, #2	@ tmp10189,
	addgt	r3, r3, #1	@,, MisCnt.3797, MisCnt.3789
	cmp	sl, #0	@ tmp10195,
	rsblt	sl, sl, #0	@ tmp10196, tmp10195
	cmp	sl, #2	@ tmp10196,
	addgt	r3, r3, #1	@,, tmp10199, MisCnt.3797
	cmp	r3, #2	@ tmp10199,
	bgt	.L53	@,
	ldr	r3, [r6, #2860]	@ <variable>.Comp, <variable>.Comp
	mov	r0, r7	@, tmp12193
	ldr	r2, [r6, #2864]	@ <variable>.Px, <variable>.Px
	mov	r1, r5	@, pDetPara
	ldr	lr, [r6, #2868]	@ <variable>.Py, <variable>.Py
	str	r3, [sp, #12]	@ <variable>.Comp, SmpPat.Comp
	str	r2, [sp, #16]	@ <variable>.Px, SmpPat.Px
	str	lr, [sp, #20]	@ <variable>.Py, SmpPat.Py
	bl	GetSample	@
	ldrb	r8, [r6, #2873]	@ zero_extendqisi2	@ <variable>.Pix, <variable>.Pix
	ldrb	ip, [sp, #25]	@ zero_extendqisi2	@ SmpPat.Pix, SmpPat.Pix
	ldrb	sl, [r6, #2872]	@ zero_extendqisi2	@ <variable>.Pix, <variable>.Pix
	ldrb	r1, [sp, #24]	@ zero_extendqisi2	@ SmpPat.Pix, SmpPat.Pix
	rsb	r3, ip, r8	@ tmp10217, SmpPat.Pix, <variable>.Pix
	cmp	r3, #0	@ tmp10217,
	ldrb	r2, [sp, #26]	@ zero_extendqisi2	@ SmpPat.Pix, SmpPat.Pix
	rsb	r8, r1, sl	@ tmp10210, SmpPat.Pix, <variable>.Pix
	ldrb	r0, [r6, #2874]	@ zero_extendqisi2	@ <variable>.Pix, <variable>.Pix
	rsblt	r3, r3, #0	@ tmp10218, tmp10217
	cmp	r8, #0	@ tmp10210,
	rsb	r0, r2, r0	@ tmp10224, SmpPat.Pix, <variable>.Pix
	rsblt	r8, r8, #0	@ tmp10211, tmp10210
	ldrb	ip, [sp, #27]	@ zero_extendqisi2	@ SmpPat.Pix, SmpPat.Pix
	cmp	r3, #2	@ tmp10218,
	movle	r3, #0	@, tmp10220
	movgt	r3, #1	@, tmp10220
	ldrb	sl, [r6, #2875]	@ zero_extendqisi2	@ <variable>.Pix, <variable>.Pix
	cmp	r8, #2	@ tmp10211,
	addgt	r3, r3, #1	@,, MisCnt.1322, tmp10220
	cmp	r0, #0	@ tmp10224,
	ldrb	r1, [r6, #2876]	@ zero_extendqisi2	@ <variable>.Pix, <variable>.Pix
	rsb	sl, ip, sl	@ tmp10231, SmpPat.Pix, <variable>.Pix
	rsblt	r0, r0, #0	@ tmp10225, tmp10224
	ldrb	r2, [sp, #28]	@ zero_extendqisi2	@ SmpPat.Pix, SmpPat.Pix
	cmp	r0, #2	@ tmp10225,
	addgt	r3, r3, #1	@,, MisCnt.1333, MisCnt.1322
	cmp	sl, #0	@ tmp10231,
	ldrb	r0, [sp, #29]	@ zero_extendqisi2	@ SmpPat.Pix, SmpPat.Pix
	rsb	r2, r2, r1	@ tmp10238, SmpPat.Pix, <variable>.Pix
	rsblt	sl, sl, #0	@ tmp10232, tmp10231
	ldrb	ip, [r6, #2877]	@ zero_extendqisi2	@ <variable>.Pix, <variable>.Pix
	cmp	sl, #2	@ tmp10232,
	addgt	r3, r3, #1	@,, MisCnt.1344, MisCnt.1333
	cmp	r2, #0	@ tmp10238,
	ldrb	r8, [r6, #2878]	@ zero_extendqisi2	@ <variable>.Pix, <variable>.Pix
	rsb	ip, r0, ip	@ tmp10245, SmpPat.Pix, <variable>.Pix
	rsblt	r2, r2, #0	@ tmp10239, tmp10238
	ldrb	r1, [sp, #30]	@ zero_extendqisi2	@ SmpPat.Pix, SmpPat.Pix
	cmp	r2, #2	@ tmp10239,
	addgt	r3, r3, #1	@,, MisCnt.1353, MisCnt.1344
	cmp	ip, #0	@ tmp10245,
	ldrb	r0, [r6, #2879]	@ zero_extendqisi2	@ <variable>.Pix, <variable>.Pix
	rsblt	ip, ip, #0	@ tmp10246, tmp10245
	rsb	r1, r1, r8	@ tmp10252, SmpPat.Pix, <variable>.Pix
	ldrb	r2, [sp, #31]	@ zero_extendqisi2	@ SmpPat.Pix, SmpPat.Pix
	cmp	ip, #2	@ tmp10246,
	addgt	r3, r3, #1	@,, MisCnt.1362, MisCnt.1353
	cmp	r1, #0	@ tmp10252,
	rsb	ip, r2, r0	@ tmp10259, SmpPat.Pix, <variable>.Pix
	rsblt	r1, r1, #0	@ tmp10253, tmp10252
	cmp	r1, #2	@ tmp10253,
	addgt	r3, r3, #1	@,, MisCnt.1372, MisCnt.1362
	cmp	ip, #0	@ tmp10259,
	rsblt	ip, ip, #0	@ tmp10260, tmp10259
	cmp	ip, #2	@ tmp10260,
	addgt	r3, r3, #1	@,, tmp10263, MisCnt.1372
	cmp	r3, #2	@ tmp10263,
	movle	r0, #32	@ Result,
	ble	.L13	@,
.L53:
	ldr	ip, [r4, #2880]	@ <variable>.Comp, <variable>.Comp
	mov	r0, r7	@, tmp12193
	ldr	sl, [r4, #2884]	@ <variable>.Px, <variable>.Px
	mov	r1, r5	@, pDetPara
	ldr	lr, [r4, #2888]	@ <variable>.Py, <variable>.Py
	movw	r6, #:lower16:.LANCHOR0	@ tmp10264,
	str	ip, [sp, #12]	@ <variable>.Comp, SmpPat.Comp
	movt	r6, #:upper16:.LANCHOR0	@ tmp10264,
	str	sl, [sp, #16]	@ <variable>.Px, SmpPat.Px
	str	lr, [sp, #20]	@ <variable>.Py, SmpPat.Py
	bl	GetSample	@
	ldrb	r1, [r4, #2893]	@ zero_extendqisi2	@ <variable>.Pix, <variable>.Pix
	ldrb	r2, [sp, #25]	@ zero_extendqisi2	@ SmpPat.Pix, SmpPat.Pix
	ldrb	r0, [r4, #2892]	@ zero_extendqisi2	@ <variable>.Pix, <variable>.Pix
	ldrb	r3, [sp, #24]	@ zero_extendqisi2	@ SmpPat.Pix, SmpPat.Pix
	rsb	r8, r2, r1	@ tmp10281, SmpPat.Pix, <variable>.Pix
	cmp	r8, #0	@ tmp10281,
	ldrb	sl, [r4, #2894]	@ zero_extendqisi2	@ <variable>.Pix, <variable>.Pix
	rsb	lr, r3, r0	@ tmp10274, SmpPat.Pix, <variable>.Pix
	ldrb	ip, [sp, #26]	@ zero_extendqisi2	@ SmpPat.Pix, SmpPat.Pix
	rsblt	r8, r8, #0	@ tmp10282, tmp10281
	cmp	lr, #0	@ tmp10274,
	rsblt	lr, lr, #0	@ tmp10275, tmp10274
	ldrb	r0, [r4, #2895]	@ zero_extendqisi2	@ <variable>.Pix, <variable>.Pix
	cmp	r8, #2	@ tmp10282,
	movle	r1, #0	@, tmp10284
	movgt	r1, #1	@, tmp10284
	ldrb	r3, [sp, #27]	@ zero_extendqisi2	@ SmpPat.Pix, SmpPat.Pix
	rsb	r8, ip, sl	@ tmp10288, SmpPat.Pix, <variable>.Pix
	cmp	lr, #2	@ tmp10275,
	addgt	r1, r1, #1	@,, MisCnt.3823, tmp10284
	cmp	r8, #0	@ tmp10288,
	rsb	sl, r3, r0	@ tmp10295, SmpPat.Pix, <variable>.Pix
	ldrb	r2, [sp, #28]	@ zero_extendqisi2	@ SmpPat.Pix, SmpPat.Pix
	rsblt	r8, r8, #0	@ tmp10289, tmp10288
	ldrb	ip, [r4, #2896]	@ zero_extendqisi2	@ <variable>.Pix, <variable>.Pix
	cmp	r8, #2	@ tmp10289,
	movle	r8, r1	@, MisCnt.3831, MisCnt.3823
	addgt	r8, r1, #1	@,, MisCnt.3831, MisCnt.3823
	cmp	sl, #0	@ tmp10295,
	ldrb	r0, [r4, #2897]	@ zero_extendqisi2	@ <variable>.Pix, <variable>.Pix
	rsb	ip, r2, ip	@ tmp10302, SmpPat.Pix, <variable>.Pix
	rsblt	sl, sl, #0	@ tmp10296, tmp10295
	ldrb	r1, [sp, #29]	@ zero_extendqisi2	@ SmpPat.Pix, SmpPat.Pix
	cmp	sl, #2	@ tmp10296,
	movle	r3, r8	@, MisCnt.3839, MisCnt.3831
	addgt	r3, r8, #1	@,, MisCnt.3839, MisCnt.3831
	cmp	ip, #0	@ tmp10302,
	ldrb	lr, [r4, #2898]	@ zero_extendqisi2	@ <variable>.Pix, <variable>.Pix
	rsb	sl, r1, r0	@ tmp10309, SmpPat.Pix, <variable>.Pix
	rsblt	ip, ip, #0	@ tmp10303, tmp10302
	ldrb	r2, [sp, #30]	@ zero_extendqisi2	@ SmpPat.Pix, SmpPat.Pix
	cmp	ip, #2	@ tmp10303,
	movle	ip, r3	@, MisCnt.3847, MisCnt.3839
	addgt	ip, r3, #1	@,, MisCnt.3847, MisCnt.3839
	cmp	sl, #0	@ tmp10309,
	ldrb	r0, [r4, #2899]	@ zero_extendqisi2	@ <variable>.Pix, <variable>.Pix
	rsblt	sl, sl, #0	@ tmp10310, tmp10309
	rsb	r8, r2, lr	@ tmp10316, SmpPat.Pix, <variable>.Pix
	ldrb	r3, [sp, #31]	@ zero_extendqisi2	@ SmpPat.Pix, SmpPat.Pix
	cmp	sl, #2	@ tmp10310,
	movle	r1, ip	@, MisCnt.3855, MisCnt.3847
	addgt	r1, ip, #1	@,, MisCnt.3855, MisCnt.3847
	cmp	r8, #0	@ tmp10316,
	rsb	sl, r3, r0	@ tmp10323, SmpPat.Pix, <variable>.Pix
	rsblt	r8, r8, #0	@ tmp10317, tmp10316
	cmp	r8, #2	@ tmp10317,
	movle	ip, r1	@, MisCnt.3863, MisCnt.3855
	addgt	ip, r1, #1	@,, MisCnt.3863, MisCnt.3855
	cmp	sl, #0	@ tmp10323,
	rsblt	sl, sl, #0	@ tmp10324, tmp10323
	cmp	sl, #2	@ tmp10324,
	movle	r0, ip	@, tmp10327, MisCnt.3863
	addgt	r0, ip, #1	@,, tmp10327, MisCnt.3863
	cmp	r0, #2	@ tmp10327,
	bgt	.L54	@,
	ldr	r2, [r6, #2900]	@ <variable>.Comp, <variable>.Comp
	mov	r0, r7	@, tmp12193
	ldr	sl, [r6, #2904]	@ <variable>.Px, <variable>.Px
	mov	r1, r5	@, pDetPara
	ldr	lr, [r6, #2908]	@ <variable>.Py, <variable>.Py
	str	r2, [sp, #12]	@ <variable>.Comp, SmpPat.Comp
	str	sl, [sp, #16]	@ <variable>.Px, SmpPat.Px
	str	lr, [sp, #20]	@ <variable>.Py, SmpPat.Py
	bl	GetSample	@
	ldrb	ip, [r6, #2913]	@ zero_extendqisi2	@ <variable>.Pix, <variable>.Pix
	ldrb	r8, [sp, #25]	@ zero_extendqisi2	@ SmpPat.Pix, SmpPat.Pix
	ldrb	r0, [r6, #2912]	@ zero_extendqisi2	@ <variable>.Pix, <variable>.Pix
	ldrb	r1, [sp, #24]	@ zero_extendqisi2	@ SmpPat.Pix, SmpPat.Pix
	rsb	r3, r8, ip	@ tmp10345, SmpPat.Pix, <variable>.Pix
	cmp	r3, #0	@ tmp10345,
	ldrb	sl, [r6, #2914]	@ zero_extendqisi2	@ <variable>.Pix, <variable>.Pix
	rsb	lr, r1, r0	@ tmp10338, SmpPat.Pix, <variable>.Pix
	ldrb	r2, [sp, #26]	@ zero_extendqisi2	@ SmpPat.Pix, SmpPat.Pix
	rsblt	r3, r3, #0	@ tmp10346, tmp10345
	cmp	lr, #0	@ tmp10338,
	rsb	r0, r2, sl	@ tmp10352, SmpPat.Pix, <variable>.Pix
	rsblt	lr, lr, #0	@ tmp10339, tmp10338
	ldrb	ip, [sp, #27]	@ zero_extendqisi2	@ SmpPat.Pix, SmpPat.Pix
	cmp	r3, #2	@ tmp10346,
	movle	r3, #0	@, tmp10348
	movgt	r3, #1	@, tmp10348
	ldrb	r8, [r6, #2915]	@ zero_extendqisi2	@ <variable>.Pix, <variable>.Pix
	cmp	lr, #2	@ tmp10339,
	addgt	r3, r3, #1	@,, MisCnt.3889, tmp10348
	cmp	r0, #0	@ tmp10352,
	ldrb	r1, [r6, #2916]	@ zero_extendqisi2	@ <variable>.Pix, <variable>.Pix
	rsb	r8, ip, r8	@ tmp10359, SmpPat.Pix, <variable>.Pix
	rsblt	r0, r0, #0	@ tmp10353, tmp10352
	ldrb	sl, [sp, #28]	@ zero_extendqisi2	@ SmpPat.Pix, SmpPat.Pix
	cmp	r0, #2	@ tmp10353,
	addgt	r3, r3, #1	@,, MisCnt.3897, MisCnt.3889
	cmp	r8, #0	@ tmp10359,
	ldrb	r0, [sp, #29]	@ zero_extendqisi2	@ SmpPat.Pix, SmpPat.Pix
	rsb	r2, sl, r1	@ tmp10366, SmpPat.Pix, <variable>.Pix
	rsblt	r8, r8, #0	@ tmp10360, tmp10359
	ldrb	ip, [r6, #2917]	@ zero_extendqisi2	@ <variable>.Pix, <variable>.Pix
	cmp	r8, #2	@ tmp10360,
	addgt	r3, r3, #1	@,, MisCnt.3905, MisCnt.3897
	cmp	r2, #0	@ tmp10366,
	ldrb	lr, [r6, #2918]	@ zero_extendqisi2	@ <variable>.Pix, <variable>.Pix
	rsb	sl, r0, ip	@ tmp10373, SmpPat.Pix, <variable>.Pix
	rsblt	r2, r2, #0	@ tmp10367, tmp10366
	ldrb	r1, [sp, #30]	@ zero_extendqisi2	@ SmpPat.Pix, SmpPat.Pix
	cmp	r2, #2	@ tmp10367,
	addgt	r3, r3, #1	@,, MisCnt.3913, MisCnt.3905
	cmp	sl, #0	@ tmp10373,
	ldrb	r0, [r6, #2919]	@ zero_extendqisi2	@ <variable>.Pix, <variable>.Pix
	rsb	r1, r1, lr	@ tmp10380, SmpPat.Pix, <variable>.Pix
	rsblt	sl, sl, #0	@ tmp10374, tmp10373
	ldrb	r2, [sp, #31]	@ zero_extendqisi2	@ SmpPat.Pix, SmpPat.Pix
	cmp	sl, #2	@ tmp10374,
	addgt	r3, r3, #1	@,, MisCnt.3921, MisCnt.3913
	cmp	r1, #0	@ tmp10380,
	rsb	r8, r2, r0	@ tmp10387, SmpPat.Pix, <variable>.Pix
	rsblt	r1, r1, #0	@ tmp10381, tmp10380
	cmp	r1, #2	@ tmp10381,
	addgt	r3, r3, #1	@,, MisCnt.3929, MisCnt.3921
	cmp	r8, #0	@ tmp10387,
	rsblt	r8, r8, #0	@ tmp10388, tmp10387
	cmp	r8, #2	@ tmp10388,
	addgt	r3, r3, #1	@,, tmp10391, MisCnt.3929
	cmp	r3, #2	@ tmp10391,
	bgt	.L54	@,
	ldr	r2, [r6, #2920]	@ <variable>.Comp, <variable>.Comp
	mov	r0, r7	@, tmp12193
	ldr	r8, [r6, #2924]	@ <variable>.Px, <variable>.Px
	mov	r1, r5	@, pDetPara
	ldr	lr, [r6, #2928]	@ <variable>.Py, <variable>.Py
	str	r2, [sp, #12]	@ <variable>.Comp, SmpPat.Comp
	str	r8, [sp, #16]	@ <variable>.Px, SmpPat.Px
	str	lr, [sp, #20]	@ <variable>.Py, SmpPat.Py
	bl	GetSample	@
	ldrb	ip, [r6, #2933]	@ zero_extendqisi2	@ <variable>.Pix, <variable>.Pix
	ldrb	sl, [sp, #25]	@ zero_extendqisi2	@ SmpPat.Pix, SmpPat.Pix
	ldrb	r0, [r6, #2932]	@ zero_extendqisi2	@ <variable>.Pix, <variable>.Pix
	ldrb	r1, [sp, #24]	@ zero_extendqisi2	@ SmpPat.Pix, SmpPat.Pix
	rsb	r3, sl, ip	@ tmp10409, SmpPat.Pix, <variable>.Pix
	cmp	r3, #0	@ tmp10409,
	ldrb	r8, [r6, #2934]	@ zero_extendqisi2	@ <variable>.Pix, <variable>.Pix
	rsb	lr, r1, r0	@ tmp10402, SmpPat.Pix, <variable>.Pix
	ldrb	r2, [sp, #26]	@ zero_extendqisi2	@ SmpPat.Pix, SmpPat.Pix
	rsblt	r3, r3, #0	@ tmp10410, tmp10409
	cmp	lr, #0	@ tmp10402,
	rsb	r0, r2, r8	@ tmp10416, SmpPat.Pix, <variable>.Pix
	rsblt	lr, lr, #0	@ tmp10403, tmp10402
	ldrb	sl, [r6, #2935]	@ zero_extendqisi2	@ <variable>.Pix, <variable>.Pix
	cmp	r3, #2	@ tmp10410,
	movle	r3, #0	@, tmp10412
	movgt	r3, #1	@, tmp10412
	ldrb	ip, [sp, #27]	@ zero_extendqisi2	@ SmpPat.Pix, SmpPat.Pix
	cmp	lr, #2	@ tmp10403,
	addgt	r3, r3, #1	@,, MisCnt.3955, tmp10412
	cmp	r0, #0	@ tmp10416,
	ldrb	r1, [r6, #2936]	@ zero_extendqisi2	@ <variable>.Pix, <variable>.Pix
	rsb	r8, ip, sl	@ tmp10423, SmpPat.Pix, <variable>.Pix
	rsblt	r0, r0, #0	@ tmp10417, tmp10416
	ldrb	r2, [sp, #28]	@ zero_extendqisi2	@ SmpPat.Pix, SmpPat.Pix
	cmp	r0, #2	@ tmp10417,
	addgt	r3, r3, #1	@,, MisCnt.3963, MisCnt.3955
	cmp	r8, #0	@ tmp10423,
	ldrb	sl, [r6, #2937]	@ zero_extendqisi2	@ <variable>.Pix, <variable>.Pix
	rsb	r2, r2, r1	@ tmp10430, SmpPat.Pix, <variable>.Pix
	rsblt	r8, r8, #0	@ tmp10424, tmp10423
	ldrb	r0, [sp, #29]	@ zero_extendqisi2	@ SmpPat.Pix, SmpPat.Pix
	cmp	r8, #2	@ tmp10424,
	addgt	r3, r3, #1	@,, MisCnt.3971, MisCnt.3963
	cmp	r2, #0	@ tmp10430,
	ldrb	lr, [r6, #2938]	@ zero_extendqisi2	@ <variable>.Pix, <variable>.Pix
	rsb	ip, r0, sl	@ tmp10437, SmpPat.Pix, <variable>.Pix
	rsblt	r2, r2, #0	@ tmp10431, tmp10430
	ldrb	r1, [sp, #30]	@ zero_extendqisi2	@ SmpPat.Pix, SmpPat.Pix
	cmp	r2, #2	@ tmp10431,
	addgt	r3, r3, #1	@,, MisCnt.3979, MisCnt.3971
	cmp	ip, #0	@ tmp10437,
	ldrb	r0, [r6, #2939]	@ zero_extendqisi2	@ <variable>.Pix, <variable>.Pix
	rsb	r1, r1, lr	@ tmp10444, SmpPat.Pix, <variable>.Pix
	rsblt	ip, ip, #0	@ tmp10438, tmp10437
	ldrb	sl, [sp, #31]	@ zero_extendqisi2	@ SmpPat.Pix, SmpPat.Pix
	cmp	ip, #2	@ tmp10438,
	addgt	r3, r3, #1	@,, MisCnt.3987, MisCnt.3979
	cmp	r1, #0	@ tmp10444,
	rsb	r8, sl, r0	@ tmp10451, SmpPat.Pix, <variable>.Pix
	rsblt	r1, r1, #0	@ tmp10445, tmp10444
	cmp	r1, #2	@ tmp10445,
	addgt	r3, r3, #1	@,, MisCnt.3995, MisCnt.3987
	cmp	r8, #0	@ tmp10451,
	rsblt	r8, r8, #0	@ tmp10452, tmp10451
	cmp	r8, #2	@ tmp10452,
	addgt	r3, r3, #1	@,, tmp10455, MisCnt.3995
	cmp	r3, #2	@ tmp10455,
	bgt	.L54	@,
	ldr	r2, [r6, #2940]	@ <variable>.Comp, <variable>.Comp
	mov	r0, r7	@, tmp12193
	ldr	sl, [r6, #2944]	@ <variable>.Px, <variable>.Px
	mov	r1, r5	@, pDetPara
	ldr	lr, [r6, #2948]	@ <variable>.Py, <variable>.Py
	str	r2, [sp, #12]	@ <variable>.Comp, SmpPat.Comp
	str	sl, [sp, #16]	@ <variable>.Px, SmpPat.Px
	str	lr, [sp, #20]	@ <variable>.Py, SmpPat.Py
	bl	GetSample	@
	ldrb	ip, [r6, #2953]	@ zero_extendqisi2	@ <variable>.Pix, <variable>.Pix
	ldrb	r8, [sp, #25]	@ zero_extendqisi2	@ SmpPat.Pix, SmpPat.Pix
	ldrb	r0, [r6, #2952]	@ zero_extendqisi2	@ <variable>.Pix, <variable>.Pix
	ldrb	r1, [sp, #24]	@ zero_extendqisi2	@ SmpPat.Pix, SmpPat.Pix
	rsb	r3, r8, ip	@ tmp10473, SmpPat.Pix, <variable>.Pix
	cmp	r3, #0	@ tmp10473,
	ldrb	sl, [r6, #2954]	@ zero_extendqisi2	@ <variable>.Pix, <variable>.Pix
	rsb	lr, r1, r0	@ tmp10466, SmpPat.Pix, <variable>.Pix
	ldrb	r2, [sp, #26]	@ zero_extendqisi2	@ SmpPat.Pix, SmpPat.Pix
	rsblt	r3, r3, #0	@ tmp10474, tmp10473
	cmp	lr, #0	@ tmp10466,
	rsb	r0, r2, sl	@ tmp10480, SmpPat.Pix, <variable>.Pix
	rsblt	lr, lr, #0	@ tmp10467, tmp10466
	ldrb	ip, [sp, #27]	@ zero_extendqisi2	@ SmpPat.Pix, SmpPat.Pix
	cmp	r3, #2	@ tmp10474,
	movle	r3, #0	@, tmp10476
	movgt	r3, #1	@, tmp10476
	ldrb	r8, [r6, #2955]	@ zero_extendqisi2	@ <variable>.Pix, <variable>.Pix
	cmp	lr, #2	@ tmp10467,
	addgt	r3, r3, #1	@,, MisCnt.4021, tmp10476
	cmp	r0, #0	@ tmp10480,
	ldrb	r1, [r6, #2956]	@ zero_extendqisi2	@ <variable>.Pix, <variable>.Pix
	rsb	r8, ip, r8	@ tmp10487, SmpPat.Pix, <variable>.Pix
	rsblt	r0, r0, #0	@ tmp10481, tmp10480
	ldrb	sl, [sp, #28]	@ zero_extendqisi2	@ SmpPat.Pix, SmpPat.Pix
	cmp	r0, #2	@ tmp10481,
	addgt	r3, r3, #1	@,, MisCnt.4029, MisCnt.4021
	cmp	r8, #0	@ tmp10487,
	ldrb	r0, [sp, #29]	@ zero_extendqisi2	@ SmpPat.Pix, SmpPat.Pix
	rsb	r2, sl, r1	@ tmp10494, SmpPat.Pix, <variable>.Pix
	rsblt	r8, r8, #0	@ tmp10488, tmp10487
	ldrb	ip, [r6, #2957]	@ zero_extendqisi2	@ <variable>.Pix, <variable>.Pix
	cmp	r8, #2	@ tmp10488,
	addgt	r3, r3, #1	@,, MisCnt.4037, MisCnt.4029
	cmp	r2, #0	@ tmp10494,
	ldrb	sl, [sp, #30]	@ zero_extendqisi2	@ SmpPat.Pix, SmpPat.Pix
	rsb	ip, r0, ip	@ tmp10501, SmpPat.Pix, <variable>.Pix
	rsblt	r2, r2, #0	@ tmp10495, tmp10494
	ldrb	lr, [r6, #2958]	@ zero_extendqisi2	@ <variable>.Pix, <variable>.Pix
	cmp	r2, #2	@ tmp10495,
	addgt	r3, r3, #1	@,, MisCnt.4045, MisCnt.4037
	cmp	ip, #0	@ tmp10501,
	ldrb	r0, [r6, #2959]	@ zero_extendqisi2	@ <variable>.Pix, <variable>.Pix
	rsb	r1, sl, lr	@ tmp10508, SmpPat.Pix, <variable>.Pix
	rsblt	ip, ip, #0	@ tmp10502, tmp10501
	ldrb	r8, [sp, #31]	@ zero_extendqisi2	@ SmpPat.Pix, SmpPat.Pix
	cmp	ip, #2	@ tmp10502,
	addgt	r3, r3, #1	@,, MisCnt.4053, MisCnt.4045
	cmp	r1, #0	@ tmp10508,
	rsb	sl, r8, r0	@ tmp10515, SmpPat.Pix, <variable>.Pix
	rsblt	r1, r1, #0	@ tmp10509, tmp10508
	cmp	r1, #2	@ tmp10509,
	addgt	r3, r3, #1	@,, MisCnt.4061, MisCnt.4053
	cmp	sl, #0	@ tmp10515,
	rsblt	sl, sl, #0	@ tmp10516, tmp10515
	cmp	sl, #2	@ tmp10516,
	addgt	r3, r3, #1	@,, tmp10519, MisCnt.4061
	cmp	r3, #2	@ tmp10519,
	bgt	.L54	@,
	ldr	r3, [r6, #2960]	@ <variable>.Comp, <variable>.Comp
	mov	r0, r7	@, tmp12193
	ldr	r2, [r6, #2964]	@ <variable>.Px, <variable>.Px
	mov	r1, r5	@, pDetPara
	ldr	lr, [r6, #2968]	@ <variable>.Py, <variable>.Py
	str	r3, [sp, #12]	@ <variable>.Comp, SmpPat.Comp
	str	r2, [sp, #16]	@ <variable>.Px, SmpPat.Px
	str	lr, [sp, #20]	@ <variable>.Py, SmpPat.Py
	bl	GetSample	@
	ldrb	r8, [r6, #2973]	@ zero_extendqisi2	@ <variable>.Pix, <variable>.Pix
	ldrb	ip, [sp, #25]	@ zero_extendqisi2	@ SmpPat.Pix, SmpPat.Pix
	ldrb	sl, [r6, #2972]	@ zero_extendqisi2	@ <variable>.Pix, <variable>.Pix
	ldrb	r1, [sp, #24]	@ zero_extendqisi2	@ SmpPat.Pix, SmpPat.Pix
	rsb	r3, ip, r8	@ tmp10537, SmpPat.Pix, <variable>.Pix
	cmp	r3, #0	@ tmp10537,
	ldrb	r2, [sp, #26]	@ zero_extendqisi2	@ SmpPat.Pix, SmpPat.Pix
	rsb	r8, r1, sl	@ tmp10530, SmpPat.Pix, <variable>.Pix
	ldrb	r0, [r6, #2974]	@ zero_extendqisi2	@ <variable>.Pix, <variable>.Pix
	rsblt	r3, r3, #0	@ tmp10538, tmp10537
	cmp	r8, #0	@ tmp10530,
	rsb	r0, r2, r0	@ tmp10544, SmpPat.Pix, <variable>.Pix
	rsblt	r8, r8, #0	@ tmp10531, tmp10530
	ldrb	ip, [sp, #27]	@ zero_extendqisi2	@ SmpPat.Pix, SmpPat.Pix
	cmp	r3, #2	@ tmp10538,
	movle	r3, #0	@, tmp10540
	movgt	r3, #1	@, tmp10540
	ldrb	sl, [r6, #2975]	@ zero_extendqisi2	@ <variable>.Pix, <variable>.Pix
	cmp	r8, #2	@ tmp10531,
	addgt	r3, r3, #1	@,, MisCnt.1390, tmp10540
	cmp	r0, #0	@ tmp10544,
	ldrb	r1, [r6, #2976]	@ zero_extendqisi2	@ <variable>.Pix, <variable>.Pix
	rsb	sl, ip, sl	@ tmp10551, SmpPat.Pix, <variable>.Pix
	rsblt	r0, r0, #0	@ tmp10545, tmp10544
	ldrb	r2, [sp, #28]	@ zero_extendqisi2	@ SmpPat.Pix, SmpPat.Pix
	cmp	r0, #2	@ tmp10545,
	addgt	r3, r3, #1	@,, MisCnt.1398, MisCnt.1390
	cmp	sl, #0	@ tmp10551,
	ldrb	r0, [sp, #29]	@ zero_extendqisi2	@ SmpPat.Pix, SmpPat.Pix
	rsb	r2, r2, r1	@ tmp10558, SmpPat.Pix, <variable>.Pix
	rsblt	sl, sl, #0	@ tmp10552, tmp10551
	ldrb	ip, [r6, #2977]	@ zero_extendqisi2	@ <variable>.Pix, <variable>.Pix
	cmp	sl, #2	@ tmp10552,
	addgt	r3, r3, #1	@,, MisCnt.1406, MisCnt.1398
	cmp	r2, #0	@ tmp10558,
	ldrb	r8, [r6, #2978]	@ zero_extendqisi2	@ <variable>.Pix, <variable>.Pix
	rsb	ip, r0, ip	@ tmp10565, SmpPat.Pix, <variable>.Pix
	rsblt	r2, r2, #0	@ tmp10559, tmp10558
	ldrb	r1, [sp, #30]	@ zero_extendqisi2	@ SmpPat.Pix, SmpPat.Pix
	cmp	r2, #2	@ tmp10559,
	addgt	r3, r3, #1	@,, MisCnt.1414, MisCnt.1406
	cmp	ip, #0	@ tmp10565,
	ldrb	r0, [r6, #2979]	@ zero_extendqisi2	@ <variable>.Pix, <variable>.Pix
	rsblt	ip, ip, #0	@ tmp10566, tmp10565
	rsb	r1, r1, r8	@ tmp10572, SmpPat.Pix, <variable>.Pix
	ldrb	r2, [sp, #31]	@ zero_extendqisi2	@ SmpPat.Pix, SmpPat.Pix
	cmp	ip, #2	@ tmp10566,
	addgt	r3, r3, #1	@,, MisCnt.1425, MisCnt.1414
	cmp	r1, #0	@ tmp10572,
	rsb	ip, r2, r0	@ tmp10579, SmpPat.Pix, <variable>.Pix
	rsblt	r1, r1, #0	@ tmp10573, tmp10572
	cmp	r1, #2	@ tmp10573,
	addgt	r3, r3, #1	@,, MisCnt.1436, MisCnt.1425
	cmp	ip, #0	@ tmp10579,
	rsblt	ip, ip, #0	@ tmp10580, tmp10579
	cmp	ip, #2	@ tmp10580,
	addgt	r3, r3, #1	@,, tmp10583, MisCnt.1436
	cmp	r3, #2	@ tmp10583,
	movle	r0, #33	@ Result,
	ble	.L13	@,
.L54:
	ldr	r3, [r4, #2980]	@ <variable>.Comp, <variable>.Comp
	mov	r0, r7	@, tmp12193
	ldr	r2, [r4, #2984]	@ <variable>.Px, <variable>.Px
	mov	r1, r5	@, pDetPara
	ldr	lr, [r4, #2988]	@ <variable>.Py, <variable>.Py
	movw	r6, #:lower16:.LANCHOR0	@ tmp10584,
	str	r3, [sp, #12]	@ <variable>.Comp, SmpPat.Comp
	movt	r6, #:upper16:.LANCHOR0	@ tmp10584,
	str	r2, [sp, #16]	@ <variable>.Px, SmpPat.Px
	str	lr, [sp, #20]	@ <variable>.Py, SmpPat.Py
	bl	GetSample	@
	ldrb	ip, [r4, #2993]	@ zero_extendqisi2	@ <variable>.Pix, <variable>.Pix
	ldrb	r8, [sp, #25]	@ zero_extendqisi2	@ SmpPat.Pix, SmpPat.Pix
	ldrb	sl, [r4, #2992]	@ zero_extendqisi2	@ <variable>.Pix, <variable>.Pix
	ldrb	r1, [sp, #24]	@ zero_extendqisi2	@ SmpPat.Pix, SmpPat.Pix
	rsb	r3, r8, ip	@ tmp10601, SmpPat.Pix, <variable>.Pix
	cmp	r3, #0	@ tmp10601,
	ldrb	r2, [sp, #26]	@ zero_extendqisi2	@ SmpPat.Pix, SmpPat.Pix
	rsb	lr, r1, sl	@ tmp10594, SmpPat.Pix, <variable>.Pix
	ldrb	r0, [r4, #2994]	@ zero_extendqisi2	@ <variable>.Pix, <variable>.Pix
	rsblt	r3, r3, #0	@ tmp10602, tmp10601
	cmp	lr, #0	@ tmp10594,
	rsb	r0, r2, r0	@ tmp10608, SmpPat.Pix, <variable>.Pix
	rsblt	lr, lr, #0	@ tmp10595, tmp10594
	ldrb	ip, [sp, #27]	@ zero_extendqisi2	@ SmpPat.Pix, SmpPat.Pix
	cmp	r3, #2	@ tmp10602,
	movle	sl, #0	@, tmp10604
	movgt	sl, #1	@, tmp10604
	ldrb	r8, [r4, #2995]	@ zero_extendqisi2	@ <variable>.Pix, <variable>.Pix
	cmp	lr, #2	@ tmp10595,
	addgt	sl, sl, #1	@,, MisCnt.4087, tmp10604
	cmp	r0, #0	@ tmp10608,
	ldrb	r1, [r4, #2996]	@ zero_extendqisi2	@ <variable>.Pix, <variable>.Pix
	rsb	r8, ip, r8	@ tmp10615, SmpPat.Pix, <variable>.Pix
	rsblt	r0, r0, #0	@ tmp10609, tmp10608
	ldrb	r2, [sp, #28]	@ zero_extendqisi2	@ SmpPat.Pix, SmpPat.Pix
	cmp	r0, #2	@ tmp10609,
	addgt	sl, sl, #1	@,, MisCnt.4095, MisCnt.4087
	cmp	r8, #0	@ tmp10615,
	ldrb	r0, [sp, #29]	@ zero_extendqisi2	@ SmpPat.Pix, SmpPat.Pix
	rsb	r2, r2, r1	@ tmp10622, SmpPat.Pix, <variable>.Pix
	rsblt	r8, r8, #0	@ tmp10616, tmp10615
	ldrb	ip, [r4, #2997]	@ zero_extendqisi2	@ <variable>.Pix, <variable>.Pix
	cmp	r8, #2	@ tmp10616,
	addgt	sl, sl, #1	@,, MisCnt.4103, MisCnt.4095
	cmp	r2, #0	@ tmp10622,
	ldrb	lr, [r4, #2998]	@ zero_extendqisi2	@ <variable>.Pix, <variable>.Pix
	rsb	ip, r0, ip	@ tmp10629, SmpPat.Pix, <variable>.Pix
	rsblt	r2, r2, #0	@ tmp10623, tmp10622
	ldrb	r1, [sp, #30]	@ zero_extendqisi2	@ SmpPat.Pix, SmpPat.Pix
	cmp	r2, #2	@ tmp10623,
	addgt	sl, sl, #1	@,, MisCnt.4111, MisCnt.4103
	cmp	ip, #0	@ tmp10629,
	ldrb	r0, [r4, #2999]	@ zero_extendqisi2	@ <variable>.Pix, <variable>.Pix
	rsblt	ip, ip, #0	@ tmp10630, tmp10629
	rsb	r1, r1, lr	@ tmp10636, SmpPat.Pix, <variable>.Pix
	ldrb	r8, [sp, #31]	@ zero_extendqisi2	@ SmpPat.Pix, SmpPat.Pix
	cmp	ip, #2	@ tmp10630,
	addgt	sl, sl, #1	@,, MisCnt.4119, MisCnt.4111
	cmp	r1, #0	@ tmp10636,
	rsb	ip, r8, r0	@ tmp10643, SmpPat.Pix, <variable>.Pix
	rsblt	r1, r1, #0	@ tmp10637, tmp10636
	cmp	r1, #2	@ tmp10637,
	addgt	sl, sl, #1	@,, MisCnt.4127, MisCnt.4119
	cmp	ip, #0	@ tmp10643,
	rsblt	ip, ip, #0	@ tmp10644, tmp10643
	cmp	ip, #2	@ tmp10644,
	addgt	sl, sl, #1	@,, tmp10647, MisCnt.4127
	cmp	sl, #2	@ tmp10647,
	bgt	.L55	@,
	ldr	r3, [r6, #3000]	@ <variable>.Comp, <variable>.Comp
	mov	r0, r7	@, tmp12193
	ldr	r2, [r6, #3004]	@ <variable>.Px, <variable>.Px
	mov	r1, r5	@, pDetPara
	ldr	lr, [r6, #3008]	@ <variable>.Py, <variable>.Py
	str	r3, [sp, #12]	@ <variable>.Comp, SmpPat.Comp
	str	r2, [sp, #16]	@ <variable>.Px, SmpPat.Px
	str	lr, [sp, #20]	@ <variable>.Py, SmpPat.Py
	bl	GetSample	@
	ldrb	ip, [r6, #3013]	@ zero_extendqisi2	@ <variable>.Pix, <variable>.Pix
	ldrb	r8, [sp, #25]	@ zero_extendqisi2	@ SmpPat.Pix, SmpPat.Pix
	ldrb	sl, [r6, #3012]	@ zero_extendqisi2	@ <variable>.Pix, <variable>.Pix
	ldrb	r1, [sp, #24]	@ zero_extendqisi2	@ SmpPat.Pix, SmpPat.Pix
	rsb	r3, r8, ip	@ tmp10665, SmpPat.Pix, <variable>.Pix
	cmp	r3, #0	@ tmp10665,
	ldrb	r2, [sp, #26]	@ zero_extendqisi2	@ SmpPat.Pix, SmpPat.Pix
	rsb	lr, r1, sl	@ tmp10658, SmpPat.Pix, <variable>.Pix
	ldrb	r0, [r6, #3014]	@ zero_extendqisi2	@ <variable>.Pix, <variable>.Pix
	rsblt	r3, r3, #0	@ tmp10666, tmp10665
	cmp	lr, #0	@ tmp10658,
	rsb	r0, r2, r0	@ tmp10672, SmpPat.Pix, <variable>.Pix
	rsblt	lr, lr, #0	@ tmp10659, tmp10658
	ldrb	ip, [sp, #27]	@ zero_extendqisi2	@ SmpPat.Pix, SmpPat.Pix
	cmp	r3, #2	@ tmp10666,
	movle	sl, #0	@, tmp10668
	movgt	sl, #1	@, tmp10668
	ldrb	r8, [r6, #3015]	@ zero_extendqisi2	@ <variable>.Pix, <variable>.Pix
	cmp	lr, #2	@ tmp10659,
	addgt	sl, sl, #1	@,, MisCnt.4153, tmp10668
	cmp	r0, #0	@ tmp10672,
	ldrb	r1, [r6, #3016]	@ zero_extendqisi2	@ <variable>.Pix, <variable>.Pix
	rsb	r8, ip, r8	@ tmp10679, SmpPat.Pix, <variable>.Pix
	rsblt	r0, r0, #0	@ tmp10673, tmp10672
	ldrb	r2, [sp, #28]	@ zero_extendqisi2	@ SmpPat.Pix, SmpPat.Pix
	cmp	r0, #2	@ tmp10673,
	addgt	sl, sl, #1	@,, MisCnt.4161, MisCnt.4153
	cmp	r8, #0	@ tmp10679,
	ldrb	r0, [sp, #29]	@ zero_extendqisi2	@ SmpPat.Pix, SmpPat.Pix
	rsb	r2, r2, r1	@ tmp10686, SmpPat.Pix, <variable>.Pix
	rsblt	r8, r8, #0	@ tmp10680, tmp10679
	ldrb	ip, [r6, #3017]	@ zero_extendqisi2	@ <variable>.Pix, <variable>.Pix
	cmp	r8, #2	@ tmp10680,
	addgt	sl, sl, #1	@,, MisCnt.4169, MisCnt.4161
	cmp	r2, #0	@ tmp10686,
	ldrb	lr, [r6, #3018]	@ zero_extendqisi2	@ <variable>.Pix, <variable>.Pix
	rsb	ip, r0, ip	@ tmp10693, SmpPat.Pix, <variable>.Pix
	rsblt	r2, r2, #0	@ tmp10687, tmp10686
	ldrb	r1, [sp, #30]	@ zero_extendqisi2	@ SmpPat.Pix, SmpPat.Pix
	cmp	r2, #2	@ tmp10687,
	addgt	sl, sl, #1	@,, MisCnt.4177, MisCnt.4169
	cmp	ip, #0	@ tmp10693,
	ldrb	r0, [r6, #3019]	@ zero_extendqisi2	@ <variable>.Pix, <variable>.Pix
	rsb	r1, r1, lr	@ tmp10700, SmpPat.Pix, <variable>.Pix
	rsblt	ip, ip, #0	@ tmp10694, tmp10693
	ldrb	r2, [sp, #31]	@ zero_extendqisi2	@ SmpPat.Pix, SmpPat.Pix
	cmp	ip, #2	@ tmp10694,
	addgt	sl, sl, #1	@,, MisCnt.4185, MisCnt.4177
	cmp	r1, #0	@ tmp10700,
	rsb	r8, r2, r0	@ tmp10707, SmpPat.Pix, <variable>.Pix
	rsblt	r1, r1, #0	@ tmp10701, tmp10700
	cmp	r1, #2	@ tmp10701,
	addgt	sl, sl, #1	@,, MisCnt.4193, MisCnt.4185
	cmp	r8, #0	@ tmp10707,
	rsblt	r8, r8, #0	@ tmp10708, tmp10707
	cmp	r8, #2	@ tmp10708,
	addgt	sl, sl, #1	@,, tmp10711, MisCnt.4193
	cmp	sl, #2	@ tmp10711,
	bgt	.L55	@,
	ldr	r3, [r6, #3020]	@ <variable>.Comp, <variable>.Comp
	mov	r0, r7	@, tmp12193
	ldr	r2, [r6, #3024]	@ <variable>.Px, <variable>.Px
	mov	r1, r5	@, pDetPara
	ldr	lr, [r6, #3028]	@ <variable>.Py, <variable>.Py
	str	r3, [sp, #12]	@ <variable>.Comp, SmpPat.Comp
	str	r2, [sp, #16]	@ <variable>.Px, SmpPat.Px
	str	lr, [sp, #20]	@ <variable>.Py, SmpPat.Py
	bl	GetSample	@
	ldrb	ip, [r6, #3033]	@ zero_extendqisi2	@ <variable>.Pix, <variable>.Pix
	ldrb	r8, [sp, #25]	@ zero_extendqisi2	@ SmpPat.Pix, SmpPat.Pix
	ldrb	sl, [r6, #3032]	@ zero_extendqisi2	@ <variable>.Pix, <variable>.Pix
	ldrb	r1, [sp, #24]	@ zero_extendqisi2	@ SmpPat.Pix, SmpPat.Pix
	rsb	r3, r8, ip	@ tmp10729, SmpPat.Pix, <variable>.Pix
	cmp	r3, #0	@ tmp10729,
	ldrb	r2, [sp, #26]	@ zero_extendqisi2	@ SmpPat.Pix, SmpPat.Pix
	rsb	lr, r1, sl	@ tmp10722, SmpPat.Pix, <variable>.Pix
	ldrb	r0, [r6, #3034]	@ zero_extendqisi2	@ <variable>.Pix, <variable>.Pix
	rsblt	r3, r3, #0	@ tmp10730, tmp10729
	cmp	lr, #0	@ tmp10722,
	rsb	r0, r2, r0	@ tmp10736, SmpPat.Pix, <variable>.Pix
	rsblt	lr, lr, #0	@ tmp10723, tmp10722
	ldrb	ip, [sp, #27]	@ zero_extendqisi2	@ SmpPat.Pix, SmpPat.Pix
	cmp	r3, #2	@ tmp10730,
	movle	sl, #0	@, tmp10732
	movgt	sl, #1	@, tmp10732
	ldrb	r8, [r6, #3035]	@ zero_extendqisi2	@ <variable>.Pix, <variable>.Pix
	cmp	lr, #2	@ tmp10723,
	addgt	sl, sl, #1	@,, MisCnt.4219, tmp10732
	cmp	r0, #0	@ tmp10736,
	ldrb	r1, [r6, #3036]	@ zero_extendqisi2	@ <variable>.Pix, <variable>.Pix
	rsb	r8, ip, r8	@ tmp10743, SmpPat.Pix, <variable>.Pix
	rsblt	r0, r0, #0	@ tmp10737, tmp10736
	ldrb	r2, [sp, #28]	@ zero_extendqisi2	@ SmpPat.Pix, SmpPat.Pix
	cmp	r0, #2	@ tmp10737,
	addgt	sl, sl, #1	@,, MisCnt.4227, MisCnt.4219
	cmp	r8, #0	@ tmp10743,
	ldrb	r0, [sp, #29]	@ zero_extendqisi2	@ SmpPat.Pix, SmpPat.Pix
	rsb	r2, r2, r1	@ tmp10750, SmpPat.Pix, <variable>.Pix
	rsblt	r8, r8, #0	@ tmp10744, tmp10743
	ldrb	ip, [r6, #3037]	@ zero_extendqisi2	@ <variable>.Pix, <variable>.Pix
	cmp	r8, #2	@ tmp10744,
	addgt	sl, sl, #1	@,, MisCnt.4235, MisCnt.4227
	cmp	r2, #0	@ tmp10750,
	ldrb	lr, [r6, #3038]	@ zero_extendqisi2	@ <variable>.Pix, <variable>.Pix
	rsb	ip, r0, ip	@ tmp10757, SmpPat.Pix, <variable>.Pix
	rsblt	r2, r2, #0	@ tmp10751, tmp10750
	ldrb	r1, [sp, #30]	@ zero_extendqisi2	@ SmpPat.Pix, SmpPat.Pix
	cmp	r2, #2	@ tmp10751,
	addgt	sl, sl, #1	@,, MisCnt.4243, MisCnt.4235
	cmp	ip, #0	@ tmp10757,
	ldrb	r0, [r6, #3039]	@ zero_extendqisi2	@ <variable>.Pix, <variable>.Pix
	rsb	r1, r1, lr	@ tmp10764, SmpPat.Pix, <variable>.Pix
	rsblt	ip, ip, #0	@ tmp10758, tmp10757
	ldrb	r2, [sp, #31]	@ zero_extendqisi2	@ SmpPat.Pix, SmpPat.Pix
	cmp	ip, #2	@ tmp10758,
	addgt	sl, sl, #1	@,, MisCnt.4251, MisCnt.4243
	cmp	r1, #0	@ tmp10764,
	rsb	r8, r2, r0	@ tmp10771, SmpPat.Pix, <variable>.Pix
	rsblt	r1, r1, #0	@ tmp10765, tmp10764
	cmp	r1, #2	@ tmp10765,
	addgt	sl, sl, #1	@,, MisCnt.4259, MisCnt.4251
	cmp	r8, #0	@ tmp10771,
	rsblt	r8, r8, #0	@ tmp10772, tmp10771
	cmp	r8, #2	@ tmp10772,
	addgt	sl, sl, #1	@,, tmp10775, MisCnt.4259
	cmp	sl, #2	@ tmp10775,
	bgt	.L55	@,
	ldr	r3, [r6, #3040]	@ <variable>.Comp, <variable>.Comp
	mov	r0, r7	@, tmp12193
	ldr	r2, [r6, #3044]	@ <variable>.Px, <variable>.Px
	mov	r1, r5	@, pDetPara
	ldr	lr, [r6, #3048]	@ <variable>.Py, <variable>.Py
	str	r3, [sp, #12]	@ <variable>.Comp, SmpPat.Comp
	str	r2, [sp, #16]	@ <variable>.Px, SmpPat.Px
	str	lr, [sp, #20]	@ <variable>.Py, SmpPat.Py
	bl	GetSample	@
	ldrb	ip, [r6, #3053]	@ zero_extendqisi2	@ <variable>.Pix, <variable>.Pix
	ldrb	r8, [sp, #25]	@ zero_extendqisi2	@ SmpPat.Pix, SmpPat.Pix
	ldrb	sl, [r6, #3052]	@ zero_extendqisi2	@ <variable>.Pix, <variable>.Pix
	ldrb	r1, [sp, #24]	@ zero_extendqisi2	@ SmpPat.Pix, SmpPat.Pix
	rsb	r3, r8, ip	@ tmp10793, SmpPat.Pix, <variable>.Pix
	cmp	r3, #0	@ tmp10793,
	ldrb	r2, [sp, #26]	@ zero_extendqisi2	@ SmpPat.Pix, SmpPat.Pix
	rsb	lr, r1, sl	@ tmp10786, SmpPat.Pix, <variable>.Pix
	ldrb	r0, [r6, #3054]	@ zero_extendqisi2	@ <variable>.Pix, <variable>.Pix
	rsblt	r3, r3, #0	@ tmp10794, tmp10793
	cmp	lr, #0	@ tmp10786,
	rsb	r0, r2, r0	@ tmp10800, SmpPat.Pix, <variable>.Pix
	rsblt	lr, lr, #0	@ tmp10787, tmp10786
	ldrb	ip, [sp, #27]	@ zero_extendqisi2	@ SmpPat.Pix, SmpPat.Pix
	cmp	r3, #2	@ tmp10794,
	movle	sl, #0	@, tmp10796
	movgt	sl, #1	@, tmp10796
	ldrb	r8, [r6, #3055]	@ zero_extendqisi2	@ <variable>.Pix, <variable>.Pix
	cmp	lr, #2	@ tmp10787,
	addgt	sl, sl, #1	@,, MisCnt.4285, tmp10796
	cmp	r0, #0	@ tmp10800,
	ldrb	r1, [r6, #3056]	@ zero_extendqisi2	@ <variable>.Pix, <variable>.Pix
	rsb	r8, ip, r8	@ tmp10807, SmpPat.Pix, <variable>.Pix
	rsblt	r0, r0, #0	@ tmp10801, tmp10800
	ldrb	r2, [sp, #28]	@ zero_extendqisi2	@ SmpPat.Pix, SmpPat.Pix
	cmp	r0, #2	@ tmp10801,
	addgt	sl, sl, #1	@,, MisCnt.4293, MisCnt.4285
	cmp	r8, #0	@ tmp10807,
	ldrb	r0, [sp, #29]	@ zero_extendqisi2	@ SmpPat.Pix, SmpPat.Pix
	rsb	r2, r2, r1	@ tmp10814, SmpPat.Pix, <variable>.Pix
	rsblt	r8, r8, #0	@ tmp10808, tmp10807
	ldrb	ip, [r6, #3057]	@ zero_extendqisi2	@ <variable>.Pix, <variable>.Pix
	cmp	r8, #2	@ tmp10808,
	addgt	sl, sl, #1	@,, MisCnt.4301, MisCnt.4293
	cmp	r2, #0	@ tmp10814,
	ldrb	lr, [r6, #3058]	@ zero_extendqisi2	@ <variable>.Pix, <variable>.Pix
	rsb	ip, r0, ip	@ tmp10821, SmpPat.Pix, <variable>.Pix
	rsblt	r2, r2, #0	@ tmp10815, tmp10814
	ldrb	r1, [sp, #30]	@ zero_extendqisi2	@ SmpPat.Pix, SmpPat.Pix
	cmp	r2, #2	@ tmp10815,
	addgt	sl, sl, #1	@,, MisCnt.4309, MisCnt.4301
	cmp	ip, #0	@ tmp10821,
	ldrb	r0, [r6, #3059]	@ zero_extendqisi2	@ <variable>.Pix, <variable>.Pix
	rsb	r1, r1, lr	@ tmp10828, SmpPat.Pix, <variable>.Pix
	rsblt	ip, ip, #0	@ tmp10822, tmp10821
	ldrb	r2, [sp, #31]	@ zero_extendqisi2	@ SmpPat.Pix, SmpPat.Pix
	cmp	ip, #2	@ tmp10822,
	addgt	sl, sl, #1	@,, MisCnt.4317, MisCnt.4309
	cmp	r1, #0	@ tmp10828,
	rsb	r8, r2, r0	@ tmp10835, SmpPat.Pix, <variable>.Pix
	rsblt	r1, r1, #0	@ tmp10829, tmp10828
	cmp	r1, #2	@ tmp10829,
	addgt	sl, sl, #1	@,, MisCnt.4325, MisCnt.4317
	cmp	r8, #0	@ tmp10835,
	rsblt	r8, r8, #0	@ tmp10836, tmp10835
	cmp	r8, #2	@ tmp10836,
	addgt	sl, sl, #1	@,, tmp10839, MisCnt.4325
	cmp	sl, #2	@ tmp10839,
	bgt	.L55	@,
	ldr	r3, [r6, #3060]	@ <variable>.Comp, <variable>.Comp
	mov	r0, r7	@, tmp12193
	ldr	r2, [r6, #3064]	@ <variable>.Px, <variable>.Px
	mov	r1, r5	@, pDetPara
	ldr	lr, [r6, #3068]	@ <variable>.Py, <variable>.Py
	str	r3, [sp, #12]	@ <variable>.Comp, SmpPat.Comp
	str	r2, [sp, #16]	@ <variable>.Px, SmpPat.Px
	str	lr, [sp, #20]	@ <variable>.Py, SmpPat.Py
	bl	GetSample	@
	ldrb	r8, [r6, #3073]	@ zero_extendqisi2	@ <variable>.Pix, <variable>.Pix
	ldrb	ip, [sp, #25]	@ zero_extendqisi2	@ SmpPat.Pix, SmpPat.Pix
	ldrb	sl, [r6, #3072]	@ zero_extendqisi2	@ <variable>.Pix, <variable>.Pix
	ldrb	r1, [sp, #24]	@ zero_extendqisi2	@ SmpPat.Pix, SmpPat.Pix
	rsb	r3, ip, r8	@ tmp10857, SmpPat.Pix, <variable>.Pix
	cmp	r3, #0	@ tmp10857,
	ldrb	r2, [sp, #26]	@ zero_extendqisi2	@ SmpPat.Pix, SmpPat.Pix
	rsb	r8, r1, sl	@ tmp10850, SmpPat.Pix, <variable>.Pix
	ldrb	r0, [r6, #3074]	@ zero_extendqisi2	@ <variable>.Pix, <variable>.Pix
	rsblt	r3, r3, #0	@ tmp10858, tmp10857
	cmp	r8, #0	@ tmp10850,
	rsb	r0, r2, r0	@ tmp10864, SmpPat.Pix, <variable>.Pix
	rsblt	r8, r8, #0	@ tmp10851, tmp10850
	ldrb	ip, [sp, #27]	@ zero_extendqisi2	@ SmpPat.Pix, SmpPat.Pix
	cmp	r3, #2	@ tmp10858,
	movle	r3, #0	@, tmp10860
	movgt	r3, #1	@, tmp10860
	ldrb	sl, [r6, #3075]	@ zero_extendqisi2	@ <variable>.Pix, <variable>.Pix
	cmp	r8, #2	@ tmp10851,
	addgt	r3, r3, #1	@,, MisCnt.1454, tmp10860
	cmp	r0, #0	@ tmp10864,
	ldrb	r1, [r6, #3076]	@ zero_extendqisi2	@ <variable>.Pix, <variable>.Pix
	rsb	sl, ip, sl	@ tmp10871, SmpPat.Pix, <variable>.Pix
	rsblt	r0, r0, #0	@ tmp10865, tmp10864
	ldrb	r2, [sp, #28]	@ zero_extendqisi2	@ SmpPat.Pix, SmpPat.Pix
	cmp	r0, #2	@ tmp10865,
	addgt	r3, r3, #1	@,, MisCnt.1462, MisCnt.1454
	cmp	sl, #0	@ tmp10871,
	ldrb	r0, [sp, #29]	@ zero_extendqisi2	@ SmpPat.Pix, SmpPat.Pix
	rsb	r2, r2, r1	@ tmp10878, SmpPat.Pix, <variable>.Pix
	rsblt	sl, sl, #0	@ tmp10872, tmp10871
	ldrb	ip, [r6, #3077]	@ zero_extendqisi2	@ <variable>.Pix, <variable>.Pix
	cmp	sl, #2	@ tmp10872,
	addgt	r3, r3, #1	@,, MisCnt.1472, MisCnt.1462
	cmp	r2, #0	@ tmp10878,
	ldrb	r8, [r6, #3078]	@ zero_extendqisi2	@ <variable>.Pix, <variable>.Pix
	rsb	ip, r0, ip	@ tmp10885, SmpPat.Pix, <variable>.Pix
	rsblt	r2, r2, #0	@ tmp10879, tmp10878
	ldrb	r1, [sp, #30]	@ zero_extendqisi2	@ SmpPat.Pix, SmpPat.Pix
	cmp	r2, #2	@ tmp10879,
	addgt	r3, r3, #1	@,, MisCnt.1483, MisCnt.1472
	cmp	ip, #0	@ tmp10885,
	ldrb	r0, [r6, #3079]	@ zero_extendqisi2	@ <variable>.Pix, <variable>.Pix
	rsblt	ip, ip, #0	@ tmp10886, tmp10885
	rsb	r1, r1, r8	@ tmp10892, SmpPat.Pix, <variable>.Pix
	ldrb	r2, [sp, #31]	@ zero_extendqisi2	@ SmpPat.Pix, SmpPat.Pix
	cmp	ip, #2	@ tmp10886,
	addgt	r3, r3, #1	@,, MisCnt.1494, MisCnt.1483
	cmp	r1, #0	@ tmp10892,
	rsb	ip, r2, r0	@ tmp10899, SmpPat.Pix, <variable>.Pix
	rsblt	r1, r1, #0	@ tmp10893, tmp10892
	cmp	r1, #2	@ tmp10893,
	addgt	r3, r3, #1	@,, MisCnt.1503, MisCnt.1494
	cmp	ip, #0	@ tmp10899,
	rsblt	ip, ip, #0	@ tmp10900, tmp10899
	cmp	ip, #2	@ tmp10900,
	addgt	r3, r3, #1	@,, tmp10903, MisCnt.1503
	cmp	r3, #2	@ tmp10903,
	movle	r0, #34	@ Result,
	ble	.L13	@,
.L55:
	ldr	r3, [r4, #3080]	@ <variable>.Comp, <variable>.Comp
	mov	r0, r7	@, tmp12193
	ldr	r2, [r4, #3084]	@ <variable>.Px, <variable>.Px
	mov	r1, r5	@, pDetPara
	ldr	lr, [r4, #3088]	@ <variable>.Py, <variable>.Py
	movw	r6, #:lower16:.LANCHOR0	@ tmp10904,
	str	r3, [sp, #12]	@ <variable>.Comp, SmpPat.Comp
	movt	r6, #:upper16:.LANCHOR0	@ tmp10904,
	str	r2, [sp, #16]	@ <variable>.Px, SmpPat.Px
	str	lr, [sp, #20]	@ <variable>.Py, SmpPat.Py
	bl	GetSample	@
	ldrb	r8, [r4, #3093]	@ zero_extendqisi2	@ <variable>.Pix, <variable>.Pix
	ldrb	ip, [sp, #25]	@ zero_extendqisi2	@ SmpPat.Pix, SmpPat.Pix
	ldrb	sl, [r4, #3092]	@ zero_extendqisi2	@ <variable>.Pix, <variable>.Pix
	ldrb	r1, [sp, #24]	@ zero_extendqisi2	@ SmpPat.Pix, SmpPat.Pix
	rsb	r3, ip, r8	@ tmp10921, SmpPat.Pix, <variable>.Pix
	cmp	r3, #0	@ tmp10921,
	ldrb	r2, [sp, #26]	@ zero_extendqisi2	@ SmpPat.Pix, SmpPat.Pix
	rsb	r8, r1, sl	@ tmp10914, SmpPat.Pix, <variable>.Pix
	ldrb	r0, [r4, #3094]	@ zero_extendqisi2	@ <variable>.Pix, <variable>.Pix
	rsblt	r3, r3, #0	@ tmp10922, tmp10921
	cmp	r8, #0	@ tmp10914,
	rsb	r0, r2, r0	@ tmp10928, SmpPat.Pix, <variable>.Pix
	rsblt	r8, r8, #0	@ tmp10915, tmp10914
	ldrb	ip, [sp, #27]	@ zero_extendqisi2	@ SmpPat.Pix, SmpPat.Pix
	cmp	r3, #2	@ tmp10922,
	movle	r3, #0	@, tmp10924
	movgt	r3, #1	@, tmp10924
	ldrb	sl, [r4, #3095]	@ zero_extendqisi2	@ <variable>.Pix, <variable>.Pix
	cmp	r8, #2	@ tmp10915,
	addgt	r3, r3, #1	@,, MisCnt.4351, tmp10924
	cmp	r0, #0	@ tmp10928,
	ldrb	r1, [r4, #3096]	@ zero_extendqisi2	@ <variable>.Pix, <variable>.Pix
	rsb	sl, ip, sl	@ tmp10935, SmpPat.Pix, <variable>.Pix
	rsblt	r0, r0, #0	@ tmp10929, tmp10928
	ldrb	r2, [sp, #28]	@ zero_extendqisi2	@ SmpPat.Pix, SmpPat.Pix
	cmp	r0, #2	@ tmp10929,
	addgt	r3, r3, #1	@,, MisCnt.4359, MisCnt.4351
	cmp	sl, #0	@ tmp10935,
	ldrb	r0, [sp, #29]	@ zero_extendqisi2	@ SmpPat.Pix, SmpPat.Pix
	rsb	r2, r2, r1	@ tmp10942, SmpPat.Pix, <variable>.Pix
	rsblt	sl, sl, #0	@ tmp10936, tmp10935
	ldrb	ip, [r4, #3097]	@ zero_extendqisi2	@ <variable>.Pix, <variable>.Pix
	cmp	sl, #2	@ tmp10936,
	addgt	r3, r3, #1	@,, MisCnt.4367, MisCnt.4359
	cmp	r2, #0	@ tmp10942,
	ldrb	r8, [r4, #3098]	@ zero_extendqisi2	@ <variable>.Pix, <variable>.Pix
	rsb	ip, r0, ip	@ tmp10949, SmpPat.Pix, <variable>.Pix
	rsblt	r2, r2, #0	@ tmp10943, tmp10942
	ldrb	r1, [sp, #30]	@ zero_extendqisi2	@ SmpPat.Pix, SmpPat.Pix
	cmp	r2, #2	@ tmp10943,
	addgt	r3, r3, #1	@,, MisCnt.4375, MisCnt.4367
	cmp	ip, #0	@ tmp10949,
	ldrb	r0, [r4, #3099]	@ zero_extendqisi2	@ <variable>.Pix, <variable>.Pix
	rsblt	ip, ip, #0	@ tmp10950, tmp10949
	rsb	r1, r1, r8	@ tmp10956, SmpPat.Pix, <variable>.Pix
	ldrb	r2, [sp, #31]	@ zero_extendqisi2	@ SmpPat.Pix, SmpPat.Pix
	cmp	ip, #2	@ tmp10950,
	addgt	r3, r3, #1	@,, MisCnt.4383, MisCnt.4375
	cmp	r1, #0	@ tmp10956,
	rsb	ip, r2, r0	@ tmp10963, SmpPat.Pix, <variable>.Pix
	rsblt	r1, r1, #0	@ tmp10957, tmp10956
	cmp	r1, #2	@ tmp10957,
	addgt	r3, r3, #1	@,, MisCnt.4391, MisCnt.4383
	cmp	ip, #0	@ tmp10963,
	rsblt	ip, ip, #0	@ tmp10964, tmp10963
	cmp	ip, #2	@ tmp10964,
	addgt	r3, r3, #1	@,, tmp10967, MisCnt.4391
	cmp	r3, #2	@ tmp10967,
	bgt	.L46	@,
	ldr	r3, [r6, #3100]	@ <variable>.Comp, <variable>.Comp
	mov	r0, r7	@, tmp12193
	ldr	r2, [r6, #3104]	@ <variable>.Px, <variable>.Px
	mov	r1, r5	@, pDetPara
	ldr	lr, [r6, #3108]	@ <variable>.Py, <variable>.Py
	str	r3, [sp, #12]	@ <variable>.Comp, SmpPat.Comp
	str	r2, [sp, #16]	@ <variable>.Px, SmpPat.Px
	str	lr, [sp, #20]	@ <variable>.Py, SmpPat.Py
	bl	GetSample	@
	ldrb	r4, [r6, #3113]	@ zero_extendqisi2	@ <variable>.Pix, <variable>.Pix
	ldrb	ip, [sp, #25]	@ zero_extendqisi2	@ SmpPat.Pix, SmpPat.Pix
	ldrb	r8, [r6, #3112]	@ zero_extendqisi2	@ <variable>.Pix, <variable>.Pix
	ldrb	r1, [sp, #24]	@ zero_extendqisi2	@ SmpPat.Pix, SmpPat.Pix
	rsb	r3, ip, r4	@ tmp10985, SmpPat.Pix, <variable>.Pix
	cmp	r3, #0	@ tmp10985,
	ldrb	r2, [sp, #26]	@ zero_extendqisi2	@ SmpPat.Pix, SmpPat.Pix
	rsb	r4, r1, r8	@ tmp10978, SmpPat.Pix, <variable>.Pix
	ldrb	r0, [r6, #3114]	@ zero_extendqisi2	@ <variable>.Pix, <variable>.Pix
	rsblt	r3, r3, #0	@ tmp10986, tmp10985
	cmp	r4, #0	@ tmp10978,
	rsb	r0, r2, r0	@ tmp10992, SmpPat.Pix, <variable>.Pix
	rsblt	r4, r4, #0	@ tmp10979, tmp10978
	ldrb	ip, [sp, #27]	@ zero_extendqisi2	@ SmpPat.Pix, SmpPat.Pix
	cmp	r3, #2	@ tmp10986,
	movle	r3, #0	@, tmp10988
	movgt	r3, #1	@, tmp10988
	ldrb	r8, [r6, #3115]	@ zero_extendqisi2	@ <variable>.Pix, <variable>.Pix
	cmp	r4, #2	@ tmp10979,
	addgt	r3, r3, #1	@,, MisCnt.4417, tmp10988
	cmp	r0, #0	@ tmp10992,
	ldrb	r1, [r6, #3116]	@ zero_extendqisi2	@ <variable>.Pix, <variable>.Pix
	rsb	r8, ip, r8	@ tmp10999, SmpPat.Pix, <variable>.Pix
	rsblt	r0, r0, #0	@ tmp10993, tmp10992
	ldrb	r2, [sp, #28]	@ zero_extendqisi2	@ SmpPat.Pix, SmpPat.Pix
	cmp	r0, #2	@ tmp10993,
	addgt	r3, r3, #1	@,, MisCnt.4425, MisCnt.4417
	cmp	r8, #0	@ tmp10999,
	ldrb	r0, [sp, #29]	@ zero_extendqisi2	@ SmpPat.Pix, SmpPat.Pix
	rsb	r2, r2, r1	@ tmp11006, SmpPat.Pix, <variable>.Pix
	rsblt	r8, r8, #0	@ tmp11000, tmp10999
	ldrb	ip, [r6, #3117]	@ zero_extendqisi2	@ <variable>.Pix, <variable>.Pix
	cmp	r8, #2	@ tmp11000,
	addgt	r3, r3, #1	@,, MisCnt.4433, MisCnt.4425
	cmp	r2, #0	@ tmp11006,
	ldrb	r4, [r6, #3118]	@ zero_extendqisi2	@ <variable>.Pix, <variable>.Pix
	rsb	ip, r0, ip	@ tmp11013, SmpPat.Pix, <variable>.Pix
	rsblt	r2, r2, #0	@ tmp11007, tmp11006
	ldrb	r1, [sp, #30]	@ zero_extendqisi2	@ SmpPat.Pix, SmpPat.Pix
	cmp	r2, #2	@ tmp11007,
	addgt	r3, r3, #1	@,, MisCnt.4441, MisCnt.4433
	cmp	ip, #0	@ tmp11013,
	ldrb	r0, [r6, #3119]	@ zero_extendqisi2	@ <variable>.Pix, <variable>.Pix
	rsblt	ip, ip, #0	@ tmp11014, tmp11013
	rsb	r1, r1, r4	@ tmp11020, SmpPat.Pix, <variable>.Pix
	ldrb	r2, [sp, #31]	@ zero_extendqisi2	@ SmpPat.Pix, SmpPat.Pix
	cmp	ip, #2	@ tmp11014,
	addgt	r3, r3, #1	@,, MisCnt.4449, MisCnt.4441
	cmp	r1, #0	@ tmp11020,
	rsb	ip, r2, r0	@ tmp11027, SmpPat.Pix, <variable>.Pix
	rsblt	r1, r1, #0	@ tmp11021, tmp11020
	cmp	r1, #2	@ tmp11021,
	addgt	r3, r3, #1	@,, MisCnt.4457, MisCnt.4449
	cmp	ip, #0	@ tmp11027,
	rsblt	ip, ip, #0	@ tmp11028, tmp11027
	cmp	ip, #2	@ tmp11028,
	addgt	r3, r3, #1	@,, tmp11031, MisCnt.4457
	cmp	r3, #2	@ tmp11031,
	bgt	.L46	@,
	ldr	r3, [r6, #3120]	@ <variable>.Comp, <variable>.Comp
	mov	r0, r7	@, tmp12193
	ldr	r2, [r6, #3124]	@ <variable>.Px, <variable>.Px
	mov	r1, r5	@, pDetPara
	ldr	lr, [r6, #3128]	@ <variable>.Py, <variable>.Py
	str	r3, [sp, #12]	@ <variable>.Comp, SmpPat.Comp
	str	r2, [sp, #16]	@ <variable>.Px, SmpPat.Px
	str	lr, [sp, #20]	@ <variable>.Py, SmpPat.Py
	bl	GetSample	@
	ldrb	r4, [r6, #3133]	@ zero_extendqisi2	@ <variable>.Pix, <variable>.Pix
	ldrb	ip, [sp, #25]	@ zero_extendqisi2	@ SmpPat.Pix, SmpPat.Pix
	ldrb	r8, [r6, #3132]	@ zero_extendqisi2	@ <variable>.Pix, <variable>.Pix
	ldrb	r1, [sp, #24]	@ zero_extendqisi2	@ SmpPat.Pix, SmpPat.Pix
	rsb	r3, ip, r4	@ tmp11049, SmpPat.Pix, <variable>.Pix
	cmp	r3, #0	@ tmp11049,
	ldrb	r2, [sp, #26]	@ zero_extendqisi2	@ SmpPat.Pix, SmpPat.Pix
	rsb	r4, r1, r8	@ tmp11042, SmpPat.Pix, <variable>.Pix
	ldrb	r0, [r6, #3134]	@ zero_extendqisi2	@ <variable>.Pix, <variable>.Pix
	rsblt	r3, r3, #0	@ tmp11050, tmp11049
	cmp	r4, #0	@ tmp11042,
	rsb	r0, r2, r0	@ tmp11056, SmpPat.Pix, <variable>.Pix
	rsblt	r4, r4, #0	@ tmp11043, tmp11042
	ldrb	ip, [sp, #27]	@ zero_extendqisi2	@ SmpPat.Pix, SmpPat.Pix
	cmp	r3, #2	@ tmp11050,
	movle	r3, #0	@, tmp11052
	movgt	r3, #1	@, tmp11052
	ldrb	r8, [r6, #3135]	@ zero_extendqisi2	@ <variable>.Pix, <variable>.Pix
	cmp	r4, #2	@ tmp11043,
	addgt	r3, r3, #1	@,, MisCnt.4483, tmp11052
	cmp	r0, #0	@ tmp11056,
	ldrb	r1, [r6, #3136]	@ zero_extendqisi2	@ <variable>.Pix, <variable>.Pix
	rsb	r8, ip, r8	@ tmp11063, SmpPat.Pix, <variable>.Pix
	rsblt	r0, r0, #0	@ tmp11057, tmp11056
	ldrb	r2, [sp, #28]	@ zero_extendqisi2	@ SmpPat.Pix, SmpPat.Pix
	cmp	r0, #2	@ tmp11057,
	addgt	r3, r3, #1	@,, MisCnt.4491, MisCnt.4483
	cmp	r8, #0	@ tmp11063,
	ldrb	r0, [sp, #29]	@ zero_extendqisi2	@ SmpPat.Pix, SmpPat.Pix
	rsb	r2, r2, r1	@ tmp11070, SmpPat.Pix, <variable>.Pix
	rsblt	r8, r8, #0	@ tmp11064, tmp11063
	ldrb	ip, [r6, #3137]	@ zero_extendqisi2	@ <variable>.Pix, <variable>.Pix
	cmp	r8, #2	@ tmp11064,
	addgt	r3, r3, #1	@,, MisCnt.4499, MisCnt.4491
	cmp	r2, #0	@ tmp11070,
	ldrb	r4, [r6, #3138]	@ zero_extendqisi2	@ <variable>.Pix, <variable>.Pix
	rsb	ip, r0, ip	@ tmp11077, SmpPat.Pix, <variable>.Pix
	rsblt	r2, r2, #0	@ tmp11071, tmp11070
	ldrb	r1, [sp, #30]	@ zero_extendqisi2	@ SmpPat.Pix, SmpPat.Pix
	cmp	r2, #2	@ tmp11071,
	addgt	r3, r3, #1	@,, MisCnt.4507, MisCnt.4499
	cmp	ip, #0	@ tmp11077,
	ldrb	r0, [r6, #3139]	@ zero_extendqisi2	@ <variable>.Pix, <variable>.Pix
	rsblt	ip, ip, #0	@ tmp11078, tmp11077
	rsb	r1, r1, r4	@ tmp11084, SmpPat.Pix, <variable>.Pix
	ldrb	r2, [sp, #31]	@ zero_extendqisi2	@ SmpPat.Pix, SmpPat.Pix
	cmp	ip, #2	@ tmp11078,
	addgt	r3, r3, #1	@,, MisCnt.4515, MisCnt.4507
	cmp	r1, #0	@ tmp11084,
	rsb	ip, r2, r0	@ tmp11091, SmpPat.Pix, <variable>.Pix
	rsblt	r1, r1, #0	@ tmp11085, tmp11084
	cmp	r1, #2	@ tmp11085,
	addgt	r3, r3, #1	@,, MisCnt.4523, MisCnt.4515
	cmp	ip, #0	@ tmp11091,
	rsblt	ip, ip, #0	@ tmp11092, tmp11091
	cmp	ip, #2	@ tmp11092,
	addgt	r3, r3, #1	@,, tmp11095, MisCnt.4523
	cmp	r3, #2	@ tmp11095,
	bgt	.L46	@,
	ldr	r3, [r6, #3140]	@ <variable>.Comp, <variable>.Comp
	mov	r0, r7	@, tmp12193
	ldr	r2, [r6, #3144]	@ <variable>.Px, <variable>.Px
	mov	r1, r5	@, pDetPara
	ldr	lr, [r6, #3148]	@ <variable>.Py, <variable>.Py
	str	r3, [sp, #12]	@ <variable>.Comp, SmpPat.Comp
	str	r2, [sp, #16]	@ <variable>.Px, SmpPat.Px
	str	lr, [sp, #20]	@ <variable>.Py, SmpPat.Py
	bl	GetSample	@
	ldrb	r4, [r6, #3153]	@ zero_extendqisi2	@ <variable>.Pix, <variable>.Pix
	ldrb	ip, [sp, #25]	@ zero_extendqisi2	@ SmpPat.Pix, SmpPat.Pix
	ldrb	r8, [r6, #3152]	@ zero_extendqisi2	@ <variable>.Pix, <variable>.Pix
	ldrb	r1, [sp, #24]	@ zero_extendqisi2	@ SmpPat.Pix, SmpPat.Pix
	rsb	r3, ip, r4	@ tmp11113, SmpPat.Pix, <variable>.Pix
	cmp	r3, #0	@ tmp11113,
	ldrb	r2, [sp, #26]	@ zero_extendqisi2	@ SmpPat.Pix, SmpPat.Pix
	rsb	r4, r1, r8	@ tmp11106, SmpPat.Pix, <variable>.Pix
	ldrb	r0, [r6, #3154]	@ zero_extendqisi2	@ <variable>.Pix, <variable>.Pix
	rsblt	r3, r3, #0	@ tmp11114, tmp11113
	cmp	r4, #0	@ tmp11106,
	rsb	r0, r2, r0	@ tmp11120, SmpPat.Pix, <variable>.Pix
	rsblt	r4, r4, #0	@ tmp11107, tmp11106
	ldrb	ip, [sp, #27]	@ zero_extendqisi2	@ SmpPat.Pix, SmpPat.Pix
	cmp	r3, #2	@ tmp11114,
	movle	r3, #0	@, tmp11116
	movgt	r3, #1	@, tmp11116
	ldrb	r8, [r6, #3155]	@ zero_extendqisi2	@ <variable>.Pix, <variable>.Pix
	cmp	r4, #2	@ tmp11107,
	addgt	r3, r3, #1	@,, MisCnt.4549, tmp11116
	cmp	r0, #0	@ tmp11120,
	ldrb	r1, [r6, #3156]	@ zero_extendqisi2	@ <variable>.Pix, <variable>.Pix
	rsb	r8, ip, r8	@ tmp11127, SmpPat.Pix, <variable>.Pix
	rsblt	r0, r0, #0	@ tmp11121, tmp11120
	ldrb	r2, [sp, #28]	@ zero_extendqisi2	@ SmpPat.Pix, SmpPat.Pix
	cmp	r0, #2	@ tmp11121,
	addgt	r3, r3, #1	@,, MisCnt.4557, MisCnt.4549
	cmp	r8, #0	@ tmp11127,
	ldrb	r0, [sp, #29]	@ zero_extendqisi2	@ SmpPat.Pix, SmpPat.Pix
	rsb	r2, r2, r1	@ tmp11134, SmpPat.Pix, <variable>.Pix
	rsblt	r8, r8, #0	@ tmp11128, tmp11127
	ldrb	ip, [r6, #3157]	@ zero_extendqisi2	@ <variable>.Pix, <variable>.Pix
	cmp	r8, #2	@ tmp11128,
	addgt	r3, r3, #1	@,, MisCnt.4565, MisCnt.4557
	cmp	r2, #0	@ tmp11134,
	ldrb	r4, [r6, #3158]	@ zero_extendqisi2	@ <variable>.Pix, <variable>.Pix
	rsb	ip, r0, ip	@ tmp11141, SmpPat.Pix, <variable>.Pix
	rsblt	r2, r2, #0	@ tmp11135, tmp11134
	ldrb	r1, [sp, #30]	@ zero_extendqisi2	@ SmpPat.Pix, SmpPat.Pix
	cmp	r2, #2	@ tmp11135,
	addgt	r3, r3, #1	@,, MisCnt.4573, MisCnt.4565
	cmp	ip, #0	@ tmp11141,
	ldrb	r0, [r6, #3159]	@ zero_extendqisi2	@ <variable>.Pix, <variable>.Pix
	rsblt	ip, ip, #0	@ tmp11142, tmp11141
	rsb	r1, r1, r4	@ tmp11148, SmpPat.Pix, <variable>.Pix
	ldrb	r2, [sp, #31]	@ zero_extendqisi2	@ SmpPat.Pix, SmpPat.Pix
	cmp	ip, #2	@ tmp11142,
	addgt	r3, r3, #1	@,, MisCnt.4581, MisCnt.4573
	cmp	r1, #0	@ tmp11148,
	rsb	ip, r2, r0	@ tmp11155, SmpPat.Pix, <variable>.Pix
	rsblt	r1, r1, #0	@ tmp11149, tmp11148
	cmp	r1, #2	@ tmp11149,
	addgt	r3, r3, #1	@,, MisCnt.4589, MisCnt.4581
	cmp	ip, #0	@ tmp11155,
	rsblt	ip, ip, #0	@ tmp11156, tmp11155
	cmp	ip, #2	@ tmp11156,
	addgt	r3, r3, #1	@,, tmp11159, MisCnt.4589
	cmp	r3, #2	@ tmp11159,
	bgt	.L46	@,
	ldr	r3, [r6, #3160]	@ <variable>.Comp, <variable>.Comp
	mov	r1, r5	@, pDetPara
	ldr	r2, [r6, #3164]	@ <variable>.Px, <variable>.Px
	mov	r0, r7	@, tmp12193
	ldr	lr, [r6, #3168]	@ <variable>.Py, <variable>.Py
	str	r3, [sp, #12]	@ <variable>.Comp, SmpPat.Comp
	str	r2, [sp, #16]	@ <variable>.Px, SmpPat.Px
	str	lr, [sp, #20]	@ <variable>.Py, SmpPat.Py
	bl	GetSample	@
	ldrb	r4, [r6, #3173]	@ zero_extendqisi2	@ <variable>.Pix, <variable>.Pix
	ldrb	ip, [sp, #25]	@ zero_extendqisi2	@ SmpPat.Pix, SmpPat.Pix
	ldrb	r5, [r6, #3172]	@ zero_extendqisi2	@ <variable>.Pix, <variable>.Pix
	ldrb	r1, [sp, #24]	@ zero_extendqisi2	@ SmpPat.Pix, SmpPat.Pix
	rsb	r3, ip, r4	@ tmp11177, SmpPat.Pix, <variable>.Pix
	cmp	r3, #0	@ tmp11177,
	ldrb	r2, [sp, #26]	@ zero_extendqisi2	@ SmpPat.Pix, SmpPat.Pix
	rsb	r4, r1, r5	@ tmp11170, SmpPat.Pix, <variable>.Pix
	ldrb	r0, [r6, #3174]	@ zero_extendqisi2	@ <variable>.Pix, <variable>.Pix
	rsblt	r3, r3, #0	@ tmp11178, tmp11177
	cmp	r4, #0	@ tmp11170,
	rsb	r0, r2, r0	@ tmp11184, SmpPat.Pix, <variable>.Pix
	rsblt	r4, r4, #0	@ tmp11171, tmp11170
	ldrb	ip, [sp, #27]	@ zero_extendqisi2	@ SmpPat.Pix, SmpPat.Pix
	cmp	r3, #2	@ tmp11178,
	movle	r3, #0	@, tmp11180
	movgt	r3, #1	@, tmp11180
	ldrb	r5, [r6, #3175]	@ zero_extendqisi2	@ <variable>.Pix, <variable>.Pix
	cmp	r4, #2	@ tmp11171,
	addgt	r3, r3, #1	@,, MisCnt.1524, tmp11180
	cmp	r0, #0	@ tmp11184,
	ldrb	r1, [r6, #3176]	@ zero_extendqisi2	@ <variable>.Pix, <variable>.Pix
	rsb	r5, ip, r5	@ tmp11191, SmpPat.Pix, <variable>.Pix
	rsblt	r0, r0, #0	@ tmp11185, tmp11184
	ldrb	r2, [sp, #28]	@ zero_extendqisi2	@ SmpPat.Pix, SmpPat.Pix
	cmp	r0, #2	@ tmp11185,
	addgt	r3, r3, #1	@,, MisCnt.1535, MisCnt.1524
	cmp	r5, #0	@ tmp11191,
	ldrb	r0, [sp, #29]	@ zero_extendqisi2	@ SmpPat.Pix, SmpPat.Pix
	rsb	r2, r2, r1	@ tmp11198, SmpPat.Pix, <variable>.Pix
	rsblt	r5, r5, #0	@ tmp11192, tmp11191
	ldrb	ip, [r6, #3177]	@ zero_extendqisi2	@ <variable>.Pix, <variable>.Pix
	cmp	r5, #2	@ tmp11192,
	addgt	r3, r3, #1	@,, MisCnt.1544, MisCnt.1535
	cmp	r2, #0	@ tmp11198,
	ldrb	r4, [r6, #3178]	@ zero_extendqisi2	@ <variable>.Pix, <variable>.Pix
	rsb	ip, r0, ip	@ tmp11205, SmpPat.Pix, <variable>.Pix
	rsblt	r2, r2, #0	@ tmp11199, tmp11198
	ldrb	r1, [sp, #30]	@ zero_extendqisi2	@ SmpPat.Pix, SmpPat.Pix
	cmp	r2, #2	@ tmp11199,
	addgt	r3, r3, #1	@,, MisCnt.1555, MisCnt.1544
	cmp	ip, #0	@ tmp11205,
	ldrb	r0, [r6, #3179]	@ zero_extendqisi2	@ <variable>.Pix, <variable>.Pix
	rsblt	ip, ip, #0	@ tmp11206, tmp11205
	rsb	r1, r1, r4	@ tmp11212, SmpPat.Pix, <variable>.Pix
	ldrb	r2, [sp, #31]	@ zero_extendqisi2	@ SmpPat.Pix, SmpPat.Pix
	cmp	ip, #2	@ tmp11206,
	addgt	r3, r3, #1	@,, MisCnt.1566, MisCnt.1555
	cmp	r1, #0	@ tmp11212,
	rsb	ip, r2, r0	@ tmp11219, SmpPat.Pix, <variable>.Pix
	rsblt	r1, r1, #0	@ tmp11213, tmp11212
	cmp	r1, #2	@ tmp11213,
	addgt	r3, r3, #1	@,, MisCnt.1576, MisCnt.1566
	cmp	ip, #0	@ tmp11219,
	rsblt	ip, ip, #0	@ tmp11220, tmp11219
	cmp	ip, #2	@ tmp11220,
	addgt	r3, r3, #1	@,, tmp11223, MisCnt.1576
	cmp	r3, #2	@ tmp11223,
	bgt	.L46	@,
	mov	r0, #35	@ Result,
	b	.L13	@
.L67:
	ldr	ip, [r5, #16]	@ <variable>.pPicBufV, <variable>.pPicBufV
	mov	r0, #1	@,
	ldr	r3, [r5, #12]	@ <variable>.pPicBufU, <variable>.pPicBufU
	movw	r1, #:lower16:.LC1	@,
	mov	r2, r4	@, <variable>.pPicBufY
	movt	r1, #:upper16:.LC1	@,
	str	ip, [sp, #0]	@ <variable>.pPicBufV,
	bl	dprint_vfmw	@
	mov	r0, r4	@ Result, <variable>.pPicBufY
	b	.L13	@
.L72:
	movw	r4, #:lower16:.LANCHOR0	@ tmp12188,
	movt	r4, #:upper16:.LANCHOR0	@ tmp12188,
	add	r7, sp, #12	@ tmp12189,,
	mov	r1, r5	@, pDetPara
	ldr	r2, [r4, #1600]	@ <variable>.Comp, <variable>.Comp
	ldr	r6, [r4, #1604]	@ <variable>.Px, <variable>.Px
	mov	r0, r7	@, tmp12189
	ldr	lr, [r4, #1608]	@ <variable>.Py, <variable>.Py
	str	r2, [sp, #12]	@ <variable>.Comp, SmpPat.Comp
	str	r6, [sp, #16]	@ <variable>.Px, SmpPat.Px
	str	lr, [sp, #20]	@ <variable>.Py, SmpPat.Py
	bl	GetSample	@
	ldrb	r1, [r4, #1613]	@ zero_extendqisi2	@ <variable>.Pix, <variable>.Pix
	ldrb	r3, [sp, #25]	@ zero_extendqisi2	@ SmpPat.Pix, SmpPat.Pix
	ldrb	sl, [r4, #1612]	@ zero_extendqisi2	@ <variable>.Pix, <variable>.Pix
	ldrb	r8, [sp, #24]	@ zero_extendqisi2	@ SmpPat.Pix, SmpPat.Pix
	rsb	ip, r3, r1	@ tmp6313, SmpPat.Pix, <variable>.Pix
	cmp	ip, #0	@ tmp6313,
	ldrb	r6, [r4, #1614]	@ zero_extendqisi2	@ <variable>.Pix, <variable>.Pix
	rsb	lr, r8, sl	@ tmp6306, SmpPat.Pix, <variable>.Pix
	ldrb	r2, [sp, #26]	@ zero_extendqisi2	@ SmpPat.Pix, SmpPat.Pix
	rsblt	ip, ip, #0	@ tmp6314, tmp6313
	cmp	lr, #0	@ tmp6306,
	rsb	r8, r2, r6	@ tmp6320, SmpPat.Pix, <variable>.Pix
	rsblt	lr, lr, #0	@ tmp6307, tmp6306
	ldrb	r0, [r4, #1615]	@ zero_extendqisi2	@ <variable>.Pix, <variable>.Pix
	cmp	ip, #2	@ tmp6314,
	movle	r1, #0	@, tmp6316
	movgt	r1, #1	@, tmp6316
	ldrb	r3, [sp, #27]	@ zero_extendqisi2	@ SmpPat.Pix, SmpPat.Pix
	cmp	lr, #2	@ tmp6307,
	addgt	r1, r1, #1	@,, MisCnt.4615, tmp6316
	cmp	r8, #0	@ tmp6320,
	ldrb	ip, [r4, #1616]	@ zero_extendqisi2	@ <variable>.Pix, <variable>.Pix
	rsb	r3, r3, r0	@ tmp6327, SmpPat.Pix, <variable>.Pix
	rsblt	r8, r8, #0	@ tmp6321, tmp6320
	ldrb	sl, [sp, #28]	@ zero_extendqisi2	@ SmpPat.Pix, SmpPat.Pix
	cmp	r8, #2	@ tmp6321,
	movle	r6, r1	@, MisCnt.4623, MisCnt.4615
	addgt	r6, r1, #1	@,, MisCnt.4623, MisCnt.4615
	cmp	r3, #0	@ tmp6327,
	ldrb	r0, [r4, #1617]	@ zero_extendqisi2	@ <variable>.Pix, <variable>.Pix
	rsb	r8, sl, ip	@ tmp6334, SmpPat.Pix, <variable>.Pix
	rsblt	r3, r3, #0	@ tmp6328, tmp6327
	ldrb	r1, [sp, #29]	@ zero_extendqisi2	@ SmpPat.Pix, SmpPat.Pix
	cmp	r3, #2	@ tmp6328,
	movle	r2, r6	@, MisCnt.4631, MisCnt.4623
	addgt	r2, r6, #1	@,, MisCnt.4631, MisCnt.4623
	cmp	r8, #0	@ tmp6334,
	ldrb	sl, [sp, #30]	@ zero_extendqisi2	@ SmpPat.Pix, SmpPat.Pix
	rsb	r6, r1, r0	@ tmp6341, SmpPat.Pix, <variable>.Pix
	rsblt	r8, r8, #0	@ tmp6335, tmp6334
	ldrb	lr, [r4, #1618]	@ zero_extendqisi2	@ <variable>.Pix, <variable>.Pix
	cmp	r8, #2	@ tmp6335,
	movle	ip, r2	@, MisCnt.4639, MisCnt.4631
	addgt	ip, r2, #1	@,, MisCnt.4639, MisCnt.4631
	cmp	r6, #0	@ tmp6341,
	ldrb	r0, [r4, #1619]	@ zero_extendqisi2	@ <variable>.Pix, <variable>.Pix
	rsb	r2, sl, lr	@ tmp6348, SmpPat.Pix, <variable>.Pix
	rsblt	r6, r6, #0	@ tmp6342, tmp6341
	ldrb	r3, [sp, #31]	@ zero_extendqisi2	@ SmpPat.Pix, SmpPat.Pix
	cmp	r6, #2	@ tmp6342,
	movle	r1, ip	@, MisCnt.4647, MisCnt.4639
	addgt	r1, ip, #1	@,, MisCnt.4647, MisCnt.4639
	cmp	r2, #0	@ tmp6348,
	rsb	sl, r3, r0	@ tmp6355, SmpPat.Pix, <variable>.Pix
	rsblt	r2, r2, #0	@ tmp6349, tmp6348
	cmp	r2, #2	@ tmp6349,
	movle	r8, r1	@, MisCnt.4655, MisCnt.4647
	addgt	r8, r1, #1	@,, MisCnt.4655, MisCnt.4647
	cmp	sl, #0	@ tmp6355,
	rsblt	sl, sl, #0	@ tmp6356, tmp6355
	cmp	sl, #2	@ tmp6356,
	movle	r6, r8	@, tmp6359, MisCnt.4655
	addgt	r6, r8, #1	@,, tmp6359, MisCnt.4655
	cmp	r6, #2	@ tmp6359,
	bgt	.L39	@,
	ldr	r6, [r4, #1620]	@ <variable>.Comp, <variable>.Comp
	mov	r0, r7	@, tmp12189
	ldr	r2, [r4, #1624]	@ <variable>.Px, <variable>.Px
	mov	r1, r5	@, pDetPara
	ldr	lr, [r4, #1628]	@ <variable>.Py, <variable>.Py
	str	r6, [sp, #12]	@ <variable>.Comp, SmpPat.Comp
	mov	r6, r4	@ tmp6360, tmp12188
	str	r2, [sp, #16]	@ <variable>.Px, SmpPat.Px
	str	lr, [sp, #20]	@ <variable>.Py, SmpPat.Py
	bl	GetSample	@
	ldrb	ip, [r4, #1633]	@ zero_extendqisi2	@ <variable>.Pix, <variable>.Pix
	ldrb	r8, [sp, #25]	@ zero_extendqisi2	@ SmpPat.Pix, SmpPat.Pix
	ldrb	sl, [r4, #1632]	@ zero_extendqisi2	@ <variable>.Pix, <variable>.Pix
	ldrb	r1, [sp, #24]	@ zero_extendqisi2	@ SmpPat.Pix, SmpPat.Pix
	rsb	r3, r8, ip	@ tmp6377, SmpPat.Pix, <variable>.Pix
	cmp	r3, #0	@ tmp6377,
	ldrb	r2, [sp, #26]	@ zero_extendqisi2	@ SmpPat.Pix, SmpPat.Pix
	rsb	lr, r1, sl	@ tmp6370, SmpPat.Pix, <variable>.Pix
	ldrb	r0, [r4, #1634]	@ zero_extendqisi2	@ <variable>.Pix, <variable>.Pix
	rsblt	r3, r3, #0	@ tmp6378, tmp6377
	cmp	lr, #0	@ tmp6370,
	rsb	r0, r2, r0	@ tmp6384, SmpPat.Pix, <variable>.Pix
	rsblt	lr, lr, #0	@ tmp6371, tmp6370
	ldrb	ip, [sp, #27]	@ zero_extendqisi2	@ SmpPat.Pix, SmpPat.Pix
	cmp	r3, #2	@ tmp6378,
	movle	sl, #0	@, tmp6380
	movgt	sl, #1	@, tmp6380
	ldrb	r8, [r4, #1635]	@ zero_extendqisi2	@ <variable>.Pix, <variable>.Pix
	cmp	lr, #2	@ tmp6371,
	addgt	sl, sl, #1	@,, MisCnt.4681, tmp6380
	cmp	r0, #0	@ tmp6384,
	ldrb	r1, [r4, #1636]	@ zero_extendqisi2	@ <variable>.Pix, <variable>.Pix
	rsb	r8, ip, r8	@ tmp6391, SmpPat.Pix, <variable>.Pix
	rsblt	r0, r0, #0	@ tmp6385, tmp6384
	ldrb	r2, [sp, #28]	@ zero_extendqisi2	@ SmpPat.Pix, SmpPat.Pix
	cmp	r0, #2	@ tmp6385,
	addgt	sl, sl, #1	@,, MisCnt.4689, MisCnt.4681
	cmp	r8, #0	@ tmp6391,
	ldrb	r0, [sp, #29]	@ zero_extendqisi2	@ SmpPat.Pix, SmpPat.Pix
	rsb	r2, r2, r1	@ tmp6398, SmpPat.Pix, <variable>.Pix
	rsblt	r8, r8, #0	@ tmp6392, tmp6391
	ldrb	ip, [r4, #1637]	@ zero_extendqisi2	@ <variable>.Pix, <variable>.Pix
	cmp	r8, #2	@ tmp6392,
	addgt	sl, sl, #1	@,, MisCnt.4697, MisCnt.4689
	cmp	r2, #0	@ tmp6398,
	ldrb	lr, [r4, #1638]	@ zero_extendqisi2	@ <variable>.Pix, <variable>.Pix
	rsb	ip, r0, ip	@ tmp6405, SmpPat.Pix, <variable>.Pix
	rsblt	r2, r2, #0	@ tmp6399, tmp6398
	ldrb	r1, [sp, #30]	@ zero_extendqisi2	@ SmpPat.Pix, SmpPat.Pix
	cmp	r2, #2	@ tmp6399,
	addgt	sl, sl, #1	@,, MisCnt.4705, MisCnt.4697
	cmp	ip, #0	@ tmp6405,
	ldrb	r0, [r4, #1639]	@ zero_extendqisi2	@ <variable>.Pix, <variable>.Pix
	rsblt	ip, ip, #0	@ tmp6406, tmp6405
	rsb	r8, r1, lr	@ tmp6412, SmpPat.Pix, <variable>.Pix
	ldrb	r2, [sp, #31]	@ zero_extendqisi2	@ SmpPat.Pix, SmpPat.Pix
	cmp	ip, #2	@ tmp6406,
	addgt	sl, sl, #1	@,, MisCnt.4713, MisCnt.4705
	cmp	r8, #0	@ tmp6412,
	rsb	ip, r2, r0	@ tmp6419, SmpPat.Pix, <variable>.Pix
	rsblt	r8, r8, #0	@ tmp6413, tmp6412
	cmp	r8, #2	@ tmp6413,
	addgt	sl, sl, #1	@,, MisCnt.4721, MisCnt.4713
	cmp	ip, #0	@ tmp6419,
	rsblt	ip, ip, #0	@ tmp6420, tmp6419
	cmp	ip, #2	@ tmp6420,
	addgt	sl, sl, #1	@,, tmp6423, MisCnt.4721
	cmp	sl, #2	@ tmp6423,
	bgt	.L39	@,
	ldr	r2, [r4, #1640]	@ <variable>.Comp, <variable>.Comp
	mov	r0, r7	@, tmp12189
	ldr	sl, [r4, #1644]	@ <variable>.Px, <variable>.Px
	mov	r1, r5	@, pDetPara
	ldr	lr, [r4, #1648]	@ <variable>.Py, <variable>.Py
	str	r2, [sp, #12]	@ <variable>.Comp, SmpPat.Comp
	str	sl, [sp, #16]	@ <variable>.Px, SmpPat.Px
	str	lr, [sp, #20]	@ <variable>.Py, SmpPat.Py
	bl	GetSample	@
	ldrb	ip, [r4, #1653]	@ zero_extendqisi2	@ <variable>.Pix, <variable>.Pix
	ldrb	r8, [sp, #25]	@ zero_extendqisi2	@ SmpPat.Pix, SmpPat.Pix
	ldrb	r0, [r4, #1652]	@ zero_extendqisi2	@ <variable>.Pix, <variable>.Pix
	ldrb	r1, [sp, #24]	@ zero_extendqisi2	@ SmpPat.Pix, SmpPat.Pix
	rsb	r3, r8, ip	@ tmp6441, SmpPat.Pix, <variable>.Pix
	cmp	r3, #0	@ tmp6441,
	ldrb	sl, [r4, #1654]	@ zero_extendqisi2	@ <variable>.Pix, <variable>.Pix
	rsb	lr, r1, r0	@ tmp6434, SmpPat.Pix, <variable>.Pix
	ldrb	r2, [sp, #26]	@ zero_extendqisi2	@ SmpPat.Pix, SmpPat.Pix
	rsblt	r3, r3, #0	@ tmp6442, tmp6441
	cmp	lr, #0	@ tmp6434,
	rsb	r0, r2, sl	@ tmp6448, SmpPat.Pix, <variable>.Pix
	rsblt	lr, lr, #0	@ tmp6435, tmp6434
	ldrb	ip, [sp, #27]	@ zero_extendqisi2	@ SmpPat.Pix, SmpPat.Pix
	cmp	r3, #2	@ tmp6442,
	movle	r3, #0	@, tmp6444
	movgt	r3, #1	@, tmp6444
	ldrb	r8, [r4, #1655]	@ zero_extendqisi2	@ <variable>.Pix, <variable>.Pix
	cmp	lr, #2	@ tmp6435,
	addgt	r3, r3, #1	@,, MisCnt.4747, tmp6444
	cmp	r0, #0	@ tmp6448,
	ldrb	r1, [r4, #1656]	@ zero_extendqisi2	@ <variable>.Pix, <variable>.Pix
	rsb	r8, ip, r8	@ tmp6455, SmpPat.Pix, <variable>.Pix
	rsblt	r0, r0, #0	@ tmp6449, tmp6448
	ldrb	sl, [sp, #28]	@ zero_extendqisi2	@ SmpPat.Pix, SmpPat.Pix
	cmp	r0, #2	@ tmp6449,
	addgt	r3, r3, #1	@,, MisCnt.4755, MisCnt.4747
	cmp	r8, #0	@ tmp6455,
	ldrb	r0, [sp, #29]	@ zero_extendqisi2	@ SmpPat.Pix, SmpPat.Pix
	rsb	r2, sl, r1	@ tmp6462, SmpPat.Pix, <variable>.Pix
	rsblt	r8, r8, #0	@ tmp6456, tmp6455
	ldrb	ip, [r4, #1657]	@ zero_extendqisi2	@ <variable>.Pix, <variable>.Pix
	cmp	r8, #2	@ tmp6456,
	addgt	r3, r3, #1	@,, MisCnt.4763, MisCnt.4755
	cmp	r2, #0	@ tmp6462,
	ldrb	sl, [sp, #30]	@ zero_extendqisi2	@ SmpPat.Pix, SmpPat.Pix
	rsb	ip, r0, ip	@ tmp6469, SmpPat.Pix, <variable>.Pix
	rsblt	r2, r2, #0	@ tmp6463, tmp6462
	ldrb	lr, [r4, #1658]	@ zero_extendqisi2	@ <variable>.Pix, <variable>.Pix
	cmp	r2, #2	@ tmp6463,
	addgt	r3, r3, #1	@,, MisCnt.4771, MisCnt.4763
	cmp	ip, #0	@ tmp6469,
	ldrb	r0, [r4, #1659]	@ zero_extendqisi2	@ <variable>.Pix, <variable>.Pix
	rsb	r1, sl, lr	@ tmp6476, SmpPat.Pix, <variable>.Pix
	rsblt	ip, ip, #0	@ tmp6470, tmp6469
	ldrb	r8, [sp, #31]	@ zero_extendqisi2	@ SmpPat.Pix, SmpPat.Pix
	cmp	ip, #2	@ tmp6470,
	addgt	r3, r3, #1	@,, MisCnt.4779, MisCnt.4771
	cmp	r1, #0	@ tmp6476,
	rsb	sl, r8, r0	@ tmp6483, SmpPat.Pix, <variable>.Pix
	rsblt	r1, r1, #0	@ tmp6477, tmp6476
	cmp	r1, #2	@ tmp6477,
	addgt	r3, r3, #1	@,, MisCnt.4787, MisCnt.4779
	cmp	sl, #0	@ tmp6483,
	rsblt	sl, sl, #0	@ tmp6484, tmp6483
	cmp	sl, #2	@ tmp6484,
	addgt	r3, r3, #1	@,, tmp6487, MisCnt.4787
	cmp	r3, #2	@ tmp6487,
	bgt	.L39	@,
	ldr	r2, [r4, #1660]	@ <variable>.Comp, <variable>.Comp
	mov	r0, r7	@, tmp12189
	ldr	r8, [r4, #1664]	@ <variable>.Px, <variable>.Px
	mov	r1, r5	@, pDetPara
	ldr	lr, [r4, #1668]	@ <variable>.Py, <variable>.Py
	str	r2, [sp, #12]	@ <variable>.Comp, SmpPat.Comp
	str	r8, [sp, #16]	@ <variable>.Px, SmpPat.Px
	str	lr, [sp, #20]	@ <variable>.Py, SmpPat.Py
	bl	GetSample	@
	ldrb	ip, [r4, #1673]	@ zero_extendqisi2	@ <variable>.Pix, <variable>.Pix
	ldrb	sl, [sp, #25]	@ zero_extendqisi2	@ SmpPat.Pix, SmpPat.Pix
	ldrb	r0, [r4, #1672]	@ zero_extendqisi2	@ <variable>.Pix, <variable>.Pix
	ldrb	r1, [sp, #24]	@ zero_extendqisi2	@ SmpPat.Pix, SmpPat.Pix
	rsb	r3, sl, ip	@ tmp6505, SmpPat.Pix, <variable>.Pix
	cmp	r3, #0	@ tmp6505,
	ldrb	r8, [r4, #1674]	@ zero_extendqisi2	@ <variable>.Pix, <variable>.Pix
	rsb	lr, r1, r0	@ tmp6498, SmpPat.Pix, <variable>.Pix
	ldrb	r2, [sp, #26]	@ zero_extendqisi2	@ SmpPat.Pix, SmpPat.Pix
	rsblt	r3, r3, #0	@ tmp6506, tmp6505
	cmp	lr, #0	@ tmp6498,
	rsb	r0, r2, r8	@ tmp6512, SmpPat.Pix, <variable>.Pix
	rsblt	lr, lr, #0	@ tmp6499, tmp6498
	ldrb	sl, [r4, #1675]	@ zero_extendqisi2	@ <variable>.Pix, <variable>.Pix
	cmp	r3, #2	@ tmp6506,
	movle	r3, #0	@, tmp6508
	movgt	r3, #1	@, tmp6508
	ldrb	ip, [sp, #27]	@ zero_extendqisi2	@ SmpPat.Pix, SmpPat.Pix
	cmp	lr, #2	@ tmp6499,
	addgt	r3, r3, #1	@,, MisCnt.4813, tmp6508
	cmp	r0, #0	@ tmp6512,
	ldrb	r1, [r4, #1676]	@ zero_extendqisi2	@ <variable>.Pix, <variable>.Pix
	rsb	r8, ip, sl	@ tmp6519, SmpPat.Pix, <variable>.Pix
	rsblt	r0, r0, #0	@ tmp6513, tmp6512
	ldrb	r2, [sp, #28]	@ zero_extendqisi2	@ SmpPat.Pix, SmpPat.Pix
	cmp	r0, #2	@ tmp6513,
	addgt	r3, r3, #1	@,, MisCnt.4821, MisCnt.4813
	cmp	r8, #0	@ tmp6519,
	ldrb	sl, [r4, #1677]	@ zero_extendqisi2	@ <variable>.Pix, <variable>.Pix
	rsb	r2, r2, r1	@ tmp6526, SmpPat.Pix, <variable>.Pix
	rsblt	r8, r8, #0	@ tmp6520, tmp6519
	ldrb	r0, [sp, #29]	@ zero_extendqisi2	@ SmpPat.Pix, SmpPat.Pix
	cmp	r8, #2	@ tmp6520,
	addgt	r3, r3, #1	@,, MisCnt.4829, MisCnt.4821
	cmp	r2, #0	@ tmp6526,
	ldrb	lr, [r4, #1678]	@ zero_extendqisi2	@ <variable>.Pix, <variable>.Pix
	rsb	ip, r0, sl	@ tmp6533, SmpPat.Pix, <variable>.Pix
	rsblt	r2, r2, #0	@ tmp6527, tmp6526
	ldrb	r1, [sp, #30]	@ zero_extendqisi2	@ SmpPat.Pix, SmpPat.Pix
	cmp	r2, #2	@ tmp6527,
	addgt	r3, r3, #1	@,, MisCnt.4837, MisCnt.4829
	cmp	ip, #0	@ tmp6533,
	ldrb	r0, [r4, #1679]	@ zero_extendqisi2	@ <variable>.Pix, <variable>.Pix
	rsb	r1, r1, lr	@ tmp6540, SmpPat.Pix, <variable>.Pix
	rsblt	ip, ip, #0	@ tmp6534, tmp6533
	ldrb	sl, [sp, #31]	@ zero_extendqisi2	@ SmpPat.Pix, SmpPat.Pix
	cmp	ip, #2	@ tmp6534,
	addgt	r3, r3, #1	@,, MisCnt.4845, MisCnt.4837
	cmp	r1, #0	@ tmp6540,
	rsb	r8, sl, r0	@ tmp6547, SmpPat.Pix, <variable>.Pix
	rsblt	r1, r1, #0	@ tmp6541, tmp6540
	cmp	r1, #2	@ tmp6541,
	addgt	r3, r3, #1	@,, MisCnt.4853, MisCnt.4845
	cmp	r8, #0	@ tmp6547,
	rsblt	r8, r8, #0	@ tmp6548, tmp6547
	cmp	r8, #2	@ tmp6548,
	addgt	r3, r3, #1	@,, tmp6551, MisCnt.4853
	cmp	r3, #2	@ tmp6551,
	bgt	.L39	@,
	ldr	r3, [r4, #1680]	@ <variable>.Comp, <variable>.Comp
	mov	r0, r7	@, tmp12189
	ldr	r2, [r4, #1684]	@ <variable>.Px, <variable>.Px
	mov	r1, r5	@, pDetPara
	ldr	lr, [r4, #1688]	@ <variable>.Py, <variable>.Py
	str	r3, [sp, #12]	@ <variable>.Comp, SmpPat.Comp
	str	r2, [sp, #16]	@ <variable>.Px, SmpPat.Px
	str	lr, [sp, #20]	@ <variable>.Py, SmpPat.Py
	bl	GetSample	@
	ldrb	r8, [r4, #1693]	@ zero_extendqisi2	@ <variable>.Pix, <variable>.Pix
	ldrb	ip, [sp, #25]	@ zero_extendqisi2	@ SmpPat.Pix, SmpPat.Pix
	ldrb	sl, [r4, #1692]	@ zero_extendqisi2	@ <variable>.Pix, <variable>.Pix
	ldrb	r1, [sp, #24]	@ zero_extendqisi2	@ SmpPat.Pix, SmpPat.Pix
	rsb	r3, ip, r8	@ tmp6569, SmpPat.Pix, <variable>.Pix
	cmp	r3, #0	@ tmp6569,
	ldrb	r2, [sp, #26]	@ zero_extendqisi2	@ SmpPat.Pix, SmpPat.Pix
	rsb	r8, r1, sl	@ tmp6562, SmpPat.Pix, <variable>.Pix
	ldrb	r0, [r4, #1694]	@ zero_extendqisi2	@ <variable>.Pix, <variable>.Pix
	rsblt	r3, r3, #0	@ tmp6570, tmp6569
	cmp	r8, #0	@ tmp6562,
	rsb	r0, r2, r0	@ tmp6576, SmpPat.Pix, <variable>.Pix
	rsblt	r8, r8, #0	@ tmp6563, tmp6562
	ldrb	ip, [sp, #27]	@ zero_extendqisi2	@ SmpPat.Pix, SmpPat.Pix
	cmp	r3, #2	@ tmp6570,
	movle	r3, #0	@, tmp6572
	movgt	r3, #1	@, tmp6572
	ldrb	sl, [r4, #1695]	@ zero_extendqisi2	@ <variable>.Pix, <variable>.Pix
	cmp	r8, #2	@ tmp6563,
	addgt	r3, r3, #1	@,, MisCnt.1595, tmp6572
	cmp	r0, #0	@ tmp6576,
	ldrb	r1, [r4, #1696]	@ zero_extendqisi2	@ <variable>.Pix, <variable>.Pix
	rsb	sl, ip, sl	@ tmp6583, SmpPat.Pix, <variable>.Pix
	rsblt	r0, r0, #0	@ tmp6577, tmp6576
	ldrb	r2, [sp, #28]	@ zero_extendqisi2	@ SmpPat.Pix, SmpPat.Pix
	cmp	r0, #2	@ tmp6577,
	addgt	r3, r3, #1	@,, MisCnt.1605, MisCnt.1595
	cmp	sl, #0	@ tmp6583,
	ldrb	r0, [sp, #29]	@ zero_extendqisi2	@ SmpPat.Pix, SmpPat.Pix
	rsb	r2, r2, r1	@ tmp6590, SmpPat.Pix, <variable>.Pix
	rsblt	sl, sl, #0	@ tmp6584, tmp6583
	ldrb	ip, [r4, #1697]	@ zero_extendqisi2	@ <variable>.Pix, <variable>.Pix
	cmp	sl, #2	@ tmp6584,
	addgt	r3, r3, #1	@,, MisCnt.1616, MisCnt.1605
	cmp	r2, #0	@ tmp6590,
	ldrb	r8, [r4, #1698]	@ zero_extendqisi2	@ <variable>.Pix, <variable>.Pix
	rsb	ip, r0, ip	@ tmp6597, SmpPat.Pix, <variable>.Pix
	rsblt	r2, r2, #0	@ tmp6591, tmp6590
	ldrb	r1, [sp, #30]	@ zero_extendqisi2	@ SmpPat.Pix, SmpPat.Pix
	cmp	r2, #2	@ tmp6591,
	addgt	r3, r3, #1	@,, MisCnt.1627, MisCnt.1616
	cmp	ip, #0	@ tmp6597,
	ldrb	r0, [r4, #1699]	@ zero_extendqisi2	@ <variable>.Pix, <variable>.Pix
	rsblt	ip, ip, #0	@ tmp6598, tmp6597
	rsb	r1, r1, r8	@ tmp6604, SmpPat.Pix, <variable>.Pix
	ldrb	r2, [sp, #31]	@ zero_extendqisi2	@ SmpPat.Pix, SmpPat.Pix
	cmp	ip, #2	@ tmp6598,
	addgt	r3, r3, #1	@,, MisCnt.1635, MisCnt.1627
	cmp	r1, #0	@ tmp6604,
	rsb	ip, r2, r0	@ tmp6611, SmpPat.Pix, <variable>.Pix
	rsblt	r1, r1, #0	@ tmp6605, tmp6604
	cmp	r1, #2	@ tmp6605,
	addgt	r3, r3, #1	@,, MisCnt.1646, MisCnt.1635
	cmp	ip, #0	@ tmp6611,
	rsblt	ip, ip, #0	@ tmp6612, tmp6611
	cmp	ip, #2	@ tmp6612,
	addgt	r3, r3, #1	@,, tmp6615, MisCnt.1646
	cmp	r3, #2	@ tmp6615,
	movle	r0, #22	@ Result,
	ble	.L13	@,
.L39:
	ldr	ip, [r4, #1700]	@ <variable>.Comp, <variable>.Comp
	mov	r0, r7	@, tmp12189
	ldr	sl, [r4, #1704]	@ <variable>.Px, <variable>.Px
	mov	r1, r5	@, pDetPara
	ldr	lr, [r4, #1708]	@ <variable>.Py, <variable>.Py
	movw	r6, #:lower16:.LANCHOR0	@ tmp6616,
	str	ip, [sp, #12]	@ <variable>.Comp, SmpPat.Comp
	movt	r6, #:upper16:.LANCHOR0	@ tmp6616,
	str	sl, [sp, #16]	@ <variable>.Px, SmpPat.Px
	str	lr, [sp, #20]	@ <variable>.Py, SmpPat.Py
	bl	GetSample	@
	ldrb	r1, [r4, #1713]	@ zero_extendqisi2	@ <variable>.Pix, <variable>.Pix
	ldrb	r2, [sp, #25]	@ zero_extendqisi2	@ SmpPat.Pix, SmpPat.Pix
	ldrb	r0, [r4, #1712]	@ zero_extendqisi2	@ <variable>.Pix, <variable>.Pix
	ldrb	r3, [sp, #24]	@ zero_extendqisi2	@ SmpPat.Pix, SmpPat.Pix
	rsb	r8, r2, r1	@ tmp6633, SmpPat.Pix, <variable>.Pix
	cmp	r8, #0	@ tmp6633,
	ldrb	sl, [r4, #1714]	@ zero_extendqisi2	@ <variable>.Pix, <variable>.Pix
	rsb	lr, r3, r0	@ tmp6626, SmpPat.Pix, <variable>.Pix
	ldrb	ip, [sp, #26]	@ zero_extendqisi2	@ SmpPat.Pix, SmpPat.Pix
	rsblt	r8, r8, #0	@ tmp6634, tmp6633
	cmp	lr, #0	@ tmp6626,
	rsblt	lr, lr, #0	@ tmp6627, tmp6626
	ldrb	r0, [r4, #1715]	@ zero_extendqisi2	@ <variable>.Pix, <variable>.Pix
	cmp	r8, #2	@ tmp6634,
	movle	r1, #0	@, tmp6636
	movgt	r1, #1	@, tmp6636
	ldrb	r3, [sp, #27]	@ zero_extendqisi2	@ SmpPat.Pix, SmpPat.Pix
	rsb	r8, ip, sl	@ tmp6640, SmpPat.Pix, <variable>.Pix
	cmp	lr, #2	@ tmp6627,
	addgt	r1, r1, #1	@,, MisCnt.4879, tmp6636
	cmp	r8, #0	@ tmp6640,
	rsb	sl, r3, r0	@ tmp6647, SmpPat.Pix, <variable>.Pix
	ldrb	r2, [sp, #28]	@ zero_extendqisi2	@ SmpPat.Pix, SmpPat.Pix
	rsblt	r8, r8, #0	@ tmp6641, tmp6640
	ldrb	ip, [r4, #1716]	@ zero_extendqisi2	@ <variable>.Pix, <variable>.Pix
	cmp	r8, #2	@ tmp6641,
	movle	r8, r1	@, MisCnt.4887, MisCnt.4879
	addgt	r8, r1, #1	@,, MisCnt.4887, MisCnt.4879
	cmp	sl, #0	@ tmp6647,
	ldrb	r0, [r4, #1717]	@ zero_extendqisi2	@ <variable>.Pix, <variable>.Pix
	rsb	ip, r2, ip	@ tmp6654, SmpPat.Pix, <variable>.Pix
	rsblt	sl, sl, #0	@ tmp6648, tmp6647
	ldrb	r1, [sp, #29]	@ zero_extendqisi2	@ SmpPat.Pix, SmpPat.Pix
	cmp	sl, #2	@ tmp6648,
	movle	r3, r8	@, MisCnt.4895, MisCnt.4887
	addgt	r3, r8, #1	@,, MisCnt.4895, MisCnt.4887
	cmp	ip, #0	@ tmp6654,
	ldrb	lr, [r4, #1718]	@ zero_extendqisi2	@ <variable>.Pix, <variable>.Pix
	rsb	sl, r1, r0	@ tmp6661, SmpPat.Pix, <variable>.Pix
	rsblt	ip, ip, #0	@ tmp6655, tmp6654
	ldrb	r2, [sp, #30]	@ zero_extendqisi2	@ SmpPat.Pix, SmpPat.Pix
	cmp	ip, #2	@ tmp6655,
	movle	ip, r3	@, MisCnt.4903, MisCnt.4895
	addgt	ip, r3, #1	@,, MisCnt.4903, MisCnt.4895
	cmp	sl, #0	@ tmp6661,
	ldrb	r0, [r4, #1719]	@ zero_extendqisi2	@ <variable>.Pix, <variable>.Pix
	rsblt	sl, sl, #0	@ tmp6662, tmp6661
	rsb	r8, r2, lr	@ tmp6668, SmpPat.Pix, <variable>.Pix
	ldrb	r3, [sp, #31]	@ zero_extendqisi2	@ SmpPat.Pix, SmpPat.Pix
	cmp	sl, #2	@ tmp6662,
	movle	r1, ip	@, MisCnt.4911, MisCnt.4903
	addgt	r1, ip, #1	@,, MisCnt.4911, MisCnt.4903
	cmp	r8, #0	@ tmp6668,
	rsb	sl, r3, r0	@ tmp6675, SmpPat.Pix, <variable>.Pix
	rsblt	r8, r8, #0	@ tmp6669, tmp6668
	cmp	r8, #2	@ tmp6669,
	movle	ip, r1	@, MisCnt.4919, MisCnt.4911
	addgt	ip, r1, #1	@,, MisCnt.4919, MisCnt.4911
	cmp	sl, #0	@ tmp6675,
	rsblt	sl, sl, #0	@ tmp6676, tmp6675
	cmp	sl, #2	@ tmp6676,
	movle	r0, ip	@, tmp6679, MisCnt.4919
	addgt	r0, ip, #1	@,, tmp6679, MisCnt.4919
	cmp	r0, #2	@ tmp6679,
	bgt	.L40	@,
	ldr	ip, [r6, #1720]	@ <variable>.Comp, <variable>.Comp
	mov	r0, r7	@, tmp12189
	ldr	r8, [r6, #1724]	@ <variable>.Px, <variable>.Px
	mov	r1, r5	@, pDetPara
	ldr	lr, [r6, #1728]	@ <variable>.Py, <variable>.Py
	str	ip, [sp, #12]	@ <variable>.Comp, SmpPat.Comp
	str	r8, [sp, #16]	@ <variable>.Px, SmpPat.Px
	str	lr, [sp, #20]	@ <variable>.Py, SmpPat.Py
	bl	GetSample	@
	ldrb	r1, [r6, #1733]	@ zero_extendqisi2	@ <variable>.Pix, <variable>.Pix
	ldrb	r2, [sp, #25]	@ zero_extendqisi2	@ SmpPat.Pix, SmpPat.Pix
	ldrb	r0, [r6, #1732]	@ zero_extendqisi2	@ <variable>.Pix, <variable>.Pix
	ldrb	r3, [sp, #24]	@ zero_extendqisi2	@ SmpPat.Pix, SmpPat.Pix
	rsb	sl, r2, r1	@ tmp6697, SmpPat.Pix, <variable>.Pix
	cmp	sl, #0	@ tmp6697,
	ldrb	r8, [r6, #1734]	@ zero_extendqisi2	@ <variable>.Pix, <variable>.Pix
	rsb	lr, r3, r0	@ tmp6690, SmpPat.Pix, <variable>.Pix
	ldrb	ip, [sp, #26]	@ zero_extendqisi2	@ SmpPat.Pix, SmpPat.Pix
	rsblt	sl, sl, #0	@ tmp6698, tmp6697
	cmp	lr, #0	@ tmp6690,
	rsblt	lr, lr, #0	@ tmp6691, tmp6690
	ldrb	r0, [r6, #1735]	@ zero_extendqisi2	@ <variable>.Pix, <variable>.Pix
	cmp	sl, #2	@ tmp6698,
	movle	r1, #0	@, tmp6700
	movgt	r1, #1	@, tmp6700
	ldrb	r3, [sp, #27]	@ zero_extendqisi2	@ SmpPat.Pix, SmpPat.Pix
	rsb	sl, ip, r8	@ tmp6704, SmpPat.Pix, <variable>.Pix
	cmp	lr, #2	@ tmp6691,
	addgt	r1, r1, #1	@,, MisCnt.4945, tmp6700
	cmp	sl, #0	@ tmp6704,
	rsb	r3, r3, r0	@ tmp6711, SmpPat.Pix, <variable>.Pix
	rsblt	sl, sl, #0	@ tmp6705, tmp6704
	ldrb	ip, [r6, #1736]	@ zero_extendqisi2	@ <variable>.Pix, <variable>.Pix
	ldrb	r2, [sp, #28]	@ zero_extendqisi2	@ SmpPat.Pix, SmpPat.Pix
	cmp	sl, #2	@ tmp6705,
	movle	r8, r1	@, MisCnt.4953, MisCnt.4945
	addgt	r8, r1, #1	@,, MisCnt.4953, MisCnt.4945
	cmp	r3, #0	@ tmp6711,
	ldrb	r0, [r6, #1737]	@ zero_extendqisi2	@ <variable>.Pix, <variable>.Pix
	rsb	sl, r2, ip	@ tmp6718, SmpPat.Pix, <variable>.Pix
	rsblt	r3, r3, #0	@ tmp6712, tmp6711
	ldrb	r1, [sp, #29]	@ zero_extendqisi2	@ SmpPat.Pix, SmpPat.Pix
	cmp	r3, #2	@ tmp6712,
	movle	r3, r8	@, MisCnt.4961, MisCnt.4953
	addgt	r3, r8, #1	@,, MisCnt.4961, MisCnt.4953
	cmp	sl, #0	@ tmp6718,
	ldrb	lr, [r6, #1738]	@ zero_extendqisi2	@ <variable>.Pix, <variable>.Pix
	rsb	r1, r1, r0	@ tmp6725, SmpPat.Pix, <variable>.Pix
	rsblt	sl, sl, #0	@ tmp6719, tmp6718
	ldrb	r2, [sp, #30]	@ zero_extendqisi2	@ SmpPat.Pix, SmpPat.Pix
	cmp	sl, #2	@ tmp6719,
	movle	ip, r3	@, MisCnt.4969, MisCnt.4961
	addgt	ip, r3, #1	@,, MisCnt.4969, MisCnt.4961
	cmp	r1, #0	@ tmp6725,
	ldrb	r8, [r6, #1739]	@ zero_extendqisi2	@ <variable>.Pix, <variable>.Pix
	rsb	r2, r2, lr	@ tmp6732, SmpPat.Pix, <variable>.Pix
	rsblt	r1, r1, #0	@ tmp6726, tmp6725
	ldrb	sl, [sp, #31]	@ zero_extendqisi2	@ SmpPat.Pix, SmpPat.Pix
	cmp	r1, #2	@ tmp6726,
	movle	r1, ip	@, MisCnt.4977, MisCnt.4969
	addgt	r1, ip, #1	@,, MisCnt.4977, MisCnt.4969
	cmp	r2, #0	@ tmp6732,
	rsb	r3, sl, r8	@ tmp6739, SmpPat.Pix, <variable>.Pix
	rsblt	r2, r2, #0	@ tmp6733, tmp6732
	cmp	r2, #2	@ tmp6733,
	movle	r0, r1	@, MisCnt.4985, MisCnt.4977
	addgt	r0, r1, #1	@,, MisCnt.4985, MisCnt.4977
	cmp	r3, #0	@ tmp6739,
	rsblt	r3, r3, #0	@ tmp6740, tmp6739
	cmp	r3, #2	@ tmp6740,
	movle	r8, r0	@, tmp6743, MisCnt.4985
	addgt	r8, r0, #1	@,, tmp6743, MisCnt.4985
	cmp	r8, #2	@ tmp6743,
	bgt	.L40	@,
	ldr	r3, [r6, #1740]	@ <variable>.Comp, <variable>.Comp
	mov	r0, r7	@, tmp12189
	ldr	r2, [r6, #1744]	@ <variable>.Px, <variable>.Px
	mov	r1, r5	@, pDetPara
	ldr	lr, [r6, #1748]	@ <variable>.Py, <variable>.Py
	str	r3, [sp, #12]	@ <variable>.Comp, SmpPat.Comp
	str	r2, [sp, #16]	@ <variable>.Px, SmpPat.Px
	str	lr, [sp, #20]	@ <variable>.Py, SmpPat.Py
	bl	GetSample	@
	ldrb	ip, [r6, #1753]	@ zero_extendqisi2	@ <variable>.Pix, <variable>.Pix
	ldrb	r8, [sp, #25]	@ zero_extendqisi2	@ SmpPat.Pix, SmpPat.Pix
	ldrb	sl, [r6, #1752]	@ zero_extendqisi2	@ <variable>.Pix, <variable>.Pix
	ldrb	r1, [sp, #24]	@ zero_extendqisi2	@ SmpPat.Pix, SmpPat.Pix
	rsb	r3, r8, ip	@ tmp6761, SmpPat.Pix, <variable>.Pix
	cmp	r3, #0	@ tmp6761,
	ldrb	r2, [sp, #26]	@ zero_extendqisi2	@ SmpPat.Pix, SmpPat.Pix
	rsb	lr, r1, sl	@ tmp6754, SmpPat.Pix, <variable>.Pix
	ldrb	r0, [r6, #1754]	@ zero_extendqisi2	@ <variable>.Pix, <variable>.Pix
	rsblt	r3, r3, #0	@ tmp6762, tmp6761
	cmp	lr, #0	@ tmp6754,
	rsb	r0, r2, r0	@ tmp6768, SmpPat.Pix, <variable>.Pix
	rsblt	lr, lr, #0	@ tmp6755, tmp6754
	ldrb	ip, [sp, #27]	@ zero_extendqisi2	@ SmpPat.Pix, SmpPat.Pix
	cmp	r3, #2	@ tmp6762,
	movle	sl, #0	@, tmp6764
	movgt	sl, #1	@, tmp6764
	ldrb	r8, [r6, #1755]	@ zero_extendqisi2	@ <variable>.Pix, <variable>.Pix
	cmp	lr, #2	@ tmp6755,
	addgt	sl, sl, #1	@,, MisCnt.5011, tmp6764
	cmp	r0, #0	@ tmp6768,
	ldrb	r1, [r6, #1756]	@ zero_extendqisi2	@ <variable>.Pix, <variable>.Pix
	rsb	r8, ip, r8	@ tmp6775, SmpPat.Pix, <variable>.Pix
	rsblt	r0, r0, #0	@ tmp6769, tmp6768
	ldrb	r2, [sp, #28]	@ zero_extendqisi2	@ SmpPat.Pix, SmpPat.Pix
	cmp	r0, #2	@ tmp6769,
	addgt	sl, sl, #1	@,, MisCnt.5019, MisCnt.5011
	cmp	r8, #0	@ tmp6775,
	ldrb	r0, [sp, #29]	@ zero_extendqisi2	@ SmpPat.Pix, SmpPat.Pix
	rsb	r2, r2, r1	@ tmp6782, SmpPat.Pix, <variable>.Pix
	rsblt	r8, r8, #0	@ tmp6776, tmp6775
	ldrb	ip, [r6, #1757]	@ zero_extendqisi2	@ <variable>.Pix, <variable>.Pix
	cmp	r8, #2	@ tmp6776,
	addgt	sl, sl, #1	@,, MisCnt.5027, MisCnt.5019
	cmp	r2, #0	@ tmp6782,
	ldrb	lr, [r6, #1758]	@ zero_extendqisi2	@ <variable>.Pix, <variable>.Pix
	rsb	ip, r0, ip	@ tmp6789, SmpPat.Pix, <variable>.Pix
	rsblt	r2, r2, #0	@ tmp6783, tmp6782
	ldrb	r1, [sp, #30]	@ zero_extendqisi2	@ SmpPat.Pix, SmpPat.Pix
	cmp	r2, #2	@ tmp6783,
	addgt	sl, sl, #1	@,, MisCnt.5035, MisCnt.5027
	cmp	ip, #0	@ tmp6789,
	ldrb	r0, [r6, #1759]	@ zero_extendqisi2	@ <variable>.Pix, <variable>.Pix
	rsb	r1, r1, lr	@ tmp6796, SmpPat.Pix, <variable>.Pix
	rsblt	ip, ip, #0	@ tmp6790, tmp6789
	ldrb	r8, [sp, #31]	@ zero_extendqisi2	@ SmpPat.Pix, SmpPat.Pix
	cmp	ip, #2	@ tmp6790,
	addgt	sl, sl, #1	@,, MisCnt.5043, MisCnt.5035
	cmp	r1, #0	@ tmp6796,
	rsb	r2, r8, r0	@ tmp6803, SmpPat.Pix, <variable>.Pix
	rsblt	r1, r1, #0	@ tmp6797, tmp6796
	cmp	r1, #2	@ tmp6797,
	addgt	sl, sl, #1	@,, MisCnt.5051, MisCnt.5043
	cmp	r2, #0	@ tmp6803,
	rsblt	r2, r2, #0	@ tmp6804, tmp6803
	cmp	r2, #2	@ tmp6804,
	addgt	sl, sl, #1	@,, tmp6807, MisCnt.5051
	cmp	sl, #2	@ tmp6807,
	bgt	.L40	@,
	ldr	r3, [r6, #1760]	@ <variable>.Comp, <variable>.Comp
	mov	r0, r7	@, tmp12189
	ldr	r2, [r6, #1764]	@ <variable>.Px, <variable>.Px
	mov	r1, r5	@, pDetPara
	ldr	lr, [r6, #1768]	@ <variable>.Py, <variable>.Py
	str	r3, [sp, #12]	@ <variable>.Comp, SmpPat.Comp
	str	r2, [sp, #16]	@ <variable>.Px, SmpPat.Px
	str	lr, [sp, #20]	@ <variable>.Py, SmpPat.Py
	bl	GetSample	@
	ldrb	ip, [r6, #1773]	@ zero_extendqisi2	@ <variable>.Pix, <variable>.Pix
	ldrb	r8, [sp, #25]	@ zero_extendqisi2	@ SmpPat.Pix, SmpPat.Pix
	ldrb	sl, [r6, #1772]	@ zero_extendqisi2	@ <variable>.Pix, <variable>.Pix
	ldrb	r1, [sp, #24]	@ zero_extendqisi2	@ SmpPat.Pix, SmpPat.Pix
	rsb	r3, r8, ip	@ tmp6825, SmpPat.Pix, <variable>.Pix
	cmp	r3, #0	@ tmp6825,
	ldrb	r2, [sp, #26]	@ zero_extendqisi2	@ SmpPat.Pix, SmpPat.Pix
	rsb	lr, r1, sl	@ tmp6818, SmpPat.Pix, <variable>.Pix
	ldrb	r0, [r6, #1774]	@ zero_extendqisi2	@ <variable>.Pix, <variable>.Pix
	rsblt	r3, r3, #0	@ tmp6826, tmp6825
	cmp	lr, #0	@ tmp6818,
	rsb	r0, r2, r0	@ tmp6832, SmpPat.Pix, <variable>.Pix
	rsblt	lr, lr, #0	@ tmp6819, tmp6818
	ldrb	ip, [sp, #27]	@ zero_extendqisi2	@ SmpPat.Pix, SmpPat.Pix
	cmp	r3, #2	@ tmp6826,
	movle	sl, #0	@, tmp6828
	movgt	sl, #1	@, tmp6828
	ldrb	r8, [r6, #1775]	@ zero_extendqisi2	@ <variable>.Pix, <variable>.Pix
	cmp	lr, #2	@ tmp6819,
	addgt	sl, sl, #1	@,, MisCnt.5077, tmp6828
	cmp	r0, #0	@ tmp6832,
	ldrb	r1, [r6, #1776]	@ zero_extendqisi2	@ <variable>.Pix, <variable>.Pix
	rsb	r8, ip, r8	@ tmp6839, SmpPat.Pix, <variable>.Pix
	rsblt	r0, r0, #0	@ tmp6833, tmp6832
	ldrb	r2, [sp, #28]	@ zero_extendqisi2	@ SmpPat.Pix, SmpPat.Pix
	cmp	r0, #2	@ tmp6833,
	addgt	sl, sl, #1	@,, MisCnt.5085, MisCnt.5077
	cmp	r8, #0	@ tmp6839,
	ldrb	r0, [sp, #29]	@ zero_extendqisi2	@ SmpPat.Pix, SmpPat.Pix
	rsb	r2, r2, r1	@ tmp6846, SmpPat.Pix, <variable>.Pix
	rsblt	r8, r8, #0	@ tmp6840, tmp6839
	ldrb	ip, [r6, #1777]	@ zero_extendqisi2	@ <variable>.Pix, <variable>.Pix
	cmp	r8, #2	@ tmp6840,
	addgt	sl, sl, #1	@,, MisCnt.5093, MisCnt.5085
	cmp	r2, #0	@ tmp6846,
	ldrb	lr, [r6, #1778]	@ zero_extendqisi2	@ <variable>.Pix, <variable>.Pix
	rsb	ip, r0, ip	@ tmp6853, SmpPat.Pix, <variable>.Pix
	rsblt	r2, r2, #0	@ tmp6847, tmp6846
	ldrb	r1, [sp, #30]	@ zero_extendqisi2	@ SmpPat.Pix, SmpPat.Pix
	cmp	r2, #2	@ tmp6847,
	addgt	sl, sl, #1	@,, MisCnt.5101, MisCnt.5093
	cmp	ip, #0	@ tmp6853,
	ldrb	r0, [r6, #1779]	@ zero_extendqisi2	@ <variable>.Pix, <variable>.Pix
	rsb	r1, r1, lr	@ tmp6860, SmpPat.Pix, <variable>.Pix
	rsblt	ip, ip, #0	@ tmp6854, tmp6853
	ldrb	r2, [sp, #31]	@ zero_extendqisi2	@ SmpPat.Pix, SmpPat.Pix
	cmp	ip, #2	@ tmp6854,
	addgt	sl, sl, #1	@,, MisCnt.5109, MisCnt.5101
	cmp	r1, #0	@ tmp6860,
	rsb	r8, r2, r0	@ tmp6867, SmpPat.Pix, <variable>.Pix
	rsblt	r1, r1, #0	@ tmp6861, tmp6860
	cmp	r1, #2	@ tmp6861,
	addgt	sl, sl, #1	@,, MisCnt.5117, MisCnt.5109
	cmp	r8, #0	@ tmp6867,
	rsblt	r8, r8, #0	@ tmp6868, tmp6867
	cmp	r8, #2	@ tmp6868,
	addgt	sl, sl, #1	@,, tmp6871, MisCnt.5117
	cmp	sl, #2	@ tmp6871,
	bgt	.L40	@,
	ldr	r3, [r6, #1780]	@ <variable>.Comp, <variable>.Comp
	mov	r0, r7	@, tmp12189
	ldr	r2, [r6, #1784]	@ <variable>.Px, <variable>.Px
	mov	r1, r5	@, pDetPara
	ldr	lr, [r6, #1788]	@ <variable>.Py, <variable>.Py
	str	r3, [sp, #12]	@ <variable>.Comp, SmpPat.Comp
	str	r2, [sp, #16]	@ <variable>.Px, SmpPat.Px
	str	lr, [sp, #20]	@ <variable>.Py, SmpPat.Py
	bl	GetSample	@
	ldrb	r8, [r6, #1793]	@ zero_extendqisi2	@ <variable>.Pix, <variable>.Pix
	ldrb	ip, [sp, #25]	@ zero_extendqisi2	@ SmpPat.Pix, SmpPat.Pix
	ldrb	sl, [r6, #1792]	@ zero_extendqisi2	@ <variable>.Pix, <variable>.Pix
	ldrb	r1, [sp, #24]	@ zero_extendqisi2	@ SmpPat.Pix, SmpPat.Pix
	rsb	r3, ip, r8	@ tmp6889, SmpPat.Pix, <variable>.Pix
	cmp	r3, #0	@ tmp6889,
	ldrb	r2, [sp, #26]	@ zero_extendqisi2	@ SmpPat.Pix, SmpPat.Pix
	rsb	r8, r1, sl	@ tmp6882, SmpPat.Pix, <variable>.Pix
	ldrb	r0, [r6, #1794]	@ zero_extendqisi2	@ <variable>.Pix, <variable>.Pix
	rsblt	r3, r3, #0	@ tmp6890, tmp6889
	cmp	r8, #0	@ tmp6882,
	rsb	r0, r2, r0	@ tmp6896, SmpPat.Pix, <variable>.Pix
	rsblt	r8, r8, #0	@ tmp6883, tmp6882
	ldrb	ip, [sp, #27]	@ zero_extendqisi2	@ SmpPat.Pix, SmpPat.Pix
	cmp	r3, #2	@ tmp6890,
	movle	r3, #0	@, tmp6892
	movgt	r3, #1	@, tmp6892
	ldrb	sl, [r6, #1795]	@ zero_extendqisi2	@ <variable>.Pix, <variable>.Pix
	cmp	r8, #2	@ tmp6883,
	addgt	r3, r3, #1	@,, MisCnt.1666, tmp6892
	cmp	r0, #0	@ tmp6896,
	ldrb	r1, [r6, #1796]	@ zero_extendqisi2	@ <variable>.Pix, <variable>.Pix
	rsb	sl, ip, sl	@ tmp6903, SmpPat.Pix, <variable>.Pix
	rsblt	r0, r0, #0	@ tmp6897, tmp6896
	ldrb	r2, [sp, #28]	@ zero_extendqisi2	@ SmpPat.Pix, SmpPat.Pix
	cmp	r0, #2	@ tmp6897,
	addgt	r3, r3, #1	@,, MisCnt.1675, MisCnt.1666
	cmp	sl, #0	@ tmp6903,
	ldrb	r0, [sp, #29]	@ zero_extendqisi2	@ SmpPat.Pix, SmpPat.Pix
	rsb	r2, r2, r1	@ tmp6910, SmpPat.Pix, <variable>.Pix
	rsblt	sl, sl, #0	@ tmp6904, tmp6903
	ldrb	ip, [r6, #1797]	@ zero_extendqisi2	@ <variable>.Pix, <variable>.Pix
	cmp	sl, #2	@ tmp6904,
	addgt	r3, r3, #1	@,, MisCnt.1684, MisCnt.1675
	cmp	r2, #0	@ tmp6910,
	ldrb	r8, [r6, #1798]	@ zero_extendqisi2	@ <variable>.Pix, <variable>.Pix
	rsb	ip, r0, ip	@ tmp6917, SmpPat.Pix, <variable>.Pix
	rsblt	r2, r2, #0	@ tmp6911, tmp6910
	ldrb	r1, [sp, #30]	@ zero_extendqisi2	@ SmpPat.Pix, SmpPat.Pix
	cmp	r2, #2	@ tmp6911,
	addgt	r3, r3, #1	@,, MisCnt.1694, MisCnt.1684
	cmp	ip, #0	@ tmp6917,
	ldrb	r0, [r6, #1799]	@ zero_extendqisi2	@ <variable>.Pix, <variable>.Pix
	rsblt	ip, ip, #0	@ tmp6918, tmp6917
	rsb	r1, r1, r8	@ tmp6924, SmpPat.Pix, <variable>.Pix
	ldrb	r2, [sp, #31]	@ zero_extendqisi2	@ SmpPat.Pix, SmpPat.Pix
	cmp	ip, #2	@ tmp6918,
	addgt	r3, r3, #1	@,, MisCnt.1702, MisCnt.1694
	cmp	r1, #0	@ tmp6924,
	rsb	ip, r2, r0	@ tmp6931, SmpPat.Pix, <variable>.Pix
	rsblt	r1, r1, #0	@ tmp6925, tmp6924
	cmp	r1, #2	@ tmp6925,
	addgt	r3, r3, #1	@,, MisCnt.1710, MisCnt.1702
	cmp	ip, #0	@ tmp6931,
	rsblt	ip, ip, #0	@ tmp6932, tmp6931
	cmp	ip, #2	@ tmp6932,
	addgt	r3, r3, #1	@,, tmp6935, MisCnt.1710
	cmp	r3, #2	@ tmp6935,
	movle	r0, #20	@ Result,
	ble	.L13	@,
.L40:
	ldr	ip, [r4, #1800]	@ <variable>.Comp, <variable>.Comp
	mov	r0, r7	@, tmp12189
	ldr	sl, [r4, #1804]	@ <variable>.Px, <variable>.Px
	mov	r1, r5	@, pDetPara
	ldr	lr, [r4, #1808]	@ <variable>.Py, <variable>.Py
	movw	r6, #:lower16:.LANCHOR0	@ tmp6936,
	str	ip, [sp, #12]	@ <variable>.Comp, SmpPat.Comp
	movt	r6, #:upper16:.LANCHOR0	@ tmp6936,
	str	sl, [sp, #16]	@ <variable>.Px, SmpPat.Px
	str	lr, [sp, #20]	@ <variable>.Py, SmpPat.Py
	bl	GetSample	@
	ldrb	r1, [r4, #1813]	@ zero_extendqisi2	@ <variable>.Pix, <variable>.Pix
	ldrb	r2, [sp, #25]	@ zero_extendqisi2	@ SmpPat.Pix, SmpPat.Pix
	ldrb	r0, [r4, #1812]	@ zero_extendqisi2	@ <variable>.Pix, <variable>.Pix
	ldrb	r3, [sp, #24]	@ zero_extendqisi2	@ SmpPat.Pix, SmpPat.Pix
	rsb	r8, r2, r1	@ tmp6953, SmpPat.Pix, <variable>.Pix
	cmp	r8, #0	@ tmp6953,
	ldrb	sl, [r4, #1814]	@ zero_extendqisi2	@ <variable>.Pix, <variable>.Pix
	rsb	lr, r3, r0	@ tmp6946, SmpPat.Pix, <variable>.Pix
	ldrb	ip, [sp, #26]	@ zero_extendqisi2	@ SmpPat.Pix, SmpPat.Pix
	rsblt	r8, r8, #0	@ tmp6954, tmp6953
	cmp	lr, #0	@ tmp6946,
	rsblt	lr, lr, #0	@ tmp6947, tmp6946
	ldrb	r0, [r4, #1815]	@ zero_extendqisi2	@ <variable>.Pix, <variable>.Pix
	cmp	r8, #2	@ tmp6954,
	movle	r1, #0	@, tmp6956
	movgt	r1, #1	@, tmp6956
	ldrb	r3, [sp, #27]	@ zero_extendqisi2	@ SmpPat.Pix, SmpPat.Pix
	rsb	r8, ip, sl	@ tmp6960, SmpPat.Pix, <variable>.Pix
	cmp	lr, #2	@ tmp6947,
	addgt	r1, r1, #1	@,, MisCnt.5143, tmp6956
	cmp	r8, #0	@ tmp6960,
	rsb	sl, r3, r0	@ tmp6967, SmpPat.Pix, <variable>.Pix
	ldrb	r2, [sp, #28]	@ zero_extendqisi2	@ SmpPat.Pix, SmpPat.Pix
	rsblt	r8, r8, #0	@ tmp6961, tmp6960
	ldrb	ip, [r4, #1816]	@ zero_extendqisi2	@ <variable>.Pix, <variable>.Pix
	cmp	r8, #2	@ tmp6961,
	movle	r8, r1	@, MisCnt.5151, MisCnt.5143
	addgt	r8, r1, #1	@,, MisCnt.5151, MisCnt.5143
	cmp	sl, #0	@ tmp6967,
	ldrb	r0, [r4, #1817]	@ zero_extendqisi2	@ <variable>.Pix, <variable>.Pix
	rsb	ip, r2, ip	@ tmp6974, SmpPat.Pix, <variable>.Pix
	rsblt	sl, sl, #0	@ tmp6968, tmp6967
	ldrb	r1, [sp, #29]	@ zero_extendqisi2	@ SmpPat.Pix, SmpPat.Pix
	cmp	sl, #2	@ tmp6968,
	movle	r3, r8	@, MisCnt.5159, MisCnt.5151
	addgt	r3, r8, #1	@,, MisCnt.5159, MisCnt.5151
	cmp	ip, #0	@ tmp6974,
	ldrb	lr, [r4, #1818]	@ zero_extendqisi2	@ <variable>.Pix, <variable>.Pix
	rsb	sl, r1, r0	@ tmp6981, SmpPat.Pix, <variable>.Pix
	rsblt	ip, ip, #0	@ tmp6975, tmp6974
	ldrb	r2, [sp, #30]	@ zero_extendqisi2	@ SmpPat.Pix, SmpPat.Pix
	cmp	ip, #2	@ tmp6975,
	movle	ip, r3	@, MisCnt.5167, MisCnt.5159
	addgt	ip, r3, #1	@,, MisCnt.5167, MisCnt.5159
	cmp	sl, #0	@ tmp6981,
	ldrb	r0, [r4, #1819]	@ zero_extendqisi2	@ <variable>.Pix, <variable>.Pix
	rsblt	sl, sl, #0	@ tmp6982, tmp6981
	rsb	r8, r2, lr	@ tmp6988, SmpPat.Pix, <variable>.Pix
	ldrb	r3, [sp, #31]	@ zero_extendqisi2	@ SmpPat.Pix, SmpPat.Pix
	cmp	sl, #2	@ tmp6982,
	movle	r1, ip	@, MisCnt.5175, MisCnt.5167
	addgt	r1, ip, #1	@,, MisCnt.5175, MisCnt.5167
	cmp	r8, #0	@ tmp6988,
	rsb	sl, r3, r0	@ tmp6995, SmpPat.Pix, <variable>.Pix
	rsblt	r8, r8, #0	@ tmp6989, tmp6988
	cmp	r8, #2	@ tmp6989,
	movle	ip, r1	@, MisCnt.5183, MisCnt.5175
	addgt	ip, r1, #1	@,, MisCnt.5183, MisCnt.5175
	cmp	sl, #0	@ tmp6995,
	rsblt	sl, sl, #0	@ tmp6996, tmp6995
	cmp	sl, #2	@ tmp6996,
	movle	r0, ip	@, tmp6999, MisCnt.5183
	addgt	r0, ip, #1	@,, tmp6999, MisCnt.5183
	cmp	r0, #2	@ tmp6999,
	bgt	.L41	@,
	ldr	ip, [r6, #1820]	@ <variable>.Comp, <variable>.Comp
	mov	r0, r7	@, tmp12189
	ldr	r8, [r6, #1824]	@ <variable>.Px, <variable>.Px
	mov	r1, r5	@, pDetPara
	ldr	lr, [r6, #1828]	@ <variable>.Py, <variable>.Py
	str	ip, [sp, #12]	@ <variable>.Comp, SmpPat.Comp
	str	r8, [sp, #16]	@ <variable>.Px, SmpPat.Px
	str	lr, [sp, #20]	@ <variable>.Py, SmpPat.Py
	bl	GetSample	@
	ldrb	r1, [r6, #1833]	@ zero_extendqisi2	@ <variable>.Pix, <variable>.Pix
	ldrb	r2, [sp, #25]	@ zero_extendqisi2	@ SmpPat.Pix, SmpPat.Pix
	ldrb	r0, [r6, #1832]	@ zero_extendqisi2	@ <variable>.Pix, <variable>.Pix
	ldrb	r3, [sp, #24]	@ zero_extendqisi2	@ SmpPat.Pix, SmpPat.Pix
	rsb	sl, r2, r1	@ tmp7017, SmpPat.Pix, <variable>.Pix
	cmp	sl, #0	@ tmp7017,
	ldrb	r8, [r6, #1834]	@ zero_extendqisi2	@ <variable>.Pix, <variable>.Pix
	rsb	lr, r3, r0	@ tmp7010, SmpPat.Pix, <variable>.Pix
	ldrb	ip, [sp, #26]	@ zero_extendqisi2	@ SmpPat.Pix, SmpPat.Pix
	rsblt	sl, sl, #0	@ tmp7018, tmp7017
	cmp	lr, #0	@ tmp7010,
	rsblt	lr, lr, #0	@ tmp7011, tmp7010
	ldrb	r0, [r6, #1835]	@ zero_extendqisi2	@ <variable>.Pix, <variable>.Pix
	cmp	sl, #2	@ tmp7018,
	movle	r1, #0	@, tmp7020
	movgt	r1, #1	@, tmp7020
	ldrb	r3, [sp, #27]	@ zero_extendqisi2	@ SmpPat.Pix, SmpPat.Pix
	rsb	sl, ip, r8	@ tmp7024, SmpPat.Pix, <variable>.Pix
	cmp	lr, #2	@ tmp7011,
	addgt	r1, r1, #1	@,, MisCnt.5209, tmp7020
	cmp	sl, #0	@ tmp7024,
	rsb	r3, r3, r0	@ tmp7031, SmpPat.Pix, <variable>.Pix
	rsblt	sl, sl, #0	@ tmp7025, tmp7024
	ldrb	ip, [r6, #1836]	@ zero_extendqisi2	@ <variable>.Pix, <variable>.Pix
	ldrb	r2, [sp, #28]	@ zero_extendqisi2	@ SmpPat.Pix, SmpPat.Pix
	cmp	sl, #2	@ tmp7025,
	movle	r8, r1	@, MisCnt.5217, MisCnt.5209
	addgt	r8, r1, #1	@,, MisCnt.5217, MisCnt.5209
	cmp	r3, #0	@ tmp7031,
	ldrb	r0, [r6, #1837]	@ zero_extendqisi2	@ <variable>.Pix, <variable>.Pix
	rsb	sl, r2, ip	@ tmp7038, SmpPat.Pix, <variable>.Pix
	rsblt	r3, r3, #0	@ tmp7032, tmp7031
	ldrb	r1, [sp, #29]	@ zero_extendqisi2	@ SmpPat.Pix, SmpPat.Pix
	cmp	r3, #2	@ tmp7032,
	movle	r3, r8	@, MisCnt.5225, MisCnt.5217
	addgt	r3, r8, #1	@,, MisCnt.5225, MisCnt.5217
	cmp	sl, #0	@ tmp7038,
	ldrb	lr, [r6, #1838]	@ zero_extendqisi2	@ <variable>.Pix, <variable>.Pix
	rsb	r1, r1, r0	@ tmp7045, SmpPat.Pix, <variable>.Pix
	rsblt	sl, sl, #0	@ tmp7039, tmp7038
	ldrb	r2, [sp, #30]	@ zero_extendqisi2	@ SmpPat.Pix, SmpPat.Pix
	cmp	sl, #2	@ tmp7039,
	movle	ip, r3	@, MisCnt.5233, MisCnt.5225
	addgt	ip, r3, #1	@,, MisCnt.5233, MisCnt.5225
	cmp	r1, #0	@ tmp7045,
	ldrb	r8, [r6, #1839]	@ zero_extendqisi2	@ <variable>.Pix, <variable>.Pix
	rsb	r2, r2, lr	@ tmp7052, SmpPat.Pix, <variable>.Pix
	rsblt	r1, r1, #0	@ tmp7046, tmp7045
	ldrb	sl, [sp, #31]	@ zero_extendqisi2	@ SmpPat.Pix, SmpPat.Pix
	cmp	r1, #2	@ tmp7046,
	movle	r1, ip	@, MisCnt.5241, MisCnt.5233
	addgt	r1, ip, #1	@,, MisCnt.5241, MisCnt.5233
	cmp	r2, #0	@ tmp7052,
	rsb	r3, sl, r8	@ tmp7059, SmpPat.Pix, <variable>.Pix
	rsblt	r2, r2, #0	@ tmp7053, tmp7052
	cmp	r2, #2	@ tmp7053,
	movle	r0, r1	@, MisCnt.5249, MisCnt.5241
	addgt	r0, r1, #1	@,, MisCnt.5249, MisCnt.5241
	cmp	r3, #0	@ tmp7059,
	rsblt	r3, r3, #0	@ tmp7060, tmp7059
	cmp	r3, #2	@ tmp7060,
	movle	r8, r0	@, tmp7063, MisCnt.5249
	addgt	r8, r0, #1	@,, tmp7063, MisCnt.5249
	cmp	r8, #2	@ tmp7063,
	bgt	.L41	@,
	ldr	r3, [r6, #1840]	@ <variable>.Comp, <variable>.Comp
	mov	r0, r7	@, tmp12189
	ldr	r2, [r6, #1844]	@ <variable>.Px, <variable>.Px
	mov	r1, r5	@, pDetPara
	ldr	lr, [r6, #1848]	@ <variable>.Py, <variable>.Py
	str	r3, [sp, #12]	@ <variable>.Comp, SmpPat.Comp
	str	r2, [sp, #16]	@ <variable>.Px, SmpPat.Px
	str	lr, [sp, #20]	@ <variable>.Py, SmpPat.Py
	bl	GetSample	@
	ldrb	ip, [r6, #1853]	@ zero_extendqisi2	@ <variable>.Pix, <variable>.Pix
	ldrb	r8, [sp, #25]	@ zero_extendqisi2	@ SmpPat.Pix, SmpPat.Pix
	ldrb	sl, [r6, #1852]	@ zero_extendqisi2	@ <variable>.Pix, <variable>.Pix
	ldrb	r1, [sp, #24]	@ zero_extendqisi2	@ SmpPat.Pix, SmpPat.Pix
	rsb	r3, r8, ip	@ tmp7081, SmpPat.Pix, <variable>.Pix
	cmp	r3, #0	@ tmp7081,
	ldrb	r2, [sp, #26]	@ zero_extendqisi2	@ SmpPat.Pix, SmpPat.Pix
	rsb	lr, r1, sl	@ tmp7074, SmpPat.Pix, <variable>.Pix
	ldrb	r0, [r6, #1854]	@ zero_extendqisi2	@ <variable>.Pix, <variable>.Pix
	rsblt	r3, r3, #0	@ tmp7082, tmp7081
	cmp	lr, #0	@ tmp7074,
	rsb	r0, r2, r0	@ tmp7088, SmpPat.Pix, <variable>.Pix
	rsblt	lr, lr, #0	@ tmp7075, tmp7074
	ldrb	ip, [sp, #27]	@ zero_extendqisi2	@ SmpPat.Pix, SmpPat.Pix
	cmp	r3, #2	@ tmp7082,
	movle	sl, #0	@, tmp7084
	movgt	sl, #1	@, tmp7084
	ldrb	r8, [r6, #1855]	@ zero_extendqisi2	@ <variable>.Pix, <variable>.Pix
	cmp	lr, #2	@ tmp7075,
	addgt	sl, sl, #1	@,, MisCnt.5275, tmp7084
	cmp	r0, #0	@ tmp7088,
	ldrb	r1, [r6, #1856]	@ zero_extendqisi2	@ <variable>.Pix, <variable>.Pix
	rsb	r8, ip, r8	@ tmp7095, SmpPat.Pix, <variable>.Pix
	rsblt	r0, r0, #0	@ tmp7089, tmp7088
	ldrb	r2, [sp, #28]	@ zero_extendqisi2	@ SmpPat.Pix, SmpPat.Pix
	cmp	r0, #2	@ tmp7089,
	addgt	sl, sl, #1	@,, MisCnt.5283, MisCnt.5275
	cmp	r8, #0	@ tmp7095,
	ldrb	r0, [sp, #29]	@ zero_extendqisi2	@ SmpPat.Pix, SmpPat.Pix
	rsb	r2, r2, r1	@ tmp7102, SmpPat.Pix, <variable>.Pix
	rsblt	r8, r8, #0	@ tmp7096, tmp7095
	ldrb	ip, [r6, #1857]	@ zero_extendqisi2	@ <variable>.Pix, <variable>.Pix
	cmp	r8, #2	@ tmp7096,
	addgt	sl, sl, #1	@,, MisCnt.5291, MisCnt.5283
	cmp	r2, #0	@ tmp7102,
	ldrb	lr, [r6, #1858]	@ zero_extendqisi2	@ <variable>.Pix, <variable>.Pix
	rsb	ip, r0, ip	@ tmp7109, SmpPat.Pix, <variable>.Pix
	rsblt	r2, r2, #0	@ tmp7103, tmp7102
	ldrb	r1, [sp, #30]	@ zero_extendqisi2	@ SmpPat.Pix, SmpPat.Pix
	cmp	r2, #2	@ tmp7103,
	addgt	sl, sl, #1	@,, MisCnt.5299, MisCnt.5291
	cmp	ip, #0	@ tmp7109,
	ldrb	r0, [r6, #1859]	@ zero_extendqisi2	@ <variable>.Pix, <variable>.Pix
	rsb	r1, r1, lr	@ tmp7116, SmpPat.Pix, <variable>.Pix
	rsblt	ip, ip, #0	@ tmp7110, tmp7109
	ldrb	r8, [sp, #31]	@ zero_extendqisi2	@ SmpPat.Pix, SmpPat.Pix
	cmp	ip, #2	@ tmp7110,
	addgt	sl, sl, #1	@,, MisCnt.5307, MisCnt.5299
	cmp	r1, #0	@ tmp7116,
	rsb	r2, r8, r0	@ tmp7123, SmpPat.Pix, <variable>.Pix
	rsblt	r1, r1, #0	@ tmp7117, tmp7116
	cmp	r1, #2	@ tmp7117,
	addgt	sl, sl, #1	@,, MisCnt.5315, MisCnt.5307
	cmp	r2, #0	@ tmp7123,
	rsblt	r2, r2, #0	@ tmp7124, tmp7123
	cmp	r2, #2	@ tmp7124,
	addgt	sl, sl, #1	@,, tmp7127, MisCnt.5315
	cmp	sl, #2	@ tmp7127,
	bgt	.L41	@,
	ldr	r3, [r6, #1860]	@ <variable>.Comp, <variable>.Comp
	mov	r0, r7	@, tmp12189
	ldr	r2, [r6, #1864]	@ <variable>.Px, <variable>.Px
	mov	r1, r5	@, pDetPara
	ldr	lr, [r6, #1868]	@ <variable>.Py, <variable>.Py
	str	r3, [sp, #12]	@ <variable>.Comp, SmpPat.Comp
	str	r2, [sp, #16]	@ <variable>.Px, SmpPat.Px
	str	lr, [sp, #20]	@ <variable>.Py, SmpPat.Py
	bl	GetSample	@
	ldrb	ip, [r6, #1873]	@ zero_extendqisi2	@ <variable>.Pix, <variable>.Pix
	ldrb	r8, [sp, #25]	@ zero_extendqisi2	@ SmpPat.Pix, SmpPat.Pix
	ldrb	sl, [r6, #1872]	@ zero_extendqisi2	@ <variable>.Pix, <variable>.Pix
	ldrb	r1, [sp, #24]	@ zero_extendqisi2	@ SmpPat.Pix, SmpPat.Pix
	rsb	r3, r8, ip	@ tmp7145, SmpPat.Pix, <variable>.Pix
	cmp	r3, #0	@ tmp7145,
	ldrb	r2, [sp, #26]	@ zero_extendqisi2	@ SmpPat.Pix, SmpPat.Pix
	rsb	lr, r1, sl	@ tmp7138, SmpPat.Pix, <variable>.Pix
	ldrb	r0, [r6, #1874]	@ zero_extendqisi2	@ <variable>.Pix, <variable>.Pix
	rsblt	r3, r3, #0	@ tmp7146, tmp7145
	cmp	lr, #0	@ tmp7138,
	rsb	r0, r2, r0	@ tmp7152, SmpPat.Pix, <variable>.Pix
	rsblt	lr, lr, #0	@ tmp7139, tmp7138
	ldrb	ip, [sp, #27]	@ zero_extendqisi2	@ SmpPat.Pix, SmpPat.Pix
	cmp	r3, #2	@ tmp7146,
	movle	sl, #0	@, tmp7148
	movgt	sl, #1	@, tmp7148
	ldrb	r8, [r6, #1875]	@ zero_extendqisi2	@ <variable>.Pix, <variable>.Pix
	cmp	lr, #2	@ tmp7139,
	addgt	sl, sl, #1	@,, MisCnt.5341, tmp7148
	cmp	r0, #0	@ tmp7152,
	ldrb	r1, [r6, #1876]	@ zero_extendqisi2	@ <variable>.Pix, <variable>.Pix
	rsb	r8, ip, r8	@ tmp7159, SmpPat.Pix, <variable>.Pix
	rsblt	r0, r0, #0	@ tmp7153, tmp7152
	ldrb	r2, [sp, #28]	@ zero_extendqisi2	@ SmpPat.Pix, SmpPat.Pix
	cmp	r0, #2	@ tmp7153,
	addgt	sl, sl, #1	@,, MisCnt.5349, MisCnt.5341
	cmp	r8, #0	@ tmp7159,
	ldrb	r0, [sp, #29]	@ zero_extendqisi2	@ SmpPat.Pix, SmpPat.Pix
	rsb	r2, r2, r1	@ tmp7166, SmpPat.Pix, <variable>.Pix
	rsblt	r8, r8, #0	@ tmp7160, tmp7159
	ldrb	ip, [r6, #1877]	@ zero_extendqisi2	@ <variable>.Pix, <variable>.Pix
	cmp	r8, #2	@ tmp7160,
	addgt	sl, sl, #1	@,, MisCnt.5357, MisCnt.5349
	cmp	r2, #0	@ tmp7166,
	ldrb	lr, [r6, #1878]	@ zero_extendqisi2	@ <variable>.Pix, <variable>.Pix
	rsb	ip, r0, ip	@ tmp7173, SmpPat.Pix, <variable>.Pix
	rsblt	r2, r2, #0	@ tmp7167, tmp7166
	ldrb	r1, [sp, #30]	@ zero_extendqisi2	@ SmpPat.Pix, SmpPat.Pix
	cmp	r2, #2	@ tmp7167,
	addgt	sl, sl, #1	@,, MisCnt.5365, MisCnt.5357
	cmp	ip, #0	@ tmp7173,
	ldrb	r0, [r6, #1879]	@ zero_extendqisi2	@ <variable>.Pix, <variable>.Pix
	rsb	r1, r1, lr	@ tmp7180, SmpPat.Pix, <variable>.Pix
	rsblt	ip, ip, #0	@ tmp7174, tmp7173
	ldrb	r2, [sp, #31]	@ zero_extendqisi2	@ SmpPat.Pix, SmpPat.Pix
	cmp	ip, #2	@ tmp7174,
	addgt	sl, sl, #1	@,, MisCnt.5373, MisCnt.5365
	cmp	r1, #0	@ tmp7180,
	rsb	r8, r2, r0	@ tmp7187, SmpPat.Pix, <variable>.Pix
	rsblt	r1, r1, #0	@ tmp7181, tmp7180
	cmp	r1, #2	@ tmp7181,
	addgt	sl, sl, #1	@,, MisCnt.5381, MisCnt.5373
	cmp	r8, #0	@ tmp7187,
	rsblt	r8, r8, #0	@ tmp7188, tmp7187
	cmp	r8, #2	@ tmp7188,
	addgt	sl, sl, #1	@,, tmp7191, MisCnt.5381
	cmp	sl, #2	@ tmp7191,
	bgt	.L41	@,
	ldr	r3, [r6, #1880]	@ <variable>.Comp, <variable>.Comp
	mov	r0, r7	@, tmp12189
	ldr	r2, [r6, #1884]	@ <variable>.Px, <variable>.Px
	mov	r1, r5	@, pDetPara
	ldr	lr, [r6, #1888]	@ <variable>.Py, <variable>.Py
	str	r3, [sp, #12]	@ <variable>.Comp, SmpPat.Comp
	str	r2, [sp, #16]	@ <variable>.Px, SmpPat.Px
	str	lr, [sp, #20]	@ <variable>.Py, SmpPat.Py
	bl	GetSample	@
	ldrb	r8, [r6, #1893]	@ zero_extendqisi2	@ <variable>.Pix, <variable>.Pix
	ldrb	ip, [sp, #25]	@ zero_extendqisi2	@ SmpPat.Pix, SmpPat.Pix
	ldrb	sl, [r6, #1892]	@ zero_extendqisi2	@ <variable>.Pix, <variable>.Pix
	ldrb	r1, [sp, #24]	@ zero_extendqisi2	@ SmpPat.Pix, SmpPat.Pix
	rsb	r3, ip, r8	@ tmp7209, SmpPat.Pix, <variable>.Pix
	cmp	r3, #0	@ tmp7209,
	ldrb	r2, [sp, #26]	@ zero_extendqisi2	@ SmpPat.Pix, SmpPat.Pix
	rsb	r8, r1, sl	@ tmp7202, SmpPat.Pix, <variable>.Pix
	ldrb	r0, [r6, #1894]	@ zero_extendqisi2	@ <variable>.Pix, <variable>.Pix
	rsblt	r3, r3, #0	@ tmp7210, tmp7209
	cmp	r8, #0	@ tmp7202,
	rsb	r0, r2, r0	@ tmp7216, SmpPat.Pix, <variable>.Pix
	rsblt	r8, r8, #0	@ tmp7203, tmp7202
	ldrb	ip, [sp, #27]	@ zero_extendqisi2	@ SmpPat.Pix, SmpPat.Pix
	cmp	r3, #2	@ tmp7210,
	movle	r3, #0	@, tmp7212
	movgt	r3, #1	@, tmp7212
	ldrb	sl, [r6, #1895]	@ zero_extendqisi2	@ <variable>.Pix, <variable>.Pix
	cmp	r8, #2	@ tmp7203,
	addgt	r3, r3, #1	@,, MisCnt.1728, tmp7212
	cmp	r0, #0	@ tmp7216,
	ldrb	r1, [r6, #1896]	@ zero_extendqisi2	@ <variable>.Pix, <variable>.Pix
	rsb	sl, ip, sl	@ tmp7223, SmpPat.Pix, <variable>.Pix
	rsblt	r0, r0, #0	@ tmp7217, tmp7216
	ldrb	r2, [sp, #28]	@ zero_extendqisi2	@ SmpPat.Pix, SmpPat.Pix
	cmp	r0, #2	@ tmp7217,
	addgt	r3, r3, #1	@,, MisCnt.1736, MisCnt.1728
	cmp	sl, #0	@ tmp7223,
	ldrb	r0, [sp, #29]	@ zero_extendqisi2	@ SmpPat.Pix, SmpPat.Pix
	rsb	r2, r2, r1	@ tmp7230, SmpPat.Pix, <variable>.Pix
	rsblt	sl, sl, #0	@ tmp7224, tmp7223
	ldrb	ip, [r6, #1897]	@ zero_extendqisi2	@ <variable>.Pix, <variable>.Pix
	cmp	sl, #2	@ tmp7224,
	addgt	r3, r3, #1	@,, MisCnt.1747, MisCnt.1736
	cmp	r2, #0	@ tmp7230,
	ldrb	r8, [r6, #1898]	@ zero_extendqisi2	@ <variable>.Pix, <variable>.Pix
	rsb	ip, r0, ip	@ tmp7237, SmpPat.Pix, <variable>.Pix
	rsblt	r2, r2, #0	@ tmp7231, tmp7230
	ldrb	r1, [sp, #30]	@ zero_extendqisi2	@ SmpPat.Pix, SmpPat.Pix
	cmp	r2, #2	@ tmp7231,
	addgt	r3, r3, #1	@,, MisCnt.1758, MisCnt.1747
	cmp	ip, #0	@ tmp7237,
	ldrb	r0, [r6, #1899]	@ zero_extendqisi2	@ <variable>.Pix, <variable>.Pix
	rsblt	ip, ip, #0	@ tmp7238, tmp7237
	rsb	r1, r1, r8	@ tmp7244, SmpPat.Pix, <variable>.Pix
	ldrb	r2, [sp, #31]	@ zero_extendqisi2	@ SmpPat.Pix, SmpPat.Pix
	cmp	ip, #2	@ tmp7238,
	addgt	r3, r3, #1	@,, MisCnt.1768, MisCnt.1758
	cmp	r1, #0	@ tmp7244,
	rsb	ip, r2, r0	@ tmp7251, SmpPat.Pix, <variable>.Pix
	rsblt	r1, r1, #0	@ tmp7245, tmp7244
	cmp	r1, #2	@ tmp7245,
	addgt	r3, r3, #1	@,, MisCnt.1776, MisCnt.1768
	cmp	ip, #0	@ tmp7251,
	rsblt	ip, ip, #0	@ tmp7252, tmp7251
	cmp	ip, #2	@ tmp7252,
	addgt	r3, r3, #1	@,, tmp7255, MisCnt.1776
	cmp	r3, #2	@ tmp7255,
	movle	r0, #21	@ Result,
	ble	.L13	@,
.L41:
	ldr	ip, [r4, #1900]	@ <variable>.Comp, <variable>.Comp
	mov	r0, r7	@, tmp12189
	ldr	sl, [r4, #1904]	@ <variable>.Px, <variable>.Px
	mov	r1, r5	@, pDetPara
	ldr	lr, [r4, #1908]	@ <variable>.Py, <variable>.Py
	movw	r6, #:lower16:.LANCHOR0	@ tmp7256,
	str	ip, [sp, #12]	@ <variable>.Comp, SmpPat.Comp
	movt	r6, #:upper16:.LANCHOR0	@ tmp7256,
	str	sl, [sp, #16]	@ <variable>.Px, SmpPat.Px
	str	lr, [sp, #20]	@ <variable>.Py, SmpPat.Py
	bl	GetSample	@
	ldrb	r1, [r4, #1913]	@ zero_extendqisi2	@ <variable>.Pix, <variable>.Pix
	ldrb	r2, [sp, #25]	@ zero_extendqisi2	@ SmpPat.Pix, SmpPat.Pix
	ldrb	r0, [r4, #1912]	@ zero_extendqisi2	@ <variable>.Pix, <variable>.Pix
	ldrb	r3, [sp, #24]	@ zero_extendqisi2	@ SmpPat.Pix, SmpPat.Pix
	rsb	r8, r2, r1	@ tmp7273, SmpPat.Pix, <variable>.Pix
	cmp	r8, #0	@ tmp7273,
	ldrb	sl, [r4, #1914]	@ zero_extendqisi2	@ <variable>.Pix, <variable>.Pix
	rsb	lr, r3, r0	@ tmp7266, SmpPat.Pix, <variable>.Pix
	ldrb	ip, [sp, #26]	@ zero_extendqisi2	@ SmpPat.Pix, SmpPat.Pix
	rsblt	r8, r8, #0	@ tmp7274, tmp7273
	cmp	lr, #0	@ tmp7266,
	rsblt	lr, lr, #0	@ tmp7267, tmp7266
	ldrb	r0, [r4, #1915]	@ zero_extendqisi2	@ <variable>.Pix, <variable>.Pix
	cmp	r8, #2	@ tmp7274,
	movle	r1, #0	@, tmp7276
	movgt	r1, #1	@, tmp7276
	ldrb	r3, [sp, #27]	@ zero_extendqisi2	@ SmpPat.Pix, SmpPat.Pix
	rsb	r8, ip, sl	@ tmp7280, SmpPat.Pix, <variable>.Pix
	cmp	lr, #2	@ tmp7267,
	addgt	r1, r1, #1	@,, MisCnt.5407, tmp7276
	cmp	r8, #0	@ tmp7280,
	rsb	sl, r3, r0	@ tmp7287, SmpPat.Pix, <variable>.Pix
	ldrb	r2, [sp, #28]	@ zero_extendqisi2	@ SmpPat.Pix, SmpPat.Pix
	rsblt	r8, r8, #0	@ tmp7281, tmp7280
	ldrb	ip, [r4, #1916]	@ zero_extendqisi2	@ <variable>.Pix, <variable>.Pix
	cmp	r8, #2	@ tmp7281,
	movle	r8, r1	@, MisCnt.5415, MisCnt.5407
	addgt	r8, r1, #1	@,, MisCnt.5415, MisCnt.5407
	cmp	sl, #0	@ tmp7287,
	ldrb	r0, [r4, #1917]	@ zero_extendqisi2	@ <variable>.Pix, <variable>.Pix
	rsb	ip, r2, ip	@ tmp7294, SmpPat.Pix, <variable>.Pix
	rsblt	sl, sl, #0	@ tmp7288, tmp7287
	ldrb	r1, [sp, #29]	@ zero_extendqisi2	@ SmpPat.Pix, SmpPat.Pix
	cmp	sl, #2	@ tmp7288,
	movle	r3, r8	@, MisCnt.5423, MisCnt.5415
	addgt	r3, r8, #1	@,, MisCnt.5423, MisCnt.5415
	cmp	ip, #0	@ tmp7294,
	ldrb	lr, [r4, #1918]	@ zero_extendqisi2	@ <variable>.Pix, <variable>.Pix
	rsb	sl, r1, r0	@ tmp7301, SmpPat.Pix, <variable>.Pix
	rsblt	ip, ip, #0	@ tmp7295, tmp7294
	ldrb	r2, [sp, #30]	@ zero_extendqisi2	@ SmpPat.Pix, SmpPat.Pix
	cmp	ip, #2	@ tmp7295,
	movle	ip, r3	@, MisCnt.5431, MisCnt.5423
	addgt	ip, r3, #1	@,, MisCnt.5431, MisCnt.5423
	cmp	sl, #0	@ tmp7301,
	ldrb	r0, [r4, #1919]	@ zero_extendqisi2	@ <variable>.Pix, <variable>.Pix
	rsblt	sl, sl, #0	@ tmp7302, tmp7301
	rsb	r8, r2, lr	@ tmp7308, SmpPat.Pix, <variable>.Pix
	ldrb	r3, [sp, #31]	@ zero_extendqisi2	@ SmpPat.Pix, SmpPat.Pix
	cmp	sl, #2	@ tmp7302,
	movle	r1, ip	@, MisCnt.5439, MisCnt.5431
	addgt	r1, ip, #1	@,, MisCnt.5439, MisCnt.5431
	cmp	r8, #0	@ tmp7308,
	rsb	sl, r3, r0	@ tmp7315, SmpPat.Pix, <variable>.Pix
	rsblt	r8, r8, #0	@ tmp7309, tmp7308
	cmp	r8, #2	@ tmp7309,
	movle	ip, r1	@, MisCnt.5447, MisCnt.5439
	addgt	ip, r1, #1	@,, MisCnt.5447, MisCnt.5439
	cmp	sl, #0	@ tmp7315,
	rsblt	sl, sl, #0	@ tmp7316, tmp7315
	cmp	sl, #2	@ tmp7316,
	movle	r0, ip	@, tmp7319, MisCnt.5447
	addgt	r0, ip, #1	@,, tmp7319, MisCnt.5447
	cmp	r0, #2	@ tmp7319,
	bgt	.L42	@,
	ldr	r2, [r6, #1920]	@ <variable>.Comp, <variable>.Comp
	mov	r0, r7	@, tmp12189
	ldr	sl, [r6, #1924]	@ <variable>.Px, <variable>.Px
	mov	r1, r5	@, pDetPara
	ldr	lr, [r6, #1928]	@ <variable>.Py, <variable>.Py
	str	r2, [sp, #12]	@ <variable>.Comp, SmpPat.Comp
	str	sl, [sp, #16]	@ <variable>.Px, SmpPat.Px
	str	lr, [sp, #20]	@ <variable>.Py, SmpPat.Py
	bl	GetSample	@
	ldrb	ip, [r6, #1933]	@ zero_extendqisi2	@ <variable>.Pix, <variable>.Pix
	ldrb	r8, [sp, #25]	@ zero_extendqisi2	@ SmpPat.Pix, SmpPat.Pix
	ldrb	r0, [r6, #1932]	@ zero_extendqisi2	@ <variable>.Pix, <variable>.Pix
	ldrb	r1, [sp, #24]	@ zero_extendqisi2	@ SmpPat.Pix, SmpPat.Pix
	rsb	r3, r8, ip	@ tmp7337, SmpPat.Pix, <variable>.Pix
	cmp	r3, #0	@ tmp7337,
	ldrb	sl, [r6, #1934]	@ zero_extendqisi2	@ <variable>.Pix, <variable>.Pix
	rsb	lr, r1, r0	@ tmp7330, SmpPat.Pix, <variable>.Pix
	ldrb	r2, [sp, #26]	@ zero_extendqisi2	@ SmpPat.Pix, SmpPat.Pix
	rsblt	r3, r3, #0	@ tmp7338, tmp7337
	cmp	lr, #0	@ tmp7330,
	rsb	r0, r2, sl	@ tmp7344, SmpPat.Pix, <variable>.Pix
	rsblt	lr, lr, #0	@ tmp7331, tmp7330
	ldrb	ip, [sp, #27]	@ zero_extendqisi2	@ SmpPat.Pix, SmpPat.Pix
	cmp	r3, #2	@ tmp7338,
	movle	r3, #0	@, tmp7340
	movgt	r3, #1	@, tmp7340
	ldrb	r8, [r6, #1935]	@ zero_extendqisi2	@ <variable>.Pix, <variable>.Pix
	cmp	lr, #2	@ tmp7331,
	addgt	r3, r3, #1	@,, MisCnt.5473, tmp7340
	cmp	r0, #0	@ tmp7344,
	ldrb	r1, [r6, #1936]	@ zero_extendqisi2	@ <variable>.Pix, <variable>.Pix
	rsb	r8, ip, r8	@ tmp7351, SmpPat.Pix, <variable>.Pix
	rsblt	r0, r0, #0	@ tmp7345, tmp7344
	ldrb	sl, [sp, #28]	@ zero_extendqisi2	@ SmpPat.Pix, SmpPat.Pix
	cmp	r0, #2	@ tmp7345,
	addgt	r3, r3, #1	@,, MisCnt.5481, MisCnt.5473
	cmp	r8, #0	@ tmp7351,
	ldrb	r0, [sp, #29]	@ zero_extendqisi2	@ SmpPat.Pix, SmpPat.Pix
	rsb	r2, sl, r1	@ tmp7358, SmpPat.Pix, <variable>.Pix
	rsblt	r8, r8, #0	@ tmp7352, tmp7351
	ldrb	ip, [r6, #1937]	@ zero_extendqisi2	@ <variable>.Pix, <variable>.Pix
	cmp	r8, #2	@ tmp7352,
	addgt	r3, r3, #1	@,, MisCnt.5489, MisCnt.5481
	cmp	r2, #0	@ tmp7358,
	ldrb	lr, [r6, #1938]	@ zero_extendqisi2	@ <variable>.Pix, <variable>.Pix
	rsb	sl, r0, ip	@ tmp7365, SmpPat.Pix, <variable>.Pix
	rsblt	r2, r2, #0	@ tmp7359, tmp7358
	ldrb	r1, [sp, #30]	@ zero_extendqisi2	@ SmpPat.Pix, SmpPat.Pix
	cmp	r2, #2	@ tmp7359,
	addgt	r3, r3, #1	@,, MisCnt.5497, MisCnt.5489
	cmp	sl, #0	@ tmp7365,
	ldrb	r0, [r6, #1939]	@ zero_extendqisi2	@ <variable>.Pix, <variable>.Pix
	rsb	r1, r1, lr	@ tmp7372, SmpPat.Pix, <variable>.Pix
	rsblt	sl, sl, #0	@ tmp7366, tmp7365
	ldrb	r2, [sp, #31]	@ zero_extendqisi2	@ SmpPat.Pix, SmpPat.Pix
	cmp	sl, #2	@ tmp7366,
	addgt	r3, r3, #1	@,, MisCnt.5505, MisCnt.5497
	cmp	r1, #0	@ tmp7372,
	rsb	r8, r2, r0	@ tmp7379, SmpPat.Pix, <variable>.Pix
	rsblt	r1, r1, #0	@ tmp7373, tmp7372
	cmp	r1, #2	@ tmp7373,
	addgt	r3, r3, #1	@,, MisCnt.5513, MisCnt.5505
	cmp	r8, #0	@ tmp7379,
	rsblt	r8, r8, #0	@ tmp7380, tmp7379
	cmp	r8, #2	@ tmp7380,
	addgt	r3, r3, #1	@,, tmp7383, MisCnt.5513
	cmp	r3, #2	@ tmp7383,
	bgt	.L42	@,
	ldr	r2, [r6, #1940]	@ <variable>.Comp, <variable>.Comp
	mov	r0, r7	@, tmp12189
	ldr	r8, [r6, #1944]	@ <variable>.Px, <variable>.Px
	mov	r1, r5	@, pDetPara
	ldr	lr, [r6, #1948]	@ <variable>.Py, <variable>.Py
	str	r2, [sp, #12]	@ <variable>.Comp, SmpPat.Comp
	str	r8, [sp, #16]	@ <variable>.Px, SmpPat.Px
	str	lr, [sp, #20]	@ <variable>.Py, SmpPat.Py
	bl	GetSample	@
	ldrb	ip, [r6, #1953]	@ zero_extendqisi2	@ <variable>.Pix, <variable>.Pix
	ldrb	sl, [sp, #25]	@ zero_extendqisi2	@ SmpPat.Pix, SmpPat.Pix
	ldrb	r0, [r6, #1952]	@ zero_extendqisi2	@ <variable>.Pix, <variable>.Pix
	ldrb	r1, [sp, #24]	@ zero_extendqisi2	@ SmpPat.Pix, SmpPat.Pix
	rsb	r3, sl, ip	@ tmp7401, SmpPat.Pix, <variable>.Pix
	cmp	r3, #0	@ tmp7401,
	ldrb	r8, [r6, #1954]	@ zero_extendqisi2	@ <variable>.Pix, <variable>.Pix
	rsb	lr, r1, r0	@ tmp7394, SmpPat.Pix, <variable>.Pix
	ldrb	r2, [sp, #26]	@ zero_extendqisi2	@ SmpPat.Pix, SmpPat.Pix
	rsblt	r3, r3, #0	@ tmp7402, tmp7401
	cmp	lr, #0	@ tmp7394,
	rsb	r0, r2, r8	@ tmp7408, SmpPat.Pix, <variable>.Pix
	rsblt	lr, lr, #0	@ tmp7395, tmp7394
	ldrb	sl, [r6, #1955]	@ zero_extendqisi2	@ <variable>.Pix, <variable>.Pix
	cmp	r3, #2	@ tmp7402,
	movle	r3, #0	@, tmp7404
	movgt	r3, #1	@, tmp7404
	ldrb	ip, [sp, #27]	@ zero_extendqisi2	@ SmpPat.Pix, SmpPat.Pix
	cmp	lr, #2	@ tmp7395,
	addgt	r3, r3, #1	@,, MisCnt.5539, tmp7404
	cmp	r0, #0	@ tmp7408,
	ldrb	r1, [r6, #1956]	@ zero_extendqisi2	@ <variable>.Pix, <variable>.Pix
	rsb	r8, ip, sl	@ tmp7415, SmpPat.Pix, <variable>.Pix
	rsblt	r0, r0, #0	@ tmp7409, tmp7408
	ldrb	r2, [sp, #28]	@ zero_extendqisi2	@ SmpPat.Pix, SmpPat.Pix
	cmp	r0, #2	@ tmp7409,
	addgt	r3, r3, #1	@,, MisCnt.5547, MisCnt.5539
	cmp	r8, #0	@ tmp7415,
	ldrb	sl, [r6, #1957]	@ zero_extendqisi2	@ <variable>.Pix, <variable>.Pix
	rsb	r2, r2, r1	@ tmp7422, SmpPat.Pix, <variable>.Pix
	rsblt	r8, r8, #0	@ tmp7416, tmp7415
	ldrb	r0, [sp, #29]	@ zero_extendqisi2	@ SmpPat.Pix, SmpPat.Pix
	cmp	r8, #2	@ tmp7416,
	addgt	r3, r3, #1	@,, MisCnt.5555, MisCnt.5547
	cmp	r2, #0	@ tmp7422,
	ldrb	lr, [r6, #1958]	@ zero_extendqisi2	@ <variable>.Pix, <variable>.Pix
	rsb	ip, r0, sl	@ tmp7429, SmpPat.Pix, <variable>.Pix
	rsblt	r2, r2, #0	@ tmp7423, tmp7422
	ldrb	r1, [sp, #30]	@ zero_extendqisi2	@ SmpPat.Pix, SmpPat.Pix
	cmp	r2, #2	@ tmp7423,
	addgt	r3, r3, #1	@,, MisCnt.5563, MisCnt.5555
	cmp	ip, #0	@ tmp7429,
	ldrb	r0, [r6, #1959]	@ zero_extendqisi2	@ <variable>.Pix, <variable>.Pix
	rsb	r1, r1, lr	@ tmp7436, SmpPat.Pix, <variable>.Pix
	rsblt	ip, ip, #0	@ tmp7430, tmp7429
	ldrb	sl, [sp, #31]	@ zero_extendqisi2	@ SmpPat.Pix, SmpPat.Pix
	cmp	ip, #2	@ tmp7430,
	addgt	r3, r3, #1	@,, MisCnt.5571, MisCnt.5563
	cmp	r1, #0	@ tmp7436,
	rsb	r8, sl, r0	@ tmp7443, SmpPat.Pix, <variable>.Pix
	rsblt	r1, r1, #0	@ tmp7437, tmp7436
	cmp	r1, #2	@ tmp7437,
	addgt	r3, r3, #1	@,, MisCnt.5579, MisCnt.5571
	cmp	r8, #0	@ tmp7443,
	rsblt	r8, r8, #0	@ tmp7444, tmp7443
	cmp	r8, #2	@ tmp7444,
	addgt	r3, r3, #1	@,, tmp7447, MisCnt.5579
	cmp	r3, #2	@ tmp7447,
	bgt	.L42	@,
	ldr	r2, [r6, #1960]	@ <variable>.Comp, <variable>.Comp
	mov	r0, r7	@, tmp12189
	ldr	sl, [r6, #1964]	@ <variable>.Px, <variable>.Px
	mov	r1, r5	@, pDetPara
	ldr	lr, [r6, #1968]	@ <variable>.Py, <variable>.Py
	str	r2, [sp, #12]	@ <variable>.Comp, SmpPat.Comp
	str	sl, [sp, #16]	@ <variable>.Px, SmpPat.Px
	str	lr, [sp, #20]	@ <variable>.Py, SmpPat.Py
	bl	GetSample	@
	ldrb	ip, [r6, #1973]	@ zero_extendqisi2	@ <variable>.Pix, <variable>.Pix
	ldrb	r8, [sp, #25]	@ zero_extendqisi2	@ SmpPat.Pix, SmpPat.Pix
	ldrb	r0, [r6, #1972]	@ zero_extendqisi2	@ <variable>.Pix, <variable>.Pix
	ldrb	r1, [sp, #24]	@ zero_extendqisi2	@ SmpPat.Pix, SmpPat.Pix
	rsb	r3, r8, ip	@ tmp7465, SmpPat.Pix, <variable>.Pix
	cmp	r3, #0	@ tmp7465,
	ldrb	sl, [r6, #1974]	@ zero_extendqisi2	@ <variable>.Pix, <variable>.Pix
	rsb	lr, r1, r0	@ tmp7458, SmpPat.Pix, <variable>.Pix
	ldrb	r2, [sp, #26]	@ zero_extendqisi2	@ SmpPat.Pix, SmpPat.Pix
	rsblt	r3, r3, #0	@ tmp7466, tmp7465
	cmp	lr, #0	@ tmp7458,
	rsb	r0, r2, sl	@ tmp7472, SmpPat.Pix, <variable>.Pix
	rsblt	lr, lr, #0	@ tmp7459, tmp7458
	ldrb	ip, [sp, #27]	@ zero_extendqisi2	@ SmpPat.Pix, SmpPat.Pix
	cmp	r3, #2	@ tmp7466,
	movle	r3, #0	@, tmp7468
	movgt	r3, #1	@, tmp7468
	ldrb	r8, [r6, #1975]	@ zero_extendqisi2	@ <variable>.Pix, <variable>.Pix
	cmp	lr, #2	@ tmp7459,
	addgt	r3, r3, #1	@,, MisCnt.5605, tmp7468
	cmp	r0, #0	@ tmp7472,
	ldrb	r1, [r6, #1976]	@ zero_extendqisi2	@ <variable>.Pix, <variable>.Pix
	rsb	r8, ip, r8	@ tmp7479, SmpPat.Pix, <variable>.Pix
	rsblt	r0, r0, #0	@ tmp7473, tmp7472
	ldrb	sl, [sp, #28]	@ zero_extendqisi2	@ SmpPat.Pix, SmpPat.Pix
	cmp	r0, #2	@ tmp7473,
	addgt	r3, r3, #1	@,, MisCnt.5613, MisCnt.5605
	cmp	r8, #0	@ tmp7479,
	ldrb	r0, [sp, #29]	@ zero_extendqisi2	@ SmpPat.Pix, SmpPat.Pix
	rsb	r2, sl, r1	@ tmp7486, SmpPat.Pix, <variable>.Pix
	rsblt	r8, r8, #0	@ tmp7480, tmp7479
	ldrb	ip, [r6, #1977]	@ zero_extendqisi2	@ <variable>.Pix, <variable>.Pix
	cmp	r8, #2	@ tmp7480,
	addgt	r3, r3, #1	@,, MisCnt.5621, MisCnt.5613
	cmp	r2, #0	@ tmp7486,
	ldrb	sl, [sp, #30]	@ zero_extendqisi2	@ SmpPat.Pix, SmpPat.Pix
	rsb	ip, r0, ip	@ tmp7493, SmpPat.Pix, <variable>.Pix
	rsblt	r2, r2, #0	@ tmp7487, tmp7486
	ldrb	lr, [r6, #1978]	@ zero_extendqisi2	@ <variable>.Pix, <variable>.Pix
	cmp	r2, #2	@ tmp7487,
	addgt	r3, r3, #1	@,, MisCnt.5629, MisCnt.5621
	cmp	ip, #0	@ tmp7493,
	ldrb	r0, [r6, #1979]	@ zero_extendqisi2	@ <variable>.Pix, <variable>.Pix
	rsb	r1, sl, lr	@ tmp7500, SmpPat.Pix, <variable>.Pix
	rsblt	ip, ip, #0	@ tmp7494, tmp7493
	ldrb	r8, [sp, #31]	@ zero_extendqisi2	@ SmpPat.Pix, SmpPat.Pix
	cmp	ip, #2	@ tmp7494,
	addgt	r3, r3, #1	@,, MisCnt.5637, MisCnt.5629
	cmp	r1, #0	@ tmp7500,
	rsb	sl, r8, r0	@ tmp7507, SmpPat.Pix, <variable>.Pix
	rsblt	r1, r1, #0	@ tmp7501, tmp7500
	cmp	r1, #2	@ tmp7501,
	addgt	r3, r3, #1	@,, MisCnt.5645, MisCnt.5637
	cmp	sl, #0	@ tmp7507,
	rsblt	sl, sl, #0	@ tmp7508, tmp7507
	cmp	sl, #2	@ tmp7508,
	addgt	r3, r3, #1	@,, tmp7511, MisCnt.5645
	cmp	r3, #2	@ tmp7511,
	bgt	.L42	@,
	ldr	r3, [r6, #1980]	@ <variable>.Comp, <variable>.Comp
	mov	r0, r7	@, tmp12189
	ldr	r2, [r6, #1984]	@ <variable>.Px, <variable>.Px
	mov	r1, r5	@, pDetPara
	ldr	lr, [r6, #1988]	@ <variable>.Py, <variable>.Py
	str	r3, [sp, #12]	@ <variable>.Comp, SmpPat.Comp
	str	r2, [sp, #16]	@ <variable>.Px, SmpPat.Px
	str	lr, [sp, #20]	@ <variable>.Py, SmpPat.Py
	bl	GetSample	@
	ldrb	r8, [r6, #1993]	@ zero_extendqisi2	@ <variable>.Pix, <variable>.Pix
	ldrb	ip, [sp, #25]	@ zero_extendqisi2	@ SmpPat.Pix, SmpPat.Pix
	ldrb	sl, [r6, #1992]	@ zero_extendqisi2	@ <variable>.Pix, <variable>.Pix
	ldrb	r1, [sp, #24]	@ zero_extendqisi2	@ SmpPat.Pix, SmpPat.Pix
	rsb	r3, ip, r8	@ tmp7529, SmpPat.Pix, <variable>.Pix
	cmp	r3, #0	@ tmp7529,
	ldrb	r2, [sp, #26]	@ zero_extendqisi2	@ SmpPat.Pix, SmpPat.Pix
	rsb	r8, r1, sl	@ tmp7522, SmpPat.Pix, <variable>.Pix
	ldrb	r0, [r6, #1994]	@ zero_extendqisi2	@ <variable>.Pix, <variable>.Pix
	rsblt	r3, r3, #0	@ tmp7530, tmp7529
	cmp	r8, #0	@ tmp7522,
	rsb	r0, r2, r0	@ tmp7536, SmpPat.Pix, <variable>.Pix
	rsblt	r8, r8, #0	@ tmp7523, tmp7522
	ldrb	ip, [sp, #27]	@ zero_extendqisi2	@ SmpPat.Pix, SmpPat.Pix
	cmp	r3, #2	@ tmp7530,
	movle	r3, #0	@, tmp7532
	movgt	r3, #1	@, tmp7532
	ldrb	sl, [r6, #1995]	@ zero_extendqisi2	@ <variable>.Pix, <variable>.Pix
	cmp	r8, #2	@ tmp7523,
	addgt	r3, r3, #1	@,, MisCnt.1796, tmp7532
	cmp	r0, #0	@ tmp7536,
	ldrb	r1, [r6, #1996]	@ zero_extendqisi2	@ <variable>.Pix, <variable>.Pix
	rsb	sl, ip, sl	@ tmp7543, SmpPat.Pix, <variable>.Pix
	rsblt	r0, r0, #0	@ tmp7537, tmp7536
	ldrb	r2, [sp, #28]	@ zero_extendqisi2	@ SmpPat.Pix, SmpPat.Pix
	cmp	r0, #2	@ tmp7537,
	addgt	r3, r3, #1	@,, MisCnt.1807, MisCnt.1796
	cmp	sl, #0	@ tmp7543,
	ldrb	r0, [sp, #29]	@ zero_extendqisi2	@ SmpPat.Pix, SmpPat.Pix
	rsb	r2, r2, r1	@ tmp7550, SmpPat.Pix, <variable>.Pix
	rsblt	sl, sl, #0	@ tmp7544, tmp7543
	ldrb	ip, [r6, #1997]	@ zero_extendqisi2	@ <variable>.Pix, <variable>.Pix
	cmp	sl, #2	@ tmp7544,
	addgt	r3, r3, #1	@,, MisCnt.1818, MisCnt.1807
	cmp	r2, #0	@ tmp7550,
	ldrb	r8, [r6, #1998]	@ zero_extendqisi2	@ <variable>.Pix, <variable>.Pix
	rsb	ip, r0, ip	@ tmp7557, SmpPat.Pix, <variable>.Pix
	rsblt	r2, r2, #0	@ tmp7551, tmp7550
	ldrb	r1, [sp, #30]	@ zero_extendqisi2	@ SmpPat.Pix, SmpPat.Pix
	cmp	r2, #2	@ tmp7551,
	addgt	r3, r3, #1	@,, MisCnt.1827, MisCnt.1818
	cmp	ip, #0	@ tmp7557,
	ldrb	r0, [r6, #1999]	@ zero_extendqisi2	@ <variable>.Pix, <variable>.Pix
	rsblt	ip, ip, #0	@ tmp7558, tmp7557
