	.arch armv7-a
	.fpu softvfp
	.eabi_attribute 20, 1
	.eabi_attribute 21, 1
	.eabi_attribute 23, 3
	.eabi_attribute 24, 1
	.eabi_attribute 25, 1
	.eabi_attribute 26, 2
	.eabi_attribute 30, 2
	.eabi_attribute 18, 4
	.file	"aoe_reg.c"
@ GNU C (Hisilicon_v200(gcc4.4-290+glibc-2.11+eabi+nptl)) version 4.4.1 (arm-hisiv200-linux-gnueabi)
@	compiled by GNU C version 4.1.1 20061011 (Red Hat 4.1.1-30), GMP version 4.3.1, MPFR version 2.4.2.
@ GGC heuristics: --param ggc-min-expand=100 --param ggc-min-heapsize=131072
@ options passed:  -nostdinc -I./arch/arm/include
@ -Iarch/arm/include/generated -Iinclude -I./arch/arm/include/uapi
@ -Iarch/arm/include/generated/uapi -I./include/uapi
@ -Iinclude/generated/uapi -Iarch/arm/mach-hi3716mv310/include
@ -I./../../../source/common/include -I./../../../source/common/api/include
@ -I./../../../source/common/drv/include -I./../../../source/msp/include
@ -I./../../../source/msp/api/include -I./../../../source/msp/drv/include
@ -I./../../../source/msp/drv/adsp/adsp_v1_1/include
@ -I./../../../source/msp/drv/adsp/adsp_v1_1/hifi/external/avc/inc
@ -I./../../../source/component/ha_codec/include -I
@ -I./../../../source/msp/drv/adsp/adsp_v1_1/include/comp
@ -I./../../../source/msp/drv/adsp/adsp_v1_1/./hifi/common/include
@ -I./../../../source/msp/drv/adsp/adsp_v1_1/./hifi/aoe/include
@ -I./../../../source/msp/drv/adsp/adsp_v1_1/./hifi/aoe/src/include
@ -I./../../../source/msp/drv/adsp/adsp_v1_1/./hifi/component/codec/iapcm_dec
@ -I./../../../source/msp/drv/adsp/adsp_v1_1/./hifi/component/codec/iamp3_dec
@ -I./../../../source/msp/drv/adsp/adsp_v1_1 -iprefix
@ /opt/hisi-linux/x86-arm/arm-hisiv200-linux/bin/../lib/gcc/arm-hisiv200-linux-gnueabi/4.4.1/
@ -isysroot /opt/hisi-linux/x86-arm/arm-hisiv200-linux/bin/../target
@ -D__KERNEL__ -D__LINUX_ARM_ARCH__=7 -Uarm -DCHIP_TYPE_hi3716mv310
@ -DSDK_VERSION=HiSTBLinuxV100R006C00SPC050 -DHI_LOG_SUPPORT=0
@ -DHI_PROC_SUPPORT=0 -DHI_PNG_DECODER_SUPPORT -DHI_KEYLED_SUPPORT
@ -DHI_HDCP_SUPPORT -DHI_SCI_SUPPORT -DHI_GPIOI2C_SUPPORT
@ -DHI_IR_S2_SUPPORT -DHI_DSC_SUPPORT -DHI_ADVCA_SUPPORT
@ -DHI_ADVCA_TYPE_CONAX -DHI_ADVCA_FUNCTION_RELEASE
@ -DHI_SND_AOE_SWSIMULATE_SUPPORT -DINTERLEAVED_OUTPUT -DHI_SND_AVC_SUPPORT
@ -DMODULE -DKBUILD_STR(s)=#s -DKBUILD_BASENAME=KBUILD_STR(aoe_reg)
@ -DKBUILD_MODNAME=KBUILD_STR(hi_adsp) -isystem
@ /opt/hisi-linux/x86-arm/arm-hisiv200-linux/bin/../lib/gcc/arm-hisiv200-linux-gnueabi/4.4.1/include
@ -include ./include/linux/kconfig.h -MD
@ /home/f00136911/v1r4/615/work/source/msp/drv/adsp/adsp_v1_1/./hifi/aoe/src/.aoe_reg.o.d
@ /home/f00136911/v1r4/615/work/source/msp/drv/adsp/adsp_v1_1/./hifi/aoe/src/aoe_reg.c
@ -mlittle-endian -mabi=aapcs-linux -mno-thumb-interwork -mfpu=vfp -marm
@ -march=armv7-a -msoft-float -auxbase-strip
@ /home/f00136911/v1r4/615/work/source/msp/drv/adsp/adsp_v1_1/./hifi/aoe/src/aoe_reg.o
@ -O2 -Wall -Wundef -Wstrict-prototypes -Wno-trigraphs
@ -Werror-implicit-function-declaration -Wno-format-security
@ -Wframe-larger-than=1024 -Wdeclaration-after-statement -Wno-pointer-sign
@ -Werror=implicit-int -Werror=strict-prototypes -std=gnu89
@ -fno-strict-aliasing -fno-common -fno-dwarf2-cfi-asm -funwind-tables
@ -fno-delete-null-pointer-checks -fstack-protector -fomit-frame-pointer
@ -fno-strict-overflow -fconserve-stack -fverbose-asm
@ options enabled:  -falign-loops -fargument-alias -fauto-inc-dec
@ -fbranch-count-reg -fcaller-saves -fcprop-registers -fcrossjumping
@ -fcse-follow-jumps -fdefer-pop -fearly-inlining
@ -feliminate-unused-debug-types -fexpensive-optimizations
@ -fforward-propagate -ffunction-cse -fgcse -fgcse-lm
@ -fguess-branch-probability -fident -fif-conversion -fif-conversion2
@ -findirect-inlining -finline -finline-functions-called-once
@ -finline-small-functions -fipa-cp -fipa-pure-const -fipa-reference
@ -fira-share-save-slots -fira-share-spill-slots -fivopts
@ -fkeep-static-consts -fleading-underscore -fmath-errno -fmerge-constants
@ -fmerge-debug-strings -fmove-loop-invariants -fomit-frame-pointer
@ -foptimize-register-move -foptimize-sibling-calls -fpeephole -fpeephole2
@ -fpromote-loop-indices -freg-struct-return -fregmove -frename-registers
@ -freorder-blocks -freorder-functions -frerun-cse-after-loop
@ -fsched-interblock -fsched-spec -fsched-stalled-insns-dep
@ -fschedule-insns -fschedule-insns2 -fsection-anchors -fsigned-zeros
@ -fsplit-ivs-in-unroller -fsplit-wide-types -fstack-protector
@ -fthread-jumps -ftoplevel-reorder -ftrapping-math -ftree-builtin-call-dce
@ -ftree-ccp -ftree-ch -ftree-copy-prop -ftree-copyrename -ftree-cselim
@ -ftree-dce -ftree-dominator-opts -ftree-dse -ftree-fre -ftree-loop-im
@ -ftree-loop-ivcanon -ftree-loop-optimize -ftree-parallelize-loops=
@ -ftree-pre -ftree-reassoc -ftree-scev-cprop -ftree-sink -ftree-sra
@ -ftree-switch-conversion -ftree-ter -ftree-vect-loop-version -ftree-vrp
@ -funit-at-a-time -funroll-loops -funwind-tables -fverbose-asm -fweb
@ -fzero-initialized-in-bss -mglibc -mlittle-endian -msched-prolog

@ Compiler executable checksum: fa59e0bd179ef45b3a3c3e6f3383fdac

	.text
	.align	2
	.global	AOE_REG_ReadBitDepth
	.type	AOE_REG_ReadBitDepth, %function
AOE_REG_ReadBitDepth:
	.fnstart
.LFB164:
	@ args = 0, pretend = 0, frame = 0
	@ frame_needed = 0, uses_anonymous_args = 0
	@ link register save eliminated.
	cmp	r1, #1	@ precision,
	moveq	r3, #16	@ tmp138,
	streq	r3, [r0, #0]	@ tmp138,* pu32BitPerSample
	moveq	r3, #0	@ D.4245,
	beq	.L6	@,
	movcc	r3, #8	@ tmp137,
	strcc	r3, [r0, #0]	@ tmp137,* pu32BitPerSample
	movcc	r3, #0	@ D.4245,
	bcs	.L10	@,
.L6:
	mov	r0, r3	@, D.4245
	bx	lr	@
.L10:
	cmp	r1, #2	@ precision,
	movne	r2, #0	@ tmp140,
	mvnne	r3, #0	@ D.4245,
	strne	r2, [r0, #0]	@ tmp140,* pu32BitPerSample
	bne	.L6	@,
	mov	r3, #24	@ tmp139,
	str	r3, [r0, #0]	@ tmp139,* pu32BitPerSample
	mov	r3, #0	@ D.4245,
	mov	r0, r3	@, D.4245
	bx	lr	@
	.fnend
	.size	AOE_REG_ReadBitDepth, .-AOE_REG_ReadBitDepth
	.align	2
	.global	AOE_REG_ReadChannel
	.type	AOE_REG_ReadChannel, %function
AOE_REG_ReadChannel:
	.fnstart
.LFB165:
	@ args = 0, pretend = 0, frame = 0
	@ frame_needed = 0, uses_anonymous_args = 0
	@ link register save eliminated.
	cmp	r1, #1	@ ch,
	moveq	r3, #2	@ tmp138,
	streq	r3, [r0, #0]	@ tmp138,* pu32Channels
	moveq	r3, #0	@ D.4255,
	beq	.L16	@,
	movcc	r3, #1	@ tmp137,
	strcc	r3, [r0, #0]	@ tmp137,* pu32Channels
	movcc	r3, #0	@ D.4255,
	bcs	.L19	@,
.L16:
	mov	r0, r3	@, D.4255
	bx	lr	@
.L19:
	cmp	r1, #3	@ ch,
	movne	r2, #0	@ tmp140,
	mvnne	r3, #0	@ D.4255,
	strne	r2, [r0, #0]	@ tmp140,* pu32Channels
	bne	.L16	@,
	mov	r3, #8	@ tmp139,
	str	r3, [r0, #0]	@ tmp139,* pu32Channels
	mov	r3, #0	@ D.4255,
	mov	r0, r3	@, D.4255
	bx	lr	@
	.fnend
	.size	AOE_REG_ReadChannel, .-AOE_REG_ReadChannel
	.align	2
	.global	AOE_REG_ReadSampelRate
	.type	AOE_REG_ReadSampelRate, %function
AOE_REG_ReadSampelRate:
	.fnstart
.LFB166:
	@ args = 0, pretend = 0, frame = 0
	@ frame_needed = 0, uses_anonymous_args = 0
	@ link register save eliminated.
	cmp	r1, #12	@ rate,
	movwls	r3, #:lower16:.LANCHOR0	@ tmp137,
	movtls	r3, #:upper16:.LANCHOR0	@ tmp137,
	mvnhi	r2, #0	@ D.4264,
	movls	r2, #0	@ D.4264,
	ldrls	r3, [r3, r1, asl #2]	@ tmp138, g_u32AoeSampleRateTab
	strls	r3, [r0, #0]	@ tmp138,* pu32SampelRate
	mov	r0, r2	@, D.4264
	bx	lr	@
	.fnend
	.size	AOE_REG_ReadSampelRate, .-AOE_REG_ReadSampelRate
	.align	2
	.global	AOE_REG_ReadDataFormat
	.type	AOE_REG_ReadDataFormat, %function
AOE_REG_ReadDataFormat:
	.fnstart
.LFB167:
	@ args = 0, pretend = 0, frame = 0
	@ frame_needed = 0, uses_anonymous_args = 0
	@ link register save eliminated.
	str	r1, [r0, #0]	@ format,* pu32DataFormat
	mov	r0, #0	@,
	bx	lr	@
	.fnend
	.size	AOE_REG_ReadDataFormat, .-AOE_REG_ReadDataFormat
	.align	2
	.global	AOE_REG_ReadBufLatencyMs
	.type	AOE_REG_ReadBufLatencyMs, %function
AOE_REG_ReadBufLatencyMs:
	.fnstart
.LFB168:
	@ args = 0, pretend = 0, frame = 0
	@ frame_needed = 0, uses_anonymous_args = 0
	@ link register save eliminated.
	str	r1, [r0, #0]	@ latency,* pu32LatencyMs
	mov	r0, #0	@,
	bx	lr	@
	.fnend
	.size	AOE_REG_ReadBufLatencyMs, .-AOE_REG_ReadBufLatencyMs
	.align	2
	.global	AOE_REG_ReadBufDelayMs
	.type	AOE_REG_ReadBufDelayMs, %function
AOE_REG_ReadBufDelayMs:
	.fnstart
.LFB169:
	@ args = 0, pretend = 0, frame = 0
	@ frame_needed = 0, uses_anonymous_args = 0
	@ link register save eliminated.
	str	r1, [r0, #0]	@ delay,* pu32DelayMs
	mov	r0, #0	@,
	bx	lr	@
	.fnend
	.size	AOE_REG_ReadBufDelayMs, .-AOE_REG_ReadBufDelayMs
	.section	.rodata
	.align	2
.LANCHOR0 = . + 0
	.type	g_u32AoeSampleRateTab, %object
	.size	g_u32AoeSampleRateTab, 52
g_u32AoeSampleRateTab:
	.word	8000
	.word	11025
	.word	12000
	.word	16000
	.word	22050
	.word	24000
	.word	32000
	.word	44100
	.word	48000
	.word	88200
	.word	96000
	.word	176400
	.word	192000
	.ident	"GCC: (Hisilicon_v200(gcc4.4-290+glibc-2.11+eabi+nptl)) 4.4.1"
	.section	.note.GNU-stack,"",%progbits
