	.arch armv7-a
	.fpu softvfp
	.eabi_attribute 20, 1	@ Tag_ABI_FP_denormal
	.eabi_attribute 21, 1	@ Tag_ABI_FP_exceptions
	.eabi_attribute 23, 3	@ Tag_ABI_FP_number_model
	.eabi_attribute 24, 1	@ Tag_ABI_align8_needed
	.eabi_attribute 25, 1	@ Tag_ABI_align8_preserved
	.eabi_attribute 26, 2	@ Tag_ABI_enum_size
	.eabi_attribute 30, 2	@ Tag_ABI_optimization_goals
	.eabi_attribute 34, 0	@ Tag_CPU_unaligned_access
	.eabi_attribute 18, 4	@ Tag_ABI_PCS_wchar_t
	.file	"h264.c"
@ GNU C (gcc-linaro-4.9-2014.09 + glibc-2.24 (Build by czyong) Wed Dec 21 10:39:16 CST 2016) version 4.9.2 20140904 (prerelease) (arm-gcc492_glibc224-linux-gnueabi)
@	compiled by GNU C version 4.1.2 20080704 (Red Hat 4.1.2-44), GMP version 5.0.5, MPFR version 3.1.2, MPC version 1.0.1
@ GGC heuristics: --param ggc-min-expand=100 --param ggc-min-heapsize=131072
@ options passed:  -nostdinc
@ -I /usr1/code/v1r4_v1r6_sourceCode/code/current/v1r6_hi3716mv330_pack/work/source/kernel/linux-3.10.y/arch/arm/include
@ -I arch/arm/include/generated -I include
@ -I /usr1/code/v1r4_v1r6_sourceCode/code/current/v1r6_hi3716mv330_pack/work/source/kernel/linux-3.10.y/arch/arm/include/uapi
@ -I arch/arm/include/generated/uapi
@ -I /usr1/code/v1r4_v1r6_sourceCode/code/current/v1r6_hi3716mv330_pack/work/source/kernel/linux-3.10.y/include/uapi
@ -I include/generated/uapi -I arch/arm/mach-hi3716mv310/include
@ -I /usr1/code/v1r4_v1r6_sourceCode/code/current/v1r6_hi3716mv330_pack/work/source/kernel/linux-3.10.y/../../../source/common/include
@ -I /usr1/code/v1r4_v1r6_sourceCode/code/current/v1r6_hi3716mv330_pack/work/source/kernel/linux-3.10.y/../../../source/common/drv/include
@ -I /usr1/code/v1r4_v1r6_sourceCode/code/current/v1r6_hi3716mv330_pack/work/source/kernel/linux-3.10.y/../../../source/msp/drv/vfmw/vfmw_v4.0/drv/memmap
@ -I /usr1/code/v1r4_v1r6_sourceCode/code/current/v1r6_hi3716mv330_pack/work/source/kernel/linux-3.10.y/../../../source/msp/drv/vfmw/vfmw_v4.0/model/scd
@ -I /usr1/code/v1r4_v1r6_sourceCode/code/current/v1r6_hi3716mv330_pack/work/source/kernel/linux-3.10.y/../../../source/msp/drv/vfmw/vfmw_v4.0/firmware/common/softlib
@ -I /usr1/code/v1r4_v1r6_sourceCode/code/current/v1r6_hi3716mv330_pack/work/source/kernel/linux-3.10.y/../../../source/msp/drv/vfmw/vfmw_v4.0/firmware/common
@ -I /usr1/code/v1r4_v1r6_sourceCode/code/current/v1r6_hi3716mv330_pack/work/source/kernel/linux-3.10.y/../../../source/msp/drv/vfmw/vfmw_v4.0/firmware/common/syntax
@ -I /usr1/code/v1r4_v1r6_sourceCode/code/current/v1r6_hi3716mv330_pack/work/source/kernel/linux-3.10.y/../../../source/msp/drv/vfmw/vfmw_v4.0/firmware/driver/HiSCDV300
@ -I /usr1/code/v1r4_v1r6_sourceCode/code/current/v1r6_hi3716mv330_pack/work/source/kernel/linux-3.10.y/../../../source/msp/drv/vfmw/vfmw_v4.0/firmware/driver/HiVDHV100
@ -I /usr1/code/v1r4_v1r6_sourceCode/code/current/v1r6_hi3716mv330_pack/work/source/kernel/linux-3.10.y/../../../source/msp/drv/vfmw/vfmw_v4.0/firmware/driver/HiVDHV200R001
@ -I /usr1/code/v1r4_v1r6_sourceCode/code/current/v1r6_hi3716mv330_pack/work/source/kernel/linux-3.10.y/../../../source/msp/drv/vfmw/vfmw_v4.0/firmware/driver/HiVDHV200R002
@ -I /usr1/code/v1r4_v1r6_sourceCode/code/current/v1r6_hi3716mv330_pack/work/source/kernel/linux-3.10.y/../../../source/msp/drv/vfmw/vfmw_v4.0/firmware/driver/HiVDHV200R003
@ -I /usr1/code/v1r4_v1r6_sourceCode/code/current/v1r6_hi3716mv330_pack/work/source/kernel/linux-3.10.y/../../../source/msp/drv/vfmw/vfmw_v4.0/firmware/driver/HiVDHV200R004
@ -I /usr1/code/v1r4_v1r6_sourceCode/code/current/v1r6_hi3716mv330_pack/work/source/kernel/linux-3.10.y/../../../source/msp/drv/vfmw/vfmw_v4.0/model/rawpacket
@ -I /usr1/code/v1r4_v1r6_sourceCode/code/current/v1r6_hi3716mv330_pack/work/source/kernel/linux-3.10.y/../../../source/msp/drv/vfmw/vfmw_v4.0/firmware/product/Hi3716MV330_hisiv310/osal/linux_kernel
@ -I /usr1/code/v1r4_v1r6_sourceCode/code/current/v1r6_hi3716mv330_pack/work/source/kernel/linux-3.10.y/../../../source/msp/drv/vfmw/vfmw_v4.0/firmware/product/Hi3716MV330_hisiv310
@ -I /usr1/code/v1r4_v1r6_sourceCode/code/current/v1r6_hi3716mv330_pack/work/source/kernel/linux-3.10.y/../../../source/msp/drv/vfmw/vfmw_v4.0/firmware/driver/HiDNR
@ -I /usr1/code/v1r4_v1r6_sourceCode/code/current/v1r6_hi3716mv330_pack/work/source/kernel/linux-3.10.y/../../../source/msp/drv/vfmw/vfmw_v4.0/firmware/driver/HiBTLV100
@ -I /usr1/code/v1r4_v1r6_sourceCode/code/current/v1r6_hi3716mv330_pack/work/source/kernel/linux-3.10.y/../../../source/msp/drv/vfmw/vfmw_v4.0/firmware/common_test/vdecko
@ -imultilib a9_soft
@ -iprefix /opt/hisi-linux/x86-arm/arm-histbv310-linux/bin/../lib/gcc/arm-gcc492_glibc224-linux-gnueabi/4.9.2/
@ -isysroot /opt/hisi-linux/x86-arm/arm-histbv310-linux/bin/../target
@ -D __KERNEL__ -D __LINUX_ARM_ARCH__=7 -U arm -D CC_HAVE_ASM_GOTO
@ -D Hi3716MV330 -D ENV_ARMLINUX_KERNEL -D OFF_LINE_DNR_ENABLE
@ -D SCD_MP4_SLICE_ENABLE -D SUPPORT_JPEG_444 -D VFMW_EXTRA_TYPE_DEFINE
@ -D PRODUCT_STB -D __VFMW_REGISTER_ISR__ -D VFMW_VDH_V200R004_SUPPORT
@ -D VFMW_H264_SUPPORT -D VFMW_MPEG2_SUPPORT -D VFMW_BPD_H_SUPPORT
@ -D VFMW_DNR_SUPPORT -D VFMW_RAW_SUPPORT -D VFMW_USER_SUPPORT
@ -D CFG_MAX_CHAN_NUM=1 -D CFG_MAX_CHAN_NUM=1 -D VFMW_AVSPLUS_SUPPORT
@ -D VFMW_SYSTEM_REG_DISABLE -D REPAIR_ENABLE -D _FORTIFY_SOURCE=2
@ -D CHIP_TYPE_hi3716mv330 -D SDK_VERSION=HiSTBLinuxV100R006C00SPC052
@ -D HI_LOG_SUPPORT=1 -D HI_LOG_LEVEL=4 -D HI_PROC_SUPPORT=1
@ -D HI_PNG_DECODER_SUPPORT -D HI_KEYLED_SUPPORT -D HI_HDCP_SUPPORT
@ -D HI_SCI_SUPPORT -D HI_GPIOI2C_SUPPORT -D HI_IR_S2_SUPPORT
@ -D HI_DSC_SUPPORT -D MODULE -D KBUILD_STR(s)=#s
@ -D KBUILD_BASENAME=KBUILD_STR(h264) -D KBUILD_MODNAME=KBUILD_STR(hi_vfmw)
@ -isystem /opt/hisi-linux/x86-arm/arm-histbv310-linux/bin/../lib/gcc/arm-gcc492_glibc224-linux-gnueabi/4.9.2/include
@ -include /usr1/code/v1r4_v1r6_sourceCode/code/current/v1r6_hi3716mv330_pack/work/source/kernel/linux-3.10.y/include/linux/kconfig.h
@ -MD /usr1/code/v1r4_v1r6_sourceCode/code/current/v1r6_hi3716mv330_pack/work/source/msp/drv/vfmw/vfmw_v4.0/firmware/common/syntax/.h264.o.d
@ /usr1/code/v1r4_v1r6_sourceCode/code/current/v1r6_hi3716mv330_pack/work/source/msp/drv/vfmw/vfmw_v4.0/firmware/common/syntax/h264.c
@ -mlittle-endian -mabi=aapcs-linux -mno-thumb-interwork -marm
@ -march=armv7-a -mfloat-abi=soft -mtls-dialect=gnu -mno-unaligned-access
@ -mword-relocations
@ -auxbase-strip /usr1/code/v1r4_v1r6_sourceCode/code/current/v1r6_hi3716mv330_pack/work/source/msp/drv/vfmw/vfmw_v4.0/firmware/common/syntax/h264.o
@ -O2 -Wall -Wundef -Wstrict-prototypes -Wno-trigraphs
@ -Werror=implicit-function-declaration -Wno-format-security
@ -Wframe-larger-than=1024 -Wno-unused-but-set-variable
@ -Wdeclaration-after-statement -Wno-pointer-sign -fno-strict-aliasing
@ -fno-common -fno-dwarf2-cfi-asm -funwind-tables -fno-stack-protector
@ -fomit-frame-pointer -fno-strict-overflow -fconserve-stack -fno-pic
@ -fverbose-asm -fno-delete-null-pointer-checks -fdiagnostics-color=auto
@ -fno-aggressive-loop-optimizations -fno-tree-vrp
@ options enabled:  -fauto-inc-dec -fbranch-count-reg -fcaller-saves
@ -fcombine-stack-adjustments -fcompare-elim -fcprop-registers
@ -fcrossjumping -fcse-follow-jumps -fdefer-pop -fdevirtualize
@ -fdevirtualize-speculatively -fearly-inlining
@ -feliminate-unused-debug-types -fexpensive-optimizations
@ -fforward-propagate -ffunction-cse -fgcse -fgcse-lm -fgnu-runtime
@ -fgnu-unique -fguess-branch-probability -fhoist-adjacent-loads -fident
@ -fif-conversion -fif-conversion2 -findirect-inlining -finline
@ -finline-atomics -finline-functions-called-once -finline-small-functions
@ -fipa-cp -fipa-profile -fipa-pure-const -fipa-reference -fipa-sra
@ -fira-hoist-pressure -fira-share-save-slots -fira-share-spill-slots
@ -fisolate-erroneous-paths-dereference -fivopts -fkeep-static-consts
@ -fleading-underscore -fmath-errno -fmerge-constants -fmerge-debug-strings
@ -fmove-loop-invariants -fomit-frame-pointer -foptimize-sibling-calls
@ -foptimize-strlen -fpartial-inlining -fpeephole -fpeephole2
@ -fprefetch-loop-arrays -freg-struct-return -freorder-blocks
@ -freorder-functions -frerun-cse-after-loop
@ -fsched-critical-path-heuristic -fsched-dep-count-heuristic
@ -fsched-group-heuristic -fsched-interblock -fsched-last-insn-heuristic
@ -fsched-pressure -fsched-rank-heuristic -fsched-spec
@ -fsched-spec-insn-heuristic -fsched-stalled-insns-dep -fschedule-insns
@ -fschedule-insns2 -fsection-anchors -fshow-column -fshrink-wrap
@ -fsigned-zeros -fsplit-ivs-in-unroller -fsplit-wide-types
@ -fstrict-volatile-bitfields -fsync-libcalls -fthread-jumps
@ -ftoplevel-reorder -ftrapping-math -ftree-bit-ccp -ftree-builtin-call-dce
@ -ftree-ccp -ftree-ch -ftree-coalesce-vars -ftree-copy-prop
@ -ftree-copyrename -ftree-cselim -ftree-dce -ftree-dominator-opts
@ -ftree-dse -ftree-forwprop -ftree-fre -ftree-loop-if-convert
@ -ftree-loop-im -ftree-loop-ivcanon -ftree-loop-optimize
@ -ftree-parallelize-loops= -ftree-phiprop -ftree-pre -ftree-pta
@ -ftree-reassoc -ftree-scev-cprop -ftree-sink -ftree-slsr -ftree-sra
@ -ftree-switch-conversion -ftree-tail-merge -ftree-ter -funit-at-a-time
@ -funwind-tables -fverbose-asm -fzero-initialized-in-bss -marm -mglibc
@ -mlittle-endian -mlra -mpic-data-is-text-relative -msched-prolog
@ -mvectorize-with-neon-quad -mword-relocations

	.text
	.align	2
	.global	IsSTRefFlg
	.type	IsSTRefFlg, %function
IsSTRefFlg:
	.fnstart
	@ args = 0, pretend = 0, frame = 0
	@ frame_needed = 0, uses_anonymous_args = 0
	@ link register save eliminated.
	ldr	r0, [r0]	@ *s_2(D), *s_2(D)
	bic	r0, r0, #-16777216	@ D.38777, *s_2(D),
	bic	r0, r0, #255	@ D.38777, D.38777,
	sub	r0, r0, #65536	@, D.38777,
	clz	r0, r0	@,
	mov	r0, r0, lsr #5	@,,
	bx	lr	@
	.fnend
	.size	IsSTRefFlg, .-IsSTRefFlg
	.align	2
	.global	IsLTRefFlg
	.type	IsLTRefFlg, %function
IsLTRefFlg:
	.fnstart
	@ args = 0, pretend = 0, frame = 0
	@ frame_needed = 0, uses_anonymous_args = 0
	@ link register save eliminated.
	ldr	r0, [r0]	@ *s_2(D), *s_2(D)
	bic	r0, r0, #-16777216	@ D.38782, *s_2(D),
	bic	r0, r0, #255	@ D.38782, D.38782,
	sub	r0, r0, #256	@, D.38782,
	clz	r0, r0	@,
	mov	r0, r0, lsr #5	@,,
	bx	lr	@
	.fnend
	.size	IsLTRefFlg, .-IsLTRefFlg
	.align	2
	.global	compare_pic_by_pic_num_desc
	.type	compare_pic_by_pic_num_desc, %function
compare_pic_by_pic_num_desc:
	.fnstart
	@ args = 0, pretend = 0, frame = 0
	@ frame_needed = 0, uses_anonymous_args = 0
	@ link register save eliminated.
	ldr	r2, [r0]	@ MEM[(struct H264_STORABLEPIC_S * *)arg1_3(D)], MEM[(struct H264_STORABLEPIC_S * *)arg1_3(D)]
	ldr	r3, [r1]	@ MEM[(struct H264_STORABLEPIC_S * *)arg2_6(D)], MEM[(struct H264_STORABLEPIC_S * *)arg2_6(D)]
	ldr	r2, [r2, #12]	@ D.38789, _4->pic_num
	ldr	r3, [r3, #12]	@ D.38789, _7->pic_num
	cmp	r2, r3	@ D.38789, D.38789
	blt	.L5	@,
	mvngt	r0, #0	@ D.38787,
	movle	r0, #0	@ D.38787,
	bx	lr	@
.L5:
	mov	r0, #1	@ D.38787,
	bx	lr	@
	.fnend
	.size	compare_pic_by_pic_num_desc, .-compare_pic_by_pic_num_desc
	.align	2
	.global	compare_pic_by_lt_pic_num_asc
	.type	compare_pic_by_lt_pic_num_asc, %function
compare_pic_by_lt_pic_num_asc:
	.fnstart
	@ args = 0, pretend = 0, frame = 0
	@ frame_needed = 0, uses_anonymous_args = 0
	@ link register save eliminated.
	ldr	r2, [r0]	@ MEM[(struct H264_STORABLEPIC_S * *)arg1_3(D)], MEM[(struct H264_STORABLEPIC_S * *)arg1_3(D)]
	ldr	r3, [r1]	@ MEM[(struct H264_STORABLEPIC_S * *)arg2_6(D)], MEM[(struct H264_STORABLEPIC_S * *)arg2_6(D)]
	ldr	r2, [r2, #8]	@ D.38795, _4->long_term_pic_num
	ldr	r3, [r3, #8]	@ D.38795, _7->long_term_pic_num
	cmp	r2, r3	@ D.38795, D.38795
	blt	.L9	@,
	movgt	r0, #1	@ D.38793,
	movle	r0, #0	@ D.38793,
	bx	lr	@
.L9:
	mvn	r0, #0	@ D.38793,
	bx	lr	@
	.fnend
	.size	compare_pic_by_lt_pic_num_asc, .-compare_pic_by_lt_pic_num_asc
	.align	2
	.global	compare_fs_by_frame_num_desc
	.type	compare_fs_by_frame_num_desc, %function
compare_fs_by_frame_num_desc:
	.fnstart
	@ args = 0, pretend = 0, frame = 0
	@ frame_needed = 0, uses_anonymous_args = 0
	@ link register save eliminated.
	ldr	r2, [r0]	@ MEM[(struct H264_FRAMESTORE_S * *)arg1_3(D)], MEM[(struct H264_FRAMESTORE_S * *)arg1_3(D)]
	ldr	r3, [r1]	@ MEM[(struct H264_FRAMESTORE_S * *)arg2_6(D)], MEM[(struct H264_FRAMESTORE_S * *)arg2_6(D)]
	ldr	r2, [r2, #516]	@ D.38801, _4->frame_num_wrap
	ldr	r3, [r3, #516]	@ D.38801, _7->frame_num_wrap
	cmp	r2, r3	@ D.38801, D.38801
	blt	.L12	@,
	mvngt	r0, #0	@ D.38799,
	movle	r0, #0	@ D.38799,
	bx	lr	@
.L12:
	mov	r0, #1	@ D.38799,
	bx	lr	@
	.fnend
	.size	compare_fs_by_frame_num_desc, .-compare_fs_by_frame_num_desc
	.align	2
	.global	compare_fs_by_lt_pic_idx_asc
	.type	compare_fs_by_lt_pic_idx_asc, %function
compare_fs_by_lt_pic_idx_asc:
	.fnstart
	@ args = 0, pretend = 0, frame = 0
	@ frame_needed = 0, uses_anonymous_args = 0
	@ link register save eliminated.
	ldr	r2, [r0]	@ MEM[(struct H264_FRAMESTORE_S * *)arg1_3(D)], MEM[(struct H264_FRAMESTORE_S * *)arg1_3(D)]
	ldr	r3, [r1]	@ MEM[(struct H264_FRAMESTORE_S * *)arg2_6(D)], MEM[(struct H264_FRAMESTORE_S * *)arg2_6(D)]
	ldr	r2, [r2, #520]	@ D.38807, _4->long_term_frame_idx
	ldr	r3, [r3, #520]	@ D.38807, _7->long_term_frame_idx
	cmp	r2, r3	@ D.38807, D.38807
	bcc	.L15	@,
	movhi	r0, #1	@ D.38805,
	movls	r0, #0	@ D.38805,
	bx	lr	@
.L15:
	mvn	r0, #0	@ D.38805,
	bx	lr	@
	.fnend
	.size	compare_fs_by_lt_pic_idx_asc, .-compare_fs_by_lt_pic_idx_asc
	.align	2
	.global	compare_pic_by_poc_asc
	.type	compare_pic_by_poc_asc, %function
compare_pic_by_poc_asc:
	.fnstart
	@ args = 0, pretend = 0, frame = 0
	@ frame_needed = 0, uses_anonymous_args = 0
	@ link register save eliminated.
	ldr	r2, [r0]	@ MEM[(struct H264_STORABLEPIC_S * *)arg1_3(D)], MEM[(struct H264_STORABLEPIC_S * *)arg1_3(D)]
	ldr	r3, [r1]	@ MEM[(struct H264_STORABLEPIC_S * *)arg2_6(D)], MEM[(struct H264_STORABLEPIC_S * *)arg2_6(D)]
	ldr	r2, [r2, #16]	@ D.38813, _4->poc
	ldr	r3, [r3, #16]	@ D.38813, _7->poc
	cmp	r2, r3	@ D.38813, D.38813
	blt	.L18	@,
	movgt	r0, #1	@ D.38811,
	movle	r0, #0	@ D.38811,
	bx	lr	@
.L18:
	mvn	r0, #0	@ D.38811,
	bx	lr	@
	.fnend
	.size	compare_pic_by_poc_asc, .-compare_pic_by_poc_asc
	.align	2
	.global	compare_pic_by_poc_desc
	.type	compare_pic_by_poc_desc, %function
compare_pic_by_poc_desc:
	.fnstart
	@ args = 0, pretend = 0, frame = 0
	@ frame_needed = 0, uses_anonymous_args = 0
	@ link register save eliminated.
	ldr	r2, [r0]	@ MEM[(struct H264_STORABLEPIC_S * *)arg1_3(D)], MEM[(struct H264_STORABLEPIC_S * *)arg1_3(D)]
	ldr	r3, [r1]	@ MEM[(struct H264_STORABLEPIC_S * *)arg2_6(D)], MEM[(struct H264_STORABLEPIC_S * *)arg2_6(D)]
	ldr	r2, [r2, #16]	@ D.38819, _4->poc
	ldr	r3, [r3, #16]	@ D.38819, _7->poc
	cmp	r2, r3	@ D.38819, D.38819
	blt	.L21	@,
	mvngt	r0, #0	@ D.38817,
	movle	r0, #0	@ D.38817,
	bx	lr	@
.L21:
	mov	r0, #1	@ D.38817,
	bx	lr	@
	.fnend
	.size	compare_pic_by_poc_desc, .-compare_pic_by_poc_desc
	.align	2
	.global	compare_fs_by_poc_asc
	.type	compare_fs_by_poc_asc, %function
compare_fs_by_poc_asc:
	.fnstart
	@ args = 0, pretend = 0, frame = 0
	@ frame_needed = 0, uses_anonymous_args = 0
	@ link register save eliminated.
	ldr	r2, [r0]	@ MEM[(struct H264_FRAMESTORE_S * *)arg1_3(D)], MEM[(struct H264_FRAMESTORE_S * *)arg1_3(D)]
	ldr	r3, [r1]	@ MEM[(struct H264_FRAMESTORE_S * *)arg2_6(D)], MEM[(struct H264_FRAMESTORE_S * *)arg2_6(D)]
	ldr	r2, [r2, #524]	@ D.38825, _4->poc
	ldr	r3, [r3, #524]	@ D.38825, _7->poc
	cmp	r2, r3	@ D.38825, D.38825
	blt	.L24	@,
	movgt	r0, #1	@ D.38823,
	movle	r0, #0	@ D.38823,
	bx	lr	@
.L24:
	mvn	r0, #0	@ D.38823,
	bx	lr	@
	.fnend
	.size	compare_fs_by_poc_asc, .-compare_fs_by_poc_asc
	.align	2
	.global	compare_fs_by_poc_desc
	.type	compare_fs_by_poc_desc, %function
compare_fs_by_poc_desc:
	.fnstart
	@ args = 0, pretend = 0, frame = 0
	@ frame_needed = 0, uses_anonymous_args = 0
	@ link register save eliminated.
	ldr	r2, [r0]	@ MEM[(struct H264_FRAMESTORE_S * *)arg1_3(D)], MEM[(struct H264_FRAMESTORE_S * *)arg1_3(D)]
	ldr	r3, [r1]	@ MEM[(struct H264_FRAMESTORE_S * *)arg2_6(D)], MEM[(struct H264_FRAMESTORE_S * *)arg2_6(D)]
	ldr	r2, [r2, #524]	@ D.38831, _4->poc
	ldr	r3, [r3, #524]	@ D.38831, _7->poc
	cmp	r2, r3	@ D.38831, D.38831
	blt	.L27	@,
	mvngt	r0, #0	@ D.38829,
	movle	r0, #0	@ D.38829,
	bx	lr	@
.L27:
	mov	r0, #1	@ D.38829,
	bx	lr	@
	.fnend
	.size	compare_fs_by_poc_desc, .-compare_fs_by_poc_desc
	.align	2
	.type	SetFrmRepeatCount.part.1, %function
SetFrmRepeatCount.part.1:
	.fnstart
	@ args = 0, pretend = 0, frame = 0
	@ frame_needed = 0, uses_anonymous_args = 0
	add	ip, r0, #49152	@ tmp126, pH264Ctx,
	add	r0, r0, #24576	@ tmp133, pH264Ctx,
	str	lr, [sp, #-4]!	@,
	.save {lr}
	ldr	lr, [ip, #3712]	@ pH264Ctx_1(D)->PicOutCounter, pH264Ctx_1(D)->PicOutCounter
	ldr	r2, [r0, #2048]	@ pH264Ctx_1(D)->DPB.size, pH264Ctx_1(D)->DPB.size
	ldr	r3, [ip, #3708]	@ pH264Ctx_1(D)->NewPicCounter, pH264Ctx_1(D)->NewPicCounter
	add	r2, r2, lr, lsr #1	@ D.38835, pH264Ctx_1(D)->DPB.size, pH264Ctx_1(D)->PicOutCounter,
	add	r0, r2, #1	@ D.38835, D.38835,
	mov	r3, r3, lsr #1	@ D.38835, pH264Ctx_1(D)->NewPicCounter,
	cmp	r3, r0	@ D.38835, D.38835
	movcc	r3, #0	@ tmp152,
	strcc	r3, [r1, #84]	@ tmp152, p_image_11(D)->u32RepeatCnt
	ldrcc	pc, [sp], #4	@
	sub	r3, r3, #1	@ D.38835, D.38835,
	rsb	r3, r2, r3	@ D.38835, D.38835, D.38835
	cmp	r3, #1	@ D.38835,
	movhi	r3, #2	@ tmp138,
	movls	r3, #1	@ tmp145,
	strhi	r3, [r1, #84]	@ tmp138, p_image_11(D)->u32RepeatCnt
	strls	r3, [r1, #84]	@ tmp145, p_image_11(D)->u32RepeatCnt
	ldrhi	r3, [ip, #3712]	@ pH264Ctx_1(D)->PicOutCounter, pH264Ctx_1(D)->PicOutCounter
	ldrls	r3, [ip, #3712]	@ pH264Ctx_1(D)->PicOutCounter, pH264Ctx_1(D)->PicOutCounter
	addhi	r3, r3, #4	@ D.38835, pH264Ctx_1(D)->PicOutCounter,
	addls	r3, r3, #2	@ D.38835, pH264Ctx_1(D)->PicOutCounter,
	str	r3, [ip, #3712]	@ D.38835, pH264Ctx_1(D)->PicOutCounter
	ldr	pc, [sp], #4	@
	.fnend
	.size	SetFrmRepeatCount.part.1, .-SetFrmRepeatCount.part.1
	.align	2
	.type	ReleaseNAL.part.3, %function
ReleaseNAL.part.3:
	.fnstart
	@ args = 0, pretend = 0, frame = 0
	@ frame_needed = 0, uses_anonymous_args = 0
	stmfd	sp!, {r4, r5, r6, lr}	@,
	.save {r4, r5, r6, lr}
	mov	r4, r1	@ pNalu, pNalu
	ldr	r3, [r1, #8]	@ pNalu_1(D)->stream[0].streamBuffer, pNalu_1(D)->stream[0].streamBuffer
	mov	r5, r0	@ ChanID, ChanID
	cmp	r3, #0	@ pNalu_1(D)->stream[0].streamBuffer,
	beq	.L34	@,
	ldr	r1, [r1, #32]	@, pNalu_1(D)->stream[0].StreamID
	bl	SM_ReleaseStreamSeg	@
	mov	r3, #0	@ tmp118,
	str	r3, [r4, #8]	@ tmp118, pNalu_1(D)->stream[0].streamBuffer
	str	r3, [r4, #24]	@ tmp118, pNalu_1(D)->stream[0].bitsoffset
	str	r3, [r4, #12]	@ tmp118, pNalu_1(D)->stream[0].bitstream_length
.L34:
	ldr	r3, [r4, #36]	@ pNalu_1(D)->stream[1].streamBuffer, pNalu_1(D)->stream[1].streamBuffer
	cmp	r3, #0	@ pNalu_1(D)->stream[1].streamBuffer,
	beq	.L35	@,
	mov	r0, r5	@, ChanID
	ldr	r1, [r4, #60]	@, pNalu_1(D)->stream[1].StreamID
	bl	SM_ReleaseStreamSeg	@
	mov	r3, #0	@ tmp123,
	str	r3, [r4, #36]	@ tmp123, pNalu_1(D)->stream[1].streamBuffer
	str	r3, [r4, #52]	@ tmp123, pNalu_1(D)->stream[1].bitsoffset
	str	r3, [r4, #40]	@ tmp123, pNalu_1(D)->stream[1].bitstream_length
.L35:
	mov	r3, #0	@ tmp126,
	strb	r3, [r4]	@ tmp126, pNalu_1(D)->nal_used_segment
	str	r3, [r4, #68]	@ tmp126, pNalu_1(D)->nal_segment
	ldmfd	sp!, {r4, r5, r6, pc}	@
	.fnend
	.size	ReleaseNAL.part.3, .-ReleaseNAL.part.3
	.align	2
	.type	DumpList.part.5, %function
DumpList.part.5:
	.fnstart
	@ args = 0, pretend = 0, frame = 0
	@ frame_needed = 0, uses_anonymous_args = 0
	@ link register save eliminated.
	bx	lr	@
	.fnend
	.size	DumpList.part.5, .-DumpList.part.5
	.align	2
	.global	ue_v
	.type	ue_v, %function
ue_v:
	.fnstart
	@ args = 0, pretend = 0, frame = 0
	@ frame_needed = 0, uses_anonymous_args = 0
	stmfd	sp!, {r4, r5, r6, r7, r8, lr}	@,
	.save {r4, r5, r6, r7, r8, lr}
	add	r5, r0, #13504	@ D.38849, pH264Ctx,
	add	r5, r5, #24	@ D.38849, D.38849,
	mov	r1, #32	@,
	mov	r6, r0	@ pH264Ctx, pH264Ctx
	mov	r0, r5	@, D.38849
	bl	BsShow	@
	mov	r7, r0	@ D.38850,
	bl	ZerosMS_32	@
	cmp	r0, #15	@ zeros,
	mov	r4, r0	@ zeros,
	bls	.L49	@,
	cmp	r0, #31	@ zeros,
	bls	.L50	@,
	add	r2, r6, #49152	@ tmp138, pH264Ctx,
	mvn	r7, #0	@ INFO,
	mov	r5, #32	@ NumBits,
	mov	r3, #1	@ tmp139,
	str	r3, [r2, #3628]	@ tmp139, pH264Ctx_4(D)->SeErrFlg
.L46:
	ldr	ip, [r6, #368]	@ D.38852, pH264Ctx_4(D)->pCurrNal
	mov	r0, r7	@, INFO
	ldr	r2, [ip, #64]	@ _32->nal_bitoffset, _32->nal_bitoffset
	add	r4, r2, r5	@ D.38851, _32->nal_bitoffset, NumBits
	str	r4, [ip, #64]	@ D.38851, _32->nal_bitoffset
	ldmfd	sp!, {r4, r5, r6, r7, r8, pc}	@
.L49:
	mov	r4, r0, asl #1	@ D.38851, zeros,
	mov	r0, r5	@, D.38849
	add	r5, r4, #1	@ NumBits, D.38851,
	rsb	r4, r4, #31	@ D.38851, D.38851,
	mov	r7, r7, lsr r4	@ D.38851, D.38850,
	mov	r1, r5	@, NumBits
	sub	r7, r7, #1	@ INFO, D.38851,
	bl	BsSkip	@
	b	.L46	@
.L50:
	add	r7, r0, #1	@ D.38850, zeros,
	mov	r1, r0	@, zeros
	mov	r0, r5	@, D.38849
	bl	BsSkip	@
	mov	r1, r7	@, D.38850
	mov	r0, r5	@, D.38849
	bl	BsShow	@
	mov	r1, r7	@, D.38850
	sub	r7, r0, #1	@ INFO,,
	mov	r0, r5	@, D.38849
	bl	BsSkip	@
	mov	r3, r4, asl #1	@ D.38851, zeros,
	add	r5, r3, #1	@ NumBits, D.38851,
	b	.L46	@
	.fnend
	.size	ue_v, .-ue_v
	.align	2
	.global	se_v
	.type	se_v, %function
se_v:
	.fnstart
	@ args = 0, pretend = 0, frame = 0
	@ frame_needed = 0, uses_anonymous_args = 0
	stmfd	sp!, {r4, r5, r6, r7, r8, lr}	@,
	.save {r4, r5, r6, r7, r8, lr}
	add	r5, r0, #13504	@ D.38855, pH264Ctx,
	add	r5, r5, #24	@ D.38855, D.38855,
	mov	r1, #32	@,
	mov	r7, r0	@ pH264Ctx, pH264Ctx
	mov	r0, r5	@, D.38855
	bl	BsShow	@
	mov	r6, r0	@ D.38856,
	bl	ZerosMS_32	@
	cmp	r0, #15	@ zeros,
	mov	r4, r0	@ zeros,
	bhi	.L52	@,
	mov	r4, r0, asl #1	@ D.38857, zeros,
	mov	r0, r5	@, D.38855
	rsb	r3, r4, #31	@ D.38857, D.38857,
	add	r4, r4, #1	@ NumBits, D.38857,
	mov	r6, r6, lsr r3	@ D.38857, D.38856,
	and	r5, r6, #1	@ D.38858, D.38857,
	mov	r1, r4	@, NumBits
	rsb	r3, r5, #0	@ D.38860, D.38858
	eor	r3, r3, r6, lsr #1	@ D.38860, D.38860, D.38857,
	add	r5, r3, r5	@ INFO, D.38860, D.38858
	bl	BsSkip	@
.L53:
	ldr	r2, [r7, #368]	@ D.38859, pH264Ctx_6(D)->pCurrNal
	mov	r0, r5	@, INFO
	ldr	r3, [r2, #64]	@ _37->nal_bitoffset, _37->nal_bitoffset
	add	r4, r3, r4	@ D.38857, _37->nal_bitoffset, NumBits
	str	r4, [r2, #64]	@ D.38857, _37->nal_bitoffset
	ldmfd	sp!, {r4, r5, r6, r7, r8, pc}	@
.L52:
	cmp	r0, #31	@ zeros,
	bls	.L56	@,
	add	r3, r7, #49152	@ tmp153, pH264Ctx,
	mov	r2, #1	@ tmp154,
	mvn	r5, #-2147483648	@ INFO,
	mov	r4, #32	@ NumBits,
	str	r2, [r3, #3628]	@ tmp154, pH264Ctx_6(D)->SeErrFlg
	b	.L53	@
.L56:
	mov	r1, r0	@, zeros
	mov	r0, r5	@, D.38855
	bl	BsSkip	@
	mov	r1, r4	@, zeros
	mov	r0, r5	@, D.38855
	mov	r4, r4, asl #1	@ D.38857, zeros,
	bl	BsGet	@
	mov	r1, #1	@,
	add	r4, r4, #1	@ NumBits, D.38857,
	mov	r6, r0	@ INFO,
	mov	r0, r5	@, D.38855
	bl	BsGet	@
	and	r0, r0, #1	@ D.38858,,
	rsb	r5, r0, #0	@ D.38860, D.38858
	eor	r6, r6, r5	@ D.38860, INFO, D.38860
	add	r5, r6, r0	@ INFO, D.38860, D.38858
	b	.L53	@
	.fnend
	.size	se_v, .-se_v
	.align	2
	.global	u_v
	.type	u_v, %function
u_v:
	.fnstart
	@ args = 0, pretend = 0, frame = 0
	@ frame_needed = 0, uses_anonymous_args = 0
	stmfd	sp!, {r4, r5, r6, lr}	@,
	.save {r4, r5, r6, lr}
	mov	r4, r0	@ pH264Ctx, pH264Ctx
	add	r0, r0, #13504	@, pH264Ctx,
	mov	r5, r1	@ LenInBits, LenInBits
	add	r0, r0, #24	@,,
	bl	BsGet	@
	ldr	r2, [r4, #368]	@ D.38865, pH264Ctx_1(D)->pCurrNal
	ldr	r3, [r2, #64]	@ _8->nal_bitoffset, _8->nal_bitoffset
	add	r1, r3, r5	@ D.38866, _8->nal_bitoffset, LenInBits
	str	r1, [r2, #64]	@ D.38866, _8->nal_bitoffset
	ldmfd	sp!, {r4, r5, r6, pc}	@
	.fnend
	.size	u_v, .-u_v
	.align	2
	.global	u_1
	.type	u_1, %function
u_1:
	.fnstart
	@ args = 0, pretend = 0, frame = 0
	@ frame_needed = 0, uses_anonymous_args = 0
	stmfd	sp!, {r4, lr}	@,
	.save {r4, lr}
	mov	r4, r0	@ pH264Ctx, pH264Ctx
	add	r0, r0, #13504	@, pH264Ctx,
	mov	r1, #1	@,
	add	r0, r0, #24	@,,
	bl	BsGet	@
	ldr	r2, [r4, #368]	@ D.38871, pH264Ctx_1(D)->pCurrNal
	ldr	r3, [r2, #64]	@ _7->nal_bitoffset, _7->nal_bitoffset
	add	r3, r3, #1	@ D.38872, _7->nal_bitoffset,
	str	r3, [r2, #64]	@ D.38872, _7->nal_bitoffset
	ldmfd	sp!, {r4, pc}	@
	.fnend
	.size	u_1, .-u_1
	.align	2
	.global	ClearCurrNal
	.type	ClearCurrNal, %function
ClearCurrNal:
	.fnstart
	@ args = 0, pretend = 0, frame = 0
	@ frame_needed = 0, uses_anonymous_args = 0
	ldr	r3, [r0, #368]	@ D.38875, pH264Ctx_3(D)->pCurrNal
	cmp	r3, #0	@ D.38875,
	beq	.L67	@,
	add	r2, r0, #49152	@ tmp115, pH264Ctx,
	mov	r1, r3	@, D.38875
	stmfd	sp!, {r4, r5, r6, lr}	@,
	.save {r4, r5, r6, lr}
	mov	r5, #0	@ tmp116,
	mov	r4, r0	@ pH264Ctx, pH264Ctx
	ldr	r0, [r2, #3688]	@ D.38876, pH264Ctx_3(D)->ChanID
	strb	r5, [r3, #1]	@ tmp116, _4->is_valid
	strb	r5, [r3, #3]	@ tmp116, _4->nal_integ
	bl	ReleaseNAL.part.3	@
	str	r5, [r4, #368]	@ tmp116, pH264Ctx_3(D)->pCurrNal
	mov	r0, #0	@,
	ldmfd	sp!, {r4, r5, r6, pc}	@
.L67:
	mov	r0, #0	@,
	bx	lr	@
	.fnend
	.size	ClearCurrNal, .-ClearCurrNal
	.align	2
	.global	ClearAllNal
	.type	ClearAllNal, %function
ClearAllNal:
	.fnstart
	@ args = 0, pretend = 0, frame = 0
	@ frame_needed = 0, uses_anonymous_args = 0
	stmfd	sp!, {r4, r5, r6, r7, r8, lr}	@,
	.save {r4, r5, r6, r7, r8, lr}
	add	r5, r0, #13504	@ D.38894, pH264Ctx,
	add	r5, r5, #24	@ D.38894, D.38894,
	add	r4, r0, #376	@ ivtmp.370, pH264Ctx,
	add	r7, r0, #49152	@ tmp159, pH264Ctx,
	mov	r6, #0	@ tmp160,
	b	.L70	@
.L69:
	add	r4, r4, #96	@ ivtmp.370, ivtmp.370,
	cmp	r4, r5	@ ivtmp.370, D.38894
	beq	.L76	@,
.L70:
	ldrb	r3, [r4, #1]	@ zero_extendqisi2	@ MEM[base: _19, offset: 1B], MEM[base: _19, offset: 1B]
	cmp	r3, #1	@ MEM[base: _19, offset: 1B],
	bne	.L69	@,
	subs	r1, r4, #0	@, ivtmp.370
	ldr	r0, [r7, #3688]	@ D.38890, pH264Ctx_5(D)->ChanID
	beq	.L69	@,
	strb	r6, [r4, #1]	@ tmp160, MEM[base: _19, offset: 1B]
	add	r4, r4, #96	@ ivtmp.370, ivtmp.370,
	strb	r6, [r4, #-93]	@ tmp160, MEM[base: _19, offset: 3B]
	bl	ReleaseNAL.part.3	@
	cmp	r4, r5	@ ivtmp.370, D.38894
	bne	.L70	@,
.L76:
	mov	r0, #0	@,
	ldmfd	sp!, {r4, r5, r6, r7, r8, pc}	@
	.fnend
	.size	ClearAllNal, .-ClearAllNal
	.align	2
	.global	ClearCurrSlice
	.type	ClearCurrSlice, %function
ClearCurrSlice:
	.fnstart
	@ args = 0, pretend = 0, frame = 0
	@ frame_needed = 0, uses_anonymous_args = 0
	stmfd	sp!, {r4, lr}	@,
	.save {r4, lr}
	mov	r4, r0	@ pH264Ctx, pH264Ctx
	bl	ClearCurrNal	@
	add	r3, r4, #49152	@ tmp115, pH264Ctx,
	mov	r0, #0	@,
	ldr	r2, [r3, #3644]	@ pH264Ctx_2(D)->TotalSlice, pH264Ctx_2(D)->TotalSlice
	add	r2, r2, #1	@ D.38897, pH264Ctx_2(D)->TotalSlice,
	str	r2, [r3, #3644]	@ D.38897, pH264Ctx_2(D)->TotalSlice
	ldmfd	sp!, {r4, pc}	@
	.fnend
	.size	ClearCurrSlice, .-ClearCurrSlice
	.align	2
	.global	ClearAllSlice
	.type	ClearAllSlice, %function
ClearAllSlice:
	.fnstart
	@ args = 0, pretend = 0, frame = 0
	@ frame_needed = 0, uses_anonymous_args = 0
	stmfd	sp!, {r4, r5, r6, r7, r8, lr}	@,
	.save {r4, r5, r6, r7, r8, lr}
	add	r4, r0, #50688	@ ivtmp.382, pH264Ctx,
	add	r6, r0, #51200	@ D.38919, pH264Ctx,
	add	r4, r4, #12	@ ivtmp.382, ivtmp.382,
	add	r6, r6, #44	@ D.38919, D.38919,
	add	r7, r0, #49152	@ tmp166, pH264Ctx,
	mov	r5, #0	@ tmp167,
.L81:
	ldr	r3, [r4, #4]!	@ D.38914, MEM[base: _21, offset: 0B]
	cmp	r3, #0	@ D.38914,
	mov	r1, r3	@, D.38914
	beq	.L80	@,
	ldr	r0, [r7, #3688]	@ D.38915, pH264Ctx_5(D)->ChanID
	strb	r5, [r3, #1]	@ tmp167, _6->is_valid
	strb	r5, [r3, #3]	@ tmp167, _6->nal_integ
	bl	ReleaseNAL.part.3	@
	str	r5, [r4]	@ tmp167, MEM[base: _21, offset: 0B]
.L80:
	cmp	r4, r6	@ ivtmp.382, D.38919
	bne	.L81	@,
	mov	r0, #0	@ tmp161,
	str	r0, [r7, #3612]	@ tmp161, pH264Ctx_5(D)->SliceParaNum
	str	r0, [r7, #3672]	@ tmp161, pH264Ctx_5(D)->MaxBytesReceived
	ldmfd	sp!, {r4, r5, r6, r7, r8, pc}	@
	.fnend
	.size	ClearAllSlice, .-ClearAllSlice
	.align	2
	.global	H264_ClearCurrPic
	.type	H264_ClearCurrPic, %function
H264_ClearCurrPic:
	.fnstart
	@ args = 0, pretend = 0, frame = 0
	@ frame_needed = 0, uses_anonymous_args = 0
	stmfd	sp!, {r4, lr}	@,
	.save {r4, lr}
	mov	r4, r0	@ pH264Ctx, pH264Ctx
	bl	ClearAllSlice	@
	add	r0, r4, #12288	@ tmp117, pH264Ctx,
	add	r3, r4, #20480	@ tmp115, pH264Ctx,
	mov	r2, #0	@ tmp124,
	movw	r1, #23352	@ tmp121,
	ldr	r0, [r0, #1288]	@ pH264Ctx_2(D)->MaxPpsNum, pH264Ctx_2(D)->MaxPpsNum
	movt	r1, 1	@ tmp121,
	mov	ip, #2	@ tmp128,
	str	r1, [r3, #1864]	@ tmp121, pH264Ctx_2(D)->PrevSlice.frame_num
	strb	ip, [r3, #1849]	@ tmp128, pH264Ctx_2(D)->PrevSlice.bottom_field_flag
	mov	r1, #7	@ tmp132,
	str	r0, [r3, #1856]	@ pH264Ctx_2(D)->MaxPpsNum, pH264Ctx_2(D)->PrevSlice.pic_parameter_set_id
	mov	r0, #32	@ tmp135,
	str	r1, [r3, #1860]	@ tmp132, pH264Ctx_2(D)->PrevSlice.nal_ref_idc
	mov	r1, #3	@ tmp139,
	strb	r0, [r3, #1850]	@ tmp135, pH264Ctx_2(D)->PrevSlice.nal_unit_type
	mvn	r0, #0	@ tmp142,
	str	r1, [r3, #1872]	@ tmp139, pH264Ctx_2(D)->PrevSlice.pic_oder_cnt_lsb
	mov	r1, #262144	@ tmp151,
	str	r0, [r3, #1876]	@ tmp142, pH264Ctx_2(D)->PrevSlice.delta_pic_oder_cnt_bottom
	mov	r0, r2	@, tmp124
	str	r1, [r3, #1888]	@ tmp151, pH264Ctx_2(D)->PrevSlice.first_mb_in_slice
	strb	r2, [r3, #1848]	@ tmp124, pH264Ctx_2(D)->PrevSlice.field_pic_flag
	str	r2, [r3, #1880]	@ tmp124, pH264Ctx_2(D)->PrevSlice.delta_pic_order_cnt
	str	r2, [r3, #1884]	@ tmp124, pH264Ctx_2(D)->PrevSlice.delta_pic_order_cnt
	ldmfd	sp!, {r4, pc}	@
	.fnend
	.size	H264_ClearCurrPic, .-H264_ClearCurrPic
	.align	2
	.global	GetMinPOC
	.type	GetMinPOC, %function
GetMinPOC:
	.fnstart
	@ args = 0, pretend = 0, frame = 0
	@ frame_needed = 0, uses_anonymous_args = 0
	stmfd	sp!, {r4, r5, lr}	@,
	.save {r4, r5, lr}
	add	r5, r0, #24576	@ tmp138, pH264Ctx,
	mov	ip, #0	@ tmp124,
	mvn	r3, #-2147483648	@ tmp125,
	str	ip, [r2]	@ tmp124, *pos_6(D)
	str	r3, [r1]	@ tmp125, *poc_8(D)
	ldr	r3, [r5, #2052]	@ D.38939, pH264Ctx_10(D)->DPB.used_size
	ldr	ip, [r5, #2048]	@ D.38939, pH264Ctx_10(D)->DPB.size
	cmp	r3, ip	@ D.38939, D.38939
	strhi	ip, [r5, #2052]	@ D.38939, pH264Ctx_10(D)->DPB.used_size
	movhi	r3, ip	@ D.38939, D.38939
	cmp	r3, #0	@ D.38939,
	ldmeqfd	sp!, {r4, r5, pc}	@
	add	r0, r0, #26368	@ ivtmp.397, pH264Ctx,
	mov	r3, #0	@ i,
	add	r0, r0, #60	@ ivtmp.397, ivtmp.397,
.L93:
	ldr	ip, [r0, #4]!	@ D.38941, MEM[base: _1, offset: 0B]
	ldr	r4, [r1]	@ *poc_8(D), *poc_8(D)
	ldr	lr, [ip, #524]	@ D.38940, _16->poc
	cmp	r4, lr	@ *poc_8(D), D.38940
	ble	.L92	@,
	ldrb	ip, [ip, #4]	@ zero_extendqisi2	@ _16->is_in_dpb, _16->is_in_dpb
	cmp	ip, #0	@ _16->is_in_dpb,
	strne	lr, [r1]	@ D.38940, *poc_8(D)
	strne	r3, [r2]	@ i, *pos_6(D)
.L92:
	ldr	ip, [r5, #2052]	@ pH264Ctx_10(D)->DPB.used_size, pH264Ctx_10(D)->DPB.used_size
	add	r3, r3, #1	@ i, i,
	cmp	ip, r3	@ pH264Ctx_10(D)->DPB.used_size, i
	bhi	.L93	@,
	ldmfd	sp!, {r4, r5, pc}	@
	.fnend
	.size	GetMinPOC, .-GetMinPOC
	.align	2
	.global	GetMaxPOC
	.type	GetMaxPOC, %function
GetMaxPOC:
	.fnstart
	@ args = 0, pretend = 0, frame = 0
	@ frame_needed = 0, uses_anonymous_args = 0
	stmfd	sp!, {r4, r5, lr}	@,
	.save {r4, r5, lr}
	add	r5, r0, #24576	@ tmp145, pH264Ctx,
	mov	r3, #0	@ tmp126,
	str	r3, [r2]	@ tmp126, *pos_6(D)
	ldr	r3, [r5, #2048]	@ D.38961, pH264Ctx_8(D)->DPB.size
	ldr	ip, [r5, #2052]	@ pH264Ctx_8(D)->DPB.used_size, pH264Ctx_8(D)->DPB.used_size
	cmp	ip, r3	@ pH264Ctx_8(D)->DPB.used_size, D.38961
	strhi	r3, [r5, #2052]	@ D.38961, pH264Ctx_8(D)->DPB.used_size
	ldr	r3, [r5, #1856]	@ pH264Ctx_8(D)->DPB.fs, pH264Ctx_8(D)->DPB.fs
	ldr	r4, [r3, #524]	@ D.38965, _12->poc
	str	r4, [r1]	@ D.38965, *poc_14(D)
	ldr	r3, [r5, #2052]	@ pH264Ctx_8(D)->DPB.used_size, pH264Ctx_8(D)->DPB.used_size
	cmp	r3, #0	@ pH264Ctx_8(D)->DPB.used_size,
	ldmeqfd	sp!, {r4, r5, pc}	@
	add	r0, r0, #26368	@ ivtmp.413, pH264Ctx,
	mov	r3, #0	@ i,
	add	r0, r0, #60	@ ivtmp.413, ivtmp.413,
.L105:
	ldr	ip, [r0, #4]!	@ D.38962, MEM[base: _31, offset: 0B]
	ldr	lr, [ip, #524]	@ D.38963, _18->poc
	cmp	lr, r4	@ D.38963, D.38965
	ble	.L103	@,
	ldrb	ip, [ip, #4]	@ zero_extendqisi2	@ _18->is_in_dpb, _18->is_in_dpb
	cmp	ip, #0	@ _18->is_in_dpb,
	strne	lr, [r1]	@ D.38963, *poc_14(D)
	strne	r3, [r2]	@ i, *pos_6(D)
.L103:
	ldr	ip, [r5, #2052]	@ pH264Ctx_8(D)->DPB.used_size, pH264Ctx_8(D)->DPB.used_size
	add	r3, r3, #1	@ i, i,
	cmp	ip, r3	@ pH264Ctx_8(D)->DPB.used_size, i
	ldmlsfd	sp!, {r4, r5, pc}	@
	ldr	r4, [r1]	@ D.38965, *poc_14(D)
	b	.L105	@
	.fnend
	.size	GetMaxPOC, .-GetMaxPOC
	.align	2
	.global	FrameStoreRefFlg
	.type	FrameStoreRefFlg, %function
FrameStoreRefFlg:
	.fnstart
	@ args = 0, pretend = 0, frame = 0
	@ frame_needed = 0, uses_anonymous_args = 0
	@ link register save eliminated.
	ldrb	r0, [r0, #2]	@ zero_extendqisi2	@ pFS_2(D)->is_reference, pFS_2(D)->is_reference
	adds	r0, r0, #0	@, pFS_2(D)->is_reference,
	movne	r0, #1	@,
	bx	lr	@
	.fnend
	.size	FrameStoreRefFlg, .-FrameStoreRefFlg
	.align	2
	.global	ShortTermRefFlg
	.type	ShortTermRefFlg, %function
ShortTermRefFlg:
	.fnstart
	@ args = 0, pretend = 0, frame = 0
	@ frame_needed = 0, uses_anonymous_args = 0
	@ link register save eliminated.
	ldrb	r3, [r0, #2]	@ zero_extendqisi2	@ D.38976, pFS_3(D)->is_reference
	cmp	r3, #3	@ D.38976,
	beq	.L126	@,
	tst	r3, #1	@ D.38976,
	bne	.L127	@,
.L115:
	and	r3, r3, #2	@ tmp134, D.38976,
	ands	r3, r3, #255	@ tmp136, tmp134,
	beq	.L119	@,
.L116:
	ldr	r0, [r0, #472]	@ *pFS_3(D), *pFS_3(D)
	bic	r0, r0, #-16777216	@ D.38977, *pFS_3(D),
	bic	r0, r0, #255	@ D.38977, D.38977,
	sub	r0, r0, #65536	@ D.38975, D.38977,
	clz	r0, r0	@ D.38975, D.38975
	mov	r0, r0, lsr #5	@ D.38975, D.38975,
	bx	lr	@
.L119:
	mov	r0, r3	@ D.38975, tmp136
	bx	lr	@
.L127:
	ldr	r2, [r0, #436]	@ *pFS_3(D), *pFS_3(D)
	bic	r2, r2, #-16777216	@ D.38977, *pFS_3(D),
	bic	r2, r2, #255	@ D.38977, D.38977,
	cmp	r2, #65536	@ D.38977,
	bne	.L115	@,
.L120:
	mov	r0, #1	@ D.38975,
	bx	lr	@
.L126:
	ldr	r3, [r0, #400]	@ *pFS_3(D), *pFS_3(D)
	bic	r3, r3, #-16777216	@ D.38977, *pFS_3(D),
	bic	r3, r3, #255	@ D.38977, D.38977,
	cmp	r3, #65536	@ D.38977,
	beq	.L120	@,
	ldr	r3, [r0, #436]	@ *pFS_3(D), *pFS_3(D)
	bic	r3, r3, #-16777216	@ D.38977, *pFS_3(D),
	bic	r3, r3, #255	@ D.38977, D.38977,
	cmp	r3, #65536	@ D.38977,
	bne	.L116	@,
	b	.L120	@
	.fnend
	.size	ShortTermRefFlg, .-ShortTermRefFlg
	.align	2
	.global	LongTermRefFlg
	.type	LongTermRefFlg, %function
LongTermRefFlg:
	.fnstart
	@ args = 0, pretend = 0, frame = 0
	@ frame_needed = 0, uses_anonymous_args = 0
	@ link register save eliminated.
	ldrb	r3, [r0, #2]	@ zero_extendqisi2	@ D.38982, pFS_3(D)->is_reference
	cmp	r3, #3	@ D.38982,
	beq	.L143	@,
	tst	r3, #1	@ D.38982,
	bne	.L144	@,
.L132:
	and	r3, r3, #2	@ tmp134, D.38982,
	ands	r3, r3, #255	@ tmp136, tmp134,
	beq	.L136	@,
.L133:
	ldr	r0, [r0, #472]	@ *pFS_3(D), *pFS_3(D)
	bic	r0, r0, #-16777216	@ D.38983, *pFS_3(D),
	bic	r0, r0, #255	@ D.38983, D.38983,
	sub	r0, r0, #256	@ D.38981, D.38983,
	clz	r0, r0	@ D.38981, D.38981
	mov	r0, r0, lsr #5	@ D.38981, D.38981,
	bx	lr	@
.L136:
	mov	r0, r3	@ D.38981, tmp136
	bx	lr	@
.L144:
	ldr	r2, [r0, #436]	@ *pFS_3(D), *pFS_3(D)
	bic	r2, r2, #-16777216	@ D.38983, *pFS_3(D),
	bic	r2, r2, #255	@ D.38983, D.38983,
	cmp	r2, #256	@ D.38983,
	bne	.L132	@,
.L137:
	mov	r0, #1	@ D.38981,
	bx	lr	@
.L143:
	ldr	r3, [r0, #400]	@ *pFS_3(D), *pFS_3(D)
	bic	r3, r3, #-16777216	@ D.38983, *pFS_3(D),
	bic	r3, r3, #255	@ D.38983, D.38983,
	cmp	r3, #256	@ D.38983,
	beq	.L137	@,
	ldr	r3, [r0, #436]	@ *pFS_3(D), *pFS_3(D)
	bic	r3, r3, #-16777216	@ D.38983, *pFS_3(D),
	bic	r3, r3, #255	@ D.38983, D.38983,
	cmp	r3, #256	@ D.38983,
	bne	.L133	@,
	b	.L137	@
	.fnend
	.size	LongTermRefFlg, .-LongTermRefFlg
	.align	2
	.global	UpdateLTReflist
	.type	UpdateLTReflist, %function
UpdateLTReflist:
	.fnstart
	@ args = 0, pretend = 0, frame = 0
	@ frame_needed = 0, uses_anonymous_args = 0
	stmfd	sp!, {r4, r5, r6, r7, r8, r9, r10, lr}	@,
	.save {r4, r5, r6, r7, r8, r9, r10, lr}
	add	r10, r0, #24576	@ tmp139, pH264Ctx,
	mov	r6, r0	@ pH264Ctx, pH264Ctx
	ldr	r9, [r10, #2052]	@ D.39013, pH264Ctx_9(D)->DPB.used_size
	cmp	r9, #0	@ D.39013,
	beq	.L152	@,
	add	r8, r0, #26368	@ ivtmp.446, pH264Ctx,
	mov	r4, #0	@ j,
	add	r8, r8, #60	@ ivtmp.446, ivtmp.446,
	mov	r5, r4	@ i, j
.L148:
	ldr	r7, [r8, #4]!	@ D.39012, MEM[base: _36, offset: 0B]
	add	r5, r5, #1	@ i, i,
	mov	r0, r7	@, D.39012
	bl	LongTermRefFlg	@
	add	r3, r4, #6592	@ tmp130, j,
	add	r3, r3, #48	@ tmp130, tmp130,
	cmp	r0, #0	@,
	strne	r7, [r6, r3, asl #2]	@ D.39012, pH264Ctx_9(D)->DPB.fs_ltref
	addne	r4, r4, #1	@ j, j,
	cmp	r5, r9	@ i, D.39013
	bne	.L148	@,
.L146:
	ldr	r3, [r10, #2048]	@ D.39013, pH264Ctx_9(D)->DPB.size
	str	r4, [r10, #2060]	@ j, pH264Ctx_9(D)->DPB.ltref_frames_in_buffer
	cmp	r3, r4	@ D.39013, j
	ldmlsfd	sp!, {r4, r5, r6, r7, r8, r9, r10, pc}	@
	add	r0, r4, #6592	@ D.39014, j,
	mov	r2, #0	@ tmp140,
	add	r0, r0, #47	@ D.39014, D.39014,
	add	r0, r6, r0, lsl #2	@ ivtmp.435, pH264Ctx, D.39014,
.L150:
	add	r4, r4, #1	@ j, j,
	str	r2, [r0, #4]!	@ tmp140, MEM[base: _1, offset: 0B]
	cmp	r4, r3	@ j, D.39013
	bne	.L150	@,
	ldmfd	sp!, {r4, r5, r6, r7, r8, r9, r10, pc}	@
.L152:
	mov	r4, r9	@ j, D.39013
	b	.L146	@
	.fnend
	.size	UpdateLTReflist, .-UpdateLTReflist
	.align	2
	.global	UpdateReflist
	.type	UpdateReflist, %function
UpdateReflist:
	.fnstart
	@ args = 0, pretend = 0, frame = 0
	@ frame_needed = 0, uses_anonymous_args = 0
	stmfd	sp!, {r4, r5, r6, r7, r8, r9, r10, lr}	@,
	.save {r4, r5, r6, r7, r8, r9, r10, lr}
	add	r10, r0, #24576	@ tmp139, pH264Ctx,
	mov	r6, r0	@ pH264Ctx, pH264Ctx
	ldr	r9, [r10, #2052]	@ D.39044, pH264Ctx_9(D)->DPB.used_size
	cmp	r9, #0	@ D.39044,
	beq	.L166	@,
	add	r8, r0, #26368	@ ivtmp.471, pH264Ctx,
	mov	r4, #0	@ j,
	add	r8, r8, #60	@ ivtmp.471, ivtmp.471,
	mov	r5, r4	@ i, j
.L162:
	ldr	r7, [r8, #4]!	@ D.39043, MEM[base: _36, offset: 0B]
	add	r5, r5, #1	@ i, i,
	mov	r0, r7	@, D.39043
	bl	ShortTermRefFlg	@
	add	r3, r4, #6592	@ tmp130, j,
	add	r3, r3, #32	@ tmp130, tmp130,
	cmp	r0, #0	@,
	strne	r7, [r6, r3, asl #2]	@ D.39043, pH264Ctx_9(D)->DPB.fs_ref
	addne	r4, r4, #1	@ j, j,
	cmp	r5, r9	@ i, D.39044
	bne	.L162	@,
.L160:
	ldr	r3, [r10, #2048]	@ D.39044, pH264Ctx_9(D)->DPB.size
	str	r4, [r10, #2056]	@ j, pH264Ctx_9(D)->DPB.ref_frames_in_buffer
	cmp	r3, r4	@ D.39044, j
	ldmlsfd	sp!, {r4, r5, r6, r7, r8, r9, r10, pc}	@
	add	r0, r4, #6592	@ D.39045, j,
	mov	r2, #0	@ tmp140,
	add	r0, r0, #31	@ D.39045, D.39045,
	add	r0, r6, r0, lsl #2	@ ivtmp.460, pH264Ctx, D.39045,
.L164:
	add	r4, r4, #1	@ j, j,
	str	r2, [r0, #4]!	@ tmp140, MEM[base: _1, offset: 0B]
	cmp	r4, r3	@ j, D.39044
	bne	.L164	@,
	ldmfd	sp!, {r4, r5, r6, r7, r8, r9, r10, pc}	@
.L166:
	mov	r4, r9	@ j, D.39044
	b	.L160	@
	.fnend
	.size	UpdateReflist, .-UpdateReflist
	.align	2
	.global	GetPicNumX
	.type	GetPicNumX, %function
GetPicNumX:
	.fnstart
	@ args = 0, pretend = 0, frame = 0
	@ frame_needed = 0, uses_anonymous_args = 0
	@ link register save eliminated.
	ldrb	r3, [r0, #3]	@ zero_extendqisi2	@ pCurrPic_3(D)->structure, pCurrPic_3(D)->structure
	cmp	r3, #0	@ pCurrPic_3(D)->structure,
	ldr	r3, [r0, #416]	@ CurrPicNum, pCurrPic_3(D)->frame_num
	mvn	r0, r1	@ D.39050, difference_of_pic_nums_minus1
	movne	r3, r3, asl #1	@ D.39050, pCurrPic_3(D)->frame_num,
	addne	r3, r3, #1	@ CurrPicNum, D.39050,
	add	r0, r0, r3	@, D.39050, CurrPicNum
	bx	lr	@
	.fnend
	.size	GetPicNumX, .-GetPicNumX
	.align	2
	.global	UnMarkFrameStoreRef
	.type	UnMarkFrameStoreRef, %function
UnMarkFrameStoreRef:
	.fnstart
	@ args = 0, pretend = 0, frame = 0
	@ frame_needed = 0, uses_anonymous_args = 0
	@ link register save eliminated.
	ldrb	r3, [r1, #1]	@ zero_extendqisi2	@ D.39053, pFrameStore_5(D)->is_used
	tst	r3, #1	@ D.39053,
	beq	.L177	@,
	ldrb	r2, [r1, #2]	@ zero_extendqisi2	@ pFrameStore_5(D)->is_reference, pFrameStore_5(D)->is_reference
	mov	ip, #0	@ tmp128,
	strb	ip, [r1, #437]	@ tmp128, pFrameStore_5(D)->top_field.is_long_term
	and	r2, r2, #2	@ tmp126, pFrameStore_5(D)->is_reference,
	strb	ip, [r1, #438]	@ tmp128, pFrameStore_5(D)->top_field.is_short_term
	strb	r2, [r1, #2]	@ tmp126, pFrameStore_5(D)->is_reference
.L177:
	tst	r3, #2	@ D.39053,
	beq	.L178	@,
	ldrb	r2, [r1, #2]	@ zero_extendqisi2	@ pFrameStore_5(D)->is_reference, pFrameStore_5(D)->is_reference
	mov	ip, #0	@ tmp139,
	strb	ip, [r1, #473]	@ tmp139, pFrameStore_5(D)->bottom_field.is_long_term
	and	r2, r2, #1	@ tmp137, pFrameStore_5(D)->is_reference,
	strb	ip, [r1, #474]	@ tmp139, pFrameStore_5(D)->bottom_field.is_short_term
	strb	r2, [r1, #2]	@ tmp137, pFrameStore_5(D)->is_reference
.L178:
	cmp	r3, #3	@ D.39053,
	add	r0, r0, #49152	@ tmp151, pH264Ctx,
	moveq	r3, #0	@ tmp143,
	streqb	r3, [r1, #402]	@ tmp143, pFrameStore_5(D)->frame.is_short_term
	streqb	r3, [r1, #401]	@ tmp143, pFrameStore_5(D)->frame.is_long_term
	mov	r3, #0	@ tmp147,
	mov	r2, r3	@, tmp147
	strb	r3, [r1, #2]	@ tmp147, pFrameStore_5(D)->is_reference
	ldr	r1, [r1, #508]	@, pFrameStore_5(D)->logic_fs_id
	ldr	r0, [r0, #3688]	@, pH264Ctx_22(D)->ChanID
	b	FSP_SetRef	@
	.fnend
	.size	UnMarkFrameStoreRef, .-UnMarkFrameStoreRef
	.align	2
	.type	SlidingWinMark.part.2, %function
SlidingWinMark.part.2:
	.fnstart
	@ args = 0, pretend = 0, frame = 0
	@ frame_needed = 0, uses_anonymous_args = 0
	add	r3, r0, #24576	@ tmp120, pH264Ctx,
	stmfd	sp!, {r4, r5, r6, r7, r8, lr}	@,
	.save {r4, r5, r6, r7, r8, lr}
	ldr	r7, [r3, #2052]	@ D.39070, pH264Ctx_1(D)->DPB.used_size
	cmp	r7, #0	@ D.39070,
	ldmeqfd	sp!, {r4, r5, r6, r7, r8, pc}	@
	add	r6, r0, #26368	@ ivtmp.488, pH264Ctx,
	mov	r8, r0	@ pH264Ctx, pH264Ctx
	add	r6, r6, #60	@ ivtmp.488, ivtmp.488,
	mov	r4, #0	@ i,
.L189:
	ldr	r5, [r6, #4]!	@ D.39068, MEM[base: _17, offset: 0B]
	add	r4, r4, #1	@ i, i,
	ldrb	r3, [r5, #2]	@ zero_extendqisi2	@ _3->is_reference, _3->is_reference
	mov	r0, r5	@, D.39068
	cmp	r3, #0	@ _3->is_reference,
	beq	.L188	@,
	bl	ShortTermRefFlg	@
	cmp	r0, #0	@,
	bne	.L201	@,
.L188:
	cmp	r4, r7	@ i, D.39070
	bne	.L189	@,
	ldmfd	sp!, {r4, r5, r6, r7, r8, pc}	@
.L201:
	mov	r0, r8	@, pH264Ctx
	mov	r1, r5	@, D.39068
	bl	UnMarkFrameStoreRef	@
	mov	r0, r8	@, pH264Ctx
	ldmfd	sp!, {r4, r5, r6, r7, r8, lr}	@
	b	UpdateReflist	@
	.fnend
	.size	SlidingWinMark.part.2, .-SlidingWinMark.part.2
	.align	2
	.global	UnMarkLTFrmByFrmIdx
	.type	UnMarkLTFrmByFrmIdx, %function
UnMarkLTFrmByFrmIdx:
	.fnstart
	@ args = 0, pretend = 0, frame = 0
	@ frame_needed = 0, uses_anonymous_args = 0
	add	r3, r0, #24576	@ tmp121, pH264Ctx,
	stmfd	sp!, {r4, lr}	@,
	.save {r4, lr}
	ldr	r4, [r3, #2060]	@ D.39087, pH264Ctx_4(D)->DPB.ltref_frames_in_buffer
	cmp	r4, #0	@ D.39087,
	ldmeqfd	sp!, {r4, pc}	@
	ldr	ip, [r3, #1984]	@ D.39086, pH264Ctx_4(D)->DPB.fs_ltref
	ldr	r3, [ip, #520]	@ _14->long_term_frame_idx, _14->long_term_frame_idx
	cmp	r3, r1	@ _14->long_term_frame_idx, long_term_frame_idx
	addne	r2, r0, #26368	@ ivtmp.501, pH264Ctx,
	movne	r3, #0	@ i,
	addne	r2, r2, #192	@ ivtmp.501, ivtmp.501,
	bne	.L206	@,
	b	.L204	@
.L207:
	ldr	ip, [r2, #4]!	@ D.39086, MEM[base: _19, offset: 0B]
	ldr	lr, [ip, #520]	@ _6->long_term_frame_idx, _6->long_term_frame_idx
	cmp	lr, r1	@ _6->long_term_frame_idx, long_term_frame_idx
	beq	.L204	@,
.L206:
	add	r3, r3, #1	@ i, i,
	cmp	r3, r4	@ i, D.39087
	bne	.L207	@,
	ldmfd	sp!, {r4, pc}	@
.L204:
	mov	r1, ip	@, D.39086
	ldmfd	sp!, {r4, lr}	@
	b	UnMarkFrameStoreRef	@
	.fnend
	.size	UnMarkLTFrmByFrmIdx, .-UnMarkLTFrmByFrmIdx
	.align	2
	.global	UnMarkLTFldByFrmIdx
	.type	UnMarkLTFldByFrmIdx, %function
UnMarkLTFldByFrmIdx:
	.fnstart
	@ args = 0, pretend = 0, frame = 0
	@ frame_needed = 0, uses_anonymous_args = 0
	add	ip, r0, #24576	@ tmp130, pH264Ctx,
	stmfd	sp!, {r4, r5, r6, lr}	@,
	.save {r4, r5, r6, lr}
	ldr	r6, [ip, #2060]	@ D.39104, pH264Ctx_4(D)->DPB.ltref_frames_in_buffer
	cmp	r6, #0	@ D.39104,
	ldmeqfd	sp!, {r4, r5, r6, pc}	@
	add	r4, r0, #26368	@ ivtmp.514, pH264Ctx,
	mov	ip, #0	@ i,
	add	r4, r4, #188	@ ivtmp.514, ivtmp.514,
	b	.L218	@
.L216:
	cmp	ip, r6	@ i, D.39104
	beq	.L233	@,
.L218:
	ldr	lr, [r4, #4]!	@ D.39103, MEM[base: _27, offset: 0B]
	add	ip, ip, #1	@ i, i,
	ldr	r5, [lr, #520]	@ _6->long_term_frame_idx, _6->long_term_frame_idx
	cmp	r5, r3	@ _6->long_term_frame_idx, long_term_frame_idx
	bne	.L216	@,
	cmp	r2, #1	@ structure,
	ldreqb	r5, [lr, #473]	@ zero_extendqisi2	@ _6->bottom_field.is_long_term, _6->bottom_field.is_long_term
	beq	.L232	@,
	cmp	r2, #2	@ structure,
	bne	.L216	@,
	ldrb	r5, [lr, #437]	@ zero_extendqisi2	@ _6->top_field.is_long_term, _6->top_field.is_long_term
.L232:
	clz	r5, r5	@ tmp145, _6->top_field.is_long_term
	mov	r5, r5, lsr #5	@ tmp145, tmp145,
	cmp	lr, r1	@ D.39103, pFS
	orrne	r5, r5, #1	@,, tmp148, tmp145
	cmp	r5, #0	@ tmp148,
	beq	.L216	@,
	mov	r1, lr	@, D.39103
	ldmfd	sp!, {r4, r5, r6, lr}	@
	b	UnMarkFrameStoreRef	@
.L233:
	ldmfd	sp!, {r4, r5, r6, pc}	@
	.fnend
	.size	UnMarkLTFldByFrmIdx, .-UnMarkLTFldByFrmIdx
	.align	2
	.global	UnMarkSTRef
	.type	UnMarkSTRef, %function
UnMarkSTRef:
	.fnstart
	@ args = 0, pretend = 0, frame = 0
	@ frame_needed = 0, uses_anonymous_args = 0
	stmfd	sp!, {r4, r5, r6, lr}	@,
	.save {r4, r5, r6, lr}
	ldrb	r3, [r1, #3]	@ zero_extendqisi2	@ pCurrPic_9(D)->structure, pCurrPic_9(D)->structure
	cmp	r3, #0	@ pCurrPic_9(D)->structure,
	bne	.L235	@,
	add	ip, r0, #24576	@ tmp179, pH264Ctx,
	ldr	r1, [r1, #416]	@ pCurrPic_9(D)->frame_num, pCurrPic_9(D)->frame_num
	ldr	r4, [ip, #2056]	@ D.39135, pH264Ctx_10(D)->DPB.ref_frames_in_buffer
	sub	r1, r1, #1	@ D.39135, pCurrPic_9(D)->frame_num,
	rsb	r2, r2, r1	@ picNumX, difference_of_pic_nums_minus1, D.39135
	cmp	r4, #0	@ D.39135,
	beq	.L264	@,
	add	ip, r0, #26368	@ ivtmp.527, pH264Ctx,
	add	ip, ip, #124	@ ivtmp.527, ivtmp.527,
	b	.L241	@
.L240:
	cmp	r3, r4	@ i, D.39135
	beq	.L265	@,
.L241:
	ldr	r1, [ip, #4]!	@ D.39136, MEM[base: _29, offset: 0B]
	add	r3, r3, #1	@ i, i,
	ldr	lr, [r1, #412]	@ _12->frame.pic_num, _12->frame.pic_num
	cmp	lr, r2	@ _12->frame.pic_num, picNumX
	bne	.L240	@,
	ldrb	lr, [r1, #2]	@ zero_extendqisi2	@ _12->is_reference, _12->is_reference
	cmp	lr, #3	@ _12->is_reference,
	bne	.L240	@,
	ldr	lr, [r1, #400]	@ *_12, *_12
	bic	lr, lr, #-16777216	@ D.39135, *_12,
	bic	lr, lr, #255	@ D.39135, D.39135,
	cmp	lr, #65536	@ D.39135,
	bne	.L240	@,
	ldmfd	sp!, {r4, r5, r6, lr}	@
	b	UnMarkFrameStoreRef	@
.L235:
	add	r3, r0, #24576	@ tmp183, pH264Ctx,
	ldr	r1, [r1, #416]	@ pCurrPic_9(D)->frame_num, pCurrPic_9(D)->frame_num
	ldr	r5, [r3, #2056]	@ D.39135, pH264Ctx_10(D)->DPB.ref_frames_in_buffer
	rsb	r2, r2, r1, lsl #1	@ picNumX, difference_of_pic_nums_minus1, pCurrPic_9(D)->frame_num,
	cmp	r5, #0	@ D.39135,
	beq	.L266	@,
	add	r4, r0, #26368	@ ivtmp.538, pH264Ctx,
	mov	ip, #0	@ i,
	add	r4, r4, #124	@ ivtmp.538, ivtmp.538,
	b	.L246	@
.L242:
	tst	r3, #2	@ D.39138,
	beq	.L244	@,
	ldr	r3, [r1, #472]	@ *_21, *_21
	bic	r3, r3, #-16777216	@ D.39135, *_21,
	bic	r3, r3, #255	@ D.39135, D.39135,
	cmp	r3, #65536	@ D.39135,
	beq	.L267	@,
.L244:
	add	ip, ip, #1	@ i, i,
	cmp	ip, r5	@ i, D.39135
	beq	.L268	@,
.L246:
	ldr	r1, [r4, #4]!	@ D.39136, MEM[base: _1, offset: 0B]
	ldrb	r3, [r1, #2]	@ zero_extendqisi2	@ D.39138, _21->is_reference
	ands	r6, r3, #1	@ D.39138, D.39138,
	beq	.L242	@,
	ldr	lr, [r1, #436]	@ *_21, *_21
	bic	lr, lr, #-16777216	@ D.39135, *_21,
	bic	lr, lr, #255	@ D.39135, D.39135,
	cmp	lr, #65536	@ D.39135,
	bne	.L242	@,
	ldr	lr, [r1, #448]	@ _21->top_field.pic_num, _21->top_field.pic_num
	cmp	lr, r2	@ _21->top_field.pic_num, picNumX
	bne	.L242	@,
	add	r2, r0, ip, lsl #2	@ D.39141, pH264Ctx, i,
	and	r3, r3, #2	@ tmp196, D.39138,
	add	r2, r2, #24576	@ tmp200, D.39141,
	strb	r3, [r1, #2]	@ tmp196, _86->is_reference
	mov	r1, #0	@ tmp201,
	ldr	r3, [r2, #1920]	@ D.39136, MEM[(struct H264_CTX_S *)_107 + 26496B]
	strb	r1, [r3, #438]	@ tmp201, _58->top_field.is_short_term
	ldr	r3, [r2, #1920]	@ D.39136, MEM[(struct H264_CTX_S *)_107 + 26496B]
	ldrb	ip, [r3, #400]	@ zero_extendqisi2	@ D.39138, _60->frame.structure
	cmp	ip, #3	@ D.39138,
	cmpne	ip, r1	@, D.39138,
	streqb	r1, [r3, #402]	@ tmp201, _60->frame.is_short_term
	ldreq	r3, [r2, #1920]	@ D.39136, MEM[(struct H264_CTX_S *)_107 + 26496B]
	streqb	r1, [r3, #401]	@ tmp201, _66->frame.is_long_term
	ldreq	r3, [r2, #1920]	@ D.39136, MEM[(struct H264_CTX_S *)_107 + 26496B]
	ldrb	r1, [r3, #2]	@ zero_extendqisi2	@ _96->is_reference, _96->is_reference
	cmp	r1, #0	@ _96->is_reference,
	ldmnefd	sp!, {r4, r5, r6, pc}	@
	ldr	ip, [r3, #548]	@ D.39135, _96->pmv_address_idc
	add	lr, r0, #49152	@ tmp226, pH264Ctx,
	mov	r2, r1	@, _96->is_reference
	add	ip, ip, #12800	@ tmp222, D.39135,
	add	ip, ip, #12	@ tmp222, tmp222,
	str	r1, [r0, ip, asl #2]	@ _96->is_reference, pH264Ctx_10(D)->PmvStoreUsedFlag
	ldr	r0, [lr, #3688]	@, pH264Ctx_10(D)->ChanID
	ldr	r1, [r3, #508]	@, _96->logic_fs_id
	ldmfd	sp!, {r4, r5, r6, lr}	@
	b	FSP_SetRef	@
.L267:
	ldr	r3, [r1, #484]	@ _21->bottom_field.pic_num, _21->bottom_field.pic_num
	cmp	r3, r2	@ _21->bottom_field.pic_num, picNumX
	bne	.L244	@,
	add	r3, r0, ip, lsl #2	@ D.39141, pH264Ctx, i,
	strb	r6, [r1, #2]	@ D.39138, _84->is_reference
	add	r3, r3, #24576	@ tmp238, D.39141,
	mov	r2, #0	@ tmp239,
	ldr	r1, [r3, #1920]	@ D.39136, MEM[(struct H264_CTX_S *)_99 + 26496B]
	strb	r2, [r1, #474]	@ tmp239, _31->bottom_field.is_short_term
	ldr	r1, [r3, #1920]	@ D.39136, MEM[(struct H264_CTX_S *)_99 + 26496B]
	ldrb	ip, [r1, #400]	@ zero_extendqisi2	@ D.39138, _33->frame.structure
	cmp	ip, #3	@ D.39138,
	cmpne	ip, r2	@, D.39138,
	streqb	r2, [r1, #402]	@ tmp239, _33->frame.is_short_term
	ldreq	r1, [r3, #1920]	@ D.39136, MEM[(struct H264_CTX_S *)_99 + 26496B]
	streqb	r2, [r1, #401]	@ tmp239, _39->frame.is_long_term
	ldreq	r1, [r3, #1920]	@ D.39136, MEM[(struct H264_CTX_S *)_99 + 26496B]
	ldrb	r3, [r1, #2]	@ zero_extendqisi2	@ _43->is_reference, _43->is_reference
	cmp	r3, #0	@ _43->is_reference,
	ldmnefd	sp!, {r4, r5, r6, pc}	@
	ldr	ip, [r1, #548]	@ D.39135, _43->pmv_address_idc
	add	lr, r0, #49152	@ tmp264, pH264Ctx,
	mov	r2, r3	@, _43->is_reference
	add	ip, ip, #12800	@ tmp260, D.39135,
	add	ip, ip, #12	@ tmp260, tmp260,
	str	r3, [r0, ip, asl #2]	@ _43->is_reference, pH264Ctx_10(D)->PmvStoreUsedFlag
	ldr	r0, [lr, #3688]	@, pH264Ctx_10(D)->ChanID
	ldr	r1, [r1, #508]	@, _43->logic_fs_id
	ldmfd	sp!, {r4, r5, r6, lr}	@
	b	FSP_SetRef	@
.L268:
	ldmfd	sp!, {r4, r5, r6, pc}	@
.L265:
	ldmfd	sp!, {r4, r5, r6, pc}	@
.L264:
	ldmfd	sp!, {r4, r5, r6, pc}	@
.L266:
	ldmfd	sp!, {r4, r5, r6, pc}	@
	.fnend
	.size	UnMarkSTRef, .-UnMarkSTRef
	.align	2
	.global	UnMarkLTRef
	.type	UnMarkLTRef, %function
UnMarkLTRef:
	.fnstart
	@ args = 0, pretend = 0, frame = 0
	@ frame_needed = 0, uses_anonymous_args = 0
	stmfd	sp!, {r4, r5, r6, lr}	@,
	.save {r4, r5, r6, lr}
	ldrb	r3, [r1, #3]	@ zero_extendqisi2	@ pCurrPic_3(D)->structure, pCurrPic_3(D)->structure
	cmp	r3, #0	@ pCurrPic_3(D)->structure,
	beq	.L270	@,
	add	r3, r0, #24576	@ tmp164, pH264Ctx,
	ldr	r5, [r3, #2060]	@ D.39175, pH264Ctx_5(D)->DPB.ltref_frames_in_buffer
	cmp	r5, #0	@ D.39175,
	beq	.L299	@,
	add	r4, r0, #26368	@ ivtmp.562, pH264Ctx,
	mov	ip, #0	@ i,
	add	r4, r4, #188	@ ivtmp.562, ivtmp.562,
	b	.L279	@
.L275:
	tst	r3, #2	@ D.39171,
	beq	.L277	@,
	ldr	r3, [r1, #472]	@ *_21, *_21
	bic	r3, r3, #-16777216	@ D.39175, *_21,
	bic	r3, r3, #255	@ D.39175, D.39175,
	cmp	r3, #256	@ D.39175,
	beq	.L300	@,
.L277:
	add	ip, ip, #1	@ i, i,
	cmp	ip, r5	@ i, D.39175
	beq	.L301	@,
.L279:
	ldr	r1, [r4, #4]!	@ D.39173, MEM[base: _1, offset: 0B]
	ldrb	r3, [r1, #2]	@ zero_extendqisi2	@ D.39171, _21->is_reference
	ands	r6, r3, #1	@ D.39171, D.39171,
	beq	.L275	@,
	ldr	lr, [r1, #436]	@ *_21, *_21
	bic	lr, lr, #-16777216	@ D.39175, *_21,
	bic	lr, lr, #255	@ D.39175, D.39175,
	cmp	lr, #256	@ D.39175,
	bne	.L275	@,
	ldr	lr, [r1, #444]	@ _21->top_field.long_term_pic_num, _21->top_field.long_term_pic_num
	cmp	r2, lr	@ long_term_pic_num, _21->top_field.long_term_pic_num
	bne	.L275	@,
	add	r2, r0, ip, lsl #2	@ D.39178, pH264Ctx, i,
	and	r3, r3, #2	@ tmp173, D.39171,
	add	r2, r2, #24576	@ tmp177, D.39178,
	strb	r3, [r1, #2]	@ tmp173, _75->is_reference
	mov	r1, #0	@ tmp178,
	ldr	r3, [r2, #1984]	@ D.39173, MEM[(struct H264_CTX_S *)_91 + 26560B]
	strb	r1, [r3, #437]	@ tmp178, _30->top_field.is_long_term
	ldr	r3, [r2, #1984]	@ D.39173, MEM[(struct H264_CTX_S *)_91 + 26560B]
	ldrb	ip, [r3, #400]	@ zero_extendqisi2	@ D.39171, _31->frame.structure
	cmp	ip, #3	@ D.39171,
	cmpne	ip, r1	@, D.39171,
	streqb	r1, [r3, #402]	@ tmp178, _31->frame.is_short_term
	ldreq	r3, [r2, #1984]	@ D.39173, MEM[(struct H264_CTX_S *)_91 + 26560B]
	streqb	r1, [r3, #401]	@ tmp178, _36->frame.is_long_term
	ldreq	r3, [r2, #1984]	@ D.39173, MEM[(struct H264_CTX_S *)_91 + 26560B]
	ldrb	r2, [r3, #2]	@ zero_extendqisi2	@ _81->is_reference, _81->is_reference
	cmp	r2, #0	@ _81->is_reference,
	ldreq	r3, [r3, #548]	@ D.39175, _81->pmv_address_idc
	addeq	r3, r3, #12800	@ tmp199, D.39175,
	addeq	r3, r3, #12	@ tmp199, tmp199,
	streq	r2, [r0, r3, asl #2]	@ _81->is_reference, pH264Ctx_5(D)->PmvStoreUsedFlag
	ldmfd	sp!, {r4, r5, r6, pc}	@
.L270:
	add	r1, r0, #24576	@ tmp166, pH264Ctx,
	ldr	r4, [r1, #2060]	@ D.39175, pH264Ctx_5(D)->DPB.ltref_frames_in_buffer
	cmp	r4, #0	@ D.39175,
	beq	.L302	@,
	add	ip, r0, #26368	@ ivtmp.551, pH264Ctx,
	add	ip, ip, #188	@ ivtmp.551, ivtmp.551,
	b	.L281	@
.L280:
	cmp	r3, r4	@ i, D.39175
	beq	.L303	@,
.L281:
	ldr	r1, [ip, #4]!	@ D.39173, MEM[base: _45, offset: 0B]
	add	r3, r3, #1	@ i, i,
	ldr	lr, [r1, #408]	@ _7->frame.long_term_pic_num, _7->frame.long_term_pic_num
	cmp	lr, r2	@ _7->frame.long_term_pic_num, long_term_pic_num
	bne	.L280	@,
	ldrb	lr, [r1, #2]	@ zero_extendqisi2	@ _7->is_reference, _7->is_reference
	cmp	lr, #3	@ _7->is_reference,
	bne	.L280	@,
	ldr	lr, [r1, #400]	@ *_7, *_7
	bic	lr, lr, #-16777216	@ D.39175, *_7,
	bic	lr, lr, #255	@ D.39175, D.39175,
	cmp	lr, #256	@ D.39175,
	bne	.L280	@,
	ldmfd	sp!, {r4, r5, r6, lr}	@
	b	UnMarkFrameStoreRef	@
.L300:
	ldr	r3, [r1, #480]	@ _21->bottom_field.long_term_pic_num, _21->bottom_field.long_term_pic_num
	cmp	r2, r3	@ long_term_pic_num, _21->bottom_field.long_term_pic_num
	bne	.L277	@,
	add	r3, r0, ip, lsl #2	@ D.39178, pH264Ctx, i,
	strb	r6, [r1, #2]	@ D.39171, _71->is_reference
	add	r3, r3, #24576	@ tmp211, D.39178,
	mov	r1, #0	@ tmp212,
	ldr	r2, [r3, #1984]	@ D.39173, MEM[(struct H264_CTX_S *)_83 + 26560B]
	strb	r1, [r2, #473]	@ tmp212, _46->bottom_field.is_long_term
	ldr	r2, [r3, #1984]	@ D.39173, MEM[(struct H264_CTX_S *)_83 + 26560B]
	ldrb	ip, [r2, #400]	@ zero_extendqisi2	@ D.39171, _47->frame.structure
	cmp	ip, #3	@ D.39171,
	cmpne	ip, r1	@, D.39171,
	streqb	r1, [r2, #402]	@ tmp212, _47->frame.is_short_term
	ldreq	r2, [r3, #1984]	@ D.39173, MEM[(struct H264_CTX_S *)_83 + 26560B]
	streqb	r1, [r2, #401]	@ tmp212, _52->frame.is_long_term
	ldreq	r2, [r3, #1984]	@ D.39173, MEM[(struct H264_CTX_S *)_83 + 26560B]
	ldrb	r1, [r2, #2]	@ zero_extendqisi2	@ _79->is_reference, _79->is_reference
	cmp	r1, #0	@ _79->is_reference,
	ldreq	r3, [r2, #548]	@ D.39175, _79->pmv_address_idc
	addeq	r3, r3, #12800	@ tmp233, D.39175,
	addeq	r3, r3, #12	@ tmp233, tmp233,
	streq	r1, [r0, r3, asl #2]	@ _79->is_reference, pH264Ctx_5(D)->PmvStoreUsedFlag
	ldmfd	sp!, {r4, r5, r6, pc}	@
.L303:
	ldmfd	sp!, {r4, r5, r6, pc}	@
.L301:
	ldmfd	sp!, {r4, r5, r6, pc}	@
.L302:
	ldmfd	sp!, {r4, r5, r6, pc}	@
.L299:
	ldmfd	sp!, {r4, r5, r6, pc}	@
	.fnend
	.size	UnMarkLTRef, .-UnMarkLTRef
	.align	2
	.global	MarkPicLTRef
	.type	MarkPicLTRef, %function
MarkPicLTRef:
	.fnstart
	@ args = 0, pretend = 0, frame = 0
	@ frame_needed = 0, uses_anonymous_args = 0
	stmfd	sp!, {r4, r5, r6, r7, lr}	@,
	.save {r4, r5, r6, r7, lr}
	ldrb	r5, [r3, #3]	@ zero_extendqisi2	@ D.39203, pCurrPic_5(D)->structure
	add	r3, r0, #24576	@ tmp195, pH264Ctx,
	cmp	r5, #0	@ D.39203,
	beq	.L305	@,
	ldr	r7, [r3, #2056]	@ D.39206, pH264Ctx_11(D)->DPB.ref_frames_in_buffer
	cmp	r7, #0	@ D.39206,
	beq	.L335	@,
	add	r6, r0, #26368	@ ivtmp.586, pH264Ctx,
	mov	ip, #0	@ i,
	add	r6, r6, #124	@ ivtmp.586, ivtmp.586,
	b	.L319	@
.L311:
	tst	r4, #2	@ D.39203,
	beq	.L314	@,
	ldr	lr, [r3, #472]	@ *_13, *_13
	bic	lr, lr, #-16777216	@ D.39206, *_13,
	bic	lr, lr, #255	@ D.39206, D.39206,
	cmp	lr, #65536	@ D.39206,
	beq	.L336	@,
.L314:
	add	ip, ip, #1	@ i, i,
	cmp	ip, r7	@ i, D.39206
	beq	.L337	@,
.L319:
	ldr	r3, [r6, #4]!	@ D.39205, MEM[base: _119, offset: 0B]
	ldrb	r4, [r3, #2]	@ zero_extendqisi2	@ D.39203, _13->is_reference
	tst	r4, #1	@ D.39203,
	beq	.L311	@,
	ldr	lr, [r3, #436]	@ *_13, *_13
	bic	lr, lr, #-16777216	@ D.39206, *_13,
	bic	lr, lr, #255	@ D.39206, D.39206,
	cmp	lr, #65536	@ D.39206,
	bne	.L311	@,
	ldr	lr, [r3, #448]	@ _13->top_field.pic_num, _13->top_field.pic_num
	cmp	lr, r2	@ _13->top_field.pic_num, picNumX
	bne	.L311	@,
	ldrb	lr, [r3, #473]	@ zero_extendqisi2	@ _13->bottom_field.is_long_term, _13->bottom_field.is_long_term
	cmp	lr, #1	@ _13->bottom_field.is_long_term,
	bne	.L315	@,
	ldr	lr, [r3, #520]	@ _13->long_term_frame_idx, _13->long_term_frame_idx
	cmp	lr, r1	@ _13->long_term_frame_idx, long_term_frame_idx
	bne	.L314	@,
.L315:
	str	r1, [r3, #520]	@ long_term_frame_idx, _109->long_term_frame_idx
	sub	r3, r5, #1	@ D.39204, D.39203,
	add	r2, r0, ip, lsl #2	@ D.39211, pH264Ctx, i,
	clz	r3, r3	@ D.39204, D.39204
	add	r2, r2, #24576	@ tmp240, D.39211,
	mov	ip, #1	@ tmp247,
	mov	r3, r3, lsr #5	@ D.39204, D.39204,
	mov	r0, #0	@ tmp251,
	add	r1, r3, r1, lsl #1	@ D.39206, D.39204, long_term_frame_idx,
	ldr	r3, [r2, #1920]	@ D.39205, MEM[(struct H264_CTX_S *)_131 + 26496B]
	str	r1, [r3, #444]	@ D.39206, _56->top_field.long_term_pic_num
	ldr	r3, [r2, #1920]	@ D.39205, MEM[(struct H264_CTX_S *)_131 + 26496B]
	strb	ip, [r3, #437]	@ tmp247, _61->top_field.is_long_term
	ldr	r3, [r2, #1920]	@ D.39205, MEM[(struct H264_CTX_S *)_131 + 26496B]
	strb	r0, [r3, #438]	@ tmp251, _63->top_field.is_short_term
	ldr	r3, [r2, #1920]	@ D.39205, MEM[(struct H264_CTX_S *)_131 + 26496B]
	ldrb	r1, [r3, #400]	@ zero_extendqisi2	@ D.39203, _65->frame.structure
	cmp	r1, #3	@ D.39203,
	cmpne	r1, r0	@, D.39203,
	bne	.L338	@,
	ldrb	r1, [r3, #473]	@ zero_extendqisi2	@ _65->bottom_field.is_long_term, _65->bottom_field.is_long_term
	ldrb	r0, [r3, #437]	@ zero_extendqisi2	@ D.39203, _65->top_field.is_long_term
	cmp	r1, r0	@ _65->bottom_field.is_long_term, D.39203
	streqb	r1, [r3, #401]	@ _65->bottom_field.is_long_term, _65->frame.is_long_term
	ldreq	r3, [r2, #1920]	@ D.39205, MEM[(struct H264_CTX_S *)_131 + 26496B]
	ldreqb	r2, [r3, #438]	@ zero_extendqisi2	@ _73->top_field.is_short_term, _73->top_field.is_short_term
	streqb	r2, [r3, #402]	@ _73->top_field.is_short_term,
	ldmfd	sp!, {r4, r5, r6, r7, pc}	@
.L305:
	ldr	r6, [r3, #2056]	@ D.39206, pH264Ctx_11(D)->DPB.ref_frames_in_buffer
	cmp	r6, #0	@ D.39206,
	ldmeqfd	sp!, {r4, r5, r6, r7, pc}	@
	add	lr, r0, #26368	@ ivtmp.575, pH264Ctx,
	mov	r3, r5	@ i, D.39203
	add	lr, lr, #124	@ ivtmp.575, ivtmp.575,
	b	.L310	@
.L309:
	add	r3, r3, #1	@ i, i,
	cmp	r3, r6	@ i, D.39206
	beq	.L339	@,
.L310:
	ldr	ip, [lr, #4]!	@ D.39205, MEM[base: _114, offset: 0B]
	ldrb	r4, [ip, #2]	@ zero_extendqisi2	@ _77->is_reference, _77->is_reference
	cmp	r4, #3	@ _77->is_reference,
	bne	.L309	@,
	ldr	r4, [ip, #400]	@ *_77, *_77
	bic	r4, r4, #-16777216	@ D.39206, *_77,
	bic	r4, r4, #255	@ D.39206, D.39206,
	cmp	r4, #65536	@ D.39206,
	bne	.L309	@,
	ldr	r4, [ip, #412]	@ _77->frame.pic_num, _77->frame.pic_num
	cmp	r4, r2	@ _77->frame.pic_num, picNumX
	bne	.L309	@,
	add	r3, r0, r3, lsl #2	@ D.39211, pH264Ctx, i,
	str	r1, [ip, #520]	@ long_term_frame_idx, _12->long_term_frame_idx
	add	r3, r3, #24576	@ tmp204, D.39211,
	mov	r0, #1	@ tmp207,
	mov	r2, #0	@ tmp219,
	ldr	ip, [r3, #1920]	@ D.39205, MEM[(struct H264_CTX_S *)_141 + 26496B]
	str	r1, [ip, #408]	@ long_term_frame_idx, _84->frame.long_term_pic_num
	ldr	r1, [r3, #1920]	@ D.39205, MEM[(struct H264_CTX_S *)_141 + 26496B]
	strb	r0, [r1, #401]	@ tmp207, _87->frame.is_long_term
	ldr	r1, [r3, #1920]	@ D.39205, MEM[(struct H264_CTX_S *)_141 + 26496B]
	strb	r0, [r1, #437]	@ tmp207, _89->top_field.is_long_term
	ldr	r1, [r3, #1920]	@ D.39205, MEM[(struct H264_CTX_S *)_141 + 26496B]
	strb	r0, [r1, #473]	@ tmp207, _91->bottom_field.is_long_term
	ldr	r1, [r3, #1920]	@ D.39205, MEM[(struct H264_CTX_S *)_141 + 26496B]
	strb	r2, [r1, #402]	@ tmp219, _93->frame.is_short_term
	ldr	r1, [r3, #1920]	@ D.39205, MEM[(struct H264_CTX_S *)_141 + 26496B]
	strb	r2, [r1, #438]	@ tmp219, _95->top_field.is_short_term
	ldr	r3, [r3, #1920]	@ D.39205, MEM[(struct H264_CTX_S *)_141 + 26496B]
	strb	r2, [r3, #474]	@ tmp219, _97->bottom_field.is_short_term
	ldmfd	sp!, {r4, r5, r6, r7, pc}	@
.L336:
	ldr	lr, [r3, #484]	@ _13->bottom_field.pic_num, _13->bottom_field.pic_num
	cmp	lr, r2	@ _13->bottom_field.pic_num, picNumX
	bne	.L314	@,
	ldrb	lr, [r3, #437]	@ zero_extendqisi2	@ _13->top_field.is_long_term, _13->top_field.is_long_term
	cmp	lr, #1	@ _13->top_field.is_long_term,
	bne	.L318	@,
	ldr	lr, [r3, #520]	@ _13->long_term_frame_idx, _13->long_term_frame_idx
	cmp	lr, r1	@ _13->long_term_frame_idx, long_term_frame_idx
	bne	.L314	@,
.L318:
	str	r1, [r3, #520]	@ long_term_frame_idx, _110->long_term_frame_idx
	sub	r3, r5, #2	@ D.39204, D.39203,
	add	r2, r0, ip, lsl #2	@ D.39211, pH264Ctx, i,
	clz	r3, r3	@ D.39204, D.39204
	add	r2, r2, #24576	@ tmp279, D.39211,
	mov	ip, #1	@ tmp286,
	mov	r3, r3, lsr #5	@ D.39204, D.39204,
	mov	r0, #0	@ tmp290,
	add	r1, r3, r1, lsl #1	@ D.39206, D.39204, long_term_frame_idx,
	ldr	r3, [r2, #1920]	@ D.39205, MEM[(struct H264_CTX_S *)_121 + 26496B]
	str	r1, [r3, #480]	@ D.39206, _25->bottom_field.long_term_pic_num
	ldr	r3, [r2, #1920]	@ D.39205, MEM[(struct H264_CTX_S *)_121 + 26496B]
	strb	ip, [r3, #473]	@ tmp286, _30->bottom_field.is_long_term
	ldr	r3, [r2, #1920]	@ D.39205, MEM[(struct H264_CTX_S *)_121 + 26496B]
	strb	r0, [r3, #474]	@ tmp290, _32->bottom_field.is_short_term
	ldr	r3, [r2, #1920]	@ D.39205, MEM[(struct H264_CTX_S *)_121 + 26496B]
	ldrb	r1, [r3, #400]	@ zero_extendqisi2	@ D.39203, _34->frame.structure
	cmp	r1, #3	@ D.39203,
	cmpne	r1, r0	@, D.39203,
	bne	.L340	@,
	ldrb	r1, [r3, #473]	@ zero_extendqisi2	@ _34->bottom_field.is_long_term, _34->bottom_field.is_long_term
	ldrb	r0, [r3, #437]	@ zero_extendqisi2	@ D.39203, _34->top_field.is_long_term
	cmp	r1, r0	@ _34->bottom_field.is_long_term, D.39203
	streqb	r1, [r3, #401]	@ _34->bottom_field.is_long_term, _34->frame.is_long_term
	ldreq	r3, [r2, #1920]	@ D.39205, MEM[(struct H264_CTX_S *)_121 + 26496B]
	ldreqb	r2, [r3, #474]	@ zero_extendqisi2	@ _45->bottom_field.is_short_term, _45->bottom_field.is_short_term
	streqb	r2, [r3, #402]	@ _45->bottom_field.is_short_term,
	ldmfd	sp!, {r4, r5, r6, r7, pc}	@
.L337:
	ldmfd	sp!, {r4, r5, r6, r7, pc}	@
.L339:
	ldmfd	sp!, {r4, r5, r6, r7, pc}	@
.L338:
	ldmfd	sp!, {r4, r5, r6, r7, pc}	@
.L340:
	ldmfd	sp!, {r4, r5, r6, r7, pc}	@
.L335:
	ldmfd	sp!, {r4, r5, r6, r7, pc}	@
	.fnend
	.size	MarkPicLTRef, .-MarkPicLTRef
	.align	2
	.global	MarkSTToLTRef
	.type	MarkSTToLTRef, %function
MarkSTToLTRef:
	.fnstart
	@ args = 0, pretend = 0, frame = 0
	@ frame_needed = 0, uses_anonymous_args = 0
	stmfd	sp!, {r4, r5, r6, r7, r8, r9, r10, lr}	@,
	.save {r4, r5, r6, r7, r8, r9, r10, lr}
	mov	r7, r1	@ pCurrPic, pCurrPic
	ldrb	r1, [r1, #3]	@ zero_extendqisi2	@ pCurrPic_4(D)->structure, pCurrPic_4(D)->structure
	mov	r9, r3	@ long_term_frame_idx, long_term_frame_idx
	mov	r8, r0	@ pH264Ctx, pH264Ctx
	cmp	r1, #0	@ pCurrPic_4(D)->structure,
	bne	.L342	@,
	ldr	r6, [r7, #416]	@ pCurrPic_4(D)->frame_num, pCurrPic_4(D)->frame_num
	mov	r1, r3	@, long_term_frame_idx
	sub	r6, r6, #1	@ D.39228, pCurrPic_4(D)->frame_num,
	rsb	r6, r2, r6	@ picNumX, difference_of_pic_nums_minus1, D.39228
	bl	UnMarkLTFrmByFrmIdx	@
.L343:
	mov	r3, r7	@, pCurrPic
	mov	r2, r6	@, picNumX
	mov	r1, r9	@, long_term_frame_idx
	mov	r0, r8	@, pH264Ctx
	ldmfd	sp!, {r4, r5, r6, r7, r8, r9, r10, lr}	@
	b	MarkPicLTRef	@
.L342:
	add	r3, r0, #24576	@ tmp143, pH264Ctx,
	ldr	r6, [r7, #416]	@ pCurrPic_4(D)->frame_num, pCurrPic_4(D)->frame_num
	ldr	r1, [r3, #2056]	@ D.39228, pH264Ctx_6(D)->DPB.ref_frames_in_buffer
	rsb	r6, r2, r6, lsl #1	@ picNumX, difference_of_pic_nums_minus1, pCurrPic_4(D)->frame_num,
	cmp	r1, #0	@ D.39228,
	beq	.L343	@,
	add	r2, r0, #26368	@ ivtmp.599, pH264Ctx,
	mov	lr, #0	@ i,
	add	r2, r2, #124	@ ivtmp.599, ivtmp.599,
	b	.L346	@
.L344:
	tst	r5, #2	@ D.39227,
	beq	.L345	@,
	ldr	r3, [ip, #472]	@ *_10, *_10
	bic	r3, r3, #-16777216	@ D.39228, *_10,
	bic	r3, r3, #255	@ D.39228, D.39228,
	cmp	r3, #65536	@ D.39228,
	beq	.L358	@,
.L345:
	cmp	lr, r1	@ i, D.39228
	beq	.L343	@,
.L346:
	ldr	ip, [r2, #4]!	@ D.39226, MEM[base: _9, offset: 0B]
	add	lr, lr, #1	@ i, i,
	ldrb	r5, [ip, #2]	@ zero_extendqisi2	@ D.39227, _10->is_reference
	tst	r5, #1	@ D.39227,
	beq	.L344	@,
	ldr	r4, [ip, #436]	@ *_10, *_10
	bic	r4, r4, #-16777216	@ D.39228, *_10,
	bic	r4, r4, #255	@ D.39228, D.39228,
	cmp	r4, #65536	@ D.39228,
	bne	.L344	@,
	ldr	r3, [ip, #448]	@ _10->top_field.pic_num, _10->top_field.pic_num
	cmp	r3, r6	@ _10->top_field.pic_num, picNumX
	bne	.L344	@,
	mov	r1, ip	@, D.39226
	mov	r3, r9	@, long_term_frame_idx
	mov	r2, #1	@,
	mov	r0, r8	@, pH264Ctx
	bl	UnMarkLTFldByFrmIdx	@
	b	.L343	@
.L358:
	ldr	r3, [ip, #484]	@ _10->bottom_field.pic_num, _10->bottom_field.pic_num
	cmp	r3, r6	@ _10->bottom_field.pic_num, picNumX
	bne	.L345	@,
	mov	r1, ip	@, D.39226
	mov	r3, r9	@, long_term_frame_idx
	mov	r2, #2	@,
	mov	r0, r8	@, pH264Ctx
	bl	UnMarkLTFldByFrmIdx	@
	b	.L343	@
	.fnend
	.size	MarkSTToLTRef, .-MarkSTToLTRef
	.align	2
	.global	UpdateMaxLTFrmIdx
	.type	UpdateMaxLTFrmIdx, %function
UpdateMaxLTFrmIdx:
	.fnstart
	@ args = 0, pretend = 0, frame = 0
	@ frame_needed = 0, uses_anonymous_args = 0
	stmfd	sp!, {r4, r5, r6, r7, r8, lr}	@,
	.save {r4, r5, r6, r7, r8, lr}
	add	r6, r0, #24576	@ tmp133, pH264Ctx,
	ldr	r3, [r6, #2060]	@ pH264Ctx_5(D)->DPB.ltref_frames_in_buffer, pH264Ctx_5(D)->DPB.ltref_frames_in_buffer
	str	r1, [r6, #2064]	@ max_long_term_frame_idx_plus1, pH264Ctx_5(D)->DPB.max_long_term_pic_idx
	cmp	r3, #0	@ pH264Ctx_5(D)->DPB.ltref_frames_in_buffer,
	ldmeqfd	sp!, {r4, r5, r6, r7, r8, pc}	@
	add	r5, r0, #26368	@ ivtmp.615, pH264Ctx,
	mov	r7, r0	@ pH264Ctx, pH264Ctx
	mov	r3, r1	@ D.39251, max_long_term_frame_idx_plus1
	add	r5, r5, #188	@ ivtmp.615, ivtmp.615,
	mov	r4, #0	@ i,
	b	.L363	@
.L361:
	ldr	r3, [r6, #2060]	@ pH264Ctx_5(D)->DPB.ltref_frames_in_buffer, pH264Ctx_5(D)->DPB.ltref_frames_in_buffer
	cmp	r3, r4	@ pH264Ctx_5(D)->DPB.ltref_frames_in_buffer, i
	ldmlsfd	sp!, {r4, r5, r6, r7, r8, pc}	@
	ldr	r3, [r6, #2064]	@ D.39251, pH264Ctx_5(D)->DPB.max_long_term_pic_idx
.L363:
	ldr	r1, [r5, #4]!	@ D.39250, MEM[base: _21, offset: 0B]
	add	r4, r4, #1	@ i, i,
	ldr	r2, [r1, #520]	@ _9->long_term_frame_idx, _9->long_term_frame_idx
	cmp	r2, r3	@ _9->long_term_frame_idx, D.39251
	bcc	.L361	@,
	mov	r0, r7	@, pH264Ctx
	bl	UnMarkFrameStoreRef	@
	b	.L361	@
	.fnend
	.size	UpdateMaxLTFrmIdx, .-UpdateMaxLTFrmIdx
	.align	2
	.global	UnMarkAllSTRef
	.type	UnMarkAllSTRef, %function
UnMarkAllSTRef:
	.fnstart
	@ args = 0, pretend = 0, frame = 0
	@ frame_needed = 0, uses_anonymous_args = 0
	stmfd	sp!, {r4, r5, r6, r7, r8, lr}	@,
	.save {r4, r5, r6, r7, r8, lr}
	add	r7, r0, #24576	@ tmp126, pH264Ctx,
	ldr	r3, [r7, #2056]	@ pH264Ctx_4(D)->DPB.ref_frames_in_buffer, pH264Ctx_4(D)->DPB.ref_frames_in_buffer
	cmp	r3, #0	@ pH264Ctx_4(D)->DPB.ref_frames_in_buffer,
	ldmeqfd	sp!, {r4, r5, r6, r7, r8, pc}	@
	add	r5, r0, #26368	@ ivtmp.630, pH264Ctx,
	mov	r6, r0	@ pH264Ctx, pH264Ctx
	add	r5, r5, #124	@ ivtmp.630, ivtmp.630,
	mov	r4, #0	@ i,
.L367:
	ldr	r1, [r5, #4]!	@, MEM[base: _15, offset: 0B]
	mov	r0, r6	@, pH264Ctx
	bl	UnMarkFrameStoreRef	@
	ldr	r3, [r7, #2056]	@ pH264Ctx_4(D)->DPB.ref_frames_in_buffer, pH264Ctx_4(D)->DPB.ref_frames_in_buffer
	add	r4, r4, #1	@ i, i,
	cmp	r3, r4	@ pH264Ctx_4(D)->DPB.ref_frames_in_buffer, i
	bhi	.L367	@,
	ldmfd	sp!, {r4, r5, r6, r7, r8, pc}	@
	.fnend
	.size	UnMarkAllSTRef, .-UnMarkAllSTRef
	.align	2
	.global	MarkCurrPicLT
	.type	MarkCurrPicLT, %function
MarkCurrPicLT:
	.fnstart
	@ args = 0, pretend = 0, frame = 0
	@ frame_needed = 0, uses_anonymous_args = 0
	stmfd	sp!, {r4, r5, r6, lr}	@,
	.save {r4, r5, r6, lr}
	mov	r5, r2	@ long_term_frame_idx, long_term_frame_idx
	ldrb	r2, [r1, #3]	@ zero_extendqisi2	@ D.39273, pCurrPic_3(D)->structure
	mov	r4, r1	@ pCurrPic, pCurrPic
	cmp	r2, #0	@ D.39273,
	beq	.L375	@,
	mov	r3, r5	@, long_term_frame_idx
	ldr	r1, [r1, #408]	@, pCurrPic_3(D)->frame_store
	bl	UnMarkLTFldByFrmIdx	@
.L373:
	mov	r2, #1	@ tmp117,
	mov	r3, #0	@ tmp119,
	str	r5, [r4, #420]	@ long_term_frame_idx, pCurrPic_3(D)->long_term_frame_idx
	strb	r2, [r4, #4]	@ tmp117, pCurrPic_3(D)->is_long_term
	strb	r3, [r4, #5]	@ tmp119, pCurrPic_3(D)->is_short_term
	ldmfd	sp!, {r4, r5, r6, pc}	@
.L375:
	mov	r1, r5	@, long_term_frame_idx
	bl	UnMarkLTFrmByFrmIdx	@
	b	.L373	@
	.fnend
	.size	MarkCurrPicLT, .-MarkCurrPicLT
	.align	2
	.global	RemoveFrameStoreOutDPB
	.type	RemoveFrameStoreOutDPB, %function
RemoveFrameStoreOutDPB:
	.fnstart
	@ args = 0, pretend = 0, frame = 0
	@ frame_needed = 0, uses_anonymous_args = 0
	stmfd	sp!, {r4, r5, r6, r7, r8, lr}	@,
	.save {r4, r5, r6, r7, r8, lr}
	add	r5, r0, r1, lsl #2	@ D.39299, pH264Ctx, pos,
	add	r5, r5, #24576	@ tmp193, D.39299,
	mov	r4, r1	@ pos, pos
	mov	r6, r0	@ pH264Ctx, pH264Ctx
	ldr	r2, [r5, #1856]	@ D.39300, MEM[(struct H264_CTX_S *)_54 + 26432B]
	cmp	r2, #0	@ D.39300,
	ldmeqfd	sp!, {r4, r5, r6, r7, r8, pc}	@
	ldr	r3, [r2, #552]	@ D.39301, _10->apc_idc
	add	r7, r0, #24576	@ tmp194, pH264Ctx,
	mov	r1, #0	@ tmp145,
	add	r8, r0, #49152	@ tmp195, pH264Ctx,
	add	r3, r3, #6656	@ tmp142, D.39301,
	add	r3, r3, #4	@ tmp142, tmp142,
	add	r3, r0, r3, lsl #2	@ tmp143, pH264Ctx, tmp142,
	str	r1, [r3, #4]	@ tmp145, pH264Ctx_8(D)->APC.is_used
	ldr	r3, [r7, #2328]	@ D.39298, pH264Ctx_8(D)->APC.used_size
	cmp	r3, r1	@ D.39298,
	subne	r3, r3, #1	@ D.39298, D.39298,
	str	r3, [r7, #2328]	@ D.39298, pH264Ctx_8(D)->APC.used_size
	ldr	r1, [r2, #508]	@, _10->logic_fs_id
	ldr	r0, [r8, #3688]	@, pH264Ctx_8(D)->ChanID
	bl	FSP_GetLogicFs	@
	cmp	r0, #0	@ pstLogic
	beq	.L379	@,
	ldrsb	r3, [r0, #1]	@ pstLogic_19->s32DispState, pstLogic_19->s32DispState
	cmp	r3, #3	@ pstLogic_19->s32DispState,
	beq	.L380	@,
	ldr	r3, [r5, #1856]	@ MEM[(struct H264_CTX_S *)_54 + 26432B], MEM[(struct H264_CTX_S *)_54 + 26432B]
	mov	r2, #0	@,
	ldr	r0, [r8, #3688]	@, pH264Ctx_8(D)->ChanID
	ldr	r1, [r3, #508]	@, _22->logic_fs_id
	bl	FSP_SetDisplay	@
.L380:
	ldr	r3, [r5, #1856]	@ MEM[(struct H264_CTX_S *)_54 + 26432B], MEM[(struct H264_CTX_S *)_54 + 26432B]
	mov	r2, #0	@,
	ldr	r0, [r8, #3688]	@, pH264Ctx_8(D)->ChanID
	ldr	r1, [r3, #508]	@, _26->logic_fs_id
	bl	FSP_SetRef	@
.L379:
	ldr	r2, [r5, #1856]	@ D.39300, MEM[(struct H264_CTX_S *)_54 + 26432B]
	mov	r3, #0	@ tmp171,
	strb	r3, [r2, #1]	@ tmp171, _29->is_used
	ldr	r2, [r5, #1856]	@ D.39300, MEM[(struct H264_CTX_S *)_54 + 26432B]
	strb	r3, [r2, #4]	@ tmp171, _31->is_in_dpb
	ldr	r2, [r5, #1856]	@ D.39300, MEM[(struct H264_CTX_S *)_54 + 26432B]
	strb	r3, [r2, #2]	@ tmp171, _33->is_reference
	ldr	r1, [r7, #2052]	@ pH264Ctx_8(D)->DPB.used_size, pH264Ctx_8(D)->DPB.used_size
	sub	r1, r1, #1	@ D.39301, pH264Ctx_8(D)->DPB.used_size,
	cmp	r4, r1	@ pos, D.39301
	addcc	r3, r4, #6592	@ D.39297, pos,
	addcc	r3, r3, #16	@ D.39297, D.39297,
	addcc	r3, r6, r3, lsl #2	@ ivtmp.646, pH264Ctx, D.39297,
	bcs	.L383	@,
.L382:
	add	r4, r4, #1	@ pos, pos,
	ldr	r2, [r3, #4]!	@ MEM[base: _45, offset: 0B], MEM[base: _45, offset: 0B]
	cmp	r4, r1	@ pos, D.39301
	str	r2, [r3, #-4]	@ MEM[base: _45, offset: 0B], MEM[base: _45, offset: 4294967292B]
	bne	.L382	@,
.L383:
	add	r3, r1, #6592	@ tmp185, D.39301,
	mov	r2, #0	@ tmp186,
	add	r3, r3, #16	@ tmp185, tmp185,
	str	r2, [r6, r3, asl #2]	@ tmp186, pH264Ctx_8(D)->DPB.fs
	str	r1, [r7, #2052]	@ D.39301, pH264Ctx_8(D)->DPB.used_size
	ldmfd	sp!, {r4, r5, r6, r7, r8, pc}	@
	.fnend
	.size	RemoveFrameStoreOutDPB, .-RemoveFrameStoreOutDPB
	.align	2
	.global	RemoveUnUsedFrameStore
	.type	RemoveUnUsedFrameStore, %function
RemoveUnUsedFrameStore:
	.fnstart
	@ args = 0, pretend = 0, frame = 0
	@ frame_needed = 0, uses_anonymous_args = 0
	cmp	r0, #0	@ pH264Ctx
	beq	.L408	@,
	stmfd	sp!, {r3, r4, r5, r6, r7, r8, r9, r10, fp, lr}	@,
	.save {r3, r4, r5, r6, r7, r8, r9, r10, fp, lr}
	add	r3, r0, #24576	@ tmp142, pH264Ctx,
	ldr	r6, [r3, #2052]	@ k, pH264Ctx_10(D)->DPB.used_size
	cmp	r6, #0	@ k,
	beq	.L407	@,
	mov	r10, #0	@ j,
	mov	r5, r0	@ pH264Ctx, pH264Ctx
	add	r7, r0, #49152	@ tmp186, pH264Ctx,
	mov	fp, r10	@ i, j
	mov	r9, r10	@ tmp188, j
	mvn	r8, #0	@ tmp187,
	b	.L406	@
.L419:
	ldrb	r2, [r3, #4]	@ zero_extendqisi2	@ _39->is_in_dpb, _39->is_in_dpb
	cmp	r2, #0	@ _39->is_in_dpb,
	bne	.L404	@,
	ldr	r1, [r3, #528]	@ _39->eFoState, _39->eFoState
	cmp	r1, #1	@ _39->eFoState,
	beq	.L404	@,
	strb	r2, [r3, #1]	@ _39->is_in_dpb, _39->is_used
	mov	r1, r10	@, j
	mov	r0, r5	@, pH264Ctx
	add	fp, fp, #1	@ i, i,
	bl	RemoveFrameStoreOutDPB	@
	cmp	fp, r6	@ i, k
	beq	.L407	@,
.L406:
	add	r4, r5, r10, lsl #2	@ D.39309, pH264Ctx, j,
	ldr	r0, [r7, #3688]	@, pH264Ctx_10(D)->ChanID
	add	r4, r4, #24576	@ tmp185, D.39309,
	ldr	r3, [r4, #1856]	@ MEM[(struct H264_CTX_S *)_3 + 26432B], MEM[(struct H264_CTX_S *)_3 + 26432B]
	ldr	r1, [r3, #508]	@, _14->logic_fs_id
	bl	FSP_GetLogicFs	@
	cmp	r0, #0	@ pstLogicFs
	beq	.L401	@,
	ldrsh	r3, [r0]	@ *pstLogicFs_17, *pstLogicFs_17
	cmp	r3, #0	@ *pstLogicFs_17,
	bne	.L402	@,
	ldr	r3, [r4, #1856]	@ D.39313, MEM[(struct H264_CTX_S *)_3 + 26432B]
	ldrb	r2, [r3, #2]	@ zero_extendqisi2	@ _19->is_reference, _19->is_reference
	cmp	r2, #0	@ _19->is_reference,
	bne	.L403	@,
	ldrsb	r1, [r0]	@ pstLogicFs_17->s32IsRef, pstLogicFs_17->s32IsRef
	cmp	r1, #0	@ pstLogicFs_17->s32IsRef,
	bne	.L418	@,
.L403:
	str	r8, [r3, #508]	@ tmp187, _53->logic_fs_id
	ldr	r3, [r4, #1856]	@ D.39313, MEM[(struct H264_CTX_S *)_3 + 26432B]
	strb	r9, [r3, #2]	@ tmp188, _27->is_reference
.L401:
	ldr	r2, [r4, #1856]	@ D.39313, MEM[(struct H264_CTX_S *)_3 + 26432B]
	ldr	r3, [r2, #528]	@ _34->eFoState,
	sub	r3, r3, #1	@ tmp175, _34->eFoState,
	clz	r3, r3	@ tmp175, tmp175
	mov	r3, r3, lsr #5	@ tmp175, tmp175,
	strb	r3, [r2, #4]	@ tmp175,
.L402:
	ldr	r3, [r4, #1856]	@ D.39313, MEM[(struct H264_CTX_S *)_3 + 26432B]
	ldrb	r2, [r3, #2]	@ zero_extendqisi2	@ MEM[(const struct H264_FRAMESTORE_S *)_39].is_reference, MEM[(const struct H264_FRAMESTORE_S *)_39].is_reference
	cmp	r2, #0	@ MEM[(const struct H264_FRAMESTORE_S *)_39].is_reference,
	beq	.L419	@,
.L404:
	add	fp, fp, #1	@ i, i,
	add	r10, r10, #1	@ j, j,
	cmp	fp, r6	@ i, k
	bne	.L406	@,
.L407:
	mov	r0, #0	@ D.39310,
	ldmfd	sp!, {r3, r4, r5, r6, r7, r8, r9, r10, fp, pc}	@
.L418:
	ldr	r1, [r3, #508]	@, _19->logic_fs_id
	ldr	r0, [r7, #3688]	@, pH264Ctx_10(D)->ChanID
	bl	FSP_SetRef	@
	ldr	r3, [r4, #1856]	@ D.39313, MEM[(struct H264_CTX_S *)_3 + 26432B]
	b	.L403	@
.L408:
	mvn	r0, #0	@ D.39310,
	bx	lr	@
	.fnend
	.size	RemoveUnUsedFrameStore, .-RemoveUnUsedFrameStore
	.align	2
	.global	CheckFrameStore
	.type	CheckFrameStore, %function
CheckFrameStore:
	.fnstart
	@ args = 0, pretend = 0, frame = 0
	@ frame_needed = 0, uses_anonymous_args = 0
	add	r3, r0, #49152	@ tmp189, pH264Ctx,
	stmfd	sp!, {r4, r5, r6, lr}	@,
	.save {r4, r5, r6, lr}
	ldr	r2, [r3, #2180]	@ pH264Ctx_6(D)->IDRFound, pH264Ctx_6(D)->IDRFound
	cmp	r2, #0	@ pH264Ctx_6(D)->IDRFound,
	bne	.L421	@,
	ldr	r2, [r1, #528]	@ pFrameStore_8(D)->eFoState, pFrameStore_8(D)->eFoState
	cmp	r2, #1	@ pFrameStore_8(D)->eFoState,
	beq	.L422	@,
	ldr	r2, [r3, #3616]	@ pH264Ctx_6(D)->OldDecMode, pH264Ctx_6(D)->OldDecMode
	cmp	r2, #0	@ pH264Ctx_6(D)->OldDecMode,
	beq	.L443	@,
.L422:
	mov	r2, #1	@ tmp152,
	str	r2, [r3, #2180]	@ tmp152, pH264Ctx_6(D)->IDRFound
.L421:
	mov	r4, r1	@ pFrameStore, pFrameStore
	mov	r5, r0	@ pH264Ctx, pH264Ctx
	ldr	r1, [r1, #508]	@, pFrameStore_8(D)->logic_fs_id
	ldr	r0, [r3, #3688]	@, pH264Ctx_6(D)->ChanID
	bl	FSP_GetLogicFs	@
	cmp	r0, #0	@ pstLogicFs
	beq	.L424	@,
	ldrsb	r3, [r0, #1]	@ D.39326, pstLogicFs_17->s32DispState
	cmp	r3, #3	@ D.39326,
	cmpne	r3, #0	@, D.39326,
	beq	.L424	@,
	ldrb	r2, [r4, #1]	@ zero_extendqisi2	@ D.39328, pFrameStore_8(D)->is_used
	cmp	r2, #0	@ D.39328,
	beq	.L426	@,
	ldrb	r3, [r4]	@ zero_extendqisi2	@ pFrameStore_8(D)->non_existing, pFrameStore_8(D)->non_existing
	cmp	r3, #1	@ pFrameStore_8(D)->non_existing,
	beq	.L426	@,
	ldr	r3, [r4]	@ *pFrameStore_8(D), *pFrameStore_8(D)
	mov	r1, #768	@ tmp172,
	movt	r1, 768	@ tmp172,
	bic	r3, r3, #16711680	@ D.39322, *pFrameStore_8(D),
	bic	r3, r3, #255	@ D.39322, D.39322,
	cmp	r3, r1	@ D.39322, tmp172
	beq	.L426	@,
	cmp	r2, #1	@ D.39328,
	beq	.L444	@,
	cmp	r2, #2	@ D.39328,
	beq	.L445	@,
.L428:
	ldr	r2, [r5]	@ pH264Ctx_6(D)->pstExtraData, pH264Ctx_6(D)->pstExtraData
	ldr	r3, [r0, #188]	@ pstLogicFs_17->stDispImg.error_level, pstLogicFs_17->stDispImg.error_level
	ldr	r0, [r2, #4]	@ _32->s32OutErrThr, _32->s32OutErrThr
	cmp	r3, r0	@ pstLogicFs_17->stDispImg.error_level, _32->s32OutErrThr
	movls	r0, #0	@ D.39321,
	mvnhi	r0, #0	@ D.39321,
	ldmfd	sp!, {r4, r5, r6, pc}	@
.L443:
	ldr	r2, [r0]	@ pH264Ctx_6(D)->pstExtraData, pH264Ctx_6(D)->pstExtraData
	ldr	r2, [r2, #12]	@ _11->s32DecOrderOutput, _11->s32DecOrderOutput
	cmp	r2, #0	@ _11->s32DecOrderOutput,
	bne	.L422	@,
.L426:
	mvn	r0, #0	@ D.39321,
	ldmfd	sp!, {r4, r5, r6, pc}	@
.L424:
	ldr	r3, [r4, #528]	@ pFrameStore_8(D)->eFoState, pFrameStore_8(D)->eFoState
	cmp	r3, #1	@ pFrameStore_8(D)->eFoState,
	beq	.L446	@,
	mvn	r0, #2	@ D.39321,
	ldmfd	sp!, {r4, r5, r6, pc}	@
.L444:
	ldrb	r3, [r4, #3]	@ zero_extendqisi2	@ pFrameStore_8(D)->mode_skip_flag, pFrameStore_8(D)->mode_skip_flag
	tst	r3, #1	@ pFrameStore_8(D)->mode_skip_flag,
	beq	.L428	@,
	b	.L426	@
.L446:
	mov	r3, #2	@ tmp167,
	mvn	r0, #2	@ D.39321,
	str	r3, [r4, #528]	@ tmp167, pFrameStore_8(D)->eFoState
	ldmfd	sp!, {r4, r5, r6, pc}	@
.L445:
	ldrb	r3, [r4, #3]	@ zero_extendqisi2	@ pFrameStore_8(D)->mode_skip_flag, pFrameStore_8(D)->mode_skip_flag
	tst	r3, #2	@ pFrameStore_8(D)->mode_skip_flag,
	beq	.L428	@,
	b	.L426	@
	.fnend
	.size	CheckFrameStore, .-CheckFrameStore
	.align	2
	.global	ExchangePts
	.type	ExchangePts, %function
ExchangePts:
	.fnstart
	@ args = 0, pretend = 0, frame = 8
	@ frame_needed = 0, uses_anonymous_args = 0
	stmfd	sp!, {r4, r5, r6, r7, r8, r9, r10, fp, lr}	@,
	.save {r4, r5, r6, r7, r8, r9, r10, fp, lr}
	mvn	r5, #0	@,
	ldrd	r2, [r1, #16]	@ pFrameStore_10(D)->fs_image.PTS, pFrameStore,
	mvn	r4, #0	@ tmp135,
	.pad #12
	sub	sp, sp, #12	@,,
	cmp	r3, r5	@ pFrameStore_10(D)->fs_image.PTS,
	cmpeq	r2, r4	@ pFrameStore_10(D)->fs_image.PTS, tmp135
	beq	.L447	@,
	add	r10, r0, #24576	@ tmp159, pH264Ctx,
	ldr	r3, [r10, #2052]	@ pH264Ctx_13(D)->DPB.used_size, pH264Ctx_13(D)->DPB.used_size
	cmp	r3, #0	@ pH264Ctx_13(D)->DPB.used_size,
	beq	.L447	@,
	add	fp, r0, #26368	@ ivtmp.672, pH264Ctx,
	add	r5, r0, #49152	@ tmp160, pH264Ctx,
	add	fp, fp, #60	@ ivtmp.672, ivtmp.672,
	mov	r8, r0	@ pH264Ctx, pH264Ctx
	mvn	r6, #1	@ MinPts,
	mvn	r7, #0	@ MinPts,
	mvn	r9, #0	@ MinPtsPos,
	mov	r4, #0	@ MinPtsPos,
	str	r1, [sp, #4]	@ pFrameStore, %sfp
.L452:
	ldr	r3, [fp, #4]!	@ D.39344, MEM[base: _38, offset: 0B]
	cmp	r3, #0	@ D.39344,
	beq	.L451	@,
	ldr	r1, [r3, #508]	@, _15->logic_fs_id
	ldr	r0, [r5, #3688]	@, pH264Ctx_13(D)->ChanID
	bl	FSP_GetLogicFs	@
	cmp	r0, #0	@ pstLogicFs
	beq	.L451	@,
	ldrsb	r3, [r0, #1]	@ D.39346, pstLogicFs_20->s32DispState
	cmp	r3, #3	@ D.39346,
	cmpne	r3, #0	@, D.39346,
	beq	.L451	@,
	ldr	r3, [fp]	@ MEM[base: _38, offset: 0B], MEM[base: _38, offset: 0B]
	ldrd	r0, [r3, #16]	@ MinPts, MEM[base: _38, offset: 0B],
	cmp	r1, r7	@ MinPts, MinPts
	cmpeq	r0, r6	@ MinPts, MinPts
	movcc	r6, r0	@ MinPts, MinPts
	movcc	r7, r1	@ MinPts, MinPts
	movcc	r9, r4	@ MinPtsPos, MinPtsPos
.L451:
	ldr	r3, [r10, #2052]	@ pH264Ctx_13(D)->DPB.used_size, pH264Ctx_13(D)->DPB.used_size
	add	r4, r4, #1	@ MinPtsPos, MinPtsPos,
	cmp	r4, r3	@ MinPtsPos, pH264Ctx_13(D)->DPB.used_size
	bcc	.L452	@,
	cmn	r9, #1	@ MinPtsPos,
	beq	.L447	@,
	ldr	r0, [sp, #4]	@ pFrameStore, %sfp
	ldrd	r2, [r0, #16]	@ D.39342, pFrameStore,
	cmp	r3, r7	@ D.39342, MinPts
	cmpeq	r2, r6	@ D.39342, MinPts
	bls	.L447	@,
	add	r9, r9, #6592	@ tmp158, MinPtsPos,
	add	r9, r9, #16	@ tmp158, tmp158,
	ldr	r1, [r8, r9, asl #2]	@ D.39344, pH264Ctx_13(D)->DPB.fs
	strd	r2, [r1, #16]	@ D.39342, D.39344,
	strd	r6, [r0, #16]	@ MinPts, pFrameStore,
.L447:
	add	sp, sp, #12	@,,
	@ sp needed	@
	ldmfd	sp!, {r4, r5, r6, r7, r8, r9, r10, fp, pc}	@
	.fnend
	.size	ExchangePts, .-ExchangePts
	.align	2
	.global	GetImagePara
	.type	GetImagePara, %function
GetImagePara:
	.fnstart
	@ args = 0, pretend = 0, frame = 0
	@ frame_needed = 0, uses_anonymous_args = 0
	stmfd	sp!, {r4, r5, r6, r7, r8, r9, r10, lr}	@,
	.save {r4, r5, r6, r7, r8, r9, r10, lr}
	add	r2, r0, #20480	@ tmp198, pH264Ctx,
	add	lr, r0, #12288	@ tmp195, pH264Ctx,
	mov	r8, #2208	@ tmp203,
	ldr	r2, [r2, #212]	@ pH264Ctx_21(D)->CurrSlice.pic_parameter_set_id, pH264Ctx_21(D)->CurrSlice.pic_parameter_set_id
	mov	r4, r1	@ pFrameStore, pFrameStore
	ldr	r3, [lr, #1296]	@ pH264Ctx_21(D)->PPS, pH264Ctx_21(D)->PPS
	add	r5, r0, #49152	@ tmp285, pH264Ctx,
	ldr	ip, [r1, #148]	@ D.39358, pFrameStore_30(D)->fs_image.format
	mov	r7, #4000	@ tmp207,
	ldr	r6, [lr, #1292]	@ pH264Ctx_21(D)->SPS, pH264Ctx_21(D)->SPS
	mla	r1, r8, r2, r3	@ tmp204, tmp203, pH264Ctx_21(D)->CurrSlice.pic_parameter_set_id, pH264Ctx_21(D)->PPS
	bic	r2, ip, #768	@ D.39358, D.39358,
	bic	r2, r2, #3	@ D.39358, D.39358,
	ldrb	lr, [r4, #1]	@ zero_extendqisi2	@ pFrameStore_30(D)->is_used, pFrameStore_30(D)->is_used
	ldr	r3, [r1, #28]	@ pps_25->seq_parameter_set_id, pps_25->seq_parameter_set_id
	str	r2, [r4, #148]	@ D.39358, pFrameStore_30(D)->fs_image.format
	ldr	r1, [r5, #2188]	@ pH264Ctx_21(D)->frame_rate, pH264Ctx_21(D)->frame_rate
	mla	r3, r7, r3, r6	@ sps, tmp207, pps_25->seq_parameter_set_id, pH264Ctx_21(D)->SPS
	mov	r1, r1, asl #10	@ D.39358, pH264Ctx_21(D)->frame_rate,
	str	r1, [r4, #176]	@ D.39358, pFrameStore_30(D)->fs_image.frame_rate
	cmp	lr, #3	@ pFrameStore_30(D)->is_used,
	ldrls	pc, [pc, lr, asl #2]	@ pFrameStore_30(D)->is_used
	b	.L503	@
.L470:
	.word	.L469
	.word	.L471
	.word	.L472
	.word	.L469
.L472:
	ldr	r1, [r4, #540]	@ pFrameStore_30(D)->pic_type, pFrameStore_30(D)->pic_type
	add	r6, r0, #24576	@ tmp284, pH264Ctx,
	ldr	ip, [r4, #544]	@ pFrameStore_30(D)->err_level, pFrameStore_30(D)->err_level
	and	r1, r1, #3	@ D.39358, pFrameStore_30(D)->pic_type,
	orr	r2, r2, r1	@ D.39358, D.39358, D.39358
	orr	r2, r2, #2816	@ D.39358, D.39358,
	str	ip, [r4, #188]	@ pFrameStore_30(D)->err_level, pFrameStore_30(D)->fs_image.error_level
	str	r2, [r4, #148]	@ D.39358, pFrameStore_30(D)->fs_image.format
.L468:
	ldrb	r2, [r3, #18]	@ zero_extendqisi2	@ D.39361, sps_29->frame_mbs_only_flag
	str	r2, [r4, #348]	@ D.39361, pFrameStore_30(D)->fs_image.optm_inf.IsProgressiveSeq
	str	r2, [r4, #352]	@ D.39361, pFrameStore_30(D)->fs_image.optm_inf.IsProgressiveFrm
	ldrb	r2, [r3, #22]	@ zero_extendqisi2	@ sps_29->vui_parameters_present_flag, sps_29->vui_parameters_present_flag
	cmp	r2, #0	@ sps_29->vui_parameters_present_flag,
	ldrne	r2, [r3, #68]	@ D.39355, sps_29->vui_seq_parameters.matrix_coefficients
	mov	r3, #1	@ tmp252,
	str	r3, [r4, #356]	@ tmp252, pFrameStore_30(D)->fs_image.optm_inf.RealFrmRate
	str	r2, [r4, #360]	@ D.39355, pFrameStore_30(D)->fs_image.optm_inf.MatrixCoef
	ldr	r3, [r0]	@ pH264Ctx_21(D)->pstExtraData, pH264Ctx_21(D)->pstExtraData
	ldr	r3, [r3, #12]	@ _115->s32DecOrderOutput, _115->s32DecOrderOutput
	cmp	r3, #0	@ _115->s32DecOrderOutput,
	ble	.L488	@,
	ldrb	r3, [r4, #400]	@ zero_extendqisi2	@ pFrameStore_30(D)->frame.structure, pFrameStore_30(D)->frame.structure
	cmp	r3, #0	@ pFrameStore_30(D)->frame.structure,
	bne	.L488	@,
	ldrb	r3, [r4, #1]	@ zero_extendqisi2	@ pFrameStore_30(D)->is_used, pFrameStore_30(D)->is_used
	cmp	r3, #3	@ pFrameStore_30(D)->is_used,
	ldreq	r3, [r4, #148]	@ pFrameStore_30(D)->fs_image.format, pFrameStore_30(D)->fs_image.format
	biceq	r3, r3, #768	@ D.39358, pFrameStore_30(D)->fs_image.format,
	streq	r3, [r4, #148]	@ D.39358, pFrameStore_30(D)->fs_image.format
.L488:
	mov	r1, r4	@, pFrameStore
	bl	ExchangePts	@
	ldrb	r3, [r6, #1808]	@ zero_extendqisi2	@ pH264Ctx_21(D)->FramePackSEI.frame_packing_dec_ok, pH264Ctx_21(D)->FramePackSEI.frame_packing_dec_ok
	cmp	r3, #0	@ pH264Ctx_21(D)->FramePackSEI.frame_packing_dec_ok,
	beq	.L489	@,
	ldr	r3, [r6, #1824]	@ D.39361, pH264Ctx_21(D)->FramePackSEI.frame_packing_arrangement_type
	cmp	r3, #3	@ D.39361,
	moveq	r3, #1	@ tmp265,
	streq	r3, [r4, #288]	@ tmp265, pFrameStore_30(D)->fs_image.eFramePackingType
	beq	.L489	@,
	cmp	r3, #4	@ D.39361,
	moveq	r3, #2	@ tmp266,
	streq	r3, [r4, #288]	@ tmp266, pFrameStore_30(D)->fs_image.eFramePackingType
	beq	.L489	@,
	cmp	r3, #5	@ D.39361,
	moveq	r3, #3	@ tmp267,
	movne	r3, #0	@ tmp268,
	str	r3, [r4, #288]	@ tmp268, pFrameStore_30(D)->fs_image.eFramePackingType
.L489:
	ldr	r0, [r5, #3688]	@, pH264Ctx_21(D)->ChanID
	ldr	r1, [r4, #508]	@, pFrameStore_30(D)->logic_fs_id
	bl	FSP_GetFsImagePtr	@
	subs	r5, r0, #0	@ pstLogicFsImage,
	ldmeqfd	sp!, {r4, r5, r6, r7, r8, r9, r10, pc}	@
	mov	r2, #392	@,
	add	r1, r4, #8	@, pFrameStore,
	bl	memcpy	@
	mov	r3, #0	@ tmp278,
	str	r3, [r5, #300]	@ tmp278, pstLogicFsImage_132->ImageDnr.video_standard
	mov	r2, #1	@ tmp280,
	ldrb	r3, [r4, #400]	@ zero_extendqisi2	@ D.39356, pFrameStore_30(D)->frame.structure
	strb	r2, [r5, #295]	@ tmp280, pstLogicFsImage_132->ImageDnr.use_pic_qp_en
	cmp	r3, #0	@ D.39356,
	movne	r3, #4	@ D.39356,
	strb	r3, [r5, #288]	@ D.39356, pstLogicFsImage_132->ImageDnr.pic_structure
	ldr	r3, [r4, #428]	@ D.39361, pFrameStore_30(D)->frame.MaxQp
	strb	r2, [r5, #293]	@ tmp280, pstLogicFsImage_132->ImageDnr.chroma_format_idc
	str	r3, [r5, #304]	@ D.39361, pstLogicFsImage_132->ImageDnr.QP_Y
	str	r3, [r5, #312]	@ D.39361, pstLogicFsImage_132->ImageDnr.QP_V
	str	r3, [r5, #308]	@ D.39361, pstLogicFsImage_132->ImageDnr.QP_U
	ldmfd	sp!, {r4, r5, r6, r7, r8, r9, r10, pc}	@
.L471:
	ldr	r1, [r4, #540]	@ pFrameStore_30(D)->pic_type, pFrameStore_30(D)->pic_type
	add	r6, r0, #24576	@ tmp284, pH264Ctx,
	ldr	ip, [r4, #544]	@ pFrameStore_30(D)->err_level, pFrameStore_30(D)->err_level
	and	r1, r1, #3	@ D.39358, pFrameStore_30(D)->pic_type,
	orr	r2, r2, r1	@ D.39358, D.39358, D.39358
	orr	r2, r2, #1792	@ D.39358, D.39358,
	str	ip, [r4, #188]	@ pFrameStore_30(D)->err_level, pFrameStore_30(D)->fs_image.error_level
	str	r2, [r4, #148]	@ D.39358, pFrameStore_30(D)->fs_image.format
	b	.L468	@
.L469:
	ldrb	r2, [r4, #400]	@ zero_extendqisi2	@ pFrameStore_30(D)->frame.structure, pFrameStore_30(D)->frame.structure
	cmp	r2, #0	@ pFrameStore_30(D)->frame.structure,
	bne	.L473	@,
	ldr	r2, [r4, #536]	@ pFrameStore_30(D)->MbaffFrameFlag, pFrameStore_30(D)->MbaffFrameFlag
	mov	r7, #3072	@ D.39358,
	ldr	lr, [r4, #544]	@ pFrameStore_30(D)->err_level, pFrameStore_30(D)->err_level
	cmp	r2, #0	@ pFrameStore_30(D)->MbaffFrameFlag,
	ldr	r2, [r4, #540]	@ pic_type, pFrameStore_30(D)->pic_type
	moveq	r1, #512	@ D.39358,
	movne	r1, #768	@ D.39358,
	str	lr, [r4, #188]	@ pFrameStore_30(D)->err_level, pFrameStore_30(D)->fs_image.error_level
.L474:
	ldr	r6, [r4, #452]	@ D.39361, pFrameStore_30(D)->top_field.poc
	ldr	lr, [r4, #488]	@ D.39361, pFrameStore_30(D)->bottom_field.poc
	cmp	r6, lr	@ D.39361, D.39361
	beq	.L512	@,
	movle	lr, #1	@ top_field_first,
	movgt	lr, #0	@ top_field_first,
.L485:
	add	r6, r0, #24576	@ tmp284, pH264Ctx,
	ldrb	r8, [r6, #1844]	@ zero_extendqisi2	@ D.39360, pH264Ctx_21(D)->PicTimingSEI.pic_struct
	cmp	r8, #3	@ D.39360,
	moveq	lr, #4096	@ D.39358,
	beq	.L486	@,
	cmp	r8, #4	@ D.39360,
	movne	lr, lr, asl #12	@ D.39358, top_field_first,
	moveq	lr, #0	@ D.39358,
.L486:
	bic	ip, ip, #13056	@ D.39358, D.39358,
	orr	r1, r7, r1	@ D.39358, D.39358, D.39358
	bic	ip, ip, #3	@ D.39358, D.39358,
	and	r2, r2, #3	@ D.39358, pic_type,
	orr	ip, r1, ip	@ D.39358, D.39358, D.39358
	orr	ip, ip, r2	@ D.39358, D.39358, D.39358
	orr	ip, ip, lr	@ D.39358, D.39358, D.39358
	str	ip, [r4, #148]	@ D.39358, pFrameStore_30(D)->fs_image.format
	b	.L468	@
.L473:
	ldr	r6, [r4, #456]	@ D.39358, pFrameStore_30(D)->top_field.err_level
	ldr	r2, [r5, #3684]	@ D.39358, pH264Ctx_21(D)->out_error_thr
	cmp	r6, r2	@ D.39358, D.39358
	bhi	.L513	@,
	ldr	r1, [r4, #492]	@ pFrameStore_30(D)->bottom_field.err_level, pFrameStore_30(D)->bottom_field.err_level
	cmp	r2, r1	@ D.39358, pFrameStore_30(D)->bottom_field.err_level
	bcc	.L478	@,
.L476:
	ldr	lr, [r4, #544]	@ pFrameStore_30(D)->err_level, pFrameStore_30(D)->err_level
	mov	r1, #3	@ valid_field,
	ldr	r2, [r4, #540]	@ pic_type, pFrameStore_30(D)->pic_type
	ldr	r9, [r4, #460]	@ pic_type, pFrameStore_30(D)->top_field.pic_type
	ldr	r8, [r4, #496]	@ pic_type, pFrameStore_30(D)->bottom_field.pic_type
	str	lr, [r4, #188]	@ pFrameStore_30(D)->err_level, pFrameStore_30(D)->fs_image.error_level
.L479:
	ldrb	lr, [r4, #3]	@ zero_extendqisi2	@ D.39360, pFrameStore_30(D)->mode_skip_flag
	cmp	lr, #1	@ D.39360,
	beq	.L514	@,
	cmp	lr, #2	@ D.39360,
	streq	r6, [r4, #188]	@ D.39358, pFrameStore_30(D)->fs_image.error_level
	movne	r7, r1, asl #10	@ D.39358, valid_field,
	moveq	r2, r9	@ pic_type, pic_type
	moveq	r7, #1024	@ D.39358,
.L481:
	mov	r1, #768	@ D.39358,
	str	r9, [r4, #140]	@ pic_type, pFrameStore_30(D)->fs_image.top_fld_type
	str	r8, [r4, #144]	@ pic_type, pFrameStore_30(D)->fs_image.bottom_fld_type
	b	.L474	@
.L478:
	ldr	r2, [r4, #460]	@ pic_type, pFrameStore_30(D)->top_field.pic_type
	mov	r1, #1	@ valid_field,
	ldr	r8, [r4, #496]	@ pic_type, pFrameStore_30(D)->bottom_field.pic_type
	str	r6, [r4, #188]	@ D.39358, pFrameStore_30(D)->fs_image.error_level
	mov	r9, r2	@ pic_type, pic_type
	b	.L479	@
.L512:
	ldr	lr, [r4, #152]	@ pFrameStore_30(D)->fs_image.image_width, pFrameStore_30(D)->fs_image.image_width
	cmp	lr, #720	@ pFrameStore_30(D)->fs_image.image_width,
	movne	lr, #1	@ top_field_first,
	bne	.L485	@,
	ldr	lr, [r4, #156]	@ pFrameStore_30(D)->fs_image.image_height, pFrameStore_30(D)->fs_image.image_height
	subs	lr, lr, #480	@ top_field_first, pFrameStore_30(D)->fs_image.image_height,
	movne	lr, #1	@ top_field_first,
	b	.L485	@
.L513:
	ldr	lr, [r4, #492]	@ D.39358, pFrameStore_30(D)->bottom_field.err_level
	cmp	r2, lr	@ D.39358, D.39358
	bcc	.L476	@,
	ldr	r2, [r4, #496]	@ pic_type, pFrameStore_30(D)->bottom_field.pic_type
	mov	r1, #2	@ valid_field,
	str	lr, [r4, #188]	@ D.39358, pFrameStore_30(D)->fs_image.error_level
	ldr	r9, [r4, #460]	@ pic_type, pFrameStore_30(D)->top_field.pic_type
	mov	r8, r2	@ pic_type, pic_type
	b	.L479	@
.L514:
	ldr	r1, [r4, #492]	@ pFrameStore_30(D)->bottom_field.err_level, pFrameStore_30(D)->bottom_field.err_level
	mov	r2, r8	@ pic_type, pic_type
	mov	r7, #2048	@ D.39358,
	str	r1, [r4, #188]	@ pFrameStore_30(D)->bottom_field.err_level, pFrameStore_30(D)->fs_image.error_level
	b	.L481	@
.L503:
	add	r6, r0, #24576	@ tmp284, pH264Ctx,
	b	.L468	@
	.fnend
	.size	GetImagePara, .-GetImagePara
	.align	2
	.global	SetFrmRepeatCount
	.type	SetFrmRepeatCount, %function
SetFrmRepeatCount:
	.fnstart
	@ args = 0, pretend = 0, frame = 0
	@ frame_needed = 0, uses_anonymous_args = 0
	@ link register save eliminated.
	ldr	r3, [r0]	@ pH264Ctx_2(D)->pstExtraData, pH264Ctx_2(D)->pstExtraData
	ldr	r3, [r3, #520]	@ _3->s32FastForwardBackwardSpeed, _3->s32FastForwardBackwardSpeed
	add	r3, r3, #2032	@ D.39375, _3->s32FastForwardBackwardSpeed,
	add	r3, r3, #15	@ D.39375, D.39375,
	cmp	r3, #4096	@ D.39375,
	movcc	r3, #0	@ tmp120,
	strcc	r3, [r1, #84]	@ tmp120, p_image_7(D)->u32RepeatCnt
	bxcc	lr	@
	b	SetFrmRepeatCount.part.1	@
	.fnend
	.size	SetFrmRepeatCount, .-SetFrmRepeatCount
	.align	2
	.global	SplitFrmToFlds
	.type	SplitFrmToFlds, %function
SplitFrmToFlds:
	.fnstart
	@ args = 0, pretend = 0, frame = 0
	@ frame_needed = 0, uses_anonymous_args = 0
	stmfd	sp!, {r4, r5, lr}	@,
	.save {r4, r5, lr}
	mov	r5, #1	@ tmp118,
	ldrb	lr, [r0, #401]	@ zero_extendqisi2	@ D.39378, pFrameStore_2(D)->frame.is_long_term
	mov	r4, #2	@ tmp122,
	ldrb	ip, [r0, #402]	@ zero_extendqisi2	@ D.39378, pFrameStore_2(D)->frame.is_short_term
	ldr	r1, [r0, #420]	@ D.39379, pFrameStore_2(D)->frame.err_level
	ldr	r2, [r0, #424]	@ D.39379, pFrameStore_2(D)->frame.pic_type
	ldr	r3, [r0, #404]	@ D.39380, pFrameStore_2(D)->frame.frame_store
	strb	r5, [r0, #436]	@ tmp118, pFrameStore_2(D)->top_field.structure
	strb	r4, [r0, #472]	@ tmp122, pFrameStore_2(D)->bottom_field.structure
	strb	lr, [r0, #437]	@ D.39378, pFrameStore_2(D)->top_field.is_long_term
	strb	lr, [r0, #473]	@ D.39378, pFrameStore_2(D)->bottom_field.is_long_term
	strb	ip, [r0, #438]	@ D.39378, pFrameStore_2(D)->top_field.is_short_term
	strb	ip, [r0, #474]	@ D.39378, pFrameStore_2(D)->bottom_field.is_short_term
	str	r1, [r0, #456]	@ D.39379, pFrameStore_2(D)->top_field.err_level
	str	r1, [r0, #492]	@ D.39379, pFrameStore_2(D)->bottom_field.err_level
	str	r2, [r0, #460]	@ D.39379, pFrameStore_2(D)->top_field.pic_type
	str	r2, [r0, #496]	@ D.39379, pFrameStore_2(D)->bottom_field.pic_type
	str	r3, [r0, #440]	@ D.39380, pFrameStore_2(D)->top_field.frame_store
	str	r3, [r0, #476]	@ D.39380, pFrameStore_2(D)->bottom_field.frame_store
	ldmfd	sp!, {r4, r5, pc}	@
	.fnend
	.size	SplitFrmToFlds, .-SplitFrmToFlds
	.align	2
	.global	CombineFldsToFrm
	.type	CombineFldsToFrm, %function
CombineFldsToFrm:
	.fnstart
	@ args = 0, pretend = 0, frame = 0
	@ frame_needed = 0, uses_anonymous_args = 0
	ldr	r2, [r0, #488]	@ pFrameStore_4(D)->bottom_field.poc, pFrameStore_4(D)->bottom_field.poc
	ldr	r1, [r0, #452]	@ pFrameStore_4(D)->top_field.poc, pFrameStore_4(D)->top_field.poc
	stmfd	sp!, {r4, r5, lr}	@,
	.save {r4, r5, lr}
	cmp	r2, r1	@ pFrameStore_4(D)->bottom_field.poc, pFrameStore_4(D)->top_field.poc
	ldr	r3, [r0, #492]	@ pFrameStore_4(D)->bottom_field.err_level, pFrameStore_4(D)->bottom_field.err_level
	mov	lr, #3	@ tmp133,
	ldr	r5, [r0, #456]	@ pFrameStore_4(D)->top_field.err_level, pFrameStore_4(D)->top_field.err_level
	movge	r2, r1	@ D.39383, pFrameStore_4(D)->top_field.poc
	ldrb	r4, [r0, #473]	@ zero_extendqisi2	@ pFrameStore_4(D)->bottom_field.is_long_term, pFrameStore_4(D)->bottom_field.is_long_term
	ldr	ip, [r0, #440]	@ pFrameStore_4(D)->top_field.frame_store, pFrameStore_4(D)->top_field.frame_store
	add	r3, r3, r5	@ D.39384, pFrameStore_4(D)->bottom_field.err_level, pFrameStore_4(D)->top_field.err_level
	cmp	r4, #0	@ pFrameStore_4(D)->bottom_field.is_long_term,
	strb	lr, [r0, #400]	@ tmp133, pFrameStore_4(D)->frame.structure
	mov	r3, r3, lsr #1	@ D.39384, D.39384,
	str	r2, [r0, #416]	@ D.39383, pFrameStore_4(D)->frame.poc
	str	ip, [r0, #404]	@ pFrameStore_4(D)->top_field.frame_store, pFrameStore_4(D)->frame.frame_store
	str	r2, [r0, #524]	@ D.39383, pFrameStore_4(D)->poc
	str	r3, [r0, #420]	@ D.39384, pFrameStore_4(D)->frame.err_level
	beq	.L520	@,
	ldrb	r2, [r0, #437]	@ zero_extendqisi2	@ pFrameStore_4(D)->top_field.is_long_term, pFrameStore_4(D)->top_field.is_long_term
	cmp	r2, #0	@ pFrameStore_4(D)->top_field.is_long_term,
	bne	.L521	@,
.L520:
	ldr	r2, [r0, #472]	@ *pFrameStore_4(D), *pFrameStore_4(D)
	mov	r1, #0	@ tmp141,
	strb	r1, [r0, #401]	@ tmp141, pFrameStore_4(D)->frame.is_long_term
	bic	r2, r2, #-16777216	@ D.39384, *pFrameStore_4(D),
	bic	r2, r2, #255	@ D.39384, D.39384,
	cmp	r2, r1	@ D.39384,
	beq	.L525	@,
	ldr	r2, [r0, #436]	@ *pFrameStore_4(D), *pFrameStore_4(D)
	bic	r2, r2, #-16777216	@ D.39384, *pFrameStore_4(D),
	bic	r2, r2, #255	@ D.39384, D.39384,
	cmp	r2, #0	@ D.39384,
	movne	ip, #1	@ D.39386,
	bne	.L523	@,
.L525:
	mov	ip, #0	@ D.39386,
.L523:
	ldr	r2, [r0, #496]	@ pFrameStore_4(D)->bottom_field.pic_type, pFrameStore_4(D)->bottom_field.pic_type
	ldr	r1, [r0, #460]	@ pFrameStore_4(D)->top_field.pic_type, pFrameStore_4(D)->top_field.pic_type
	str	r3, [r0, #544]	@ D.39384, pFrameStore_4(D)->err_level
	cmp	r2, r1	@ pFrameStore_4(D)->bottom_field.pic_type, pFrameStore_4(D)->top_field.pic_type
	strb	ip, [r0, #402]	@ D.39386, pFrameStore_4(D)->frame.is_short_term
	movcs	r3, r2	@ D.39384, pFrameStore_4(D)->bottom_field.pic_type
	movcc	r3, r1	@ D.39384, pFrameStore_4(D)->top_field.pic_type
	str	r3, [r0, #424]	@ D.39384, pFrameStore_4(D)->frame.pic_type
	str	r3, [r0, #540]	@ D.39384, pFrameStore_4(D)->pic_type
	ldmfd	sp!, {r4, r5, pc}	@
.L521:
	mov	r1, #1	@ tmp152,
	strb	r1, [r0, #401]	@ tmp152, pFrameStore_4(D)->frame.is_long_term
	b	.L525	@
	.fnend
	.size	CombineFldsToFrm, .-CombineFldsToFrm
	.align	2
	.global	GetAPC
	.type	GetAPC, %function
GetAPC:
	.fnstart
	@ args = 0, pretend = 0, frame = 0
	@ frame_needed = 0, uses_anonymous_args = 0
	cmp	r1, #0	@ pFrameStore
	beq	.L565	@,
	cmp	r2, #1	@ structure,
	stmfd	sp!, {r4, r5, r6, r7, r8, r9, r10, lr}	@,
	.save {r4, r5, r6, r7, r8, r9, r10, lr}
	beq	.L538	@,
	cmp	r2, #2	@ structure,
	beq	.L539	@,
	ldr	r7, [r1, #452]	@ bottompoc, pFrameStore_7(D)->top_field.poc
	ldr	r8, [r1, #488]	@ bottompoc, pFrameStore_7(D)->bottom_field.poc
.L540:
	add	r6, r0, #24576	@ tmp166, pH264Ctx,
	ldr	ip, [r6, #2324]	@ D.39402, pH264Ctx_14(D)->APC.size
	cmp	ip, #0	@ D.39402,
	beq	.L541	@,
	ldr	r4, [r6, #2068]	@ pH264Ctx_14(D)->APC.is_used, pH264Ctx_14(D)->APC.is_used
	cmp	r4, #0	@ pH264Ctx_14(D)->APC.is_used,
	addne	r3, r0, #26624	@ ivtmp.693, pH264Ctx,
	movne	r4, #0	@ i,
	addne	r3, r3, #20	@ ivtmp.693, ivtmp.693,
	bne	.L544	@,
	b	.L542	@
.L546:
	ldr	r2, [r3, #4]!	@ MEM[base: _44, offset: 0B], MEM[base: _44, offset: 0B]
	cmp	r2, #0	@ MEM[base: _44, offset: 0B],
	beq	.L542	@,
.L544:
	add	r4, r4, #1	@ i, i,
	cmp	r4, ip	@ i, D.39402
	bne	.L546	@,
.L541:
	mvn	r0, #0	@ D.39400,
	ldmfd	sp!, {r4, r5, r6, r7, r8, r9, r10, pc}	@
.L539:
	ldr	r7, [r1, #488]	@ bottompoc, pFrameStore_7(D)->bottom_field.poc
	mov	r8, r7	@ bottompoc, bottompoc
	b	.L540	@
.L542:
	add	r3, r0, #49152	@ tmp145, pH264Ctx,
	mov	r5, r0	@ pH264Ctx, pH264Ctx
	mov	r9, r1	@ pFrameStore, pFrameStore
	ldr	r1, [r1, #508]	@, pFrameStore_7(D)->logic_fs_id
	ldr	r0, [r3, #3688]	@, pH264Ctx_14(D)->ChanID
	bl	FSP_GetLogicFs	@
	cmp	r0, #0	@ pstLogicFs
	beq	.L541	@,
	ldr	r3, [r0, #408]	@ pstLogicFs_21->pstDecodeFs, pstLogicFs_21->pstDecodeFs
	cmp	r3, #0	@ pstLogicFs_21->pstDecodeFs,
	beq	.L541	@,
	add	r3, r5, r4, lsl #2	@ D.39408, pH264Ctx, i,
	mov	r2, #1	@ tmp151,
	add	r3, r3, #24576	@ tmp150, D.39408,
	str	r2, [r3, #2068]	@ tmp151, MEM[(struct H264_CTX_S *)_46 + 26644B]
	ldr	r2, [r0, #408]	@ pstLogicFs_21->pstDecodeFs, pstLogicFs_21->pstDecodeFs
	mov	r0, #0	@ D.39400,
	ldr	r2, [r2, #4]	@ _24->PhyFsID, _24->PhyFsID
	str	r7, [r3, #2196]	@ bottompoc, MEM[(struct H264_CTX_S *)_46 + 26772B]
	str	r8, [r3, #2260]	@ bottompoc, MEM[(struct H264_CTX_S *)_46 + 26836B]
	str	r2, [r3, #2132]	@ _24->PhyFsID, MEM[(struct H264_CTX_S *)_46 + 26708B]
	ldr	r3, [r6, #2328]	@ D.39402, pH264Ctx_14(D)->APC.used_size
	cmp	r3, #15	@ D.39402,
	addls	r3, r3, #1	@ D.39401, D.39402,
	movhi	r3, #16	@ D.39401,
	str	r3, [r6, #2328]	@ D.39401, pH264Ctx_14(D)->APC.used_size
	str	r4, [r9, #552]	@ i, pFrameStore_7(D)->apc_idc
	ldmfd	sp!, {r4, r5, r6, r7, r8, r9, r10, pc}	@
.L538:
	ldr	r7, [r1, #452]	@ bottompoc, pFrameStore_7(D)->top_field.poc
	mov	r8, r7	@ bottompoc, bottompoc
	b	.L540	@
.L565:
	mvn	r0, #0	@ D.39400,
	bx	lr	@
	.fnend
	.size	GetAPC, .-GetAPC
	.align	2
	.global	SlidingWinMark
	.type	SlidingWinMark, %function
SlidingWinMark:
	.fnstart
	@ args = 0, pretend = 0, frame = 0
	@ frame_needed = 0, uses_anonymous_args = 0
	@ link register save eliminated.
	add	r2, r0, #24576	@ tmp116, pH264Ctx,
	add	r3, r0, #16384	@ tmp118, pH264Ctx,
	ldr	r1, [r2, #2060]	@ pH264Ctx_2(D)->DPB.ltref_frames_in_buffer, pH264Ctx_2(D)->DPB.ltref_frames_in_buffer
	ldr	r3, [r3, #1156]	@ pH264Ctx_2(D)->CurrSPS.num_ref_frames, pH264Ctx_2(D)->CurrSPS.num_ref_frames
	ldr	r2, [r2, #2056]	@ pH264Ctx_2(D)->DPB.ref_frames_in_buffer, pH264Ctx_2(D)->DPB.ref_frames_in_buffer
	rsb	r3, r1, r3	@ D.39411, pH264Ctx_2(D)->DPB.ltref_frames_in_buffer, pH264Ctx_2(D)->CurrSPS.num_ref_frames
	cmp	r2, r3	@ pH264Ctx_2(D)->DPB.ref_frames_in_buffer, D.39411
	bxne	lr	@
	b	SlidingWinMark.part.2	@
	.fnend
	.size	SlidingWinMark, .-SlidingWinMark
	.align	2
	.global	SimpleSlideDPB
	.type	SimpleSlideDPB, %function
SimpleSlideDPB:
	.fnstart
	@ args = 0, pretend = 0, frame = 0
	@ frame_needed = 0, uses_anonymous_args = 0
	add	r3, r0, #24576	@ tmp116, pH264Ctx,
	stmfd	sp!, {r4, lr}	@,
	.save {r4, lr}
	mov	r4, r0	@ pH264Ctx, pH264Ctx
	ldr	r1, [r3, #2052]	@ pH264Ctx_4(D)->DPB.used_size, pH264Ctx_4(D)->DPB.used_size
	ldr	r2, [r3, #2048]	@ pH264Ctx_4(D)->DPB.size, pH264Ctx_4(D)->DPB.size
	cmp	r1, r2	@ pH264Ctx_4(D)->DPB.used_size, pH264Ctx_4(D)->DPB.size
	bcs	.L575	@,
.L569:
	add	r0, r4, #49152	@ tmp125, pH264Ctx,
	mov	r2, #0	@ tmp126,
	ldr	r3, [r0, #976]	@ pH264Ctx_4(D)->CurrPic.nal_ref_idc, pH264Ctx_4(D)->CurrPic.nal_ref_idc
	strb	r2, [r0, #556]	@ tmp126, pH264Ctx_4(D)->CurrPic.is_long_term
	cmp	r3, r2	@ pH264Ctx_4(D)->CurrPic.nal_ref_idc,
	movne	r3, #1	@ tmp133,
	strneb	r3, [r0, #557]	@ tmp133, pH264Ctx_4(D)->CurrPic.is_short_term
	ldmfd	sp!, {r4, pc}	@
.L575:
	ldr	r1, [r3, #1856]	@, pH264Ctx_4(D)->DPB.fs
	bl	UnMarkFrameStoreRef	@
	mov	r1, #0	@,
	mov	r0, r4	@, pH264Ctx
	bl	RemoveFrameStoreOutDPB	@
	b	.L569	@
	.fnend
	.size	SimpleSlideDPB, .-SimpleSlideDPB
	.align	2
	.global	ReleaseNAL
	.type	ReleaseNAL, %function
ReleaseNAL:
	.fnstart
	@ args = 0, pretend = 0, frame = 0
	@ frame_needed = 0, uses_anonymous_args = 0
	@ link register save eliminated.
	subs	r3, r1, #0	@ pNalu, pNalu
	bxeq	lr	@
	mov	r2, #0	@ tmp112,
	strb	r2, [r3, #1]	@ tmp112, pNalu_3(D)->is_valid
	strb	r2, [r3, #3]	@ tmp112, pNalu_3(D)->nal_integ
	b	ReleaseNAL.part.3	@
	.fnend
	.size	ReleaseNAL, .-ReleaseNAL
	.align	2
	.global	H264_ArrangeVahbMem
	.type	H264_ArrangeVahbMem, %function
H264_ArrangeVahbMem:
	.fnstart
	@ args = 4, pretend = 0, frame = 40
	@ frame_needed = 0, uses_anonymous_args = 0
	stmfd	sp!, {r4, r5, r6, lr}	@,
	.save {r4, r5, r6, lr}
	.pad #40
	sub	sp, sp, #40	@,,
	mov	r5, r1	@ ImgWidth, ImgWidth
	mov	r4, r0	@ pH264Ctx, pH264Ctx
	mov	r1, #36	@,
	add	r0, sp, #4	@ tmp177,,
	mov	r6, r2	@ ImgHeight, ImgHeight
	bl	__memzero	@
	ldr	r2, [r4]	@ D.39422, pH264Ctx_7(D)->pstExtraData
	mov	r3, #0	@ tmp138,
	str	r5, [sp, #16]	@ ImgWidth, FspInstCfg.s32DecFsWidth
	str	r6, [sp, #20]	@ ImgHeight, FspInstCfg.s32DecFsHeight
	ldr	r1, [r2, #20]	@ _8->s32DnrDispOutEnable, _8->s32DnrDispOutEnable
	str	r6, [sp, #36]	@ ImgHeight, FspInstCfg.s32DispFsHeight
	ldr	r2, [r2, #32]	@ _8->eCapLevel, _8->eCapLevel
	strb	r1, [sp, #4]	@ _8->s32DnrDispOutEnable, FspInstCfg.s32DispLoopEnable
	cmp	r2, #24	@ _8->eCapLevel,
	str	r5, [sp, #24]	@ ImgWidth, FspInstCfg.s32TfFsWidth
	str	r6, [sp, #28]	@ ImgHeight, FspInstCfg.s32TfFsHeight
	str	r5, [sp, #32]	@ ImgWidth, FspInstCfg.s32DispFsWidth
	strb	r3, [sp, #5]	@ tmp138, FspInstCfg.s32TfEnable
	strb	r3, [sp, #6]	@ tmp138, FspInstCfg.s32RprEnable
	beq	.L579	@,
	add	r1, r4, #24576	@ tmp144, pH264Ctx,
	ldrb	r2, [sp, #56]	@ zero_extendqisi2	@ D.39420, PmvBlkNum
	strb	r3, [sp, #10]	@ tmp138, FspInstCfg.s32ExpectedTfFsNum
	mov	r0, #5	@ tmp151,
	ldr	r3, [r1, #2048]	@ pH264Ctx_7(D)->DPB.size, pH264Ctx_7(D)->DPB.size
	strb	r0, [sp, #11]	@ tmp151, FspInstCfg.s32ExpectedDispFsNum
	add	r3, r3, #1	@ tmp147, pH264Ctx_7(D)->DPB.size,
	strb	r3, [sp, #9]	@ tmp147, FspInstCfg.s32ExpectedDecFsNum
.L582:
	add	r5, r4, #49152	@ tmp160, pH264Ctx,
	add	r1, sp, #4	@ tmp178,,
	strb	r2, [sp, #12]	@ D.39420, FspInstCfg.s32ExpectedPmvNum
	mov	r3, #1	@ tmp156,
	ldr	r0, [r5, #3688]	@, pH264Ctx_7(D)->ChanID
	mov	r2, #0	@ tmp154,
	strb	r3, [sp, #7]	@ tmp156, FspInstCfg.s8SubLevelEnable
	strb	r2, [sp, #8]	@ tmp154, FspInstCfg.s32UserDec
	bl	FSP_ConfigInstance	@
	cmp	r0, #0	@,
	bne	.L583	@,
	ldr	r1, [r4]	@ D.39422, pH264Ctx_7(D)->pstExtraData
	mov	r3, sp	@,
	ldr	r0, [r5, #3688]	@, pH264Ctx_7(D)->ChanID
	ldr	r2, [r1, #28]	@, _41->s32SyntaxMemSize
	ldr	r1, [r1, #24]	@, _41->s32SyntaxMemAddr
	bl	FSP_PartitionFsMemory	@
	cmp	r0, #0	@,
	moveq	r0, #1	@ D.39421,
	mvnne	r0, #19	@ D.39421,
.L584:
	add	sp, sp, #40	@,,
	@ sp needed	@
	ldmfd	sp!, {r4, r5, r6, pc}	@
.L579:
	mov	r1, #5	@ tmp173,
	strb	r3, [sp, #9]	@ tmp138, FspInstCfg.s32ExpectedDecFsNum
	strb	r3, [sp, #10]	@ tmp138, FspInstCfg.s32ExpectedTfFsNum
	mov	r2, #1	@ D.39420,
	strb	r1, [sp, #11]	@ tmp173, FspInstCfg.s32ExpectedDispFsNum
	b	.L582	@
.L583:
	mvn	r0, #19	@ D.39421,
	b	.L584	@
	.fnend
	.size	H264_ArrangeVahbMem, .-H264_ArrangeVahbMem
	.align	2
	.global	RepairList
	.type	RepairList, %function
RepairList:
	.fnstart
	@ args = 0, pretend = 0, frame = 0
	@ frame_needed = 0, uses_anonymous_args = 0
	add	r3, r0, #20480	@ tmp146, pH264Ctx,
	stmfd	sp!, {r4, r5, r6, r7, r8, r9, r10, lr}	@,
	.save {r4, r5, r6, r7, r8, r9, r10, lr}
	mov	r7, r0	@ pH264Ctx, pH264Ctx
	ldrb	r3, [r3, #200]	@ zero_extendqisi2	@ pH264Ctx_17(D)->CurrSlice.slice_type, pH264Ctx_17(D)->CurrSlice.slice_type
	cmp	r3, #1	@ pH264Ctx_17(D)->CurrSlice.slice_type,
	beq	.L588	@,
	bcc	.L603	@,
	cmp	r3, #2	@ pH264Ctx_17(D)->CurrSlice.slice_type,
	bne	.L610	@,
.L604:
	mov	r0, #0	@ D.39484,
	ldmfd	sp!, {r4, r5, r6, r7, r8, r9, r10, pc}	@
.L600:
	mov	r0, r7	@, pH264Ctx
.L610:
	add	r7, r7, #49152	@ tmp159, pH264Ctx,
	bl	ClearCurrNal	@
	mvn	r0, #0	@ D.39484,
	ldr	r3, [r7, #3644]	@ pH264Ctx_17(D)->TotalSlice, pH264Ctx_17(D)->TotalSlice
	add	r3, r3, #1	@ D.39486, pH264Ctx_17(D)->TotalSlice,
	str	r3, [r7, #3644]	@ D.39486, pH264Ctx_17(D)->TotalSlice
	ldmfd	sp!, {r4, r5, r6, r7, r8, r9, r10, pc}	@
.L588:
	mov	r0, #2	@ i_list_cnt,
.L589:
	add	r6, r7, #20480	@ ivtmp.743, pH264Ctx,
	add	r4, r7, #26880	@ ivtmp.751, pH264Ctx,
	add	r6, r6, #240	@ ivtmp.743, ivtmp.743,
	add	r4, r4, #156	@ ivtmp.751, ivtmp.751,
	add	r8, r7, #49152	@ tmp177, pH264Ctx,
	mov	r5, #0	@ i_list,
	ldr	r2, [r6, #4]!	@ D.39486, MEM[base: _12, offset: 0B]
	mov	r9, #1	@ tmp176,
	cmp	r2, #0	@ D.39486,
	beq	.L591	@,
.L612:
	ldr	ip, [r4]	@ pRepairPic, MEM[base: _71, offset: 0B]
	cmp	ip, #0	@ pRepairPic,
	bne	.L605	@,
	mov	r1, r4	@ ivtmp.732, ivtmp.751
	mov	r3, ip	@ i, pRepairPic
	b	.L593	@
.L594:
	ldr	lr, [r1, #4]!	@ pRepairPic, MEM[base: _6, offset: 0B]
	cmp	lr, #0	@ pRepairPic,
	bne	.L596	@,
.L593:
	add	r3, r3, #1	@ i, i,
	cmp	r3, r2	@ i, D.39486
	bne	.L594	@,
	ldr	r3, [r7]	@ pH264Ctx_17(D)->pstExtraData, pH264Ctx_17(D)->pstExtraData
	ldr	r3, [r3, #12]	@ _38->s32DecOrderOutput, _38->s32DecOrderOutput
	cmp	r3, #2	@ _38->s32DecOrderOutput,
	bne	.L600	@,
	ldr	lr, [r8, #960]	@ pH264Ctx_17(D)->CurrPic.frame_store, pH264Ctx_17(D)->CurrPic.frame_store
	add	lr, lr, #400	@ pRepairPic, pH264Ctx_17(D)->CurrPic.frame_store,
.L596:
	mov	r1, r4	@ ivtmp.717, ivtmp.751
	mov	r3, #0	@ i,
	b	.L602	@
.L598:
	ldr	ip, [r1, #4]!	@ D.39490, MEM[base: _53, offset: 0B]
.L602:
	add	r3, r3, #1	@ i, i,
	cmp	ip, #0	@ D.39490,
	streq	lr, [r1]	@ pRepairPic, MEM[base: _34, offset: 0B]
	cmp	r3, r2	@ i, D.39486
	bne	.L598	@,
	add	r5, r5, #1	@ i_list, i_list,
	add	r4, r4, #132	@ ivtmp.751, ivtmp.751,
	cmp	r0, r5	@ i_list_cnt, i_list
	bls	.L604	@,
.L611:
	ldr	r2, [r6, #4]!	@ D.39486, MEM[base: _12, offset: 0B]
	cmp	r2, #0	@ D.39486,
	bne	.L612	@,
.L591:
	ldr	r3, [r7]	@ pH264Ctx_17(D)->pstExtraData, pH264Ctx_17(D)->pstExtraData
	ldr	r3, [r3, #12]	@ _21->s32DecOrderOutput, _21->s32DecOrderOutput
	cmp	r3, #2	@ _21->s32DecOrderOutput,
	bne	.L600	@,
	add	r5, r5, #1	@ i_list, i_list,
	str	r9, [r6]	@ tmp176, MEM[base: _12, offset: 0B]
	cmp	r0, r5	@ i_list_cnt, i_list
	ldr	r3, [r8, #960]	@ pH264Ctx_17(D)->CurrPic.frame_store, pH264Ctx_17(D)->CurrPic.frame_store
	add	r4, r4, #132	@ ivtmp.751, ivtmp.751,
	add	r3, r3, #400	@ D.39490, pH264Ctx_17(D)->CurrPic.frame_store,
	str	r3, [r4, #-132]	@ D.39490, MEM[base: _70, offset: 0B]
	bhi	.L611	@,
	b	.L604	@
.L605:
	mov	lr, ip	@ pRepairPic, pRepairPic
	b	.L596	@
.L603:
	mov	r0, #1	@ i_list_cnt,
	b	.L589	@
	.fnend
	.size	RepairList, .-RepairList
	.align	2
	.global	GetShortTermPicPoint
	.type	GetShortTermPicPoint, %function
GetShortTermPicPoint:
	.fnstart
	@ args = 0, pretend = 0, frame = 0
	@ frame_needed = 0, uses_anonymous_args = 0
	add	r3, r0, #20480	@ tmp139, pH264Ctx,
	stmfd	sp!, {r4, r5, lr}	@,
	.save {r4, r5, lr}
	ldrb	r4, [r3, #201]	@ zero_extendqisi2	@ pH264Ctx_6(D)->CurrSlice.field_pic_flag, pH264Ctx_6(D)->CurrSlice.field_pic_flag
	cmp	r4, #0	@ pH264Ctx_6(D)->CurrSlice.field_pic_flag,
	beq	.L614	@,
	ldrb	r3, [r3, #202]	@ zero_extendqisi2	@ pH264Ctx_6(D)->CurrSlice.bottom_field_flag, pH264Ctx_6(D)->CurrSlice.bottom_field_flag
	cmp	r3, #0	@ pH264Ctx_6(D)->CurrSlice.bottom_field_flag,
	movne	r4, #2	@ structure,
	moveq	r4, #1	@ structure,
.L614:
	add	r3, r0, #24576	@ tmp145, pH264Ctx,
	ldr	r5, [r3, #2056]	@ D.39502, pH264Ctx_6(D)->DPB.ref_frames_in_buffer
	cmp	r5, #0	@ D.39502,
	beq	.L622	@,
	add	r3, r0, #26368	@ ivtmp.758, pH264Ctx,
	mov	r2, #0	@ i,
	add	r3, r3, #128	@ ivtmp.758, ivtmp.758,
	b	.L619	@
.L633:
	ldrb	ip, [r0, #2]	@ zero_extendqisi2	@ _25->is_reference, _25->is_reference
	cmp	ip, #3	@ _25->is_reference,
	beq	.L631	@,
.L617:
	add	r2, r2, #1	@ i, i,
	add	r3, r3, #4	@ ivtmp.758, ivtmp.758,
	cmp	r2, r5	@ i, D.39502
	beq	.L632	@,
.L619:
	cmp	r4, #0	@ structure,
	ldr	r0, [r3]	@ D.39499,* ivtmp.758
	beq	.L633	@,
	ldrb	lr, [r0, #2]	@ zero_extendqisi2	@ D.39501, _10->is_reference
	tst	lr, #1	@ D.39501,
	beq	.L618	@,
	ldr	ip, [r0, #436]	@ *_10, *_10
	bic	ip, ip, #-16777216	@ D.39502, *_10,
	bic	ip, ip, #255	@ D.39502, D.39502,
	cmp	ip, #65536	@ D.39502,
	beq	.L634	@,
.L618:
	tst	lr, #2	@ D.39501,
	beq	.L617	@,
	ldr	ip, [r0, #472]	@ *_10, *_10
	bic	ip, ip, #-16777216	@ D.39502, *_10,
	bic	ip, ip, #255	@ D.39502, D.39502,
	cmp	ip, #65536	@ D.39502,
	bne	.L617	@,
	ldr	ip, [r0, #484]	@ _10->bottom_field.pic_num, _10->bottom_field.pic_num
	cmp	ip, r1	@ _10->bottom_field.pic_num, picNum
	bne	.L617	@,
	add	r0, r0, #472	@ D.39500, D.39499,
	ldmfd	sp!, {r4, r5, pc}	@
.L631:
	ldr	ip, [r0, #400]	@ *_25, *_25
	bic	ip, ip, #-16777216	@ D.39502, *_25,
	bic	ip, ip, #255	@ D.39502, D.39502,
	cmp	ip, #65536	@ D.39502,
	bne	.L617	@,
	ldr	ip, [r0, #412]	@ _25->frame.pic_num, _25->frame.pic_num
	cmp	ip, r1	@ _25->frame.pic_num, picNum
	bne	.L617	@,
	add	r0, r0, #400	@ D.39500, D.39499,
	ldmfd	sp!, {r4, r5, pc}	@
.L634:
	ldr	ip, [r0, #448]	@ _10->top_field.pic_num, _10->top_field.pic_num
	cmp	ip, r1	@ _10->top_field.pic_num, picNum
	bne	.L618	@,
	add	r0, r0, #436	@ D.39500, D.39499,
	ldmfd	sp!, {r4, r5, pc}	@
.L632:
	mov	r0, #0	@ D.39500,
	ldmfd	sp!, {r4, r5, pc}	@
.L622:
	mov	r0, r5	@ D.39500, D.39502
	ldmfd	sp!, {r4, r5, pc}	@
	.fnend
	.size	GetShortTermPicPoint, .-GetShortTermPicPoint
	.align	2
	.global	GetLongTermPicPoint
	.type	GetLongTermPicPoint, %function
GetLongTermPicPoint:
	.fnstart
	@ args = 0, pretend = 0, frame = 0
	@ frame_needed = 0, uses_anonymous_args = 0
	add	r3, r0, #20480	@ tmp139, pH264Ctx,
	stmfd	sp!, {r4, r5, lr}	@,
	.save {r4, r5, lr}
	ldrb	r4, [r3, #201]	@ zero_extendqisi2	@ pH264Ctx_6(D)->CurrSlice.field_pic_flag, pH264Ctx_6(D)->CurrSlice.field_pic_flag
	cmp	r4, #0	@ pH264Ctx_6(D)->CurrSlice.field_pic_flag,
	beq	.L636	@,
	ldrb	r3, [r3, #202]	@ zero_extendqisi2	@ pH264Ctx_6(D)->CurrSlice.bottom_field_flag, pH264Ctx_6(D)->CurrSlice.bottom_field_flag
	cmp	r3, #0	@ pH264Ctx_6(D)->CurrSlice.bottom_field_flag,
	movne	r4, #2	@ structure,
	moveq	r4, #1	@ structure,
.L636:
	add	r3, r0, #24576	@ tmp145, pH264Ctx,
	ldr	r5, [r3, #2060]	@ D.39516, pH264Ctx_6(D)->DPB.ltref_frames_in_buffer
	cmp	r5, #0	@ D.39516,
	beq	.L644	@,
	add	r3, r0, #26368	@ ivtmp.765, pH264Ctx,
	mov	r2, #0	@ i,
	add	r3, r3, #192	@ ivtmp.765, ivtmp.765,
	b	.L641	@
.L655:
	ldrb	ip, [r0, #2]	@ zero_extendqisi2	@ _25->is_reference, _25->is_reference
	cmp	ip, #3	@ _25->is_reference,
	beq	.L653	@,
.L639:
	add	r2, r2, #1	@ i, i,
	add	r3, r3, #4	@ ivtmp.765, ivtmp.765,
	cmp	r2, r5	@ i, D.39516
	beq	.L654	@,
.L641:
	cmp	r4, #0	@ structure,
	ldr	r0, [r3]	@ D.39513,* ivtmp.765
	beq	.L655	@,
	ldrb	lr, [r0, #2]	@ zero_extendqisi2	@ D.39515, _10->is_reference
	tst	lr, #1	@ D.39515,
	beq	.L640	@,
	ldr	ip, [r0, #436]	@ *_10, *_10
	bic	ip, ip, #-16777216	@ D.39516, *_10,
	bic	ip, ip, #255	@ D.39516, D.39516,
	cmp	ip, #256	@ D.39516,
	beq	.L656	@,
.L640:
	tst	lr, #2	@ D.39515,
	beq	.L639	@,
	ldr	ip, [r0, #472]	@ *_10, *_10
	bic	ip, ip, #-16777216	@ D.39516, *_10,
	bic	ip, ip, #255	@ D.39516, D.39516,
	cmp	ip, #256	@ D.39516,
	bne	.L639	@,
	ldr	ip, [r0, #480]	@ _10->bottom_field.long_term_pic_num, _10->bottom_field.long_term_pic_num
	cmp	ip, r1	@ _10->bottom_field.long_term_pic_num, LongtermPicNum
	bne	.L639	@,
	add	r0, r0, #472	@ D.39514, D.39513,
	ldmfd	sp!, {r4, r5, pc}	@
.L653:
	ldr	ip, [r0, #400]	@ *_25, *_25
	bic	ip, ip, #-16777216	@ D.39516, *_25,
	bic	ip, ip, #255	@ D.39516, D.39516,
	cmp	ip, #256	@ D.39516,
	bne	.L639	@,
	ldr	ip, [r0, #408]	@ _25->frame.long_term_pic_num, _25->frame.long_term_pic_num
	cmp	ip, r1	@ _25->frame.long_term_pic_num, LongtermPicNum
	bne	.L639	@,
	add	r0, r0, #400	@ D.39514, D.39513,
	ldmfd	sp!, {r4, r5, pc}	@
.L656:
	ldr	ip, [r0, #444]	@ _10->top_field.long_term_pic_num, _10->top_field.long_term_pic_num
	cmp	ip, r1	@ _10->top_field.long_term_pic_num, LongtermPicNum
	bne	.L640	@,
	add	r0, r0, #436	@ D.39514, D.39513,
	ldmfd	sp!, {r4, r5, pc}	@
.L654:
	mov	r0, #0	@ D.39514,
	ldmfd	sp!, {r4, r5, pc}	@
.L644:
	mov	r0, r5	@ D.39514, D.39516
	ldmfd	sp!, {r4, r5, pc}	@
	.fnend
	.size	GetLongTermPicPoint, .-GetLongTermPicPoint
	.align	2
	.global	ReorderSTList
	.type	ReorderSTList, %function
ReorderSTList:
	.fnstart
	@ args = 4, pretend = 0, frame = 0
	@ frame_needed = 0, uses_anonymous_args = 0
	stmfd	sp!, {r4, r5, r6, r7, r8, lr}	@,
	.save {r4, r5, r6, r7, r8, lr}
	mov	r5, r1	@ RefPicListX, RefPicListX
	ldr	r7, [sp, #24]	@ refIdxLX, refIdxLX
	mov	r1, r3	@, picNumLX
	mov	r8, r2	@ num_ref_idx_lX_active_minus1, num_ref_idx_lX_active_minus1
	mov	r6, r3	@ picNumLX, picNumLX
	bl	GetShortTermPicPoint	@
	add	r2, r8, #1	@ cIdx, num_ref_idx_lX_active_minus1,
	ldr	r4, [r7]	@ D.39547, *refIdxLX_14(D)
	cmp	r2, r4	@ cIdx, D.39547
	ble	.L658	@,
	add	lr, r5, r2, lsl #2	@ ivtmp.784, RefPicListX, cIdx,
	mov	ip, r2	@ cIdx, cIdx
.L659:
	ldr	r4, [lr, #-4]!	@ MEM[base: _47, offset: 0B], MEM[base: _47, offset: 0B]
	sub	ip, ip, #1	@ cIdx, cIdx,
	str	r4, [lr, #4]	@ MEM[base: _47, offset: 0B], MEM[base: _47, offset: 4B]
	ldr	r4, [r7]	@ D.39547, *refIdxLX_14(D)
	cmp	r4, ip	@ D.39547, cIdx
	blt	.L659	@,
.L658:
	add	r3, r4, #1	@ D.39547, D.39547,
	str	r3, [r7]	@ D.39547, *refIdxLX_14(D)
	str	r0, [r5, r4, asl #2]	@ picLX, *_31
	ldr	ip, [r7]	@ nIdx, *refIdxLX_14(D)
	cmp	r2, ip	@ cIdx, nIdx
	ldmltfd	sp!, {r4, r5, r6, r7, r8, pc}	@
	add	r4, r5, ip, lsl #2	@ ivtmp.775, RefPicListX, nIdx,
	mov	lr, ip	@ nIdx, nIdx
.L663:
	ldr	r0, [r4], #4	@ D.39548, MEM[base: _61, offset: 0B]
	add	ip, ip, #1	@ nIdx, nIdx,
	cmp	r0, #0	@ D.39548,
	beq	.L661	@,
	ldrb	r3, [r0, #1]	@ zero_extendqisi2	@ _37->is_long_term, _37->is_long_term
	cmp	r3, #0	@ _37->is_long_term,
	bne	.L662	@,
	ldr	r3, [r0, #12]	@ _37->pic_num, _37->pic_num
	cmp	r3, r6	@ _37->pic_num, picNumLX
	beq	.L661	@,
.L662:
	str	r0, [r5, lr, asl #2]	@ D.39548, *_43
	add	lr, lr, #1	@ nIdx, nIdx,
.L661:
	cmp	r2, ip	@ cIdx, nIdx
	bge	.L663	@,
	ldmfd	sp!, {r4, r5, r6, r7, r8, pc}	@
	.fnend
	.size	ReorderSTList, .-ReorderSTList
	.align	2
	.global	ReorderLTList
	.type	ReorderLTList, %function
ReorderLTList:
	.fnstart
	@ args = 4, pretend = 0, frame = 0
	@ frame_needed = 0, uses_anonymous_args = 0
	stmfd	sp!, {r4, r5, r6, r7, r8, lr}	@,
	.save {r4, r5, r6, r7, r8, lr}
	mov	r5, r1	@ RefPicListX, RefPicListX
	ldr	r7, [sp, #24]	@ refIdxLX, refIdxLX
	mov	r1, r3	@, LongTermPicNum
	mov	r8, r2	@ num_ref_idx_lX_active_minus1, num_ref_idx_lX_active_minus1
	mov	r6, r3	@ LongTermPicNum, LongTermPicNum
	bl	GetLongTermPicPoint	@
	add	r2, r8, #1	@ cIdx, num_ref_idx_lX_active_minus1,
	ldr	r4, [r7]	@ D.39582, *refIdxLX_14(D)
	cmp	r2, r4	@ cIdx, D.39582
	ble	.L672	@,
	add	lr, r5, r2, lsl #2	@ ivtmp.812, RefPicListX, cIdx,
	mov	ip, r2	@ cIdx, cIdx
.L673:
	ldr	r4, [lr, #-4]!	@ MEM[base: _47, offset: 0B], MEM[base: _47, offset: 0B]
	sub	ip, ip, #1	@ cIdx, cIdx,
	str	r4, [lr, #4]	@ MEM[base: _47, offset: 0B], MEM[base: _47, offset: 4B]
	ldr	r4, [r7]	@ D.39582, *refIdxLX_14(D)
	cmp	r4, ip	@ D.39582, cIdx
	blt	.L673	@,
.L672:
	add	r3, r4, #1	@ D.39582, D.39582,
	str	r3, [r7]	@ D.39582, *refIdxLX_14(D)
	str	r0, [r5, r4, asl #2]	@ picLX, *_31
	ldr	ip, [r7]	@ nIdx, *refIdxLX_14(D)
	cmp	r2, ip	@ cIdx, nIdx
	ldmltfd	sp!, {r4, r5, r6, r7, r8, pc}	@
	add	r4, r5, ip, lsl #2	@ ivtmp.803, RefPicListX, nIdx,
	mov	lr, ip	@ nIdx, nIdx
.L677:
	ldr	r0, [r4], #4	@ D.39583, MEM[base: _61, offset: 0B]
	add	ip, ip, #1	@ nIdx, nIdx,
	cmp	r0, #0	@ D.39583,
	beq	.L675	@,
	ldrb	r3, [r0, #1]	@ zero_extendqisi2	@ _37->is_long_term, _37->is_long_term
	cmp	r3, #0	@ _37->is_long_term,
	beq	.L676	@,
	ldr	r3, [r0, #8]	@ _37->long_term_pic_num, _37->long_term_pic_num
	cmp	r3, r6	@ _37->long_term_pic_num, LongTermPicNum
	beq	.L675	@,
.L676:
	str	r0, [r5, lr, asl #2]	@ D.39583, *_43
	add	lr, lr, #1	@ nIdx, nIdx,
.L675:
	cmp	r2, ip	@ cIdx, nIdx
	bge	.L677	@,
	ldmfd	sp!, {r4, r5, r6, r7, r8, pc}	@
	.fnend
	.size	ReorderLTList, .-ReorderLTList
	.align	2
	.global	ReorderRefPiclist
	.type	ReorderRefPiclist, %function
ReorderRefPiclist:
	.fnstart
	@ args = 12, pretend = 0, frame = 24
	@ frame_needed = 0, uses_anonymous_args = 0
	add	r2, r0, #20480	@ tmp169, pH264Ctx,
	mov	ip, #0	@ tmp167,
	stmfd	sp!, {r4, r5, r6, r7, r8, r9, r10, fp, lr}	@,
	.save {r4, r5, r6, r7, r8, r9, r10, fp, lr}
	.pad #36
	sub	sp, sp, #36	@,,
	ldrb	lr, [r2, #201]	@ zero_extendqisi2	@ pH264Ctx_14(D)->CurrSlice.field_pic_flag, pH264Ctx_14(D)->CurrSlice.field_pic_flag
	mov	r8, #2208	@ tmp178,
	str	ip, [sp, #28]	@ tmp167, refIdxLX
	mov	r6, #4000	@ tmp185,
	cmp	lr, ip	@ pH264Ctx_14(D)->CurrSlice.field_pic_flag,
	add	lr, r0, #12288	@ tmp176, pH264Ctx,
	ldr	ip, [sp, #72]	@ reordering_of_pic_nums_idc, reordering_of_pic_nums_idc
	ldr	r5, [r2, #212]	@ pH264Ctx_14(D)->CurrSlice.pic_parameter_set_id, pH264Ctx_14(D)->CurrSlice.pic_parameter_set_id
	ldr	r9, [lr, #1296]	@ pH264Ctx_14(D)->PPS, pH264Ctx_14(D)->PPS
	beq	.L689	@,
	ldr	r2, [r2, #220]	@ pH264Ctx_14(D)->CurrSlice.frame_num, pH264Ctx_14(D)->CurrSlice.frame_num
	mov	r4, #2	@ maxPicNum,
	ldr	r7, [lr, #1292]	@ pH264Ctx_14(D)->SPS, pH264Ctx_14(D)->SPS
	mla	lr, r8, r5, r9	@ tmp179, tmp178, pH264Ctx_14(D)->CurrSlice.pic_parameter_set_id, pH264Ctx_14(D)->PPS
	mov	r5, r2, asl #1	@ D.39607, pH264Ctx_14(D)->CurrSlice.frame_num,
	add	r2, r5, #1	@ picNumLXPred, D.39607,
	str	r2, [sp, #20]	@ picNumLXPred, %sfp
.L708:
	ldr	lr, [lr, #28]	@ pps_82->seq_parameter_set_id,
	adds	r10, r3, #2	@ D.39607, num_ref_idx_lX_active_minus1,
	mla	r2, r6, lr, r7	@ tmp186, tmp185, pps_82->seq_parameter_set_id, pH264Ctx_14(D)->SPS
	ldr	r2, [r2, #2904]	@ sps_86->log2_max_frame_num_minus4,
	add	r2, r2, #4	@ D.39607, sps_86->log2_max_frame_num_minus4,
	mov	r2, r4, asl r2	@ maxPicNum, maxPicNum,
	str	r2, [sp, #16]	@ maxPicNum, %sfp
	beq	.L688	@,
	ldr	r2, [ip]	@ D.39607, *reordering_of_pic_nums_idc_39(D)
	cmp	r2, #3	@ D.39607,
	beq	.L688	@,
	mov	r8, r3	@ num_ref_idx_lX_active_minus1, num_ref_idx_lX_active_minus1
	mov	r9, r1	@ list, list
	str	r0, [sp, #12]	@ pH264Ctx, %sfp
	mov	r7, ip	@ ivtmp.831, reordering_of_pic_nums_idc
	ldr	r6, [sp, #76]	@ ivtmp.839, abs_diff_pic_num_minus1
	mov	r4, #0	@ i,
	ldr	r5, [sp, #20]	@ picNumLXPred, %sfp
	add	fp, sp, #28	@ tmp222,,
	b	.L692	@
.L693:
	ldr	r3, [sp, #80]	@ tmp243, long_term_pic_idx
	mov	r2, r8	@, num_ref_idx_lX_active_minus1
	mov	r1, r9	@, list
	ldr	r0, [sp, #12]	@, %sfp
	ldr	r3, [r3, r4, asl #2]	@ MEM[base: long_term_pic_idx_60(D), index: i_73, step: 4, offset: 0B], MEM[base: long_term_pic_idx_60(D), index: i_73, step: 4, offset: 0B]
	add	r4, r4, #1	@ i, i,
	str	fp, [sp]	@ tmp222,
	bl	ReorderLTList	@
	cmp	r4, r10	@ i, D.39607
	beq	.L688	@,
.L698:
	ldr	r2, [r7, #4]!	@ D.39607, MEM[base: _68, offset: 0B]
	add	r6, r6, #4	@ ivtmp.839, ivtmp.839,
	cmp	r2, #3	@ D.39607,
	beq	.L688	@,
.L692:
	cmp	r2, #1	@ D.39607,
	bhi	.L693	@,
	cmp	r2, #0	@ D.39607,
	ldr	r3, [r6]	@ MEM[base: _6, offset: 0B],* ivtmp.839
	bne	.L694	@,
	mvn	r3, r3	@ D.39608, MEM[base: _6, offset: 0B]
	adds	r5, r5, r3	@ picNumLXPred, picNumLXPred, D.39608
	ldrmi	r3, [sp, #16]	@ maxPicNum, %sfp
	addmi	r5, r5, r3	@ picNumLXPred, picNumLXPred, maxPicNum
.L695:
	ldr	r3, [sp, #20]	@ picNumLXPred, %sfp
	mov	r2, r8	@, num_ref_idx_lX_active_minus1
	str	fp, [sp]	@ tmp222,
	mov	r1, r9	@, list
	cmp	r3, r5	@ picNumLXPred, picNumLXPred
	ldr	r0, [sp, #12]	@, %sfp
	add	r4, r4, #1	@ i, i,
	ldrlt	r3, [sp, #16]	@ maxPicNum, %sfp
	movge	r3, r5	@ picNumLXPred, picNumLXPred
	rsblt	r3, r3, r5	@ picNumLXPred, maxPicNum, picNumLXPred
	bl	ReorderSTList	@
	cmp	r4, r10	@ i, D.39607
	bne	.L698	@,
.L688:
	add	sp, sp, #36	@,,
	@ sp needed	@
	ldmfd	sp!, {r4, r5, r6, r7, r8, r9, r10, fp, pc}	@
.L694:
	add	r3, r3, #1	@ D.39608, MEM[base: _11, offset: 0B],
	add	r5, r5, r3	@ picNumLXPred, picNumLXPred, D.39608
	ldr	r3, [sp, #16]	@ maxPicNum, %sfp
	cmp	r3, r5	@ maxPicNum, picNumLXPred
	rsble	r5, r3, r5	@ picNumLXPred, maxPicNum, picNumLXPred
	b	.L695	@
.L689:
	ldr	r2, [r2, #220]	@ picNumLXPred, pH264Ctx_14(D)->CurrSlice.frame_num
	mov	r4, #1	@ tmp219,
	ldr	r7, [lr, #1292]	@ pH264Ctx_14(D)->SPS, pH264Ctx_14(D)->SPS
	mla	lr, r8, r5, r9	@ tmp209, tmp208, pH264Ctx_14(D)->CurrSlice.pic_parameter_set_id, pH264Ctx_14(D)->PPS
	str	r2, [sp, #20]	@ picNumLXPred, %sfp
	b	.L708	@
	.fnend
	.size	ReorderRefPiclist, .-ReorderRefPiclist
	.align	2
	.global	ReorderListX
	.type	ReorderListX, %function
ReorderListX:
	.fnstart
	@ args = 0, pretend = 0, frame = 0
	@ frame_needed = 0, uses_anonymous_args = 0
	stmfd	sp!, {r4, r5, r6, r7, lr}	@,
	.save {r4, r5, r6, r7, lr}
	add	r5, r0, #20480	@ tmp178, pH264Ctx,
	.pad #20
	sub	sp, sp, #20	@,,
	mov	r4, r0	@ pH264Ctx, pH264Ctx
	ldrb	r3, [r5, #200]	@ zero_extendqisi2	@ D.39614, pH264Ctx_4(D)->CurrSlice.slice_type
	cmp	r3, #2	@ D.39614,
	beq	.L709	@,
	add	r6, r0, #16384	@ tmp179, pH264Ctx,
	ldrb	r2, [r6, #3504]	@ zero_extendqisi2	@ pH264Ctx_4(D)->CurrReorder.ref_pic_list_reordering_flag_l0, pH264Ctx_4(D)->CurrReorder.ref_pic_list_reordering_flag_l0
	cmp	r2, #0	@ pH264Ctx_4(D)->CurrReorder.ref_pic_list_reordering_flag_l0,
	bne	.L722	@,
.L712:
	cmp	r3, #1	@ D.39614,
	ldr	r3, [r5, #256]	@ pH264Ctx_4(D)->CurrSlice.num_ref_idx_l0_active_minus1, pH264Ctx_4(D)->CurrSlice.num_ref_idx_l0_active_minus1
	add	r3, r3, #1	@ D.39617, pH264Ctx_4(D)->CurrSlice.num_ref_idx_l0_active_minus1,
	str	r3, [r5, #244]	@ D.39617, pH264Ctx_4(D)->CurrSlice.listXsize
	bne	.L709	@,
	ldrb	r3, [r6, #3505]	@ zero_extendqisi2	@ pH264Ctx_4(D)->CurrReorder.ref_pic_list_reordering_flag_l1, pH264Ctx_4(D)->CurrReorder.ref_pic_list_reordering_flag_l1
	cmp	r3, #0	@ pH264Ctx_4(D)->CurrReorder.ref_pic_list_reordering_flag_l1,
	bne	.L723	@,
.L714:
	ldr	r3, [r5, #260]	@ pH264Ctx_4(D)->CurrSlice.num_ref_idx_l1_active_minus1, pH264Ctx_4(D)->CurrSlice.num_ref_idx_l1_active_minus1
	add	r3, r3, #1	@ D.39617, pH264Ctx_4(D)->CurrSlice.num_ref_idx_l1_active_minus1,
	str	r3, [r5, #248]	@ D.39617, pH264Ctx_4(D)->CurrSlice.listXsize
.L709:
	add	sp, sp, #20	@,,
	@ sp needed	@
	ldmfd	sp!, {r4, r5, r6, r7, pc}	@
.L722:
	add	r7, r0, #20224	@ D.39619, pH264Ctx,
	add	lr, r0, #19968	@ D.39618, pH264Ctx,
	add	ip, r0, #19712	@ D.39618, pH264Ctx,
	add	r1, r0, #26880	@, pH264Ctx,
	ldr	r3, [r5, #256]	@ pH264Ctx_4(D)->CurrSlice.num_ref_idx_l0_active_minus1, pH264Ctx_4(D)->CurrSlice.num_ref_idx_l0_active_minus1
	add	lr, lr, #188	@ D.39618, D.39618,
	add	ip, ip, #180	@ D.39618, D.39618,
	add	r7, r7, #196	@ D.39619, D.39619,
	stmia	sp, {ip, lr}	@,,
	add	r2, r5, #244	@, tmp2,
	str	r7, [sp, #8]	@ D.39619,
	add	r1, r1, #156	@,,
	bl	ReorderRefPiclist	@
	ldrb	r3, [r5, #200]	@ zero_extendqisi2	@ D.39614, pH264Ctx_4(D)->CurrSlice.slice_type
	b	.L712	@
.L723:
	add	lr, r4, #20480	@ D.39619, pH264Ctx,
	add	ip, r4, #20224	@ D.39618, pH264Ctx,
	add	r0, r4, #19968	@ D.39618, pH264Ctx,
	add	r1, r4, #27136	@, pH264Ctx,
	ldr	r3, [r5, #260]	@ pH264Ctx_4(D)->CurrSlice.num_ref_idx_l1_active_minus1, pH264Ctx_4(D)->CurrSlice.num_ref_idx_l1_active_minus1
	mov	r2, lr	@, D.39619
	add	ip, ip, #64	@ D.39618, D.39618,
	add	lr, lr, #68	@ D.39619, D.39619,
	add	r0, r0, #56	@ D.39618, D.39618,
	str	lr, [sp, #8]	@ D.39619,
	stmia	sp, {r0, ip}	@,,
	add	r2, r2, #248	@,,
	add	r1, r1, #32	@,,
	mov	r0, r4	@, pH264Ctx
	bl	ReorderRefPiclist	@
	b	.L714	@
	.fnend
	.size	ReorderListX, .-ReorderListX
	.align	2
	.global	GenPiclistfromFrmlist
	.type	GenPiclistfromFrmlist, %function
GenPiclistfromFrmlist:
	.fnstart
	@ args = 8, pretend = 0, frame = 8
	@ frame_needed = 0, uses_anonymous_args = 0
	stmfd	sp!, {r4, r5, r6, r7, r8, r9, r10, fp, lr}	@,
	.save {r4, r5, r6, r7, r8, r9, r10, fp, lr}
	.pad #12
	sub	sp, sp, #12	@,,
	cmp	r2, #31	@ list_idx,
	ldr	lr, .L788	@ tmp256,
	ldr	r7, [sp, #52]	@ long_term, long_term
	mov	r8, r1	@ fs_list, fs_list
	ldr	ip, .L788+4	@ tmp257,
	movcc	r4, r2	@ list_idx, list_idx
	movcs	r4, #31	@ list_idx,
	cmp	r7, #0	@ long_term,
	str	r3, [sp, #4]	@ list, %sfp
	movne	r7, lr	@ is_ref, tmp256
	moveq	r7, ip	@ is_ref, tmp257
	cmp	r0, #1	@ currStrcture,
	ldr	r10, [sp, #48]	@ list_size, list_size
	moveq	r5, #0	@ bot_idx,
	moveq	r6, r5	@ top_idx, bot_idx
	beq	.L727	@,
	cmp	r0, #2	@ currStrcture,
	moveq	r5, #0	@ bot_idx,
	moveq	r6, r5	@ top_idx, bot_idx
	bne	.L735	@,
.L736:
	cmp	r6, r4	@ top_idx, list_idx
	movcs	r3, #0	@ D.39660,
	movcc	r3, #1	@ D.39660,
	cmp	r5, r4	@ bot_idx, list_idx
	mov	r2, r3	@ D.39660, D.39660
	str	r3, [sp]	@ D.39660, %sfp
	movcs	r3, #0	@ D.39660,
	movcc	r3, #1	@ D.39660,
	orrs	r2, r3, r2	@ tmp259, D.39660, D.39660
	beq	.L735	@,
	cmp	r3, #0	@ D.39660,
	beq	.L741	@,
	add	fp, r8, r5, lsl #2	@ ivtmp.876, fs_list, bot_idx,
	b	.L740	@
.L737:
	add	r5, r5, #1	@ bot_idx, bot_idx,
	cmp	r4, r5	@ list_idx, bot_idx
	bls	.L741	@,
.L740:
	mov	r9, fp	@ D.39659, ivtmp.876
	ldr	r0, [fp], #4	@ D.39661, MEM[base: _90, offset: 0B]
	ldrb	r2, [r0, #1]	@ zero_extendqisi2	@ _91->is_used, _91->is_used
	tst	r2, #2	@ _91->is_used,
	beq	.L737	@,
	add	r0, r0, #472	@, D.39661,
	blx	r7	@ is_ref
	cmp	r0, #0	@,
	beq	.L737	@,
	ldr	r2, [r10]	@ *list_size_47(D), *list_size_47(D)
	add	r5, r5, #1	@ bot_idx, bot_idx,
	ldr	r1, [sp, #4]	@ list, %sfp
	ldr	r3, [r9]	@ *_164, *_164
	add	r3, r3, #472	@ D.39663, *_164,
	str	r3, [r1, r2, asl #2]	@ D.39663, *_102
	ldr	r3, [r10]	@ *list_size_47(D), *list_size_47(D)
	add	r3, r3, #1	@ D.39658, *list_size_47(D),
	str	r3, [r10]	@ D.39658, *list_size_47(D)
.L741:
	ldr	r3, [sp]	@ D.39660, %sfp
	cmp	r3, #0	@ D.39660,
	addne	r9, r8, r6, lsl #2	@ ivtmp.867, fs_list, top_idx,
	bne	.L743	@,
	b	.L736	@
.L742:
	add	r6, r6, #1	@ top_idx, top_idx,
	cmp	r4, r6	@ list_idx, top_idx
	bls	.L736	@,
.L743:
	mov	fp, r9	@ D.39659, ivtmp.867
	ldr	r0, [r9], #4	@ D.39661, MEM[base: _114, offset: 0B]
	ldrb	r3, [r0, #1]	@ zero_extendqisi2	@ _115->is_used, _115->is_used
	tst	r3, #1	@ _115->is_used,
	beq	.L742	@,
	add	r0, r0, #436	@, D.39661,
	blx	r7	@ is_ref
	cmp	r0, #0	@,
	beq	.L742	@,
	ldr	r1, [r10]	@ *list_size_47(D), *list_size_47(D)
	add	r6, r6, #1	@ top_idx, top_idx,
	ldr	r2, [sp, #4]	@ list, %sfp
	ldr	r3, [fp]	@ *_162, *_162
	add	r3, r3, #436	@ D.39663, *_162,
	str	r3, [r2, r1, asl #2]	@ D.39663, *_127
	ldr	r3, [r10]	@ *list_size_47(D), *list_size_47(D)
	add	r3, r3, #1	@ D.39658, *list_size_47(D),
	str	r3, [r10]	@ D.39658, *list_size_47(D)
	b	.L736	@
.L787:
	add	r0, r0, #436	@, D.39661,
	blx	r7	@ is_ref
	cmp	r0, #0	@,
	beq	.L728	@,
	ldr	r2, [r10]	@ *list_size_47(D), *list_size_47(D)
	add	r6, r6, #1	@ top_idx, top_idx,
	ldr	r1, [sp, #4]	@ list, %sfp
	ldr	r3, [r9]	@ *_168, *_168
	add	r3, r3, #436	@ D.39663, *_168,
	str	r3, [r1, r2, asl #2]	@ D.39663, *_51
	ldr	r3, [r10]	@ *list_size_47(D), *list_size_47(D)
	add	r3, r3, #1	@ D.39658, *list_size_47(D),
	str	r3, [r10]	@ D.39658, *list_size_47(D)
.L732:
	ldr	r3, [sp]	@ D.39660, %sfp
	cmp	r3, #0	@ D.39660,
	addne	r9, r8, r5, lsl #2	@ ivtmp.849, fs_list, bot_idx,
	bne	.L734	@,
	b	.L727	@
.L733:
	add	r5, r5, #1	@ bot_idx, bot_idx,
	cmp	r4, r5	@ list_idx, bot_idx
	bls	.L727	@,
.L734:
	mov	fp, r9	@ D.39659, ivtmp.849
	ldr	r0, [r9], #4	@ D.39661, MEM[base: _63, offset: 0B]
	ldrb	r3, [r0, #1]	@ zero_extendqisi2	@ _64->is_used, _64->is_used
	tst	r3, #2	@ _64->is_used,
	beq	.L733	@,
	add	r0, r0, #472	@, D.39661,
	blx	r7	@ is_ref
	cmp	r0, #0	@,
	beq	.L733	@,
	ldr	r1, [r10]	@ *list_size_47(D), *list_size_47(D)
	add	r5, r5, #1	@ bot_idx, bot_idx,
	ldr	r2, [sp, #4]	@ list, %sfp
	ldr	r3, [fp]	@ *_166, *_166
	add	r3, r3, #472	@ D.39663, *_166,
	str	r3, [r2, r1, asl #2]	@ D.39663, *_76
	ldr	r3, [r10]	@ *list_size_47(D), *list_size_47(D)
	add	r3, r3, #1	@ D.39658, *list_size_47(D),
	str	r3, [r10]	@ D.39658, *list_size_47(D)
.L727:
	cmp	r6, r4	@ top_idx, list_idx
	movcs	r3, #0	@ D.39660,
	movcc	r3, #1	@ D.39660,
	cmp	r5, r4	@ bot_idx, list_idx
	movcs	r2, #0	@ D.39660,
	movcc	r2, #1	@ D.39660,
	str	r2, [sp]	@ D.39660, %sfp
	orrs	r2, r2, r3	@ tmp258, D.39660, D.39660
	beq	.L735	@,
	cmp	r3, #0	@ D.39660,
	beq	.L732	@,
	add	fp, r8, r6, lsl #2	@ ivtmp.858, fs_list, top_idx,
	b	.L731	@
.L728:
	add	r6, r6, #1	@ top_idx, top_idx,
	cmp	r4, r6	@ list_idx, top_idx
	bls	.L732	@,
.L731:
	mov	r9, fp	@ D.39659, ivtmp.858
	ldr	r0, [fp], #4	@ D.39661, MEM[base: _37, offset: 0B]
	ldrb	r2, [r0, #1]	@ zero_extendqisi2	@ _38->is_used, _38->is_used
	tst	r2, #1	@ _38->is_used,
	beq	.L728	@,
	b	.L787	@
.L735:
	mov	r0, #0	@,
	add	sp, sp, #12	@,,
	@ sp needed	@
	ldmfd	sp!, {r4, r5, r6, r7, r8, r9, r10, fp, pc}	@
.L789:
	.align	2
.L788:
	.word	IsLTRefFlg
	.word	IsSTRefFlg
	.fnend
	.size	GenPiclistfromFrmlist, .-GenPiclistfromFrmlist
	.align	2
	.global	InitListX
	.type	InitListX, %function
InitListX:
	.fnstart
	@ args = 0, pretend = 0, frame = 208
	@ frame_needed = 0, uses_anonymous_args = 0
	stmfd	sp!, {r4, r5, r6, r7, r8, r9, r10, fp, lr}	@,
	.save {r4, r5, r6, r7, r8, r9, r10, fp, lr}
	add	r8, r0, #20480	@ tmp684, pH264Ctx,
	.pad #220
	sub	sp, sp, #220	@,,
	mov	r4, r0	@ pH264Ctx, pH264Ctx
	ldrb	r3, [r8, #200]	@ zero_extendqisi2	@ pH264Ctx_69(D)->CurrSlice.slice_type, pH264Ctx_69(D)->CurrSlice.slice_type
	add	r10, r0, #49152	@ tmp676, pH264Ctx,
	cmp	r3, #0	@ pH264Ctx_69(D)->CurrSlice.slice_type,
	bne	.L791	@,
	ldrb	r6, [r10, #555]	@ zero_extendqisi2	@ pH264Ctx_69(D)->CurrPic.structure, pH264Ctx_69(D)->CurrPic.structure
	add	r9, r0, #24576	@ tmp682, pH264Ctx,
	cmp	r6, #0	@ pH264Ctx_69(D)->CurrPic.structure,
	bne	.L915	@,
	ldr	ip, [r9, #2056]	@ D.39905, pH264Ctx_69(D)->DPB.ref_frames_in_buffer
	cmp	ip, #0	@ D.39905,
	beq	.L858	@,
	add	r1, r0, #26368	@ ivtmp.920, pH264Ctx,
	mov	r3, r6	@ i, j
	add	r1, r1, #124	@ ivtmp.920, ivtmp.920,
	b	.L797	@
.L796:
	cmp	r3, ip	@ i, D.39905
	beq	.L795	@,
.L797:
	ldr	r2, [r1, #4]!	@ D.39904, MEM[base: _95, offset: 0B]
	add	r3, r3, #1	@ i, i,
	ldrb	r0, [r2, #2]	@ zero_extendqisi2	@ _73->is_reference, _73->is_reference
	cmp	r0, #3	@ _73->is_reference,
	bne	.L796	@,
	ldr	r0, [r2, #400]	@ *_73, *_73
	bic	r0, r0, #-16777216	@ D.39905, *_73,
	bic	r0, r0, #255	@ D.39905, D.39905,
	cmp	r0, #65536	@ D.39905,
	bne	.L796	@,
	add	r0, r6, #6720	@ tmp357, j,
	cmp	r3, ip	@ i, D.39905
	add	r0, r0, #38	@ tmp357, tmp357,
	add	r2, r2, #400	@ D.39906, D.39904,
	add	r6, r6, #1	@ j, j,
	add	r0, r4, r0, lsl #2	@ tmp358, pH264Ctx, tmp357,
	str	r2, [r0, #4]	@ D.39906, pH264Ctx_69(D)->pListX
	bne	.L797	@,
.L795:
	add	r0, r4, #26880	@, pH264Ctx,
	mov	r1, r6	@, j
	ldr	r3, .L923	@,
	add	r0, r0, #156	@,,
	mov	r2, #4	@,
	bl	qsort	@
	str	r6, [r8, #244]	@ j, pH264Ctx_69(D)->CurrSlice.listXsize
	ldr	r1, [r9, #2060]	@ D.39905, pH264Ctx_69(D)->DPB.ltref_frames_in_buffer
	cmp	r1, #0	@ D.39905,
	beq	.L859	@,
	add	r0, r4, #26368	@ ivtmp.909, pH264Ctx,
	mov	r5, r6	@ j, j
	add	r0, r0, #188	@ ivtmp.909, ivtmp.909,
	mov	r3, #0	@ i,
	b	.L800	@
.L799:
	cmp	r3, r1	@ i, D.39905
	beq	.L916	@,
.L800:
	ldr	r2, [r0, #4]!	@ D.39904, MEM[base: _192, offset: 0B]
	add	r3, r3, #1	@ i, i,
	ldrb	ip, [r2, #2]	@ zero_extendqisi2	@ _85->is_reference, _85->is_reference
	cmp	ip, #3	@ _85->is_reference,
	bne	.L799	@,
	ldr	ip, [r2, #400]	@ *_85, *_85
	bic	ip, ip, #-16777216	@ D.39905, *_85,
	bic	ip, ip, #255	@ D.39905, D.39905,
	cmp	ip, #256	@ D.39905,
	bne	.L799	@,
	add	ip, r5, #6720	@ tmp374, j,
	cmp	r3, r1	@ i, D.39905
	add	ip, ip, #38	@ tmp374, tmp374,
	add	r2, r2, #400	@ D.39906, D.39904,
	add	r5, r5, #1	@ j, j,
	add	ip, r4, ip, lsl #2	@ tmp375, pH264Ctx, tmp374,
	str	r2, [ip, #4]	@ D.39906, pH264Ctx_69(D)->pListX
	bne	.L800	@,
.L916:
	rsb	r1, r6, r5	@ D.39905, j, j
.L798:
	add	r0, r4, r6, lsl #2	@ tmp382, pH264Ctx, j,
	ldr	r3, .L923+4	@,
	add	r0, r0, #26880	@, tmp382,
	mov	r2, #4	@,
	add	r0, r0, #156	@,,
	bl	qsort	@
	mov	r2, r5	@ D.39898, j
	cmp	r2, #0	@ D.39898,
	mov	r3, #0	@ tmp417,
	str	r5, [r8, #244]	@ j, pH264Ctx_69(D)->CurrSlice.listXsize
	str	r3, [r8, #248]	@ tmp417, pH264Ctx_69(D)->CurrSlice.listXsize
	beq	.L917	@,
.L806:
	ldr	r0, [r8, #256]	@ pH264Ctx_69(D)->CurrSlice.num_ref_idx_l0_active_minus1, pH264Ctx_69(D)->CurrSlice.num_ref_idx_l0_active_minus1
	ldr	r1, [r8, #260]	@ pH264Ctx_69(D)->CurrSlice.num_ref_idx_l1_active_minus1, pH264Ctx_69(D)->CurrSlice.num_ref_idx_l1_active_minus1
	add	r0, r0, #1	@ D.39905, pH264Ctx_69(D)->CurrSlice.num_ref_idx_l0_active_minus1,
	cmp	r2, r0	@ D.39898, D.39905
	add	r1, r1, #1	@ D.39905, pH264Ctx_69(D)->CurrSlice.num_ref_idx_l1_active_minus1,
	movcs	r2, r0	@ i, D.39905
	cmp	r3, r1	@ D.39898, D.39905
	str	r2, [r8, #244]	@ i, pH264Ctx_69(D)->CurrSlice.listXsize
	movcs	r3, r1	@ i, D.39905
	cmp	r2, #32	@ i,
	str	r3, [r8, #248]	@ i, pH264Ctx_69(D)->CurrSlice.listXsize
	bhi	.L850	@,
	add	r2, r2, #6720	@ D.39895, i,
	add	r1, r4, #27136	@ D.39911, pH264Ctx,
	add	r2, r2, #38	@ D.39895, D.39895,
	add	r1, r1, #28	@ D.39911, D.39911,
	mov	r0, #0	@ tmp686,
	add	r2, r4, r2, lsl #2	@ ivtmp.898, pH264Ctx, D.39895,
.L849:
	str	r0, [r2, #4]!	@ tmp686, MEM[base: _285, offset: 0B]
	cmp	r2, r1	@ ivtmp.898, D.39911
	bne	.L849	@,
.L850:
	cmp	r3, #32	@ i,
	bhi	.L848	@,
	add	r3, r3, #6784	@ D.39895, i,
	add	r2, r4, #27136	@ D.39911, pH264Ctx,
	add	r3, r3, #7	@ D.39895, D.39895,
	add	r2, r2, #160	@ D.39911, D.39911,
	mov	r1, #0	@ tmp685,
	add	r4, r4, r3, lsl #2	@ ivtmp.886, pH264Ctx, D.39895,
.L851:
	str	r1, [r4, #4]!	@ tmp685, MEM[base: _204, offset: 0B]
	cmp	r4, r2	@ ivtmp.886, D.39911
	bne	.L851	@,
.L848:
	mov	r0, #0	@ D.39902,
.L901:
	add	sp, sp, #220	@,,
	@ sp needed	@
	ldmfd	sp!, {r4, r5, r6, r7, r8, r9, r10, fp, pc}	@
.L791:
	ldrb	r5, [r10, #555]	@ zero_extendqisi2	@ pH264Ctx_69(D)->CurrPic.structure, pH264Ctx_69(D)->CurrPic.structure
	add	r9, r0, #24576	@ tmp682, pH264Ctx,
	cmp	r5, #0	@ pH264Ctx_69(D)->CurrPic.structure,
	ldr	fp, [r9, #2056]	@ D.39905, pH264Ctx_69(D)->DPB.ref_frames_in_buffer
	beq	.L812	@,
	cmp	fp, #0	@ D.39905,
	beq	.L918	@,
	add	r6, r0, #26368	@ ivtmp.1091, pH264Ctx,
	mov	r5, #0	@ j,
	add	r6, r6, #124	@ ivtmp.1091, ivtmp.1091,
	mov	r3, r5	@ i, j
	mov	r1, r6	@ ivtmp.1102, ivtmp.1091
.L831:
	ldr	r2, [r1, #4]!	@ D.39904, MEM[base: _463, offset: 0B]
	add	r3, r3, #1	@ i, i,
	ldrb	r0, [r2, #1]	@ zero_extendqisi2	@ _195->is_used, _195->is_used
	cmp	r0, #0	@ _195->is_used,
	beq	.L830	@,
	add	r0, sp, #216	@ tmp863,,
	ldr	ip, [r10, #980]	@ pH264Ctx_69(D)->CurrPic.thispoc, pH264Ctx_69(D)->CurrPic.thispoc
	add	lr, r0, r5, lsl #2	@ tmp536, tmp863, j,
	ldr	r0, [r2, #524]	@ _195->poc, _195->poc
	cmp	ip, r0	@ pH264Ctx_69(D)->CurrPic.thispoc, _195->poc
	strge	r2, [lr, #-192]	@ D.39904, fs_list0
	addge	r5, r5, #1	@ j, j,
.L830:
	cmp	r3, fp	@ i, D.39905
	bne	.L831	@,
	add	ip, sp, #24	@ tmp683,,
	ldr	r3, .L923+8	@,
	mov	r2, #4	@,
	mov	r1, r5	@, j
	mov	r0, ip	@, tmp683
	str	ip, [sp, #12]	@ tmp683, %sfp
	bl	qsort	@
	ldr	r7, [r9, #2056]	@ D.39905, pH264Ctx_69(D)->DPB.ref_frames_in_buffer
	ldr	ip, [sp, #12]	@ tmp683, %sfp
	cmp	r7, #0	@ D.39905,
	beq	.L912	@,
.L856:
	mov	fp, r5	@ j, j
	mov	r3, #0	@ i,
.L834:
	ldr	r2, [r6, #4]!	@ D.39904, MEM[base: _458, offset: 0B]
	add	r3, r3, #1	@ i, i,
	ldrb	r1, [r2, #1]	@ zero_extendqisi2	@ _205->is_used, _205->is_used
	cmp	r1, #0	@ _205->is_used,
	beq	.L833	@,
	add	r1, sp, #216	@ tmp864,,
	ldr	r0, [r10, #980]	@ pH264Ctx_69(D)->CurrPic.thispoc, pH264Ctx_69(D)->CurrPic.thispoc
	add	lr, r1, fp, lsl #2	@ tmp548, tmp864, j,
	ldr	r1, [r2, #524]	@ _205->poc, _205->poc
	cmp	r0, r1	@ pH264Ctx_69(D)->CurrPic.thispoc, _205->poc
	strlt	r2, [lr, #-192]	@ D.39904, fs_list0
	addlt	fp, fp, #1	@ j, j,
.L833:
	cmp	r3, r7	@ i, D.39905
	bne	.L834	@,
	rsb	r7, r5, fp	@ D.39905, j, j
	mov	r3, r5, asl #2	@ D.39895, j,
	add	r0, ip, r3	@, tmp683, D.39895
	str	r3, [sp, #12]	@ D.39895, %sfp
	mov	r1, r7	@, D.39905
	ldr	r3, .L923+12	@,
	mov	r2, #4	@,
	str	ip, [sp, #16]	@ tmp683, %sfp
	bl	qsort	@
	cmp	r5, #0	@ j,
	ldr	ip, [sp, #16]	@ tmp683, %sfp
	addeq	r6, sp, #88	@ tmp675,,
	beq	.L835	@,
.L853:
	add	r6, sp, #88	@ tmp675,,
	mov	r2, ip	@ ivtmp.1079, tmp683
	add	r7, r6, r7, lsl #2	@ ivtmp.1085, tmp675, D.39905,
	mov	r3, #0	@ j,
.L836:
	add	r3, r3, #1	@ j, j,
	ldr	r1, [r2], #4	@ D.39904, MEM[base: _453, offset: 0B]
	cmp	r3, r5	@ j, j
	str	r1, [r7], #4	@ D.39904, MEM[base: _454, offset: 0B]
	bcc	.L836	@,
.L835:
	cmp	fp, r5	@ j, j
	bls	.L837	@,
	ldr	r3, [sp, #12]	@ D.39895, %sfp
	add	r2, ip, r3	@ ivtmp.1066, tmp683, D.39895
	mov	r3, r6	@ ivtmp.1072, tmp675
.L838:
	add	r5, r5, #1	@ j, j,
	ldr	r1, [r2], #4	@ D.39904, MEM[base: _444, offset: 0B]
	cmp	r5, fp	@ j, j
	str	r1, [r3], #4	@ D.39904, MEM[base: _445, offset: 0B]
	bne	.L838	@,
.L837:
	add	r3, r4, #26880	@ ivtmp.958, pH264Ctx,
	add	r7, r4, #20480	@ D.39908, pH264Ctx,
	mov	r5, #0	@ tmp560,
	add	r3, r3, #156	@ ivtmp.958, ivtmp.958,
	str	r5, [r8, #244]	@ tmp560, pH264Ctx_69(D)->CurrSlice.listXsize
	mov	r1, ip	@, tmp683
	str	r5, [r8, #248]	@ tmp560, pH264Ctx_69(D)->CurrSlice.listXsize
	mov	r2, fp	@, j
	ldrb	r0, [r10, #555]	@ zero_extendqisi2	@ D.39905, pH264Ctx_69(D)->CurrPic.structure
	add	r7, r7, #244	@ D.39908, D.39908,
	str	r5, [sp, #4]	@ tmp560,
	str	r7, [sp]	@ D.39908,
	str	r3, [sp, #12]	@ ivtmp.958, %sfp
	bl	GenPiclistfromFrmlist	@
	add	ip, r4, #27136	@ D.39907, pH264Ctx,
	add	r3, r4, #20480	@ D.39908, pH264Ctx,
	add	ip, ip, #32	@ D.39907, D.39907,
	ldrb	r0, [r10, #555]	@ zero_extendqisi2	@ D.39905, pH264Ctx_69(D)->CurrPic.structure
	mov	lr, r3	@ D.39908, D.39908
	mov	r2, fp	@, j
	mov	r1, r6	@, tmp675
	mov	r3, ip	@, D.39907
	str	ip, [sp, #20]	@ D.39907, %sfp
	add	ip, lr, #248	@ D.39908, D.39908,
	str	r5, [sp, #4]	@ tmp560,
	str	ip, [sp]	@ D.39908,
	str	ip, [sp, #16]	@ D.39908, %sfp
	bl	GenPiclistfromFrmlist	@
	ldr	r6, [r9, #2060]	@ listltidx, pH264Ctx_69(D)->DPB.ltref_frames_in_buffer
	ldr	ip, [sp, #20]	@ D.39907, %sfp
	cmp	r6, r5	@ listltidx,
	addeq	fp, sp, #152	@ tmp678,,
	beq	.L839	@,
	add	r3, r4, #26368	@ ivtmp.1048, pH264Ctx,
	add	fp, sp, #152	@ tmp678,,
	add	r3, r3, #188	@ ivtmp.1048, ivtmp.1048,
	mov	r2, fp	@ ivtmp.1058, tmp678
.L840:
	add	r5, r5, #1	@ i, i,
	ldr	r1, [r3, #4]!	@ MEM[base: _436, offset: 0B], MEM[base: _436, offset: 0B]
	cmp	r5, r6	@ i, listltidx
	str	r1, [r2], #4	@ MEM[base: _436, offset: 0B], MEM[base: _437, offset: 0B]
	bne	.L840	@,
.L839:
	ldr	r3, .L923+16	@,
	mov	r2, #4	@,
	mov	r1, r6	@, listltidx
	mov	r0, fp	@, tmp678
	str	ip, [sp, #20]	@ D.39907, %sfp
	mov	r5, #1	@ tmp588,
	bl	qsort	@
	ldrb	r0, [r10, #555]	@ zero_extendqisi2	@ D.39905, pH264Ctx_69(D)->CurrPic.structure
	ldr	r3, [sp, #12]	@, %sfp
	mov	r2, r6	@, listltidx
	mov	r1, fp	@, tmp678
	str	r7, [sp]	@ D.39908,
	str	r5, [sp, #4]	@ tmp588,
	bl	GenPiclistfromFrmlist	@
	ldr	r2, [sp, #16]	@ D.39908, %sfp
	ldr	ip, [sp, #20]	@ D.39907, %sfp
	mov	r1, fp	@, tmp678
	ldrb	r0, [r10, #555]	@ zero_extendqisi2	@ D.39905, pH264Ctx_69(D)->CurrPic.structure
	str	r2, [sp]	@ D.39908,
	mov	r2, r6	@, listltidx
	mov	r3, ip	@, D.39907
	str	r5, [sp, #4]	@ tmp588,
	bl	GenPiclistfromFrmlist	@
	ldr	r2, [r8, #244]	@ D.39898, pH264Ctx_69(D)->CurrSlice.listXsize
	ldr	r3, [r8, #248]	@ D.39898, pH264Ctx_69(D)->CurrSlice.listXsize
	rsb	r1, r3, r2	@ D.39901, D.39898, D.39898
	clz	r1, r1	@ D.39901, D.39901
	mov	r1, r1, lsr #5	@ D.39901, D.39901,
.L829:
	cmp	r2, #1	@ D.39898,
	movls	r1, #0	@, tmp604
	andhi	r1, r1, #1	@,, tmp604, D.39901
	cmp	r1, #0	@ tmp604,
	beq	.L841	@,
	cmp	r2, #0	@ D.39898,
	beq	.L842	@,
	ldr	r6, [r9, #2460]	@ D.39906, pH264Ctx_69(D)->pListX
	ldr	r1, [r9, #2592]	@ pH264Ctx_69(D)->pListX, pH264Ctx_69(D)->pListX
	cmp	r6, r1	@ D.39906, pH264Ctx_69(D)->pListX
	bne	.L841	@,
	add	r0, r4, #27136	@ ivtmp.967, pH264Ctx,
	ldr	ip, [sp, #12]	@ ivtmp.958, %sfp
	add	r0, r0, #32	@ ivtmp.967, ivtmp.967,
	mov	r1, #0	@ j,
	b	.L843	@
.L844:
	ldr	r5, [ip, #4]!	@ MEM[base: _268, offset: 0B], MEM[base: _268, offset: 0B]
	ldr	lr, [r0, #4]!	@ MEM[base: _260, offset: 0B], MEM[base: _260, offset: 0B]
	cmp	r5, lr	@ MEM[base: _268, offset: 0B], MEM[base: _260, offset: 0B]
	bne	.L841	@,
.L843:
	add	r1, r1, #1	@ j, j,
	cmp	r1, r2	@ j, D.39898
	bne	.L844	@,
.L845:
	ldr	r1, [r9, #2596]	@ pH264Ctx_69(D)->pListX, pH264Ctx_69(D)->pListX
	str	r6, [r9, #2596]	@ D.39906, pH264Ctx_69(D)->pListX
	str	r1, [r9, #2592]	@ pH264Ctx_69(D)->pListX, pH264Ctx_69(D)->pListX
.L841:
	orrs	r1, r2, r3	@ tmp856, D.39898, D.39898
	bne	.L806	@,
.L908:
	mov	r0, r4	@, pH264Ctx
	bl	ClearCurrNal	@
	ldr	r3, [r10, #3644]	@ pH264Ctx_69(D)->TotalSlice, pH264Ctx_69(D)->TotalSlice
	mvn	r0, #0	@ D.39902,
	add	r3, r3, #1	@ D.39905, pH264Ctx_69(D)->TotalSlice,
	str	r3, [r10, #3644]	@ D.39905, pH264Ctx_69(D)->TotalSlice
	b	.L901	@
.L812:
	cmp	fp, #0	@ D.39905,
	beq	.L815	@,
	add	r6, r0, #26368	@ ivtmp.1091, pH264Ctx,
	mov	r3, r5	@ i, j
	add	r6, r6, #124	@ ivtmp.1091, ivtmp.1091,
	mov	r1, r6	@ ivtmp.1037, ivtmp.1091
	b	.L817	@
.L816:
	cmp	r3, fp	@ i, D.39905
	beq	.L919	@,
.L817:
	ldr	r2, [r1, #4]!	@ D.39904, MEM[base: _428, offset: 0B]
	add	r3, r3, #1	@ i, i,
	ldrb	r0, [r2, #2]	@ zero_extendqisi2	@ _139->is_reference, _139->is_reference
	cmp	r0, #3	@ _139->is_reference,
	bne	.L816	@,
	add	r0, r5, #6720	@ tmp460, j,
	ldr	ip, [r2, #416]	@ _139->frame.poc, _139->frame.poc
	add	r0, r0, #38	@ tmp460, tmp460,
	ldr	lr, [r10, #984]	@ pH264Ctx_69(D)->CurrPic.framepoc, pH264Ctx_69(D)->CurrPic.framepoc
	add	r2, r2, #400	@ D.39906, D.39904,
	add	r0, r4, r0, lsl #2	@ tmp461, pH264Ctx, tmp460,
	cmp	lr, ip	@ pH264Ctx_69(D)->CurrPic.framepoc, _139->frame.poc
	addge	r5, r5, #1	@ j, j,
	strge	r2, [r0, #4]	@ D.39906, pH264Ctx_69(D)->pListX
	cmp	r3, fp	@ i, D.39905
	bne	.L817	@,
.L919:
	add	r3, r4, #26880	@ ivtmp.958, pH264Ctx,
	mov	r1, r5	@, j
	mov	r2, r3	@ ivtmp.958, ivtmp.958
	add	r2, r2, #156	@ ivtmp.958, ivtmp.958,
	ldr	r3, .L923+20	@,
	mov	r0, r2	@ ivtmp.958, ivtmp.958
	str	r2, [sp, #12]	@ ivtmp.958, %sfp
	mov	r2, #4	@,
	bl	qsort	@
	ldr	r7, [r9, #2056]	@ D.39905, pH264Ctx_69(D)->DPB.ref_frames_in_buffer
	cmp	r7, #0	@ D.39905,
	beq	.L911	@,
.L854:
	mov	fp, r5	@ j, j
	mov	r3, #0	@ i,
	b	.L820	@
.L819:
	cmp	r3, r7	@ i, D.39905
	beq	.L920	@,
.L820:
	ldr	r2, [r6, #4]!	@ D.39904, MEM[base: _423, offset: 0B]
	add	r3, r3, #1	@ i, i,
	ldrb	r1, [r2, #2]	@ zero_extendqisi2	@ _151->is_reference, _151->is_reference
	cmp	r1, #3	@ _151->is_reference,
	bne	.L819	@,
	add	r1, fp, #6720	@ tmp476, j,
	ldr	r0, [r2, #416]	@ _151->frame.poc, _151->frame.poc
	add	r1, r1, #38	@ tmp476, tmp476,
	ldr	ip, [r10, #984]	@ pH264Ctx_69(D)->CurrPic.framepoc, pH264Ctx_69(D)->CurrPic.framepoc
	add	r2, r2, #400	@ D.39906, D.39904,
	add	r1, r4, r1, lsl #2	@ tmp477, pH264Ctx, tmp476,
	cmp	ip, r0	@ pH264Ctx_69(D)->CurrPic.framepoc, _151->frame.poc
	addlt	fp, fp, #1	@ j, j,
	strlt	r2, [r1, #4]	@ D.39906, pH264Ctx_69(D)->pListX
	cmp	r3, r7	@ i, D.39905
	bne	.L820	@,
.L920:
	add	r6, r5, #6720	@ D.39895, j,
	rsb	r7, r5, fp	@ D.39905, j, j
	add	r6, r6, #38	@ D.39895, D.39895,
	mov	r2, #4	@,
	ldr	r3, .L923+24	@,
	mov	r1, r7	@, D.39905
	add	r0, r4, r6, lsl #2	@ tmp484, pH264Ctx, D.39895,
	add	r0, r0, r2	@, tmp484,
	bl	qsort	@
	add	ip, r4, fp, lsl #2	@ tmp493, pH264Ctx, j,
	cmp	r5, #0	@ j,
	add	ip, ip, #26880	@ D.39900, tmp493,
	add	ip, ip, #156	@ D.39900, D.39900,
	beq	.L822	@,
.L852:
	add	r7, r7, #6784	@ D.39895, D.39905,
	add	r2, r4, #26880	@ ivtmp.1007, pH264Ctx,
	add	r7, r7, #7	@ D.39895, D.39895,
	add	r2, r2, #152	@ ivtmp.1007, ivtmp.1007,
	mov	r3, #0	@ j,
	add	r7, r4, r7, lsl #2	@ ivtmp.1016, pH264Ctx, D.39895,
.L823:
	add	r3, r3, #1	@ j, j,
	ldr	r1, [r2, #4]!	@ D.39906, MEM[base: _312, offset: 0B]
	cmp	r3, r5	@ j, j
	str	r1, [r7, #4]!	@ D.39906, MEM[base: _311, offset: 0B]
	bcc	.L823	@,
.L822:
	cmp	fp, r5	@ j, j
	bls	.L824	@,
	add	r3, r4, #27136	@ ivtmp.997, pH264Ctx,
	add	r6, r4, r6, lsl #2	@ ivtmp.988, pH264Ctx, D.39895,
	add	r3, r3, #28	@ ivtmp.997, ivtmp.997,
.L825:
	add	r5, r5, #1	@ j, j,
	ldr	r2, [r6, #4]!	@ D.39906, MEM[base: _3, offset: 0B]
	cmp	r5, fp	@ j, j
	str	r2, [r3, #4]!	@ D.39906, MEM[base: _41, offset: 0B]
	bne	.L825	@,
.L824:
	str	fp, [r8, #248]	@ j, pH264Ctx_69(D)->CurrSlice.listXsize
	str	fp, [r8, #244]	@ j, pH264Ctx_69(D)->CurrSlice.listXsize
	ldr	r1, [r9, #2060]	@ D.39905, pH264Ctx_69(D)->DPB.ltref_frames_in_buffer
	cmp	r1, #0	@ D.39905,
	beq	.L861	@,
	add	r0, r4, #26368	@ ivtmp.976, pH264Ctx,
	mov	r5, fp	@ j, j
	add	r0, r0, #188	@ ivtmp.976, ivtmp.976,
	mov	r3, #0	@ i,
	b	.L828	@
.L827:
	cmp	r3, r1	@ i, D.39905
	beq	.L921	@,
.L828:
	ldr	r2, [r0, #4]!	@ D.39904, MEM[base: _58, offset: 0B]
	add	r3, r3, #1	@ i, i,
	ldrb	lr, [r2, #1]	@ zero_extendqisi2	@ _174->is_used, _174->is_used
	cmp	lr, #3	@ _174->is_used,
	bne	.L827	@,
	ldrb	lr, [r2, #401]	@ zero_extendqisi2	@ _174->frame.is_long_term, _174->frame.is_long_term
	cmp	lr, #1	@ _174->frame.is_long_term,
	bne	.L827	@,
	add	lr, r4, r5, lsl #2	@ D.39899, pH264Ctx, j,
	cmp	r3, r1	@ i, D.39905
	add	lr, lr, #24576	@ tmp513, D.39899,
	add	r2, r2, #400	@ D.39906, D.39904,
	add	r5, r5, #1	@ j, j,
	str	r2, [lr, #2460]	@ D.39906, MEM[(struct H264_CTX_S *)_465 + 27036B]
	str	r2, [lr, #2592]	@ D.39906, MEM[(struct H264_CTX_S *)_465 + 27168B]
	bne	.L828	@,
.L921:
	rsb	r1, fp, r5	@ D.39905, j, j
.L826:
	mov	r0, ip	@, D.39900
	ldr	r3, .L923+4	@,
	mov	r2, #4	@,
	bl	qsort	@
	ldr	r0, [r8, #244]	@ D.39905, pH264Ctx_69(D)->CurrSlice.listXsize
	ldr	r3, .L923+4	@,
	mov	r2, #4	@,
	rsb	r1, r0, r5	@, D.39905, j
	add	r0, r4, r0, lsl #2	@ tmp524, pH264Ctx, D.39905,
	add	r0, r0, #27136	@, tmp524,
	add	r0, r0, #32	@,,
	bl	qsort	@
	mov	r3, r5	@ D.39898, j
	str	r5, [r8, #248]	@ j, pH264Ctx_69(D)->CurrSlice.listXsize
	mov	r2, r5	@ D.39898, D.39898
	str	r5, [r8, #244]	@ j, pH264Ctx_69(D)->CurrSlice.listXsize
	mov	r1, #1	@ D.39901,
	b	.L829	@
.L915:
	ldr	lr, [r9, #2056]	@ D.39905, pH264Ctx_69(D)->DPB.ref_frames_in_buffer
	cmp	lr, #0	@ D.39905,
	moveq	r6, lr	@ j, D.39905
	beq	.L794	@,
	add	r1, r0, #26368	@ ivtmp.947, pH264Ctx,
	mov	r6, r3	@ j, pH264Ctx_69(D)->CurrSlice.slice_type
	add	r1, r1, #124	@ ivtmp.947, ivtmp.947,
.L803:
	ldr	r2, [r1, #4]!	@ D.39904, MEM[base: _352, offset: 0B]
	add	r0, sp, #216	@ tmp857,,
	add	ip, r0, r6, lsl #2	@ tmp388, tmp857, j,
	add	r3, r3, #1	@ i, i,
	ldrb	r0, [r2, #2]	@ zero_extendqisi2	@ _100->is_reference, _100->is_reference
	cmp	r0, #0	@ _100->is_reference,
	strne	r2, [ip, #-192]	@ D.39904, fs_list0
	addne	r6, r6, #1	@ j, j,
	cmp	r3, lr	@ i, D.39905
	bne	.L803	@,
.L794:
	add	r7, r4, #26880	@ D.39907, pH264Ctx,
	mov	r1, r6	@, j
	ldr	r3, .L923+28	@,
	mov	r2, #4	@,
	add	r0, sp, #24	@ tmp858,,
	add	r7, r7, #156	@ D.39907, D.39907,
	bl	qsort	@
	add	ip, r4, #20480	@ D.39908, pH264Ctx,
	add	ip, ip, #244	@ D.39908, D.39908,
	mov	r5, #0	@ tmp394,
	mov	r2, r6	@, j
	str	r5, [r8, #244]	@ tmp394, pH264Ctx_69(D)->CurrSlice.listXsize
	add	r1, sp, #24	@ tmp859,,
	ldrb	r0, [r10, #555]	@ zero_extendqisi2	@ D.39905, pH264Ctx_69(D)->CurrPic.structure
	mov	r3, r7	@, D.39907
	str	ip, [sp]	@ D.39908,
	str	r5, [sp, #4]	@ tmp394,
	str	ip, [sp, #12]	@ D.39908, %sfp
	bl	GenPiclistfromFrmlist	@
	ldr	r6, [r9, #2060]	@ listltidx, pH264Ctx_69(D)->DPB.ltref_frames_in_buffer
	ldr	ip, [sp, #12]	@ D.39908, %sfp
	cmp	r6, r5	@ listltidx,
	addeq	fp, sp, #152	@ tmp678,,
	beq	.L804	@,
	add	r3, r4, #26368	@ ivtmp.931, pH264Ctx,
	add	fp, sp, #152	@ tmp678,,
	add	r3, r3, #188	@ ivtmp.931, ivtmp.931,
	mov	r2, fp	@ ivtmp.941, tmp678
.L805:
	add	r5, r5, #1	@ i, i,
	ldr	r1, [r3, #4]!	@ MEM[base: _14, offset: 0B], MEM[base: _14, offset: 0B]
	cmp	r5, r6	@ i, listltidx
	str	r1, [r2], #4	@ MEM[base: _14, offset: 0B], MEM[base: _11, offset: 0B]
	bne	.L805	@,
.L804:
	ldr	r3, .L923+16	@,
	mov	r2, #4	@,
	mov	r1, r6	@, listltidx
	mov	r0, fp	@, tmp678
	str	ip, [sp, #12]	@ D.39908, %sfp
	bl	qsort	@
	ldr	ip, [sp, #12]	@ D.39908, %sfp
	mov	r3, r7	@, D.39907
	ldrb	r0, [r10, #555]	@ zero_extendqisi2	@ D.39905, pH264Ctx_69(D)->CurrPic.structure
	mov	r2, r6	@, listltidx
	mov	r1, fp	@, tmp678
	str	ip, [sp]	@ D.39908,
	mov	ip, #1	@ tmp412,
	str	ip, [sp, #4]	@ tmp412,
	bl	GenPiclistfromFrmlist	@
	ldr	r2, [r8, #244]	@ D.39898, pH264Ctx_69(D)->CurrSlice.listXsize
	mov	r3, #0	@ tmp417,
	str	r3, [r8, #248]	@ tmp417, pH264Ctx_69(D)->CurrSlice.listXsize
	cmp	r2, #0	@ D.39898,
	bne	.L806	@,
.L917:
	ldr	r3, [r4]	@ pH264Ctx_69(D)->pstExtraData, pH264Ctx_69(D)->pstExtraData
	ldr	r3, [r3, #12]	@ _123->s32DecOrderOutput, _123->s32DecOrderOutput
	cmp	r3, #2	@ _123->s32DecOrderOutput,
	bne	.L908	@,
	ldrb	r3, [r10, #555]	@ zero_extendqisi2	@ D.39903, pH264Ctx_69(D)->CurrPic.structure
	cmp	r3, #0	@ D.39903,
	beq	.L922	@,
	cmp	r3, #1	@ D.39903,
	ldr	r3, [r10, #960]	@ pH264Ctx_69(D)->CurrPic.frame_store, pH264Ctx_69(D)->CurrPic.frame_store
	addeq	r3, r3, #436	@ D.39906, pH264Ctx_69(D)->CurrPic.frame_store,
	addne	r3, r3, #472	@ D.39906, pH264Ctx_69(D)->CurrPic.frame_store,
	str	r3, [r9, #2460]	@ D.39906, pH264Ctx_69(D)->pListX
.L809:
	mov	r3, #0	@ D.39898,
	mov	r2, #1	@ D.39898,
	b	.L806	@
.L922:
	ldr	r3, [r10, #960]	@ pH264Ctx_69(D)->CurrPic.frame_store, pH264Ctx_69(D)->CurrPic.frame_store
	add	r3, r3, #400	@ D.39906, pH264Ctx_69(D)->CurrPic.frame_store,
	str	r3, [r9, #2460]	@ D.39906, pH264Ctx_69(D)->pListX
	b	.L809	@
.L842:
	ldr	r6, [r9, #2592]	@ D.39906, pH264Ctx_69(D)->pListX
	b	.L845	@
.L912:
	mov	r3, r5, asl #2	@ D.39895, j,
	mov	r1, r7	@, D.39905
	str	r3, [sp, #12]	@ D.39895, %sfp
	mov	r2, r3	@ D.39895, D.39895
	ldr	r3, .L923+12	@,
	add	r0, ip, r2	@, tmp683, D.39895
	mov	r2, #4	@,
	str	ip, [sp, #16]	@ tmp683, %sfp
	bl	qsort	@
	subs	fp, r5, #0	@ j, j
	ldr	ip, [sp, #16]	@ tmp683, %sfp
	addeq	r6, sp, #88	@ tmp675,,
	bne	.L853	@,
	b	.L837	@
.L911:
	add	r6, r5, #6720	@ D.39895, j,
	mov	r2, #4	@,
	add	r6, r6, #38	@ D.39895, D.39895,
	ldr	r3, .L923+24	@,
	mov	r1, r7	@, D.39905
	add	ip, r4, r6, lsl #2	@ tmp647, pH264Ctx, D.39895,
	add	ip, ip, r2	@ D.39900, tmp647,
	str	ip, [sp, #16]	@ D.39900, %sfp
	mov	r0, ip	@, D.39900
	bl	qsort	@
	subs	fp, r5, #0	@ j, j
	ldr	ip, [sp, #16]	@ D.39900, %sfp
	bne	.L852	@,
	b	.L824	@
.L859:
	mov	r5, r6	@ j, j
	b	.L798	@
.L918:
	add	ip, sp, #24	@ tmp683,,
	ldr	r3, .L923+8	@,
	mov	r2, #4	@,
	mov	r1, fp	@, D.39905
	mov	r0, ip	@, tmp683
	str	ip, [sp, #12]	@ tmp683, %sfp
	bl	qsort	@
	ldr	r7, [r9, #2056]	@ D.39905, pH264Ctx_69(D)->DPB.ref_frames_in_buffer
	ldr	ip, [sp, #12]	@ tmp683, %sfp
	cmp	r7, #0	@ D.39905,
	addne	r6, r4, #26368	@ ivtmp.1091, pH264Ctx,
	movne	r5, fp	@ j, D.39905
	addne	r6, r6, #124	@ ivtmp.1091, ivtmp.1091,
	bne	.L856	@,
	mov	r0, ip	@, tmp683
	ldr	r3, .L923+12	@,
	mov	r2, #4	@,
	mov	r1, r7	@, D.39905
	str	ip, [sp, #12]	@ tmp683, %sfp
	mov	fp, r7	@ j, tmp1
	bl	qsort	@
	add	r6, sp, #88	@ tmp675,,
	ldr	ip, [sp, #12]	@ tmp683, %sfp
	b	.L837	@
.L815:
	add	r3, r0, #26880	@ ivtmp.958, pH264Ctx,
	mov	r1, fp	@, D.39905
	mov	r2, r3	@ ivtmp.958, ivtmp.958
	add	r2, r2, #156	@ ivtmp.958, ivtmp.958,
	ldr	r3, .L923+20	@,
	mov	r0, r2	@ ivtmp.958, ivtmp.958
	str	r2, [sp, #12]	@ ivtmp.958, %sfp
	mov	r2, #4	@,
	bl	qsort	@
	ldr	r7, [r9, #2056]	@ D.39905, pH264Ctx_69(D)->DPB.ref_frames_in_buffer
	cmp	r7, #0	@ D.39905,
	addne	r6, r4, #26368	@ ivtmp.1091, pH264Ctx,
	movne	r5, fp	@ j, D.39905
	addne	r6, r6, #124	@ ivtmp.1091, ivtmp.1091,
	bne	.L854	@,
	ldr	r5, [sp, #12]	@ ivtmp.958, %sfp
	mov	r2, #4	@,
	ldr	r3, .L923+24	@,
	mov	r1, r7	@, D.39905
	mov	fp, r7	@ j, tmp1
	mov	r0, r5	@, ivtmp.958
	bl	qsort	@
	mov	ip, r5	@ D.39900, ivtmp.958
	b	.L824	@
.L858:
	mov	r6, ip	@ j, D.39905
	b	.L795	@
.L861:
	mov	r5, fp	@ j, j
	b	.L826	@
.L924:
	.align	2
.L923:
	.word	compare_pic_by_pic_num_desc
	.word	compare_pic_by_lt_pic_num_asc
	.word	compare_fs_by_poc_desc
	.word	compare_fs_by_poc_asc
	.word	compare_fs_by_lt_pic_idx_asc
	.word	compare_pic_by_poc_desc
	.word	compare_pic_by_poc_asc
	.word	compare_fs_by_frame_num_desc
	.fnend
	.size	InitListX, .-InitListX
	.align	2
	.global	DumpList
	.type	DumpList, %function
DumpList:
	.fnstart
	@ args = 0, pretend = 0, frame = 0
	@ frame_needed = 0, uses_anonymous_args = 0
	@ link register save eliminated.
	bx	lr	@
	.fnend
	.size	DumpList, .-DumpList
	.align	2
	.global	FindNearestPOCPicId
	.type	FindNearestPOCPicId, %function
FindNearestPOCPicId:
	.fnstart
	@ args = 0, pretend = 0, frame = 0
	@ frame_needed = 0, uses_anonymous_args = 0
	add	r3, r0, #24576	@ tmp130, pH264Ctx,
	stmfd	sp!, {r4, r5, lr}	@,
	.save {r4, r5, lr}
	ldr	r4, [r3, #2052]	@ D.39932, pH264Ctx_8(D)->DPB.used_size
	cmp	r4, #0	@ D.39932,
	beq	.L931	@,
	ldr	r3, [r3, #1856]	@ pH264Ctx_8(D)->DPB.fs, pH264Ctx_8(D)->DPB.fs
	add	r2, r0, #49152	@ tmp132, pH264Ctx,
	ldr	r5, [r2, #980]	@ curr_poc, pH264Ctx_8(D)->CurrPic.thispoc
	ldr	lr, [r3, #524]	@ _11->poc, _11->poc
	rsb	lr, lr, r5	@ D.39934, _11->poc, curr_poc
	cmp	lr, #0	@ nearest_poc_diff,
	rsblt	lr, lr, #0	@ nearest_poc_diff, D.39934,
	cmp	r4, #1	@ D.39932,
	bls	.L932	@,
	add	r1, r0, #26368	@ ivtmp.1118, pH264Ctx,
	mov	r2, #1	@ i,
	add	r1, r1, #64	@ ivtmp.1118, ivtmp.1118,
	mov	r0, #0	@ nearest_pic_id,
.L930:
	ldr	ip, [r1, #4]!	@ D.39933, MEM[base: _1, offset: 0B]
	add	r2, r2, #1	@ i, i,
	ldr	r3, [ip, #524]	@ _15->poc, _15->poc
	rsb	r3, r3, r5	@ D.39934, _15->poc, curr_poc
	cmp	r3, #0	@ nearest_poc_diff,
	rsblt	r3, r3, #0	@ nearest_poc_diff, D.39934,
	cmp	r3, lr	@ nearest_poc_diff, nearest_poc_diff
	ldrlt	r0, [ip, #184]	@ nearest_pic_id, _15->fs_image.image_id
	movlt	lr, r3	@ nearest_poc_diff, nearest_poc_diff
	cmp	r2, r4	@ i, D.39932
	bne	.L930	@,
	ldmfd	sp!, {r4, r5, pc}	@
.L932:
	mov	r0, #0	@ nearest_pic_id,
	ldmfd	sp!, {r4, r5, pc}	@
.L931:
	mvn	r0, #0	@ D.39931,
	ldmfd	sp!, {r4, r5, pc}	@
	.fnend
	.size	FindNearestPOCPicId, .-FindNearestPOCPicId
	.align	2
	.global	FindMinRefIdx
	.type	FindMinRefIdx, %function
FindMinRefIdx:
	.fnstart
	@ args = 0, pretend = 0, frame = 0
	@ frame_needed = 0, uses_anonymous_args = 0
	add	r3, r0, #20480	@ tmp151, pH264Ctx,
	ldrb	r2, [r3, #200]	@ zero_extendqisi2	@ pH264Ctx_10(D)->CurrSlice.slice_type, pH264Ctx_10(D)->CurrSlice.slice_type
	cmp	r2, #2	@ pH264Ctx_10(D)->CurrSlice.slice_type,
	bxeq	lr	@
	add	r2, r0, #49152	@ tmp154, pH264Ctx,
	stmfd	sp!, {r4, r5, r6, r7, r8, lr}	@,
	.save {r4, r5, r6, r7, r8, lr}
	ldrb	ip, [r2, #555]	@ zero_extendqisi2	@ pH264Ctx_10(D)->CurrPic.structure, pH264Ctx_10(D)->CurrPic.structure
	cmp	ip, #0	@ pH264Ctx_10(D)->CurrPic.structure,
	bne	.L967	@,
	ldr	lr, [r3, #244]	@ D.39985, pH264Ctx_10(D)->CurrSlice.listXsize
	add	r5, r0, #26880	@ ivtmp.1144, pH264Ctx,
	mov	r7, ip	@ j, i
	cmp	lr, #0	@ D.39985,
	mov	r4, r5	@ ivtmp.1147, ivtmp.1144
	mov	r6, r5	@ ivtmp.1131, ivtmp.1147
	add	r4, r4, #32	@ ivtmp.1147, ivtmp.1147,
	add	r5, r5, #28	@ ivtmp.1144, ivtmp.1144,
	add	r6, r6, #152	@ ivtmp.1131, ivtmp.1131,
	beq	.L943	@,
.L969:
	mov	r2, r6	@ ivtmp.1131, ivtmp.1131
	mov	r0, #32	@ minrefidx,
	mov	r3, #0	@ j,
	b	.L941	@
.L940:
	add	r3, r3, #1	@ j, j,
	cmp	r3, lr	@ j, D.39985
	beq	.L968	@,
.L941:
	ldr	r1, [r2, #4]!	@ MEM[base: _61, offset: 0B], MEM[base: _61, offset: 0B]
	ldr	r1, [r1, #4]	@ _34->frame_store, _34->frame_store
	ldr	r1, [r1, #552]	@ _35->apc_idc, _35->apc_idc
	cmp	r1, ip	@ _35->apc_idc, i
	bne	.L940	@,
	cmp	r0, r3	@ minrefidx, j
	movcs	r0, r3	@ minrefidx, j
	add	r3, r3, #1	@ j, j,
	cmp	r3, lr	@ j, D.39985
	str	r0, [r4, #-4]	@ minrefidx, MEM[base: _67, offset: 4294967292B]
	str	r0, [r5, #4]	@ minrefidx, MEM[base: _57, offset: 4B]
	bne	.L941	@,
.L968:
	cmp	r0, #31	@ minrefidx,
	bhi	.L943	@,
.L942:
	add	ip, ip, #1	@ i, i,
	add	r5, r5, #8	@ ivtmp.1144, ivtmp.1144,
	cmp	ip, #16	@ i,
	add	r4, r4, #8	@ ivtmp.1147, ivtmp.1147,
	ldmeqfd	sp!, {r4, r5, r6, r7, r8, pc}	@
	cmp	lr, #0	@ D.39985,
	bne	.L969	@,
.L943:
	str	r7, [r4, #-4]	@ j, MEM[base: _18, offset: 4294967292B]
	str	r7, [r5, #4]	@ j, MEM[base: _68, offset: 4B]
	b	.L942	@
.L967:
	ldr	r5, [r3, #244]	@ D.39985, pH264Ctx_10(D)->CurrSlice.listXsize
	add	r6, r0, #26880	@ ivtmp.1164, pH264Ctx,
	mov	lr, #0	@ i,
	cmp	r5, #0	@ D.39985,
	mov	r7, r6	@ ivtmp.1151, ivtmp.1164
	mov	r8, lr	@ j, i
	add	r6, r6, #28	@ ivtmp.1164, ivtmp.1164,
	add	r7, r7, #152	@ ivtmp.1151, ivtmp.1151,
	beq	.L947	@,
.L971:
	mov	r1, r7	@ ivtmp.1151, ivtmp.1151
	mov	r4, #32	@ minrefidx,
	mov	r2, #0	@ j,
	b	.L945	@
.L944:
	add	r2, r2, #1	@ j, j,
	cmp	r2, r5	@ j, D.39985
	beq	.L970	@,
.L945:
	ldr	r3, [r1, #4]!	@ D.39983, MEM[base: _45, offset: 0B]
	ldr	ip, [r3, #4]	@ _14->frame_store, _14->frame_store
	ldrb	r0, [r3]	@ zero_extendqisi2	@ _14->structure, _14->structure
	ldr	r3, [ip, #552]	@ _15->apc_idc, _15->apc_idc
	mov	r3, r3, asl #1	@ D.39985, _15->apc_idc,
	cmp	r0, #2	@ _14->structure,
	orreq	r3, r3, #1	@,, D.39985, D.39985
	cmp	r3, lr	@ D.39985, i
	bne	.L944	@,
	cmp	r4, r2	@ minrefidx, j
	movcs	r4, r2	@ minrefidx, j
	add	r2, r2, #1	@ j, j,
	cmp	r2, r5	@ j, D.39985
	str	r4, [r6]	@ minrefidx, MEM[base: _6, offset: 0B]
	bne	.L945	@,
.L970:
	cmp	r4, #31	@ minrefidx,
	bhi	.L947	@,
.L946:
	add	lr, lr, #1	@ i, i,
	add	r6, r6, #4	@ ivtmp.1164, ivtmp.1164,
	cmp	lr, #32	@ i,
	ldmeqfd	sp!, {r4, r5, r6, r7, r8, pc}	@
	cmp	r5, #0	@ D.39985,
	bne	.L971	@,
.L947:
	str	r8, [r6]	@ j, MEM[base: _4, offset: 0B]
	b	.L946	@
	.fnend
	.size	FindMinRefIdx, .-FindMinRefIdx
	.align	2
	.global	DecList
	.type	DecList, %function
DecList:
	.fnstart
	@ args = 0, pretend = 0, frame = 0
	@ frame_needed = 0, uses_anonymous_args = 0
	stmfd	sp!, {r4, r5, r6, lr}	@,
	.save {r4, r5, r6, lr}
	mov	r4, r0	@ pH264Ctx, pH264Ctx
	bl	FindNearestPOCPicId	@
	add	r5, r4, #20480	@ tmp141, pH264Ctx,
	mvn	r6, #0	@ tmp125,
	ldrb	r3, [r5, #200]	@ zero_extendqisi2	@ pH264Ctx_4(D)->CurrSlice.slice_type, pH264Ctx_4(D)->CurrSlice.slice_type
	str	r6, [r5, #1828]	@ tmp125, pH264Ctx_4(D)->CurrSlice.picid_refidx0
	cmp	r3, #2	@ pH264Ctx_4(D)->CurrSlice.slice_type,
	str	r0, [r5, #1832]	@, pH264Ctx_4(D)->CurrSlice.picid_nearpoc
	beq	.L980	@,
	mov	r0, r4	@, pH264Ctx
	bl	InitListX	@
	cmp	r0, #0	@,
	bne	.L976	@,
	mov	r0, r4	@, pH264Ctx
	bl	ReorderListX	@
	mov	r0, r4	@, pH264Ctx
	bl	RepairList	@
	cmp	r0, #0	@,
	bne	.L976	@,
	mov	r0, r4	@, pH264Ctx
	add	r4, r4, #24576	@ tmp136, pH264Ctx,
	bl	FindMinRefIdx	@
	mov	r0, #0	@ D.39995,
	ldr	r3, [r4, #2460]	@ D.39998, pH264Ctx_4(D)->pListX
	cmp	r3, #0	@ D.39998,
	ldrne	r3, [r3, #4]	@ _20->frame_store, _20->frame_store
	ldrne	r6, [r3, #184]	@ D.39995, _21->fs_image.image_id
	str	r6, [r5, #1828]	@ D.39995, pH264Ctx_4(D)->CurrSlice.picid_refidx0
	ldmfd	sp!, {r4, r5, r6, pc}	@
.L980:
	mov	r0, #0	@ tmp131,
	str	r0, [r5, #244]	@ tmp131, pH264Ctx_4(D)->CurrSlice.listXsize
	str	r0, [r5, #248]	@ tmp131, pH264Ctx_4(D)->CurrSlice.listXsize
	ldmfd	sp!, {r4, r5, r6, pc}	@
.L976:
	mvn	r0, #0	@ D.39995,
	ldmfd	sp!, {r4, r5, r6, pc}	@
	.fnend
	.size	DecList, .-DecList
	.align	2
	.global	GetBackPicFromVOQueue
	.type	GetBackPicFromVOQueue, %function
GetBackPicFromVOQueue:
	.fnstart
	@ args = 0, pretend = 0, frame = 0
	@ frame_needed = 0, uses_anonymous_args = 0
	stmfd	sp!, {r4, r5, r6, r7, r8, r9, r10, lr}	@,
	.save {r4, r5, r6, r7, r8, r9, r10, lr}
	add	r7, r0, #49152	@ tmp152, pH264Ctx,
	mov	r9, r0	@ pH264Ctx, pH264Ctx
	ldr	r0, [r7, #3688]	@, pH264Ctx_10(D)->ChanID
	bl	FSP_GetFspType	@
	cmp	r0, #0	@,
	beq	.L999	@,
.L982:
	ldr	r3, [r7, #2164]	@ pH264Ctx_10(D)->TotalFsNum, pH264Ctx_10(D)->TotalFsNum
	cmp	r3, #0	@ pH264Ctx_10(D)->TotalFsNum,
	addne	r5, r9, #27392	@ ivtmp.1202, pH264Ctx,
	movne	r8, #0	@ i,
	addne	r5, r5, #124	@ ivtmp.1202, ivtmp.1202,
	movne	r6, r8	@ tmp155, i
	beq	.L989	@,
.L988:
	sub	r4, r5, #16	@ ivtmp.1188, ivtmp.1202,
	strb	r6, [r5, #-211]	@ tmp155, MEM[base: _51, offset: 4294967085B]
	strb	r6, [r5, #-210]	@ tmp155, MEM[base: _51, offset: 4294967086B]
.L987:
	ldr	r1, [r4, #4]!	@ D.40041, MEM[base: _38, offset: 0B]
	cmp	r1, #0	@ D.40041,
	beq	.L986	@,
	ldr	r0, [r7, #3688]	@, pH264Ctx_10(D)->ChanID
	bl	FreeUsdByDec	@
	str	r6, [r4]	@ tmp155, MEM[base: _38, offset: 0B]
.L986:
	cmp	r4, r5	@ ivtmp.1188, ivtmp.1202
	bne	.L987	@,
	ldr	r3, [r7, #2164]	@ pH264Ctx_10(D)->TotalFsNum, pH264Ctx_10(D)->TotalFsNum
	add	r8, r8, #1	@ i, i,
	add	r5, r5, #560	@ ivtmp.1202, ivtmp.1202,
	cmp	r3, r8	@ pH264Ctx_10(D)->TotalFsNum, i
	bhi	.L988	@,
.L989:
	ldr	r1, [r7, #2168]	@ D.40039, pH264Ctx_10(D)->TotalPmvNum
	cmp	r1, #0	@ D.40039,
	beq	.L1000	@,
	add	r2, r9, #51200	@ ivtmp.1174, pH264Ctx,
	mov	r3, #0	@ i,
	add	r2, r2, #44	@ ivtmp.1174, ivtmp.1174,
	mov	r0, r3	@ tmp153, i
.L990:
	add	r3, r3, #1	@ i, i,
	str	r0, [r2, #4]!	@ tmp153, MEM[base: _19, offset: 0B]
	cmp	r3, r1	@ i, D.40039
	bne	.L990	@,
	ldmfd	sp!, {r4, r5, r6, r7, r8, r9, r10, pc}	@
.L999:
	add	r0, r9, #8	@, pH264Ctx,
	bl	ResetVoQueue	@
	b	.L982	@
.L1000:
	ldmfd	sp!, {r4, r5, r6, r7, r8, r9, r10, pc}	@
	.fnend
	.size	GetBackPicFromVOQueue, .-GetBackPicFromVOQueue
	.align	2
	.global	wait_vo
	.type	wait_vo, %function
wait_vo:
	.fnstart
	@ args = 0, pretend = 0, frame = 0
	@ frame_needed = 0, uses_anonymous_args = 0
	@ link register save eliminated.
	bx	lr	@
	.fnend
	.size	wait_vo, .-wait_vo
	.align	2
	.global	GetReRangeFlag
	.type	GetReRangeFlag, %function
GetReRangeFlag:
	.fnstart
	@ args = 0, pretend = 0, frame = 8
	@ frame_needed = 0, uses_anonymous_args = 0
	stmfd	sp!, {r4, r5, r6, r7, r8, lr}	@,
	.save {r4, r5, r6, r7, r8, lr}
	add	r3, r0, #20480	@ tmp164, pH264Ctx,
	add	r6, r0, #12288	@ tmp222, pH264Ctx,
	mov	lr, #2208	@ tmp169,
	ldr	r3, [r3, #212]	@ pH264Ctx_4(D)->CurrSlice.pic_parameter_set_id, pH264Ctx_4(D)->CurrSlice.pic_parameter_set_id
	mov	r4, #4000	@ tmp173,
	ldr	ip, [r6, #1296]	@ pH264Ctx_4(D)->PPS, pH264Ctx_4(D)->PPS
	mov	r7, r0	@ pH264Ctx, pH264Ctx
	ldr	r2, [r6, #1292]	@ pH264Ctx_4(D)->SPS, pH264Ctx_4(D)->SPS
	mov	r5, r1	@ p_dpb_changed, p_dpb_changed
	ldr	r0, [r6, #1272]	@ D.40050, pH264Ctx_4(D)->CurWidthInMb
	.pad #8
	sub	sp, sp, #8	@,,
	mla	r3, lr, r3, ip	@ tmp170, tmp169, pH264Ctx_4(D)->CurrSlice.pic_parameter_set_id, pH264Ctx_4(D)->PPS
	ldr	r1, [r6, #1276]	@ D.40050, pH264Ctx_4(D)->CurHeightInMb
	ldr	r3, [r3, #28]	@ pPPS_8->seq_parameter_set_id, pPPS_8->seq_parameter_set_id
	mla	r4, r4, r3, r2	@ pSPS, tmp173, pPPS_8->seq_parameter_set_id, pH264Ctx_4(D)->SPS
	ldrb	r3, [r4, #18]	@ zero_extendqisi2	@ D.40050, pSPS_12->frame_mbs_only_flag
	ldr	ip, [r4, #3960]	@ pSPS_12->pic_height_in_map_units_minus1, pSPS_12->pic_height_in_map_units_minus1
	rsb	r3, r3, #2	@ D.40050, D.40050,
	ldr	r2, [r4, #3956]	@ pSPS_12->pic_width_in_mbs_minus1, pSPS_12->pic_width_in_mbs_minus1
	mla	r3, ip, r3, r3	@ newh, pSPS_12->pic_height_in_map_units_minus1, D.40050, D.40050
	add	r2, r2, #1	@ neww, pSPS_12->pic_width_in_mbs_minus1,
	cmp	r2, r0	@ neww, D.40050
	cmpeq	r3, r1	@, newh, D.40050
	movne	ip, #1	@ tmp190,
	moveq	ip, #0	@ tmp190,
	bne	.L1003	@,
	add	r8, r7, #24576	@ tmp192, pH264Ctx,
	ldr	lr, [r4, #3980]	@ D.40055, pSPS_12->dpb_size_plus1
	ldr	r8, [r8, #2048]	@ pH264Ctx_4(D)->DPB.size, pH264Ctx_4(D)->DPB.size
	add	r8, r8, #1	@ D.40048, pH264Ctx_4(D)->DPB.size,
	cmp	lr, r8	@ D.40055, D.40048
	movls	r2, ip	@ D.40048, tmp190
	movls	r0, r2	@ ReRangeFlg, D.40048
	bls	.L1004	@,
.L1003:
	ldr	ip, .L1009	@ tmp195,
	ldr	ip, [ip]	@ D.40053, g_event_report
	cmp	ip, #0	@ D.40053,
	beq	.L1008	@,
	add	lr, r7, #49152	@ tmp206, pH264Ctx,
	mov	r0, r0, asl #4	@ tmp197, D.40050,
	mov	r1, r1, asl #4	@ tmp199, D.40050,
	strh	r0, [sp]	@ movhi	@ tmp197, para
	strh	r1, [sp, #2]	@ movhi	@ tmp199, para
	mov	r2, r2, asl #4	@ tmp201, neww,
	mov	r3, r3, asl #4	@ tmp203, newh,
	strh	r2, [sp, #4]	@ movhi	@ tmp201, para
	ldr	r0, [lr, #3688]	@, pH264Ctx_4(D)->ChanID
	mov	r2, sp	@,
	strh	r3, [sp, #6]	@ movhi	@ tmp203, para
	mov	r1, #2	@,
	blx	ip	@ D.40053
	ldr	lr, [r4, #3980]	@ D.40055, pSPS_12->dpb_size_plus1
	mov	r2, #1	@ D.40048,
	mov	r0, r2	@ ReRangeFlg, D.40048
.L1004:
	add	r3, r7, #16384	@ tmp209, pH264Ctx,
	ldr	r6, [r6, #2044]	@ pH264Ctx_4(D)->CurrSPS.seq_parameter_set_id, pH264Ctx_4(D)->CurrSPS.seq_parameter_set_id
	ldr	ip, [r4, #744]	@ pSPS_12->seq_parameter_set_id, pSPS_12->seq_parameter_set_id
	ldr	r1, [r3, #1184]	@ pH264Ctx_4(D)->CurrSPS.dpb_size_plus1, pH264Ctx_4(D)->CurrSPS.dpb_size_plus1
	cmp	r6, ip	@ pH264Ctx_4(D)->CurrSPS.seq_parameter_set_id, pSPS_12->seq_parameter_set_id
	cmpeq	r1, lr	@, pH264Ctx_4(D)->CurrSPS.dpb_size_plus1, D.40055
	movne	r3, #1	@ dpb_changed,
	moveq	r3, #0	@ dpb_changed,
	orr	r2, r3, r2	@ dpb_changed, dpb_changed, D.40048
	str	r2, [r5]	@ dpb_changed, *p_dpb_changed_59(D)
	add	sp, sp, #8	@,,
	@ sp needed	@
	ldmfd	sp!, {r4, r5, r6, r7, r8, pc}	@
.L1008:
	mov	r2, #1	@ D.40048,
	ldr	lr, [r4, #3980]	@ D.40055, pSPS_12->dpb_size_plus1
	mov	r0, r2	@ ReRangeFlg, D.40048
	b	.L1004	@
.L1010:
	.align	2
.L1009:
	.word	g_event_report
	.fnend
	.size	GetReRangeFlag, .-GetReRangeFlag
	.global	__aeabi_uidiv
	.global	__aeabi_uidivmod
	.align	2
	.global	DecPOC
	.type	DecPOC, %function
DecPOC:
	.fnstart
	@ args = 0, pretend = 0, frame = 0
	@ frame_needed = 0, uses_anonymous_args = 0
	stmfd	sp!, {r4, r5, r6, r7, r8, r9, r10, lr}	@,
	.save {r4, r5, r6, r7, r8, r9, r10, lr}
	add	r2, r0, #12288	@ tmp233, pH264Ctx,
	add	r6, r0, #20480	@ tmp539, pH264Ctx,
	mov	r4, #2208	@ tmp241,
	ldr	r3, [r2, #1296]	@ pH264Ctx_22(D)->PPS, pH264Ctx_22(D)->PPS
	mov	r5, #4000	@ tmp245,
	ldr	r1, [r6, #212]	@ pH264Ctx_22(D)->CurrSlice.pic_parameter_set_id, pH264Ctx_22(D)->CurrSlice.pic_parameter_set_id
	mov	ip, #1	@ tmp249,
	ldr	lr, [r2, #1292]	@ pH264Ctx_22(D)->SPS, pH264Ctx_22(D)->SPS
	ldrb	r2, [r6, #203]	@ zero_extendqisi2	@ pH264Ctx_22(D)->CurrSlice.nal_unit_type, pH264Ctx_22(D)->CurrSlice.nal_unit_type
	mla	r3, r4, r1, r3	@ tmp242, tmp241, pH264Ctx_22(D)->CurrSlice.pic_parameter_set_id, pH264Ctx_22(D)->PPS
	sub	r2, r2, #5	@ D.40083, pH264Ctx_22(D)->CurrSlice.nal_unit_type,
	clz	r2, r2	@ D.40083, D.40083
	mov	r2, r2, lsr #5	@ D.40083, D.40083,
	ldr	r3, [r3, #28]	@ pps_29->seq_parameter_set_id, pps_29->seq_parameter_set_id
	mla	r5, r5, r3, lr	@ sps, tmp245, pps_29->seq_parameter_set_id, pH264Ctx_22(D)->SPS
	ldr	r1, [r5, #2908]	@ D.40085, sps_33->pic_order_cnt_type
	ldr	r3, [r5, #2904]	@ sps_33->log2_max_frame_num_minus4, sps_33->log2_max_frame_num_minus4
	cmp	r1, ip	@ D.40085,
	ldr	lr, [r5, #2912]	@ D.40085, sps_33->log2_max_pic_order_cnt_lsb_minus4
	add	r3, r3, #4	@ D.40085, sps_33->log2_max_frame_num_minus4,
	mov	r3, ip, asl r3	@ MaxFrameNum, tmp249,
	beq	.L1013	@,
	bcc	.L1014	@,
	cmp	r1, #2	@ D.40085,
	ldmnefd	sp!, {r4, r5, r6, r7, r8, r9, r10, pc}	@
	cmp	r2, #0	@ D.40083,
	add	r4, r0, #16384	@ tmp538, pH264Ctx,
	bne	.L1070	@,
	ldr	r1, [r4, #3436]	@ pH264Ctx_22(D)->CurrPOC.last_has_mmco_5, pH264Ctx_22(D)->CurrPOC.last_has_mmco_5
	cmp	r1, #0	@ pH264Ctx_22(D)->CurrPOC.last_has_mmco_5,
	bne	.L1047	@,
	ldr	r2, [r4, #3476]	@ D.40085, pH264Ctx_22(D)->CurrPOC.frame_num
	ldr	r0, [r4, #3472]	@ pH264Ctx_22(D)->CurrPOC.PreviousFrameNum, pH264Ctx_22(D)->CurrPOC.PreviousFrameNum
	ldr	r1, [r4, #3484]	@ D.40085, pH264Ctx_22(D)->CurrPOC.PrevFrameNumOffset
	cmp	r2, r0	@ D.40085, pH264Ctx_22(D)->CurrPOC.PreviousFrameNum
	addcc	r1, r1, r3	@ D.40085, D.40085, MaxFrameNum
	strcc	r1, [r4, #3480]	@ D.40085, pH264Ctx_22(D)->CurrPOC.FrameNumOffset
	bcs	.L1049	@,
.L1050:
	add	r3, r1, r2	@ D.40085, D.40085, D.40085
	str	r3, [r4, #3468]	@ D.40085, pH264Ctx_22(D)->CurrPOC.AbsFrameNum
	ldr	r0, [r6, #232]	@ pH264Ctx_22(D)->CurrSlice.nal_ref_idc, pH264Ctx_22(D)->CurrSlice.nal_ref_idc
	mov	r3, r3, asl #1	@ D.40085, D.40085,
	cmp	r0, #0	@ pH264Ctx_22(D)->CurrSlice.nal_ref_idc,
	subeq	r3, r3, #1	@ D.40087, D.40085,
	str	r3, [r4, #3456]	@ D.40087, pH264Ctx_22(D)->CurrPOC.ThisPOC
	ldrb	r0, [r6, #201]	@ zero_extendqisi2	@ pH264Ctx_22(D)->CurrSlice.field_pic_flag, pH264Ctx_22(D)->CurrSlice.field_pic_flag
	cmp	r0, #0	@ pH264Ctx_22(D)->CurrSlice.field_pic_flag,
	bne	.L1053	@,
	str	r3, [r4, #3452]	@ D.40087, pH264Ctx_22(D)->CurrPOC.framepoc
	str	r3, [r4, #3448]	@ D.40087, pH264Ctx_22(D)->CurrPOC.bottompoc
	str	r3, [r4, #3444]	@ D.40087, pH264Ctx_22(D)->CurrPOC.toppoc
.L1046:
	str	r2, [r4, #3472]	@ D.40085, pH264Ctx_22(D)->CurrPOC.PreviousFrameNum
	str	r1, [r4, #3484]	@ D.40087, pH264Ctx_22(D)->CurrPOC.PrevFrameNumOffset
	ldmfd	sp!, {r4, r5, r6, r7, r8, r9, r10, pc}	@
.L1014:
	cmp	r2, #0	@ D.40083,
	add	lr, lr, #4	@ D.40085, D.40085,
	add	r4, r0, #16384	@ tmp538, pH264Ctx,
	mov	ip, ip, asl lr	@ MaxPicOrderCntLsb, tmp249,
	bne	.L1020	@,
	ldr	r3, [r4, #3436]	@ pH264Ctx_22(D)->CurrPOC.last_has_mmco_5, pH264Ctx_22(D)->CurrPOC.last_has_mmco_5
	cmp	r3, #0	@ pH264Ctx_22(D)->CurrPOC.last_has_mmco_5,
	bne	.L1018	@,
	ldr	lr, [r4, #3420]	@ D.40091, pH264Ctx_22(D)->CurrPOC.PrevPicOrderCntMsb
	ldr	r1, [r4, #3424]	@ D.40085, pH264Ctx_22(D)->CurrPOC.PrevPicOrderCntLsb
	mov	r2, lr	@ D.40085, D.40091
.L1019:
	ldr	r0, [r4, #3412]	@ D.40085, pH264Ctx_22(D)->CurrPOC.pic_order_cnt_lsb
	cmp	r0, r1	@ D.40085, D.40085
	bcs	.L1017	@,
	rsb	r3, r0, r1	@ D.40085, D.40085, D.40085
	cmp	r3, ip, lsr #1	@ D.40085, MaxPicOrderCntLsb,
	addcs	r2, r2, ip	@ D.40085, D.40085, MaxPicOrderCntLsb
	strcs	r2, [r4, #3428]	@ D.40085, pH264Ctx_22(D)->CurrPOC.PicOrderCntMsb
	bcc	.L1017	@,
.L1021:
	ldrb	r3, [r6, #201]	@ zero_extendqisi2	@ pH264Ctx_22(D)->CurrSlice.field_pic_flag, pH264Ctx_22(D)->CurrSlice.field_pic_flag
	cmp	r3, #0	@ pH264Ctx_22(D)->CurrSlice.field_pic_flag,
	bne	.L1023	@,
.L1072:
	ldr	r3, [r4, #3416]	@ pH264Ctx_22(D)->CurrPOC.delta_pic_order_cnt_bottom, pH264Ctx_22(D)->CurrPOC.delta_pic_order_cnt_bottom
	add	r2, r2, r0	@ D.40087, D.40085, D.40085
	str	r2, [r4, #3444]	@ D.40087, pH264Ctx_22(D)->CurrPOC.toppoc
	add	r3, r2, r3	@ D.40087, D.40087, pH264Ctx_22(D)->CurrPOC.delta_pic_order_cnt_bottom
	str	r3, [r4, #3448]	@ D.40087, pH264Ctx_22(D)->CurrPOC.bottompoc
	cmp	r3, r2	@ D.40087, D.40087
	movge	r3, r2	@ D.40087, D.40087
	str	r3, [r4, #3456]	@ D.40087, pH264Ctx_22(D)->CurrPOC.ThisPOC
.L1024:
	ldr	r2, [r4, #3476]	@ D.40085, pH264Ctx_22(D)->CurrPOC.frame_num
	ldr	r1, [r4, #3472]	@ pH264Ctx_22(D)->CurrPOC.PreviousFrameNum, pH264Ctx_22(D)->CurrPOC.PreviousFrameNum
	str	r3, [r4, #3452]	@ D.40087, pH264Ctx_22(D)->CurrPOC.framepoc
	cmp	r2, r1	@ D.40085, pH264Ctx_22(D)->CurrPOC.PreviousFrameNum
	strne	r2, [r4, #3472]	@ D.40085, pH264Ctx_22(D)->CurrPOC.PreviousFrameNum
	ldr	r3, [r6, #232]	@ pH264Ctx_22(D)->CurrSlice.nal_ref_idc, pH264Ctx_22(D)->CurrSlice.nal_ref_idc
	cmp	r3, #0	@ pH264Ctx_22(D)->CurrSlice.nal_ref_idc,
	ldrne	r2, [r4, #3412]	@ pH264Ctx_22(D)->CurrPOC.pic_order_cnt_lsb, pH264Ctx_22(D)->CurrPOC.pic_order_cnt_lsb
	ldrne	r3, [r4, #3428]	@ pH264Ctx_22(D)->CurrPOC.PicOrderCntMsb, pH264Ctx_22(D)->CurrPOC.PicOrderCntMsb
	strne	r2, [r4, #3424]	@ pH264Ctx_22(D)->CurrPOC.pic_order_cnt_lsb, pH264Ctx_22(D)->CurrPOC.PrevPicOrderCntLsb
	strne	r3, [r4, #3420]	@ pH264Ctx_22(D)->CurrPOC.PicOrderCntMsb, pH264Ctx_22(D)->CurrPOC.PrevPicOrderCntMsb
	ldmfd	sp!, {r4, r5, r6, r7, r8, r9, r10, pc}	@
.L1013:
	cmp	r2, #0	@ D.40083,
	add	r4, r0, #16384	@ tmp538, pH264Ctx,
	movne	r3, #0	@ tmp335,
	strne	r3, [r4, #3480]	@ tmp335, pH264Ctx_22(D)->CurrPOC.FrameNumOffset
	bne	.L1028	@,
	ldr	r1, [r4, #3436]	@ pH264Ctx_22(D)->CurrPOC.last_has_mmco_5, pH264Ctx_22(D)->CurrPOC.last_has_mmco_5
	cmp	r1, #0	@ pH264Ctx_22(D)->CurrPOC.last_has_mmco_5,
	beq	.L1029	@,
	mov	r3, r2	@ D.40085, D.40083
	str	r2, [r4, #3484]	@ D.40083, pH264Ctx_22(D)->CurrPOC.PrevFrameNumOffset
	str	r2, [r4, #3472]	@ D.40083, pH264Ctx_22(D)->CurrPOC.PreviousFrameNum
.L1030:
	str	r3, [r4, #3480]	@ D.40085, pH264Ctx_22(D)->CurrPOC.FrameNumOffset
.L1028:
	ldr	r3, [r5, #2924]	@ sps_33->num_ref_frames_in_pic_order_cnt_cycle, sps_33->num_ref_frames_in_pic_order_cnt_cycle
	cmp	r3, #0	@ sps_33->num_ref_frames_in_pic_order_cnt_cycle,
	beq	.L1032	@,
	ldr	r3, [r4, #3476]	@ pH264Ctx_22(D)->CurrPOC.frame_num, pH264Ctx_22(D)->CurrPOC.frame_num
	ldr	r0, [r4, #3480]	@ pH264Ctx_22(D)->CurrPOC.FrameNumOffset, pH264Ctx_22(D)->CurrPOC.FrameNumOffset
	add	r0, r3, r0	@ D.40089, pH264Ctx_22(D)->CurrPOC.frame_num, pH264Ctx_22(D)->CurrPOC.FrameNumOffset
	str	r0, [r4, #3468]	@ D.40089, pH264Ctx_22(D)->CurrPOC.AbsFrameNum
	ldr	r7, [r6, #232]	@ D.40089, pH264Ctx_22(D)->CurrSlice.nal_ref_idc
	cmp	r7, #0	@ D.40089,
	bne	.L1034	@,
	cmp	r0, #0	@ D.40089,
	beq	.L1035	@,
	sub	r0, r0, #1	@ D.40089, D.40089,
	str	r0, [r4, #3468]	@ D.40089, pH264Ctx_22(D)->CurrPOC.AbsFrameNum
.L1034:
	mov	r3, #0	@ tmp381,
	str	r3, [r4, #3500]	@ tmp381, pH264Ctx_22(D)->CurrPOC.ExpectedDeltaPerPicOrderCntCycle
	ldr	r1, [r5, #2924]	@ D.40085, sps_33->num_ref_frames_in_pic_order_cnt_cycle
	cmp	r1, r3	@ D.40085,
	bgt	.L1055	@,
	cmp	r0, #0	@ D.40089,
	beq	.L1038	@,
.L1073:
	sub	r8, r0, #1	@ D.40085, D.40089,
	mov	r0, r8	@, D.40085
	bl	__aeabi_uidiv	@
	mov	r9, r0	@ D.40085,
	mov	r0, r8	@, D.40085
	str	r9, [r4, #3492]	@ D.40085, pH264Ctx_22(D)->CurrPOC.PicOrderCntCycleCnt
	ldr	r1, [r5, #2924]	@, sps_33->num_ref_frames_in_pic_order_cnt_cycle
	bl	__aeabi_uidivmod	@
	ldr	r0, [r4, #3500]	@ pH264Ctx_22(D)->CurrPOC.ExpectedDeltaPerPicOrderCntCycle, pH264Ctx_22(D)->CurrPOC.ExpectedDeltaPerPicOrderCntCycle
	mul	r0, r0, r9	@ D.40087, pH264Ctx_22(D)->CurrPOC.ExpectedDeltaPerPicOrderCntCycle, D.40085
	str	r0, [r4, #3496]	@ D.40087, pH264Ctx_22(D)->CurrPOC.ExpectedPicOrderCnt
	cmp	r1, #0	@ D.40087,
	str	r1, [r4, #3488]	@ D.40087, pH264Ctx_22(D)->CurrPOC.FrameNumInPicOrderCntCycle
	blt	.L1039	@,
	add	r2, r5, #2912	@ ivtmp.1213, sps,
	mov	r3, #0	@ i,
	add	r2, r2, #12	@ ivtmp.1213, ivtmp.1213,
.L1040:
	add	r3, r3, #1	@ i, i,
	ldr	ip, [r2, #4]!	@ MEM[base: _236, offset: 0B], MEM[base: _236, offset: 0B]
	cmp	r1, r3	@ D.40087, i
	add	r0, r0, ip	@ D.40087, D.40087, MEM[base: _236, offset: 0B]
	str	r0, [r4, #3496]	@ D.40087, pH264Ctx_22(D)->CurrPOC.ExpectedPicOrderCnt
	bge	.L1040	@,
.L1039:
	cmp	r7, #0	@ D.40089,
	ldreq	r3, [r5, #2916]	@ sps_33->offset_for_non_ref_pic, sps_33->offset_for_non_ref_pic
	addeq	r0, r0, r3	@ D.40087, D.40087, sps_33->offset_for_non_ref_pic
	streq	r0, [r4, #3496]	@ D.40087, pH264Ctx_22(D)->CurrPOC.ExpectedPicOrderCnt
	ldrb	r3, [r6, #201]	@ zero_extendqisi2	@ pH264Ctx_22(D)->CurrSlice.field_pic_flag, pH264Ctx_22(D)->CurrSlice.field_pic_flag
	cmp	r3, #0	@ pH264Ctx_22(D)->CurrSlice.field_pic_flag,
	bne	.L1042	@,
	ldr	r2, [r4, #3460]	@ pH264Ctx_22(D)->CurrPOC.delta_pic_order_cnt, pH264Ctx_22(D)->CurrPOC.delta_pic_order_cnt
	ldr	r1, [r4, #3464]	@ pH264Ctx_22(D)->CurrPOC.delta_pic_order_cnt, pH264Ctx_22(D)->CurrPOC.delta_pic_order_cnt
	add	r2, r0, r2	@ D.40087, D.40087, pH264Ctx_22(D)->CurrPOC.delta_pic_order_cnt
	str	r2, [r4, #3444]	@ D.40087, pH264Ctx_22(D)->CurrPOC.toppoc
	ldr	r3, [r5, #2920]	@ sps_33->offset_for_top_to_bottom_field, sps_33->offset_for_top_to_bottom_field
	add	r3, r2, r3	@ D.40087, D.40087, sps_33->offset_for_top_to_bottom_field
	add	r0, r3, r1	@ D.40087, D.40087, pH264Ctx_22(D)->CurrPOC.delta_pic_order_cnt
	str	r0, [r4, #3448]	@ D.40087, pH264Ctx_22(D)->CurrPOC.bottompoc
	cmp	r0, r2	@ D.40087, D.40087
	movge	r0, r2	@ D.40087, D.40087
	str	r0, [r4, #3456]	@ D.40087, pH264Ctx_22(D)->CurrPOC.ThisPOC
.L1043:
	ldr	r2, [r4, #3476]	@ pH264Ctx_22(D)->CurrPOC.frame_num, pH264Ctx_22(D)->CurrPOC.frame_num
	ldr	r3, [r4, #3480]	@ pH264Ctx_22(D)->CurrPOC.FrameNumOffset, pH264Ctx_22(D)->CurrPOC.FrameNumOffset
	str	r0, [r4, #3452]	@ D.40087, pH264Ctx_22(D)->CurrPOC.framepoc
	str	r2, [r4, #3472]	@ pH264Ctx_22(D)->CurrPOC.frame_num, pH264Ctx_22(D)->CurrPOC.PreviousFrameNum
	str	r3, [r4, #3484]	@ pH264Ctx_22(D)->CurrPOC.FrameNumOffset, pH264Ctx_22(D)->CurrPOC.PrevFrameNumOffset
	ldmfd	sp!, {r4, r5, r6, r7, r8, r9, r10, pc}	@
.L1018:
	ldr	lr, [r4, #3440]	@ D.40091, pH264Ctx_22(D)->CurrPOC.last_pic_bottom_field
	cmp	lr, #0	@ D.40091,
	beq	.L1071	@,
.L1020:
	ldr	r0, [r4, #3412]	@ D.40085, pH264Ctx_22(D)->CurrPOC.pic_order_cnt_lsb
	mov	r3, #0	@ tmp254,
	mov	lr, r3	@ D.40091, tmp254
	mov	r2, r1	@ D.40085, D.40085
	str	r3, [r4, #3420]	@ tmp254, pH264Ctx_22(D)->CurrPOC.PrevPicOrderCntMsb
	str	r3, [r4, #3424]	@ tmp254, pH264Ctx_22(D)->CurrPOC.PrevPicOrderCntLsb
.L1017:
	cmp	r0, r1	@ D.40085, D.40085
	bls	.L1022	@,
	rsb	r1, r1, r0	@ D.40085, D.40085, D.40085
	cmp	r1, ip, lsr #1	@ D.40085, MaxPicOrderCntLsb,
	rsbhi	r2, ip, r2	@ D.40085, MaxPicOrderCntLsb, D.40085
	strhi	r2, [r4, #3428]	@ D.40085, pH264Ctx_22(D)->CurrPOC.PicOrderCntMsb
	bhi	.L1021	@,
.L1022:
	str	lr, [r4, #3428]	@ D.40091, pH264Ctx_22(D)->CurrPOC.PicOrderCntMsb
	ldrb	r3, [r6, #201]	@ zero_extendqisi2	@ pH264Ctx_22(D)->CurrSlice.field_pic_flag, pH264Ctx_22(D)->CurrSlice.field_pic_flag
	cmp	r3, #0	@ pH264Ctx_22(D)->CurrSlice.field_pic_flag,
	beq	.L1072	@,
.L1023:
	ldrb	r3, [r6, #202]	@ zero_extendqisi2	@ pH264Ctx_22(D)->CurrSlice.bottom_field_flag, pH264Ctx_22(D)->CurrSlice.bottom_field_flag
	cmp	r3, #0	@ pH264Ctx_22(D)->CurrSlice.bottom_field_flag,
	add	r3, r2, r0	@ D.40087, D.40085, D.40085
	streq	r3, [r4, #3444]	@ D.40087, pH264Ctx_22(D)->CurrPOC.toppoc
	strne	r3, [r4, #3448]	@ D.40087, pH264Ctx_22(D)->CurrPOC.bottompoc
	str	r3, [r4, #3456]	@ D.40087, pH264Ctx_22(D)->CurrPOC.ThisPOC
	b	.L1024	@
.L1070:
	mov	r3, #0	@ tmp463,
	ldr	r2, [r4, #3476]	@ D.40085, pH264Ctx_22(D)->CurrPOC.frame_num
	mov	r1, r3	@ D.40087, tmp463
	str	r3, [r4, #3480]	@ tmp463, pH264Ctx_22(D)->CurrPOC.FrameNumOffset
	str	r3, [r4, #3448]	@ tmp463, pH264Ctx_22(D)->CurrPOC.bottompoc
	str	r3, [r4, #3444]	@ tmp463, pH264Ctx_22(D)->CurrPOC.toppoc
	str	r3, [r4, #3452]	@ tmp463, pH264Ctx_22(D)->CurrPOC.framepoc
	str	r3, [r4, #3456]	@ tmp463, pH264Ctx_22(D)->CurrPOC.ThisPOC
	b	.L1046	@
.L1032:
	str	r3, [r4, #3468]	@ sps_33->num_ref_frames_in_pic_order_cnt_cycle, pH264Ctx_22(D)->CurrPOC.AbsFrameNum
	ldr	r7, [r6, #232]	@ D.40089, pH264Ctx_22(D)->CurrSlice.nal_ref_idc
.L1035:
	mov	r0, #0	@ tmp536,
	str	r0, [r4, #3500]	@ tmp536, pH264Ctx_22(D)->CurrPOC.ExpectedDeltaPerPicOrderCntCycle
	ldr	r3, [r5, #2924]	@ sps_33->num_ref_frames_in_pic_order_cnt_cycle, sps_33->num_ref_frames_in_pic_order_cnt_cycle
	cmp	r3, r0	@ sps_33->num_ref_frames_in_pic_order_cnt_cycle,
	ble	.L1038	@,
.L1055:
	add	ip, r5, #2912	@ ivtmp.1224, sps,
	mov	r3, #0	@ D.40087,
	add	ip, ip, #12	@ ivtmp.1224, ivtmp.1224,
	mov	r2, r3	@ i, D.40087
.L1037:
	ldr	r1, [ip, #4]!	@ MEM[base: _55, offset: 0B], MEM[base: _55, offset: 0B]
	add	r2, r2, #1	@ i, i,
	add	r3, r3, r1	@ D.40087, D.40087, MEM[base: _55, offset: 0B]
	str	r3, [r4, #3500]	@ D.40087, pH264Ctx_22(D)->CurrPOC.ExpectedDeltaPerPicOrderCntCycle
	ldr	r1, [r5, #2924]	@ D.40085, sps_33->num_ref_frames_in_pic_order_cnt_cycle
	cmp	r1, r2	@ D.40085, i
	bgt	.L1037	@,
	cmp	r0, #0	@ D.40089,
	bne	.L1073	@,
.L1038:
	mov	r0, #0	@ tmp409,
	str	r0, [r4, #3496]	@ tmp409, pH264Ctx_22(D)->CurrPOC.ExpectedPicOrderCnt
	b	.L1039	@
.L1042:
	ldrb	r3, [r6, #202]	@ zero_extendqisi2	@ pH264Ctx_22(D)->CurrSlice.bottom_field_flag, pH264Ctx_22(D)->CurrSlice.bottom_field_flag
	cmp	r3, #0	@ pH264Ctx_22(D)->CurrSlice.bottom_field_flag,
	ldrne	r2, [r5, #2920]	@ sps_33->offset_for_top_to_bottom_field, sps_33->offset_for_top_to_bottom_field
	ldreq	r3, [r4, #3460]	@ pH264Ctx_22(D)->CurrPOC.delta_pic_order_cnt, pH264Ctx_22(D)->CurrPOC.delta_pic_order_cnt
	ldrne	r3, [r4, #3460]	@ pH264Ctx_22(D)->CurrPOC.delta_pic_order_cnt, pH264Ctx_22(D)->CurrPOC.delta_pic_order_cnt
	addne	r0, r0, r2	@ D.40087, D.40087, sps_33->offset_for_top_to_bottom_field
	addeq	r0, r0, r3	@ D.40087, D.40087, pH264Ctx_22(D)->CurrPOC.delta_pic_order_cnt
	streq	r0, [r4, #3444]	@ D.40087, pH264Ctx_22(D)->CurrPOC.toppoc
	addne	r0, r0, r3	@ D.40087, D.40087, pH264Ctx_22(D)->CurrPOC.delta_pic_order_cnt
	strne	r0, [r4, #3448]	@ D.40087, pH264Ctx_22(D)->CurrPOC.bottompoc
	str	r0, [r4, #3456]	@ D.40087, pH264Ctx_22(D)->CurrPOC.ThisPOC
	b	.L1043	@
.L1029:
	ldr	r1, [r4, #3476]	@ pH264Ctx_22(D)->CurrPOC.frame_num, pH264Ctx_22(D)->CurrPOC.frame_num
	ldr	r2, [r4, #3472]	@ pH264Ctx_22(D)->CurrPOC.PreviousFrameNum, pH264Ctx_22(D)->CurrPOC.PreviousFrameNum
	cmp	r1, r2	@ pH264Ctx_22(D)->CurrPOC.frame_num, pH264Ctx_22(D)->CurrPOC.PreviousFrameNum
	bcs	.L1031	@,
	ldr	r2, [r4, #3484]	@ pH264Ctx_22(D)->CurrPOC.PrevFrameNumOffset, pH264Ctx_22(D)->CurrPOC.PrevFrameNumOffset
	add	r3, r3, r2	@ D.40085, MaxFrameNum, pH264Ctx_22(D)->CurrPOC.PrevFrameNumOffset
	str	r3, [r4, #3480]	@ D.40085, pH264Ctx_22(D)->CurrPOC.FrameNumOffset
	b	.L1028	@
.L1053:
	ldrb	r0, [r6, #202]	@ zero_extendqisi2	@ pH264Ctx_22(D)->CurrSlice.bottom_field_flag, pH264Ctx_22(D)->CurrSlice.bottom_field_flag
	str	r3, [r4, #3452]	@ D.40087, pH264Ctx_22(D)->CurrPOC.framepoc
	cmp	r0, #0	@ pH264Ctx_22(D)->CurrSlice.bottom_field_flag,
	streq	r3, [r4, #3444]	@ D.40087, pH264Ctx_22(D)->CurrPOC.toppoc
	strne	r3, [r4, #3448]	@ D.40087, pH264Ctx_22(D)->CurrPOC.bottompoc
	b	.L1046	@
.L1047:
	str	r2, [r4, #3472]	@ D.40083, pH264Ctx_22(D)->CurrPOC.PreviousFrameNum
	mov	r1, r2	@ D.40085, D.40083
	str	r2, [r4, #3484]	@ D.40083, pH264Ctx_22(D)->CurrPOC.PrevFrameNumOffset
	ldr	r2, [r4, #3476]	@ D.40085, pH264Ctx_22(D)->CurrPOC.frame_num
.L1049:
	str	r1, [r4, #3480]	@ D.40085, pH264Ctx_22(D)->CurrPOC.FrameNumOffset
	b	.L1050	@
.L1071:
	ldr	r3, [r4, #3444]	@ D.40085, pH264Ctx_22(D)->CurrPOC.toppoc
	mov	r2, r1	@ D.40085, D.40085
	str	lr, [r4, #3420]	@ D.40091, pH264Ctx_22(D)->CurrPOC.PrevPicOrderCntMsb
	mov	r1, r3	@ D.40085, D.40085
	str	r3, [r4, #3424]	@ D.40085, pH264Ctx_22(D)->CurrPOC.PrevPicOrderCntLsb
	b	.L1019	@
.L1031:
	ldr	r3, [r4, #3484]	@ D.40085, pH264Ctx_22(D)->CurrPOC.PrevFrameNumOffset
	b	.L1030	@
	.fnend
	.size	DecPOC, .-DecPOC
	.align	2
	.global	CalcPicNum
	.type	CalcPicNum, %function
CalcPicNum:
	.fnstart
	@ args = 0, pretend = 0, frame = 0
	@ frame_needed = 0, uses_anonymous_args = 0
	add	r3, r0, #12288	@ tmp214, pH264Ctx,
	add	r2, r0, #20480	@ tmp211, pH264Ctx,
	stmfd	sp!, {r4, r5, r6, r7, r8, lr}	@,
	.save {r4, r5, r6, r7, r8, lr}
	mov	r4, #2208	@ tmp216,
	ldr	ip, [r2, #212]	@ pH264Ctx_19(D)->CurrSlice.pic_parameter_set_id, pH264Ctx_19(D)->CurrSlice.pic_parameter_set_id
	mov	lr, #4000	@ tmp223,
	ldr	r1, [r3, #1296]	@ pH264Ctx_19(D)->PPS, pH264Ctx_19(D)->PPS
	add	r6, r0, #49152	@ tmp318, pH264Ctx,
	ldr	r2, [r3, #1292]	@ pH264Ctx_19(D)->SPS, pH264Ctx_19(D)->SPS
	mov	r7, #1	@ tmp227,
	ldrb	r3, [r6, #555]	@ zero_extendqisi2	@ D.40145, pH264Ctx_19(D)->CurrPic.structure
	mla	r1, r4, ip, r1	@ tmp217, tmp216, pH264Ctx_19(D)->CurrSlice.pic_parameter_set_id, pH264Ctx_19(D)->PPS
	cmp	r3, #0	@ D.40145,
	ldr	r1, [r1, #28]	@ _24->seq_parameter_set_id, _24->seq_parameter_set_id
	mla	r2, lr, r1, r2	@ tmp224, tmp223, _24->seq_parameter_set_id, pH264Ctx_19(D)->SPS
	add	lr, r0, #24576	@ tmp317, pH264Ctx,
	ldr	r2, [r2, #2904]	@ pSPS_27->log2_max_frame_num_minus4, pSPS_27->log2_max_frame_num_minus4
	add	r2, r2, #4	@ D.40143, pSPS_27->log2_max_frame_num_minus4,
	mov	r7, r7, asl r2	@ MaxFrameNum, tmp227,
	beq	.L1075	@,
	sub	r5, r3, #1	@ D.40146, D.40145,
	sub	r4, r3, #2	@ D.40146, D.40145,
	ldr	r3, [lr, #2056]	@ pH264Ctx_19(D)->DPB.ref_frames_in_buffer, pH264Ctx_19(D)->DPB.ref_frames_in_buffer
	clz	r5, r5	@ D.40146, D.40146
	clz	r4, r4	@ D.40146, D.40146
	cmp	r3, #0	@ pH264Ctx_19(D)->DPB.ref_frames_in_buffer,
	mov	r5, r5, lsr #5	@ D.40146, D.40146,
	addne	ip, r0, #26368	@ ivtmp.1270, pH264Ctx,
	mov	r4, r4, lsr #5	@ D.40146, D.40146,
	movne	r2, #0	@ i,
	addne	ip, ip, #124	@ ivtmp.1270, ivtmp.1270,
	beq	.L1095	@,
.L1094:
	ldr	r1, [ip, #4]!	@ D.40138, MEM[base: _127, offset: 0B]
	ldrb	r3, [r1, #2]	@ zero_extendqisi2	@ _64->is_reference, _64->is_reference
	cmp	r3, #0	@ _64->is_reference,
	beq	.L1089	@,
	ldr	r3, [r1, #512]	@ D.40143, _64->frame_num
	ldr	r8, [r6, #968]	@ pH264Ctx_19(D)->CurrPic.frame_num, pH264Ctx_19(D)->CurrPic.frame_num
	cmp	r3, r8	@ D.40143, pH264Ctx_19(D)->CurrPic.frame_num
	rsbhi	r3, r7, r3	@ D.40143, MaxFrameNum, D.40143
	str	r3, [r1, #516]	@ D.40143, _64->frame_num_wrap
	ldr	r3, [ip]	@ D.40138, MEM[base: _127, offset: 0B]
	ldrb	r1, [r3, #2]	@ zero_extendqisi2	@ D.40145, _73->is_reference
	tst	r1, #1	@ D.40145,
	beq	.L1092	@,
	ldr	r8, [r3, #436]	@ *_73, *_73
	bic	r8, r8, #-16777216	@ D.40143, *_73,
	bic	r8, r8, #255	@ D.40143, D.40143,
	cmp	r8, #65536	@ D.40143,
	ldreq	r1, [r3, #516]	@ _73->frame_num_wrap, _73->frame_num_wrap
	addeq	r1, r5, r1, lsl #1	@ D.40144, D.40146, _73->frame_num_wrap,
	streq	r1, [r3, #448]	@ D.40144, _73->top_field.pic_num
	ldreq	r3, [ip]	@ D.40138, MEM[base: _127, offset: 0B]
	ldreqb	r1, [r3, #2]	@ zero_extendqisi2	@ D.40145, _147->is_reference
.L1092:
	tst	r1, #2	@ D.40145,
	beq	.L1089	@,
	ldr	r1, [r3, #472]	@ *_148, *_148
	bic	r1, r1, #-16777216	@ D.40143, *_148,
	bic	r1, r1, #255	@ D.40143, D.40143,
	cmp	r1, #65536	@ D.40143,
	ldreq	r1, [r3, #516]	@ _148->frame_num_wrap, _148->frame_num_wrap
	addeq	r1, r4, r1, lsl #1	@ D.40144, D.40146, _148->frame_num_wrap,
	streq	r1, [r3, #484]	@ D.40144, _148->bottom_field.pic_num
.L1089:
	ldr	r3, [lr, #2056]	@ pH264Ctx_19(D)->DPB.ref_frames_in_buffer, pH264Ctx_19(D)->DPB.ref_frames_in_buffer
	add	r2, r2, #1	@ i, i,
	cmp	r3, r2	@ pH264Ctx_19(D)->DPB.ref_frames_in_buffer, i
	bhi	.L1094	@,
.L1095:
	ldr	r3, [lr, #2060]	@ pH264Ctx_19(D)->DPB.ltref_frames_in_buffer, pH264Ctx_19(D)->DPB.ltref_frames_in_buffer
	cmp	r3, #0	@ pH264Ctx_19(D)->DPB.ltref_frames_in_buffer,
	beq	.L1120	@,
	add	r0, r0, #26368	@ ivtmp.1259, pH264Ctx,
	mov	r3, #0	@ i,
	add	r0, r0, #188	@ ivtmp.1259, ivtmp.1259,
.L1100:
	ldr	r1, [r0, #4]!	@ D.40138, MEM[base: _13, offset: 0B]
	add	r3, r3, #1	@ i, i,
	ldrb	r2, [r1, #2]	@ zero_extendqisi2	@ D.40145, _93->is_reference
	cmp	r2, #0	@ D.40145,
	beq	.L1097	@,
	tst	r2, #1	@ D.40145,
	beq	.L1098	@,
	ldr	ip, [r1, #436]	@ *_93, *_93
	bic	ip, ip, #-16777216	@ D.40143, *_93,
	bic	ip, ip, #255	@ D.40143, D.40143,
	cmp	ip, #256	@ D.40143,
	ldreq	r2, [r1, #520]	@ _93->long_term_frame_idx, _93->long_term_frame_idx
	addeq	r2, r5, r2, lsl #1	@ D.40143, D.40146, _93->long_term_frame_idx,
	streq	r2, [r1, #444]	@ D.40143, _93->top_field.long_term_pic_num
	ldreq	r1, [r0]	@ D.40138, MEM[base: _13, offset: 0B]
	ldreqb	r2, [r1, #2]	@ zero_extendqisi2	@ D.40145, _7->is_reference
.L1098:
	tst	r2, #2	@ D.40145,
	beq	.L1097	@,
	ldr	r2, [r1, #472]	@ *_1, *_1
	bic	r2, r2, #-16777216	@ D.40143, *_1,
	bic	r2, r2, #255	@ D.40143, D.40143,
	cmp	r2, #256	@ D.40143,
	ldreq	r2, [r1, #520]	@ _1->long_term_frame_idx, _1->long_term_frame_idx
	addeq	r2, r4, r2, lsl #1	@ D.40143, D.40146, _1->long_term_frame_idx,
	streq	r2, [r1, #480]	@ D.40143, _1->bottom_field.long_term_pic_num
.L1097:
	ldr	r2, [lr, #2060]	@ pH264Ctx_19(D)->DPB.ltref_frames_in_buffer, pH264Ctx_19(D)->DPB.ltref_frames_in_buffer
	cmp	r2, r3	@ pH264Ctx_19(D)->DPB.ltref_frames_in_buffer, i
	bhi	.L1100	@,
	ldmfd	sp!, {r4, r5, r6, r7, r8, pc}	@
.L1075:
	ldr	r2, [lr, #2056]	@ pH264Ctx_19(D)->DPB.ref_frames_in_buffer, pH264Ctx_19(D)->DPB.ref_frames_in_buffer
	cmp	r2, #0	@ pH264Ctx_19(D)->DPB.ref_frames_in_buffer,
	addne	r1, r0, #26368	@ ivtmp.1248, pH264Ctx,
	addne	r1, r1, #124	@ ivtmp.1248, ivtmp.1248,
	bne	.L1084	@,
.L1085:
	ldr	r3, [lr, #2060]	@ pH264Ctx_19(D)->DPB.ltref_frames_in_buffer, pH264Ctx_19(D)->DPB.ltref_frames_in_buffer
	cmp	r3, #0	@ pH264Ctx_19(D)->DPB.ltref_frames_in_buffer,
	beq	.L1121	@,
	add	r0, r0, #26368	@ ivtmp.1237, pH264Ctx,
	mov	r3, #0	@ i,
	add	r0, r0, #188	@ ivtmp.1237, ivtmp.1237,
	b	.L1087	@
.L1086:
	ldr	r2, [lr, #2060]	@ pH264Ctx_19(D)->DPB.ltref_frames_in_buffer, pH264Ctx_19(D)->DPB.ltref_frames_in_buffer
	cmp	r2, r3	@ pH264Ctx_19(D)->DPB.ltref_frames_in_buffer, i
	bls	.L1122	@,
.L1087:
	ldr	r2, [r0, #4]!	@ D.40138, MEM[base: _17, offset: 0B]
	add	r3, r3, #1	@ i, i,
	ldrb	r1, [r2, #2]	@ zero_extendqisi2	@ _55->is_reference, _55->is_reference
	cmp	r1, #3	@ _55->is_reference,
	bne	.L1086	@,
	ldr	r1, [r2, #400]	@ *_55, *_55
	bic	r1, r1, #-16777216	@ D.40143, *_55,
	bic	r1, r1, #255	@ D.40143, D.40143,
	cmp	r1, #256	@ D.40143,
	ldreq	r1, [r2, #520]	@ _55->long_term_frame_idx, _55->long_term_frame_idx
	streq	r1, [r2, #408]	@ _55->long_term_frame_idx, _55->frame.long_term_pic_num
	ldr	r2, [lr, #2060]	@ pH264Ctx_19(D)->DPB.ltref_frames_in_buffer, pH264Ctx_19(D)->DPB.ltref_frames_in_buffer
	cmp	r2, r3	@ pH264Ctx_19(D)->DPB.ltref_frames_in_buffer, i
	bhi	.L1087	@,
.L1122:
	ldmfd	sp!, {r4, r5, r6, r7, r8, pc}	@
.L1123:
	ldr	ip, [r2, #400]	@ *_39, *_39
	bic	ip, ip, #-16777216	@ D.40143, *_39,
	bic	ip, ip, #255	@ D.40143, D.40143,
	cmp	ip, #65536	@ D.40143,
	bne	.L1081	@,
	ldr	ip, [r2, #512]	@ D.40143, _39->frame_num
	ldr	r4, [r6, #968]	@ pH264Ctx_19(D)->CurrPic.frame_num, pH264Ctx_19(D)->CurrPic.frame_num
	rsb	r5, r7, ip	@ D.40143, MaxFrameNum, D.40143
	cmp	ip, r4	@ D.40143, pH264Ctx_19(D)->CurrPic.frame_num
	strhi	r5, [r2, #516]	@ D.40143, _39->frame_num_wrap
	strls	ip, [r2, #516]	@ D.40143, _39->frame_num_wrap
	ldr	r2, [r1]	@ D.40138, MEM[base: _122, offset: 0B]
	ldr	ip, [r2, #516]	@ _50->frame_num_wrap, _50->frame_num_wrap
	str	ip, [r2, #412]	@ _50->frame_num_wrap, _50->frame.pic_num
.L1081:
	ldr	r2, [lr, #2056]	@ pH264Ctx_19(D)->DPB.ref_frames_in_buffer, pH264Ctx_19(D)->DPB.ref_frames_in_buffer
	add	r3, r3, #1	@ i, i,
	cmp	r2, r3	@ pH264Ctx_19(D)->DPB.ref_frames_in_buffer, i
	bls	.L1085	@,
.L1084:
	ldr	r2, [r1, #4]!	@ D.40138, MEM[base: _122, offset: 0B]
	ldrb	ip, [r2, #2]	@ zero_extendqisi2	@ _39->is_reference, _39->is_reference
	cmp	ip, #3	@ _39->is_reference,
	bne	.L1081	@,
	b	.L1123	@
.L1121:
	ldmfd	sp!, {r4, r5, r6, r7, r8, pc}	@
.L1120:
	ldmfd	sp!, {r4, r5, r6, r7, r8, pc}	@
	.fnend
	.size	CalcPicNum, .-CalcPicNum
	.align	2
	.global	IsOutDPB
	.type	IsOutDPB, %function
IsOutDPB:
	.fnstart
	@ args = 0, pretend = 0, frame = 0
	@ frame_needed = 0, uses_anonymous_args = 0
	@ link register save eliminated.
	cmp	r1, #0	@ pFrameStore
	beq	.L1129	@,
	add	r3, r0, #24576	@ tmp122, pH264Ctx,
	ldr	ip, [r3, #2052]	@ D.40163, pH264Ctx_5(D)->DPB.used_size
	cmp	ip, #0	@ D.40163,
	beq	.L1129	@,
	ldr	r3, [r3, #1856]	@ pH264Ctx_5(D)->DPB.fs, pH264Ctx_5(D)->DPB.fs
	cmp	r3, r1	@ pH264Ctx_5(D)->DPB.fs, pFrameStore
	beq	.L1131	@,
	add	r0, r0, #26368	@ ivtmp.1283, pH264Ctx,
	mov	r3, #0	@ i,
	add	r0, r0, #64	@ ivtmp.1283, ivtmp.1283,
	b	.L1126	@
.L1127:
	ldr	r2, [r0, #4]!	@ MEM[base: _14, offset: 0B], MEM[base: _14, offset: 0B]
	cmp	r2, r1	@ MEM[base: _14, offset: 0B], pFrameStore
	beq	.L1131	@,
.L1126:
	add	r3, r3, #1	@ i, i,
	cmp	r3, ip	@ i, D.40163
	bne	.L1127	@,
.L1129:
	mov	r0, #1	@ D.40161,
	bx	lr	@
.L1131:
	mov	r0, #0	@ D.40161,
	bx	lr	@
	.fnend
	.size	IsOutDPB, .-IsOutDPB
	.align	2
	.global	WritePicMsg
	.type	WritePicMsg, %function
WritePicMsg:
	.fnstart
	@ args = 0, pretend = 0, frame = 0
	@ frame_needed = 0, uses_anonymous_args = 0
	stmfd	sp!, {r3, r4, r5, r6, r7, r8, r9, r10, fp, lr}	@,
	.save {r3, r4, r5, r6, r7, r8, r9, r10, fp, lr}
	add	r5, r0, #49152	@ tmp457, pH264Ctx,
	movw	r2, #49728	@ tmp250,
	mov	r4, r0	@ pH264Ctx, pH264Ctx
	mov	r7, #0	@ tmp245,
	str	r7, [r5, #3612]	@ tmp245, pH264Ctx_21(D)->SliceParaNum
	ldrd	r0, [r0, r2]	@ pH264Ctx_21(D)->CurrPic.fs_image.PTS, pH264Ctx, tmp250
	movw	r3, #51376	@ tmp247,
	add	r9, r4, #12288	@ tmp460, pH264Ctx,
	add	r8, r4, #16384	@ tmp458, pH264Ctx,
	strd	r0, [r4, r3]	@ pH264Ctx_21(D)->CurrPic.fs_image.PTS, pH264Ctx, tmp247
	ldr	r0, [r5, #3608]	@ pH264Ctx_21(D)->DecSlicePara, pH264Ctx_21(D)->DecSlicePara
	ldr	r1, [r5, #740]	@ pH264Ctx_21(D)->CurrPic.fs_image.image_stride, pH264Ctx_21(D)->CurrPic.fs_image.image_stride
	ldr	r2, [r5, #976]	@ pH264Ctx_21(D)->CurrPic.nal_ref_idc, pH264Ctx_21(D)->CurrPic.nal_ref_idc
	ldrb	r3, [r5, #555]	@ zero_extendqisi2	@ pH264Ctx_21(D)->CurrPic.structure, pH264Ctx_21(D)->CurrPic.structure
	str	r0, [r5, #3340]	@ pH264Ctx_21(D)->DecSlicePara, pH264Ctx_21(D)->DecPicPara.pFirstSlice
	str	r1, [r5, #3128]	@ pH264Ctx_21(D)->CurrPic.fs_image.image_stride, pH264Ctx_21(D)->DecPicPara.imgstride
	strb	r3, [r5, #2216]	@ pH264Ctx_21(D)->CurrPic.structure, pH264Ctx_21(D)->DecPicPara.pic_structure
	str	r2, [r5, #2232]	@ pH264Ctx_21(D)->CurrPic.nal_ref_idc, pH264Ctx_21(D)->DecPicPara.nal_ref_idc
	ldr	r1, [r5, #1012]	@ pH264Ctx_21(D)->CurrPic.pic_height_in_mb, pH264Ctx_21(D)->CurrPic.pic_height_in_mb
	ldrb	r2, [r9, #1319]	@ zero_extendqisi2	@ pH264Ctx_21(D)->CurrSPS.mb_adaptive_frame_field_flag, pH264Ctx_21(D)->CurrSPS.mb_adaptive_frame_field_flag
	ldr	r3, [r5, #1016]	@ pH264Ctx_21(D)->CurrPic.frame_height_in_mb, pH264Ctx_21(D)->CurrPic.frame_height_in_mb
	str	r1, [r5, #2236]	@ pH264Ctx_21(D)->CurrPic.pic_height_in_mb, pH264Ctx_21(D)->DecPicPara.pic_height_in_mb
	str	r2, [r5, #2248]	@ pH264Ctx_21(D)->CurrSPS.mb_adaptive_frame_field_flag, pH264Ctx_21(D)->DecPicPara.mb_adaptive_frame_field_flag
	str	r3, [r5, #2240]	@ pH264Ctx_21(D)->CurrPic.frame_height_in_mb, pH264Ctx_21(D)->DecPicPara.frame_height_in_mb
	ldr	r3, [r8, #1160]	@ pH264Ctx_21(D)->CurrSPS.pic_width_in_mbs_minus1, pH264Ctx_21(D)->CurrSPS.pic_width_in_mbs_minus1
	add	r3, r3, #1	@ D.40334, pH264Ctx_21(D)->CurrSPS.pic_width_in_mbs_minus1,
	str	r3, [r5, #2244]	@ D.40334, pH264Ctx_21(D)->DecPicPara.pic_width_in_mb
	ldrb	r3, [r9, #1318]	@ zero_extendqisi2	@ pH264Ctx_21(D)->CurrSPS.frame_mbs_only_flag, pH264Ctx_21(D)->CurrSPS.frame_mbs_only_flag
	strb	r3, [r5, #2219]	@ pH264Ctx_21(D)->CurrSPS.frame_mbs_only_flag, pH264Ctx_21(D)->DecPicPara.frame_mbs_only_flag
	ldr	r3, [r8, #1264]	@ pH264Ctx_21(D)->CurrPPS.transform_8x8_mode_flag, pH264Ctx_21(D)->CurrPPS.transform_8x8_mode_flag
	str	r3, [r5, #2252]	@ pH264Ctx_21(D)->CurrPPS.transform_8x8_mode_flag, pH264Ctx_21(D)->DecPicPara.transform_8x8_mode_flag
	ldrb	r3, [r8, #1204]	@ zero_extendqisi2	@ pH264Ctx_21(D)->CurrPPS.entropy_coding_mode_flag, pH264Ctx_21(D)->CurrPPS.entropy_coding_mode_flag
	str	r3, [r5, #2256]	@ pH264Ctx_21(D)->CurrPPS.entropy_coding_mode_flag, pH264Ctx_21(D)->DecPicPara.entropy_coding_mode_flag
	ldr	r3, [r9, #2048]	@ pH264Ctx_21(D)->CurrSPS.chroma_format_idc, pH264Ctx_21(D)->CurrSPS.chroma_format_idc
	strb	r3, [r5, #2217]	@ pH264Ctx_21(D)->CurrSPS.chroma_format_idc, pH264Ctx_21(D)->DecPicPara.chroma_format_idc
	ldrb	r3, [r8, #1208]	@ zero_extendqisi2	@ pH264Ctx_21(D)->CurrPPS.constrained_intra_pred_flag, pH264Ctx_21(D)->CurrPPS.constrained_intra_pred_flag
	str	r3, [r5, #2260]	@ pH264Ctx_21(D)->CurrPPS.constrained_intra_pred_flag, pH264Ctx_21(D)->DecPicPara.constrained_intra_pred_flag
	ldr	r3, [r8, #3456]	@ pH264Ctx_21(D)->CurrPOC.ThisPOC, pH264Ctx_21(D)->CurrPOC.ThisPOC
	str	r3, [r5, #2264]	@ pH264Ctx_21(D)->CurrPOC.ThisPOC, pH264Ctx_21(D)->DecPicPara.ThisPoc
	ldr	r3, [r8, #3444]	@ pH264Ctx_21(D)->CurrPOC.toppoc, pH264Ctx_21(D)->CurrPOC.toppoc
	str	r3, [r5, #2268]	@ pH264Ctx_21(D)->CurrPOC.toppoc, pH264Ctx_21(D)->DecPicPara.TopPoc
	ldr	r2, [r8, #3448]	@ pH264Ctx_21(D)->CurrPOC.bottompoc, pH264Ctx_21(D)->CurrPOC.bottompoc
	ldr	r3, [r5, #960]	@ pH264Ctx_21(D)->CurrPic.frame_store, pH264Ctx_21(D)->CurrPic.frame_store
	ldr	r0, [r5, #3688]	@, pH264Ctx_21(D)->ChanID
	str	r2, [r5, #2272]	@ pH264Ctx_21(D)->CurrPOC.bottompoc, pH264Ctx_21(D)->DecPicPara.BottomPoc
	ldr	r1, [r3, #508]	@, _63->logic_fs_id
	bl	FSP_GetLogicFs	@
	subs	r10, r0, #0	@ pstLogicFs,
	beq	.L1153	@,
	ldr	r3, [r10, #408]	@ pstLogicFs_66->pstDecodeFs, pstLogicFs_66->pstDecodeFs
	cmp	r3, r7	@ pstLogicFs_66->pstDecodeFs,
	beq	.L1153	@,
	ldr	r3, [r10, #412]	@ pstLogicFs_66->pstDispOutFs, pstLogicFs_66->pstDispOutFs
	cmp	r3, r7	@ pstLogicFs_66->pstDispOutFs,
	beq	.L1153	@,
	add	r3, r4, #51712	@, pH264Ctx,
	add	r2, r4, #51456	@, pH264Ctx,
	add	r1, r4, #51968	@, pH264Ctx,
	add	r3, r3, #220	@,,
	add	r2, r2, #220	@,,
	add	r1, r1, #220	@,,
	ldr	r0, [r5, #3688]	@, pH264Ctx_21(D)->ChanID
	add	r6, r4, #24576	@ tmp459, pH264Ctx,
	bl	FSP_GetDecFsAddrTab	@
	ldr	r3, [r10, #408]	@ pstLogicFs_66->pstDecodeFs, pstLogicFs_66->pstDecodeFs
	add	r2, r4, #51968	@, pH264Ctx,
	add	r1, r4, #52224	@, pH264Ctx,
	ldr	r0, [r5, #3688]	@, pH264Ctx_21(D)->ChanID
	add	r2, r2, #224	@,,
	ldr	r3, [r3, #4]	@ _75->PhyFsID, _75->PhyFsID
	add	r1, r1, #48	@,,
	str	r3, [r5, #2508]	@ _75->PhyFsID, pH264Ctx_21(D)->DecPicPara.CurrPicImgIdc
	bl	FSP_GetPmvAddrTab	@
	ldr	r3, [r5, #1028]	@ pH264Ctx_21(D)->CurrPic.pmv_address_idc, pH264Ctx_21(D)->CurrPic.pmv_address_idc
	str	r3, [r5, #2516]	@ pH264Ctx_21(D)->CurrPic.pmv_address_idc, pH264Ctx_21(D)->DecPicPara.CurrPicPmvIdc
	ldr	r3, [r10, #424]	@ pstLogicFs_66->HalfPmvOffset, pstLogicFs_66->HalfPmvOffset
	str	r3, [r5, #3124]	@ pstLogicFs_66->HalfPmvOffset, pH264Ctx_21(D)->DecPicPara.half_pmvblk_offset
	ldr	r3, [r10, #412]	@ pstLogicFs_66->pstDispOutFs, pstLogicFs_66->pstDispOutFs
	ldr	r3, [r3, #12]	@ _88->PhyAddr, _88->PhyAddr
	str	r3, [r5, #2512]	@ _88->PhyAddr, pH264Ctx_21(D)->DecPicPara.CurrPicImg2DAddr
	ldr	r3, [r10, #412]	@ pstLogicFs_66->pstDispOutFs, pstLogicFs_66->pstDispOutFs
	ldr	r3, [r3, #32]	@ _92->ChromOffset, _92->ChromOffset
	str	r3, [r5, #2520]	@ _92->ChromOffset, pH264Ctx_21(D)->DecPicPara.uv_offset
	ldr	r0, [r6, #2324]	@ D.40334, pH264Ctx_21(D)->APC.size
	cmp	r0, r7	@ D.40334,
	str	r0, [r5, #3332]	@ D.40334, pH264Ctx_21(D)->DecPicPara.ApcSize
	beq	.L1138	@,
	add	fp, r4, #26624	@ ivtmp.1411, pH264Ctx,
	add	r10, r4, #52224	@ ivtmp.1420, pH264Ctx,
	mov	r3, r7	@ i, tmp245
	mov	lr, fp	@ ivtmp.1427, ivtmp.1411
	mov	ip, r10	@ ivtmp.1434, ivtmp.1420
	mov	r1, fp	@ ivtmp.1441, ivtmp.1427
	mov	r2, r10	@ ivtmp.1448, ivtmp.1434
	add	fp, fp, #80	@ ivtmp.1411, ivtmp.1411,
	add	r10, r10, #64	@ ivtmp.1420, ivtmp.1420,
	add	lr, lr, #144	@ ivtmp.1427, ivtmp.1427,
	add	ip, ip, #128	@ ivtmp.1434, ivtmp.1434,
	add	r1, r1, #208	@ ivtmp.1441, ivtmp.1441,
	add	r2, r2, #192	@ ivtmp.1448, ivtmp.1448,
.L1137:
	ldr	r7, [fp, #4]!	@ D.40334, MEM[base: _224, offset: 0B]
	add	r3, r3, #1	@ i, i,
	cmp	r3, r0	@ i, D.40334
	str	r7, [r10, #4]!	@ D.40334, MEM[base: _225, offset: 0B]
	ldr	r7, [lr, #4]!	@ D.40334, MEM[base: _226, offset: 0B]
	str	r7, [ip, #4]!	@ D.40334, MEM[base: _227, offset: 0B]
	ldr	r7, [r1, #4]!	@ D.40334, MEM[base: _228, offset: 0B]
	str	r7, [r2, #4]!	@ D.40334, MEM[base: _229, offset: 0B]
	bne	.L1137	@,
.L1138:
	ldrb	r3, [r9, #1325]	@ zero_extendqisi2	@ pH264Ctx_21(D)->CurrSPS.seq_scaling_matrix_present_flag, pH264Ctx_21(D)->CurrSPS.seq_scaling_matrix_present_flag
	cmp	r3, #0	@ pH264Ctx_21(D)->CurrSPS.seq_scaling_matrix_present_flag,
	bne	.L1166	@,
	ldrb	r3, [r8, #1222]	@ zero_extendqisi2	@ D.40331, pH264Ctx_21(D)->CurrPPS.pic_scaling_matrix_present_flag
	cmp	r3, #0	@ D.40331,
	bne	.L1139	@,
	add	r2, r4, #51200	@ ivtmp.1344, pH264Ctx,
	ldr	ip, .L1167	@ tmp456,
	add	r2, r2, #224	@ ivtmp.1344, ivtmp.1344,
.L1140:
	and	r1, r3, #3	@ D.40334, i,
	add	r3, r3, #1	@ i, i,
	cmp	r3, #24	@ i,
	ldr	r1, [ip, r1, asl #2]	@ D.40334, quant_org
	str	r1, [r2, #4]!	@ D.40334, MEM[base: _11, offset: 0B]
	bne	.L1140	@,
	add	r1, r4, #51456	@ ivtmp.1330, pH264Ctx,
	mov	r3, #0	@ i,
	add	r1, r1, #64	@ ivtmp.1330, ivtmp.1330,
.L1141:
	and	r2, r3, #15	@ D.40334, i,
	add	r3, r3, #1	@ i, i,
	cmp	r3, #32	@ i,
	add	r2, ip, r2, lsl #2	@ tmp403, tmp456, D.40334,
	ldr	r2, [r2, #16]	@ D.40334, quant8_org
	str	r2, [r1, #4]!	@ D.40334, MEM[base: _175, offset: 0B]
	bne	.L1141	@,
.L1146:
	cmp	r0, #0	@ D.40334,
	beq	.L1143	@,
	add	r9, r4, #52480	@ ivtmp.1305, pH264Ctx,
	add	r7, r4, #26624	@ ivtmp.1295, pH264Ctx,
	add	r7, r7, #84	@ ivtmp.1295, ivtmp.1295,
	mov	r8, #0	@ i,
	mov	r4, r9	@ ivtmp.1318, ivtmp.1305
	add	r9, r9, #140	@ ivtmp.1305, ivtmp.1305,
	add	r4, r4, #204	@ ivtmp.1318, ivtmp.1318,
.L1149:
	ldr	r2, [r7]	@, MEM[base: _18, offset: 0B]
	mov	r1, #0	@,
	ldr	r0, [r5, #3688]	@, pH264Ctx_21(D)->ChanID
	add	r8, r8, #1	@ i, i,
	bl	FSP_GetStoreType	@
	adds	r0, r0, #0	@ D.40342,,
	movne	r0, #1	@ D.40342,
	str	r0, [r9, #4]!	@ D.40342, MEM[base: _16, offset: 0B]
	ldr	r3, [r7], #4	@ D.40334, MEM[base: _18, offset: 0B]
	str	r3, [r4, #4]!	@ D.40334, MEM[base: _13, offset: 0B]
	ldr	r3, [r6, #2324]	@ pH264Ctx_21(D)->APC.size, pH264Ctx_21(D)->APC.size
	cmp	r3, r8	@ pH264Ctx_21(D)->APC.size, i
	bhi	.L1149	@,
.L1143:
	mov	r0, #0	@ D.40330,
	ldmfd	sp!, {r3, r4, r5, r6, r7, r8, r9, r10, fp, pc}	@
.L1166:
	ldrb	r3, [r8, #1222]	@ zero_extendqisi2	@ D.40331, pH264Ctx_21(D)->CurrPPS.pic_scaling_matrix_present_flag
.L1139:
	cmp	r3, #1	@ D.40331,
	add	r1, r4, #51200	@ ivtmp.1372, pH264Ctx,
	mov	r2, #0	@ i,
	add	r1, r1, #224	@ ivtmp.1372, ivtmp.1372,
	beq	.L1144	@,
.L1147:
	add	r3, r2, #4064	@ tmp427, i,
	add	r2, r2, #1	@ i, i,
	add	r3, r3, #2	@ tmp427, tmp427,
	cmp	r2, #24	@ i,
	add	r3, r4, r3, lsl #2	@ tmp428, pH264Ctx, tmp427,
	ldr	r3, [r3, #4]	@ D.40334, pH264Ctx_21(D)->CurrSPS.qmatrix4x4
	str	r3, [r1, #4]!	@ D.40334, MEM[base: _201, offset: 0B]
	bne	.L1147	@,
	add	r1, r4, #51456	@ ivtmp.1386, pH264Ctx,
	mov	r2, #0	@ i,
	add	r1, r1, #64	@ ivtmp.1386, ivtmp.1386,
.L1148:
	add	r3, r2, #4080	@ tmp436, i,
	add	r2, r2, #1	@ i, i,
	add	r3, r3, #10	@ tmp436, tmp436,
	cmp	r2, #32	@ i,
	add	r3, r4, r3, lsl #2	@ tmp437, pH264Ctx, tmp436,
	ldr	r3, [r3, #4]	@ D.40334, pH264Ctx_21(D)->CurrSPS.qmatrix8x8
	str	r3, [r1, #4]!	@ D.40334, MEM[base: _199, offset: 0B]
	bne	.L1148	@,
	b	.L1146	@
.L1144:
	add	r3, r2, #4864	@ tmp410, i,
	add	r2, r2, #1	@ i, i,
	add	r3, r3, #28	@ tmp410, tmp410,
	cmp	r2, #24	@ i,
	add	r3, r4, r3, lsl #2	@ tmp411, pH264Ctx, tmp410,
	ldr	r3, [r3, #4]	@ D.40334, pH264Ctx_21(D)->CurrPPS.qmatrix4x4
	str	r3, [r1, #4]!	@ D.40334, MEM[base: _178, offset: 0B]
	bne	.L1144	@,
	add	r1, r4, #51456	@ ivtmp.1358, pH264Ctx,
	mov	r2, #0	@ i,
	add	r1, r1, #64	@ ivtmp.1358, ivtmp.1358,
.L1145:
	add	r3, r2, #4864	@ tmp419, i,
	add	r2, r2, #1	@ i, i,
	add	r3, r3, #52	@ tmp419, tmp419,
	cmp	r2, #32	@ i,
	add	r3, r4, r3, lsl #2	@ tmp420, pH264Ctx, tmp419,
	ldr	r3, [r3, #4]	@ D.40334, pH264Ctx_21(D)->CurrPPS.qmatrix8x8
	str	r3, [r1, #4]!	@ D.40334, MEM[base: _1, offset: 0B]
	bne	.L1145	@,
	b	.L1146	@
.L1153:
	mvn	r0, #0	@ D.40330,
	ldmfd	sp!, {r3, r4, r5, r6, r7, r8, r9, r10, fp, pc}	@
.L1168:
	.align	2
.L1167:
	.word	.LANCHOR0
	.fnend
	.size	WritePicMsg, .-WritePicMsg
	.align	2
	.global	UpdatePicQpInf
	.type	UpdatePicQpInf, %function
UpdatePicQpInf:
	.fnstart
	@ args = 0, pretend = 0, frame = 0
	@ frame_needed = 0, uses_anonymous_args = 0
	@ link register save eliminated.
	ldr	r2, [r1, #28]	@ pCurPic_2(D)->MaxQp, pCurPic_2(D)->MaxQp
	ldr	r3, [r1, #32]	@ pCurPic_2(D)->MinQp, pCurPic_2(D)->MinQp
	cmp	r2, r0	@ pCurPic_2(D)->MaxQp, SlcQp
	movlt	r2, r0	@ D.40345, SlcQp
	cmp	r3, r0	@ pCurPic_2(D)->MinQp, SlcQp
	str	r2, [r1, #28]	@ D.40345, pCurPic_2(D)->MaxQp
	movge	r3, r0	@ D.40345, SlcQp
	str	r3, [r1, #32]	@ D.40345, pCurPic_2(D)->MinQp
	bx	lr	@
	.fnend
	.size	UpdatePicQpInf, .-UpdatePicQpInf
	.align	2
	.global	WriteSliceMsg
	.type	WriteSliceMsg, %function
WriteSliceMsg:
	.fnstart
	@ args = 0, pretend = 0, frame = 24
	@ frame_needed = 0, uses_anonymous_args = 0
	stmfd	sp!, {r4, r5, r6, r7, r8, r9, r10, fp, lr}	@,
	.save {r4, r5, r6, r7, r8, r9, r10, fp, lr}
	add	r10, r0, #49152	@ tmp850, pH264Ctx,
	add	r5, r0, #12288	@ tmp849, pH264Ctx,
	.pad #28
	sub	sp, sp, #28	@,,
	ldr	r3, [r10, #3612]	@ CurrSliceSlotNum, pH264Ctx_42(D)->SliceParaNum
	movw	ip, #4060	@ tmp490,
	ldr	lr, [r10, #3608]	@ D.40943, pH264Ctx_42(D)->DecSlicePara
	mov	r4, r0	@ pH264Ctx, pH264Ctx
	mov	r2, r3	@ CurrSliceSlotNum, CurrSliceSlotNum
	str	r3, [sp, #8]	@ CurrSliceSlotNum, %sfp
	mul	ip, ip, r2	@ D.40942, tmp490, CurrSliceSlotNum
	add	r3, r3, #1	@ D.40942, CurrSliceSlotNum,
	str	r3, [r10, #3612]	@ D.40942, pH264Ctx_42(D)->SliceParaNum
	ldr	r3, [r5, #1280]	@ pH264Ctx_42(D)->MaxSliceNum, pH264Ctx_42(D)->MaxSliceNum
	add	r9, lr, ip	@ pCurrSlicePara, D.40943, D.40942
	sub	r3, r3, #1	@ D.40944, pH264Ctx_42(D)->MaxSliceNum,
	cmp	r2, r3	@ CurrSliceSlotNum, D.40944
	addcc	r1, ip, #4048	@ D.40945, D.40942,
	addcc	r1, r1, #12	@ D.40945, D.40945,
	movcs	r1, #0	@ tmp498,
	addcc	r1, lr, r1	@ D.40943, D.40943, D.40945
	str	r1, [r9, #4056]	@ tmp498, pCurrSlicePara_48->pNextSlice
	ldr	r0, [r0, #368]	@ D.40947, pH264Ctx_42(D)->pCurrNal
	ldrb	r6, [r0]	@ zero_extendqisi2	@ i, _56->nal_used_segment
	ldr	r1, [r0, #68]	@ i, _56->nal_segment
	cmp	r6, #1	@ i,
	cmpls	r6, r1	@, i, i
	bcs	.L1173	@,
	add	r7, r6, #3	@ D.40945, i,
	add	r7, r9, r7, lsl #2	@ ivtmp.2026, pCurrSlicePara, D.40945,
.L1174:
	mov	r3, r6, asl #5	@ tmp510, i,
	sub	r3, r3, r6, asl #2	@ tmp511, tmp510, i,
	add	r6, r6, #1	@ i, i,
	add	r0, r0, r3	@ tmp512, D.40947, tmp511
	ldr	r2, [r0, #24]	@ D.40942, _491->stream[i_465].bitsoffset
	str	r2, [r7, #4]!	@ D.40942, MEM[base: _692, offset: 0B]
	ldr	r2, [r4, #368]	@ pH264Ctx_42(D)->pCurrNal, pH264Ctx_42(D)->pCurrNal
	add	r2, r2, r3	@ tmp519, pH264Ctx_42(D)->pCurrNal, tmp511
	ldr	r2, [r2, #20]	@ D.40942, _63->stream[i_465].valid_bitlen
	str	r2, [r7, #-8]	@ D.40942, MEM[base: _692, offset: 4294967288B]
	ldr	r2, [r4, #368]	@ pH264Ctx_42(D)->pCurrNal, pH264Ctx_42(D)->pCurrNal
	add	r3, r2, r3	@ tmp526, pH264Ctx_42(D)->pCurrNal, tmp511
	ldr	r3, [r3, #28]	@ D.40942, _66->stream[i_465].bytespos
	str	r3, [r7, #8]	@ D.40942, MEM[base: _692, offset: 8B]
	ldr	r0, [r4, #368]	@ D.40947, pH264Ctx_42(D)->pCurrNal
	ldr	r1, [r0, #68]	@ i, _59->nal_segment
	cmp	r1, r6	@ i, i
	movhi	r3, #1	@ tmp534,
	movls	r3, #0	@ tmp534,
	cmp	r6, #1	@ i,
	movhi	r3, #0	@ tmp534,
	cmp	r3, #0	@ tmp534,
	bne	.L1174	@,
.L1173:
	cmp	r1, #1	@ i,
	bhi	.L1179	@,
	add	r1, r1, #3	@ D.40945, i,
	add	r6, r9, #20	@ D.40954, pCurrSlicePara,
	mov	r0, #0	@ tmp859,
	add	r1, r9, r1, lsl #2	@ ivtmp.2000, pCurrSlicePara, D.40945,
.L1178:
	str	r0, [r1, #4]!	@ tmp859, MEM[base: _682, offset: 0B]
	cmp	r1, r6	@ ivtmp.2000, D.40954
	str	r0, [r1, #-8]	@ tmp859, MEM[base: _682, offset: 4294967288B]
	str	r0, [r1, #8]	@ tmp859, MEM[base: _682, offset: 8B]
	bne	.L1178	@,
.L1179:
	ldrb	r1, [r10, #561]	@ zero_extendqisi2	@ D.40946, pH264Ctx_42(D)->CurrPic.MbaffFrameFlag
	add	r3, r4, #16384	@ tmp847, pH264Ctx,
	add	r7, r4, #20480	@ tmp848, pH264Ctx,
	ldr	r2, [sp, #8]	@ CurrSliceSlotNum, %sfp
	str	r3, [sp, #4]	@ tmp847, %sfp
	strb	r1, [r9, #1]	@ D.40946, pCurrSlicePara_48->MbaffFrameFlag
	cmp	r2, #0	@ CurrSliceSlotNum,
	ldr	r1, [r3, #1252]	@ pH264Ctx_42(D)->CurrPPS.pic_init_qp_minus26, pH264Ctx_42(D)->CurrPPS.pic_init_qp_minus26
	ldr	r0, [r7, #1812]	@ pH264Ctx_42(D)->CurrSlice.slice_qp_delta, pH264Ctx_42(D)->CurrSlice.slice_qp_delta
	add	r1, r1, #26	@ D.40944, pH264Ctx_42(D)->CurrPPS.pic_init_qp_minus26,
	add	r1, r1, r0	@ D.40944, D.40944, pH264Ctx_42(D)->CurrSlice.slice_qp_delta
	str	r1, [r9, #32]	@ D.40944, pCurrSlicePara_48->SliceQPy
	bne	.L1276	@,
	ldr	r0, [r10, #960]	@ D.40948, pH264Ctx_42(D)->CurrPic.frame_store
	str	r1, [r0, #428]	@ D.40944, _83->frame.MaxQp
	ldr	r1, [r10, #960]	@ D.40948, pH264Ctx_42(D)->CurrPic.frame_store
	ldr	r0, [r9, #32]	@ pCurrSlicePara_48->SliceQPy, pCurrSlicePara_48->SliceQPy
	str	r0, [r1, #432]	@ pCurrSlicePara_48->SliceQPy, _85->frame.MinQp
.L1180:
	ldr	r1, [r7, #1808]	@ D.40942, pH264Ctx_42(D)->CurrSlice.cabac_init_idc
	str	r1, [r9, #36]	@ D.40942, pCurrSlicePara_48->cabac_init_idc
	ldr	r1, [r7, #260]	@ D.40942, pH264Ctx_42(D)->CurrSlice.num_ref_idx_l1_active_minus1
	str	r1, [r9, #40]	@ D.40942, pCurrSlicePara_48->num_ref_idx_l1_active_minus1
	ldr	r1, [r7, #256]	@ D.40942, pH264Ctx_42(D)->CurrSlice.num_ref_idx_l0_active_minus1
	str	r1, [r9, #44]	@ D.40942, pCurrSlicePara_48->num_ref_idx_l0_active_minus1
	ldrb	r1, [r7, #200]	@ zero_extendqisi2	@ D.40946, pH264Ctx_42(D)->CurrSlice.slice_type
	strb	r1, [lr, ip]	@ D.40946, pCurrSlicePara_48->slice_type
	ldr	r1, [r7, #252]	@ D.40942, pH264Ctx_42(D)->CurrSlice.first_mb_in_slice
	str	r1, [r9, #48]	@ D.40942, pCurrSlicePara_48->first_mb_in_slice
	ldrb	r1, [r7, #206]	@ zero_extendqisi2	@ D.40946, pH264Ctx_42(D)->CurrSlice.direct_spatial_mv_pred_flag
	strb	r1, [r9, #2]	@ D.40946, pCurrSlicePara_48->direct_spatial_mv_pred_flag
	ldrb	r1, [r5, #1320]	@ zero_extendqisi2	@ D.40946, pH264Ctx_42(D)->CurrSPS.direct_8x8_inference_flag
	strb	r1, [r9, #3]	@ D.40946, pCurrSlicePara_48->direct_8x8_inference_flag
	ldr	r1, [r7, #244]	@ D.40942, pH264Ctx_42(D)->CurrSlice.listXsize
	str	r1, [r9, #52]	@ D.40942, pCurrSlicePara_48->listXsize
	ldr	r1, [r7, #248]	@ D.40942, pH264Ctx_42(D)->CurrSlice.listXsize
	str	r1, [r9, #56]	@ D.40942, pCurrSlicePara_48->listXsize
	ldrb	r1, [r7, #200]	@ zero_extendqisi2	@ D.40946, pH264Ctx_42(D)->CurrSlice.slice_type
	cmp	r1, #1	@ D.40946,
	beq	.L1277	@,
	cmp	r1, #0	@ D.40946,
	ldreq	r3, [sp, #4]	@ tmp847, %sfp
	movne	r1, #0	@ tmp591,
	ldreqb	r1, [r3, #1206]	@ zero_extendqisi2	@ D.40946, pH264Ctx_42(D)->CurrPPS.weighted_pred_flag
	strb	r1, [r9, #4]	@ tmp591, pCurrSlicePara_48->weight_flag
.L1182:
	ldr	r3, [sp, #4]	@ tmp847, %sfp
	ldr	r1, [r3, #1256]	@ D.40944, pH264Ctx_42(D)->CurrPPS.chroma_qp_index_offset
	str	r1, [r9, #60]	@ D.40944, pCurrSlicePara_48->chroma_qp_index_offset
	ldr	r1, [r3, #1260]	@ D.40944, pH264Ctx_42(D)->CurrPPS.second_chroma_qp_index_offset
	str	r1, [r9, #64]	@ D.40944, pCurrSlicePara_48->second_chroma_qp_index_offset
	ldr	r1, [r7, #1820]	@ D.40944, pH264Ctx_42(D)->CurrSlice.slice_alpha_c0_offset_div2
	str	r1, [r9, #68]	@ D.40944, pCurrSlicePara_48->slice_alpha_c0_offset_div2
	ldr	r1, [r7, #1824]	@ D.40944, pH264Ctx_42(D)->CurrSlice.slice_beta_offset_div2
	str	r1, [r9, #72]	@ D.40944, pCurrSlicePara_48->slice_beta_offset_div2
	ldr	r1, [r7, #1816]	@ D.40942, pH264Ctx_42(D)->CurrSlice.disable_deblocking_filter_idc
	str	r1, [r9, #76]	@ D.40942, pCurrSlicePara_48->disable_deblocking_filter_idc
	ldrb	r1, [r7, #200]	@ zero_extendqisi2	@ pH264Ctx_42(D)->CurrSlice.slice_type, pH264Ctx_42(D)->CurrSlice.slice_type
	cmp	r1, #2	@ pH264Ctx_42(D)->CurrSlice.slice_type,
	beq	.L1221	@,
	ldr	r8, [r7, #244]	@ D.40942, pH264Ctx_42(D)->CurrSlice.listXsize
	cmp	r8, #0	@ D.40942,
	beq	.L1224	@,
	add	r1, r4, #24576	@ tmp614, pH264Ctx,
	ldr	r1, [r1, #2460]	@ pH264Ctx_42(D)->pListX, pH264Ctx_42(D)->pListX
	ldr	ip, [r1, #4]	@ D.40950, _453->frame_store
	ldrb	r1, [ip]	@ zero_extendqisi2	@ _454->non_existing, _454->non_existing
	cmp	r1, #0	@ _454->non_existing,
	addne	r0, r4, #26880	@ ivtmp.1988, pH264Ctx,
	movne	r1, #0	@ i,
	addne	r0, r0, #156	@ ivtmp.1988, ivtmp.1988,
	bne	.L1189	@,
	b	.L1187	@
.L1191:
	ldr	r3, [r0, #4]!	@ MEM[base: _675, offset: 0B], MEM[base: _675, offset: 0B]
	ldr	ip, [r3, #4]	@ D.40950, _128->frame_store
	ldrb	r3, [ip]	@ zero_extendqisi2	@ _129->non_existing, _129->non_existing
	cmp	r3, #0	@ _129->non_existing,
	beq	.L1187	@,
.L1189:
	add	r1, r1, #1	@ i, i,
	cmp	r1, r8	@ i, D.40942
	bne	.L1191	@,
	mov	r3, #0	@ ExistImgIdc_0,
	str	r3, [sp, #12]	@ ExistImgIdc_0, %sfp
.L1186:
	ldr	r3, [r7, #248]	@ D.40942, pH264Ctx_42(D)->CurrSlice.listXsize
	cmp	r3, #0	@ D.40942,
	beq	.L1225	@,
	add	r1, r4, #24576	@ tmp628, pH264Ctx,
	ldr	r1, [r1, #2592]	@ pH264Ctx_42(D)->pListX, pH264Ctx_42(D)->pListX
	ldr	ip, [r1, #4]	@ D.40950, _448->frame_store
	ldrb	r1, [ip]	@ zero_extendqisi2	@ _449->non_existing, _449->non_existing
	cmp	r1, #0	@ _449->non_existing,
	addne	r0, r4, #27136	@ ivtmp.1977, pH264Ctx,
	movne	r1, #0	@ i,
	addne	r0, r0, #32	@ ivtmp.1977, ivtmp.1977,
	bne	.L1195	@,
	b	.L1193	@
.L1197:
	ldr	r2, [r0, #4]!	@ MEM[base: _670, offset: 0B], MEM[base: _670, offset: 0B]
	ldr	ip, [r2, #4]	@ D.40950, _141->frame_store
	ldrb	r2, [ip]	@ zero_extendqisi2	@ _142->non_existing, _142->non_existing
	cmp	r2, #0	@ _142->non_existing,
	beq	.L1193	@,
.L1195:
	add	r1, r1, #1	@ i, i,
	cmp	r1, r3	@ i, D.40942
	bne	.L1197	@,
	mov	r3, #0	@ ExistImgIdc_1,
	str	r3, [sp, #16]	@ ExistImgIdc_1, %sfp
.L1192:
	ldrb	ip, [r10, #555]	@ zero_extendqisi2	@ pH264Ctx_42(D)->CurrPic.structure, pH264Ctx_42(D)->CurrPic.structure
	ldr	r1, [r7, #244]	@ pH264Ctx_42(D)->CurrSlice.listXsize, pH264Ctx_42(D)->CurrSlice.listXsize
	cmp	ip, #0	@ pH264Ctx_42(D)->CurrPic.structure,
	beq	.L1198	@,
.L1280:
	cmp	r1, #0	@ pH264Ctx_42(D)->CurrSlice.listXsize,
	beq	.L1213	@,
	add	r5, r4, #26880	@ ivtmp.1902, pH264Ctx,
	mov	r6, r9	@ ivtmp.1919, pCurrSlicePara
	add	r5, r5, #156	@ ivtmp.1902, ivtmp.1902,
	mov	fp, #0	@ i,
	ldr	r8, [sp, #12]	@ ExistImgIdc_0, %sfp
	b	.L1212	@
.L1210:
	strb	r3, [r6, #1630]	@ D.40946, MEM[base: _642, offset: 1630B]
	ldr	r3, [r5]	@ MEM[base: _640, offset: 0B], MEM[base: _640, offset: 0B]
	ldrb	r3, [r3, #1]	@ zero_extendqisi2	@ D.40946, _303->is_long_term
	strb	r3, [r6, #1631]	@ D.40946, MEM[base: _642, offset: 1631B]
	ldr	r3, [r5]	@ MEM[base: _640, offset: 0B], MEM[base: _640, offset: 0B]
	ldr	r3, [r3, #16]	@ D.40944, _306->poc
	str	r3, [r6, #1656]	@ D.40944, MEM[base: _642, offset: 1656B]
.L1211:
	ldr	r3, [r7, #244]	@ pH264Ctx_42(D)->CurrSlice.listXsize, pH264Ctx_42(D)->CurrSlice.listXsize
	add	fp, fp, #1	@ i, i,
	add	r5, r5, #4	@ ivtmp.1902, ivtmp.1902,
	add	r6, r6, #36	@ ivtmp.1919, ivtmp.1919,
	cmp	r3, fp	@ pH264Ctx_42(D)->CurrSlice.listXsize, i
	bls	.L1213	@,
.L1212:
	ldr	r3, [r5]	@ MEM[base: _640, offset: 0B], MEM[base: _640, offset: 0B]
	ldr	r0, [r10, #3688]	@, pH264Ctx_42(D)->ChanID
	ldr	r3, [r3, #4]	@ _257->frame_store, _257->frame_store
	ldr	r1, [r3, #508]	@, _258->logic_fs_id
	bl	FSP_GetLogicFs	@
	ldr	r3, [r5]	@ MEM[base: _640, offset: 0B], MEM[base: _640, offset: 0B]
	ldr	r3, [r3, #4]	@ _262->frame_store, _262->frame_store
	ldr	r3, [r3, #548]	@ D.40942, _263->pmv_address_idc
	str	r3, [r6, #1636]	@ D.40942, MEM[base: _642, offset: 1636B]
	ldr	r3, [r5]	@ MEM[base: _640, offset: 0B], MEM[base: _640, offset: 0B]
	ldr	r3, [r3, #4]	@ _266->frame_store, _266->frame_store
	ldrb	r3, [r3, #1]	@ zero_extendqisi2	@ D.40946, _267->is_used
	strb	r3, [r6, #1625]	@ D.40946, MEM[base: _642, offset: 1625B]
	ldr	r3, [r5]	@ MEM[base: _640, offset: 0B], MEM[base: _640, offset: 0B]
	ldr	r3, [r3, #4]	@ _270->frame_store, _270->frame_store
	ldrb	r3, [r3]	@ zero_extendqisi2	@ _271->non_existing, _271->non_existing
	cmp	r3, #1	@ _271->non_existing,
	moveq	r0, r8	@ D.40940, ExistImgIdc_0
	beq	.L1209	@,
	cmp	r0, #0	@ pstLogicFs,
	ldrne	r3, [r0, #408]	@ pstLogicFs_261->pstDecodeFs, pstLogicFs_261->pstDecodeFs
	ldrne	r0, [r3, #4]	@ D.40940, _273->PhyFsID
.L1209:
	str	r0, [r6, #1640]	@ D.40940, MEM[base: _642, offset: 1640B]
	ldr	r3, [r5]	@ MEM[base: _640, offset: 0B], MEM[base: _640, offset: 0B]
	ldr	r3, [r3, #4]	@ _277->frame_store, _277->frame_store
	ldr	r3, [r3, #552]	@ D.40942, _278->apc_idc
	str	r3, [r6, #1644]	@ D.40942, MEM[base: _642, offset: 1644B]
	ldr	r3, [r5]	@ MEM[base: _640, offset: 0B], MEM[base: _640, offset: 0B]
	ldr	r3, [r3, #4]	@ _281->frame_store, _281->frame_store
	ldr	r3, [r3, #524]	@ D.40944, _282->poc
	str	r3, [r6, #1632]	@ D.40944, MEM[base: _642, offset: 1632B]
	ldr	r3, [r5]	@ MEM[base: _640, offset: 0B], MEM[base: _640, offset: 0B]
	ldrb	r3, [r3]	@ zero_extendqisi2	@ D.40946, _285->structure
	strb	r3, [r6, #1624]	@ D.40946, MEM[base: _642, offset: 1624B]
	ldr	r3, [r5]	@ MEM[base: _640, offset: 0B], MEM[base: _640, offset: 0B]
	ldr	r3, [r3, #4]	@ _288->frame_store, _288->frame_store
	ldrb	r3, [r3, #400]	@ zero_extendqisi2	@ D.40946, _289->frame.structure
	strb	r3, [r6, #1626]	@ D.40946, MEM[base: _642, offset: 1626B]
	ldr	r3, [r5]	@ MEM[base: _640, offset: 0B], MEM[base: _640, offset: 0B]
	ldrb	r3, [r3]	@ zero_extendqisi2	@ D.40946, _292->structure
	cmp	r3, #1	@ D.40946,
	bne	.L1210	@,
	strb	r3, [r6, #1628]	@ D.40946, MEM[base: _642, offset: 1628B]
	ldr	r3, [r5]	@ MEM[base: _640, offset: 0B], MEM[base: _640, offset: 0B]
	ldrb	r3, [r3, #1]	@ zero_extendqisi2	@ D.40946, _295->is_long_term
	strb	r3, [r6, #1629]	@ D.40946, MEM[base: _642, offset: 1629B]
	ldr	r3, [r5]	@ MEM[base: _640, offset: 0B], MEM[base: _640, offset: 0B]
	ldr	r3, [r3, #16]	@ D.40944, _298->poc
	str	r3, [r6, #1652]	@ D.40944, MEM[base: _642, offset: 1652B]
	b	.L1211	@
.L1213:
	ldrb	r1, [r7, #200]	@ zero_extendqisi2	@ pH264Ctx_42(D)->CurrSlice.slice_type, pH264Ctx_42(D)->CurrSlice.slice_type
	cmp	r1, #1	@ pH264Ctx_42(D)->CurrSlice.slice_type,
	beq	.L1278	@,
.L1201:
	add	r0, r4, #26880	@ ivtmp.1642, pH264Ctx,
	add	r1, r9, #3920	@ ivtmp.1651, pCurrSlicePara,
	add	lr, r9, #4048	@ D.40954, pCurrSlicePara,
	add	r0, r0, #24	@ ivtmp.1642, ivtmp.1642,
	add	r1, r1, #4	@ ivtmp.1651, ivtmp.1651,
	add	lr, lr, #4	@ D.40954, D.40954,
.L1218:
	ldr	r3, [r0, #4]!	@ D.40942, MEM[base: _542, offset: 0B]
	str	r3, [r1, #4]!	@ D.40942, MEM[base: _543, offset: 0B]
	cmp	r1, lr	@ ivtmp.1651, D.40954
	bne	.L1218	@,
	ldr	r3, [sp, #4]	@ tmp847, %sfp
	ldrb	r1, [r3, #1206]	@ zero_extendqisi2	@ D.40946, pH264Ctx_42(D)->CurrPPS.weighted_pred_flag
	cmp	r1, #0	@ D.40946,
	str	r1, [r10, #2500]	@ D.40946, pH264Ctx_42(D)->DecPicPara.weighted_pred_flag
	ldr	r1, [r3, #1248]	@ D.40942, pH264Ctx_42(D)->CurrPPS.weighted_bipred_idc
	str	r1, [r10, #2504]	@ D.40942, pH264Ctx_42(D)->DecPicPara.weighted_bipred_idc
	beq	.L1219	@,
	ldrb	r2, [r7, #200]	@ zero_extendqisi2	@ pH264Ctx_42(D)->CurrSlice.slice_type, pH264Ctx_42(D)->CurrSlice.slice_type
	cmp	r2, #0	@ pH264Ctx_42(D)->CurrSlice.slice_type,
	beq	.L1220	@,
.L1219:
	cmp	r1, #1	@ D.40942,
	beq	.L1279	@,
.L1221:
	ldr	r3, [sp, #8]	@ CurrSliceSlotNum, %sfp
	mov	r2, #0	@ tmp609,
	ldr	r1, [r4, #368]	@ pH264Ctx_42(D)->pCurrNal, pH264Ctx_42(D)->pCurrNal
	add	r3, r3, #12672	@ tmp607, CurrSliceSlotNum,
	add	r3, r3, #4	@ tmp607, tmp607,
	str	r1, [r4, r3, asl #2]	@ pH264Ctx_42(D)->pCurrNal, pH264Ctx_42(D)->SlcInfo[CurrSliceSlotNum_43].pSliceNal
	str	r2, [r4, #368]	@ tmp609, pH264Ctx_42(D)->pCurrNal
.L1170:
	add	sp, sp, #28	@,,
	@ sp needed	@
	ldmfd	sp!, {r4, r5, r6, r7, r8, r9, r10, fp, pc}	@
.L1276:
	ldr	r0, [r10, #960]	@ D.40948, pH264Ctx_42(D)->CurrPic.frame_store
	ldr	r8, [r0, #428]	@ MEM[(struct H264_STORABLEPIC_S *)_89 + 400B].MaxQp, MEM[(struct H264_STORABLEPIC_S *)_89 + 400B].MaxQp
	ldr	r6, [r0, #432]	@ MEM[(struct H264_STORABLEPIC_S *)_89 + 400B].MinQp, MEM[(struct H264_STORABLEPIC_S *)_89 + 400B].MinQp
	cmp	r8, r1	@ MEM[(struct H264_STORABLEPIC_S *)_89 + 400B].MaxQp, D.40944
	movlt	r8, r1	@ D.40944, D.40944
	cmp	r6, r1	@ MEM[(struct H264_STORABLEPIC_S *)_89 + 400B].MinQp, D.40944
	str	r8, [r0, #428]	@ D.40944, MEM[(struct H264_STORABLEPIC_S *)_89 + 400B].MaxQp
	movge	r6, r1	@ D.40944, D.40944
	str	r6, [r0, #432]	@ D.40944, MEM[(struct H264_STORABLEPIC_S *)_89 + 400B].MinQp
	b	.L1180	@
.L1187:
	ldr	r1, [ip, #508]	@, _493->logic_fs_id
	ldr	r0, [r10, #3688]	@, pH264Ctx_42(D)->ChanID
	bl	FSP_GetLogicFs	@
	cmp	r0, #0	@ pstLogicFs
	beq	.L1170	@,
	ldr	r1, [r0, #408]	@ pstLogicFs_136->pstDecodeFs, pstLogicFs_136->pstDecodeFs
	ldr	r3, [r1, #4]	@ ExistImgIdc_0, _137->PhyFsID
	str	r3, [sp, #12]	@ ExistImgIdc_0, %sfp
	b	.L1186	@
.L1193:
	ldr	r1, [ip, #508]	@, _494->logic_fs_id
	ldr	r0, [r10, #3688]	@, pH264Ctx_42(D)->ChanID
	bl	FSP_GetLogicFs	@
	cmp	r0, #0	@ pstLogicFs
	beq	.L1170	@,
	ldr	r1, [r0, #408]	@ pstLogicFs_149->pstDecodeFs, pstLogicFs_149->pstDecodeFs
	ldrb	ip, [r10, #555]	@ zero_extendqisi2	@ pH264Ctx_42(D)->CurrPic.structure, pH264Ctx_42(D)->CurrPic.structure
	ldr	r3, [r1, #4]	@ ExistImgIdc_1, _150->PhyFsID
	cmp	ip, #0	@ pH264Ctx_42(D)->CurrPic.structure,
	ldr	r1, [r7, #244]	@ pH264Ctx_42(D)->CurrSlice.listXsize, pH264Ctx_42(D)->CurrSlice.listXsize
	str	r3, [sp, #16]	@ ExistImgIdc_1, %sfp
	bne	.L1280	@,
.L1198:
	cmp	r1, #0	@ pH264Ctx_42(D)->CurrSlice.listXsize,
	beq	.L1206	@,
	add	r6, r4, #26880	@ ivtmp.1744, pH264Ctx,
	ldr	r8, [sp, #12]	@ ExistImgIdc_0, %sfp
	add	r6, r6, #156	@ ivtmp.1744, ivtmp.1744,
	str	r4, [sp, #20]	@ pH264Ctx, %sfp
	mov	fp, ip	@ D.40940, i
	mov	r4, r7	@ tmp848, tmp848
	mov	r5, r9	@ ivtmp.1761, pCurrSlicePara
	mov	r7, ip	@ i, i
.L1205:
	ldr	r2, [r6]	@ MEM[base: _578, offset: 0B], MEM[base: _578, offset: 0B]
	ldr	r0, [r10, #3688]	@, pH264Ctx_42(D)->ChanID
	ldr	r2, [r2, #4]	@ _156->frame_store, _156->frame_store
	ldr	r1, [r2, #508]	@, _157->logic_fs_id
	bl	FSP_GetLogicFs	@
	ldr	r2, [r6]	@ MEM[base: _578, offset: 0B], MEM[base: _578, offset: 0B]
	ldr	r2, [r2, #4]	@ _161->frame_store, _161->frame_store
	ldr	r2, [r2, #548]	@ D.40942, _162->pmv_address_idc
	str	r2, [r5, #1636]	@ D.40942, MEM[base: _580, offset: 1636B]
	ldr	r2, [r6]	@ MEM[base: _578, offset: 0B], MEM[base: _578, offset: 0B]
	ldr	r2, [r2, #4]	@ _165->frame_store, _165->frame_store
	ldrb	r2, [r2, #1]	@ zero_extendqisi2	@ D.40946, _166->is_used
	strb	r2, [r5, #1625]	@ D.40946, MEM[base: _580, offset: 1625B]
	ldr	r2, [r6]	@ MEM[base: _578, offset: 0B], MEM[base: _578, offset: 0B]
	ldr	r2, [r2, #4]	@ _169->frame_store, _169->frame_store
	ldrb	r2, [r2]	@ zero_extendqisi2	@ _170->non_existing, _170->non_existing
	cmp	r2, #1	@ _170->non_existing,
	moveq	r0, r8	@ D.40940, ExistImgIdc_0
	beq	.L1204	@,
	cmp	r0, #0	@ pstLogicFs,
	ldrne	r2, [r0, #408]	@ pstLogicFs_160->pstDecodeFs, pstLogicFs_160->pstDecodeFs
	ldrne	r0, [r2, #4]	@ D.40940, _172->PhyFsID
.L1204:
	str	r0, [r5, #1640]	@ D.40940, MEM[base: _580, offset: 1640B]
	add	r7, r7, #1	@ i, i,
	ldr	r2, [r6]	@ MEM[base: _578, offset: 0B], MEM[base: _578, offset: 0B]
	add	r5, r5, #36	@ ivtmp.1761, ivtmp.1761,
	ldr	r2, [r2, #4]	@ _176->frame_store, _176->frame_store
	ldr	r2, [r2, #552]	@ D.40942, _177->apc_idc
	str	r2, [r5, #1608]	@ D.40942, MEM[base: _580, offset: 1644B]
	ldr	r2, [r6]	@ MEM[base: _578, offset: 0B], MEM[base: _578, offset: 0B]
	ldr	r2, [r2, #4]	@ _180->frame_store, _180->frame_store
	ldr	r2, [r2, #524]	@ D.40944, _181->poc
	str	r2, [r5, #1596]	@ D.40944, MEM[base: _580, offset: 1632B]
	ldr	r2, [r6]	@ MEM[base: _578, offset: 0B], MEM[base: _578, offset: 0B]
	ldrb	r2, [r2, #1]	@ zero_extendqisi2	@ D.40946, _184->is_long_term
	strb	r2, [r5, #1591]	@ D.40946, MEM[base: _580, offset: 1627B]
	ldr	r2, [r6]	@ MEM[base: _578, offset: 0B], MEM[base: _578, offset: 0B]
	ldrb	r2, [r2]	@ zero_extendqisi2	@ D.40946, _187->structure
	strb	r2, [r5, #1590]	@ D.40946, MEM[base: _580, offset: 1626B]
	ldr	r2, [r6]	@ MEM[base: _578, offset: 0B], MEM[base: _578, offset: 0B]
	ldr	r2, [r2, #4]	@ _190->frame_store, _190->frame_store
	ldr	r2, [r2, #416]	@ D.40944, _191->frame.poc
	str	r2, [r5, #1612]	@ D.40944, MEM[base: _580, offset: 1648B]
	ldr	r2, [r6]	@ MEM[base: _578, offset: 0B], MEM[base: _578, offset: 0B]
	ldr	r2, [r2, #4]	@ _194->frame_store, _194->frame_store
	ldr	r2, [r2, #452]	@ D.40944, _195->top_field.poc
	str	r2, [r5, #1616]	@ D.40944, MEM[base: _580, offset: 1652B]
	ldr	r2, [r6], #4	@ MEM[base: _578, offset: 0B], MEM[base: _578, offset: 0B]
	ldr	r2, [r2, #4]	@ _198->frame_store, _198->frame_store
	ldr	r2, [r2, #488]	@ D.40944, _199->bottom_field.poc
	strb	fp, [r5, #1588]	@ D.40940, MEM[base: _580, offset: 1624B]
	str	r2, [r5, #1620]	@ D.40944, MEM[base: _580, offset: 1656B]
	ldr	r2, [r4, #244]	@ pH264Ctx_42(D)->CurrSlice.listXsize, pH264Ctx_42(D)->CurrSlice.listXsize
	cmp	r2, r7	@ pH264Ctx_42(D)->CurrSlice.listXsize, i
	bhi	.L1205	@,
	mov	r7, r4	@ tmp848, tmp848
	ldr	r4, [sp, #20]	@ pH264Ctx, %sfp
.L1206:
	ldrb	r1, [r7, #200]	@ zero_extendqisi2	@ pH264Ctx_42(D)->CurrSlice.slice_type, pH264Ctx_42(D)->CurrSlice.slice_type
	cmp	r1, #1	@ pH264Ctx_42(D)->CurrSlice.slice_type,
	bne	.L1201	@,
	ldr	r1, [r7, #248]	@ pH264Ctx_42(D)->CurrSlice.listXsize, pH264Ctx_42(D)->CurrSlice.listXsize
	cmp	r1, #0	@ pH264Ctx_42(D)->CurrSlice.listXsize,
	beq	.L1201	@,
	mov	fp, #0	@ i,
	add	r8, r4, #27136	@ ivtmp.1660, pH264Ctx,
	mov	r5, fp	@ D.40940, i
	str	r4, [sp, #12]	@ pH264Ctx, %sfp
	mov	r4, r7	@ tmp848, tmp848
	mov	r7, fp	@ i, i
	ldr	fp, [sp, #16]	@ ExistImgIdc_1, %sfp
	add	r8, r8, #32	@ ivtmp.1660, ivtmp.1660,
	mov	r6, r9	@ ivtmp.1677, pCurrSlicePara
.L1208:
	ldr	r2, [r8]	@ MEM[base: _549, offset: 0B], MEM[base: _549, offset: 0B]
	ldr	r0, [r10, #3688]	@, pH264Ctx_42(D)->ChanID
	ldr	r2, [r2, #4]	@ _207->frame_store, _207->frame_store
	ldr	r1, [r2, #508]	@, _208->logic_fs_id
	bl	FSP_GetLogicFs	@
	ldr	r2, [r8]	@ MEM[base: _549, offset: 0B], MEM[base: _549, offset: 0B]
	ldr	r2, [r2, #4]	@ _212->frame_store, _212->frame_store
	ldr	r2, [r2, #548]	@ D.40942, _213->pmv_address_idc
	str	r2, [r6, #2788]	@ D.40942, MEM[base: _551, offset: 2788B]
	ldr	r2, [r8]	@ MEM[base: _549, offset: 0B], MEM[base: _549, offset: 0B]
	ldr	r2, [r2, #4]	@ _216->frame_store, _216->frame_store
	ldrb	r2, [r2, #1]	@ zero_extendqisi2	@ D.40946, _217->is_used
	strb	r2, [r6, #2777]	@ D.40946, MEM[base: _551, offset: 2777B]
	ldr	r2, [r8]	@ MEM[base: _549, offset: 0B], MEM[base: _549, offset: 0B]
	ldr	r2, [r2, #4]	@ _220->frame_store, _220->frame_store
	ldrb	r2, [r2]	@ zero_extendqisi2	@ _221->non_existing, _221->non_existing
	cmp	r2, #1	@ _221->non_existing,
	moveq	r0, fp	@ D.40940, ExistImgIdc_1
	beq	.L1207	@,
	cmp	r0, #0	@ pstLogicFs,
	ldrne	r2, [r0, #408]	@ pstLogicFs_211->pstDecodeFs, pstLogicFs_211->pstDecodeFs
	ldrne	r0, [r2, #4]	@ D.40940, _223->PhyFsID
.L1207:
	str	r0, [r6, #1640]	@ D.40940, MEM[base: _551, offset: 1640B]
	add	r7, r7, #1	@ i, i,
	ldr	r2, [r8]	@ MEM[base: _549, offset: 0B], MEM[base: _549, offset: 0B]
	add	r6, r6, #36	@ ivtmp.1677, ivtmp.1677,
	ldr	r2, [r2, #4]	@ _227->frame_store, _227->frame_store
	ldr	r2, [r2, #552]	@ D.40942, _228->apc_idc
	str	r2, [r6, #2760]	@ D.40942, MEM[base: _551, offset: 2796B]
	ldr	r2, [r8]	@ MEM[base: _549, offset: 0B], MEM[base: _549, offset: 0B]
	ldr	r2, [r2, #4]	@ _231->frame_store, _231->frame_store
	ldr	r2, [r2, #524]	@ D.40944, _232->poc
	str	r2, [r6, #2748]	@ D.40944, MEM[base: _551, offset: 2784B]
	ldr	r2, [r8]	@ MEM[base: _549, offset: 0B], MEM[base: _549, offset: 0B]
	ldrb	r2, [r2, #1]	@ zero_extendqisi2	@ D.40946, _235->is_long_term
	strb	r2, [r6, #2743]	@ D.40946, MEM[base: _551, offset: 2779B]
	ldr	r2, [r8]	@ MEM[base: _549, offset: 0B], MEM[base: _549, offset: 0B]
	ldrb	r2, [r2]	@ zero_extendqisi2	@ D.40946, _238->structure
	strb	r2, [r6, #2742]	@ D.40946, MEM[base: _551, offset: 2778B]
	ldr	r2, [r8]	@ MEM[base: _549, offset: 0B], MEM[base: _549, offset: 0B]
	ldr	r2, [r2, #4]	@ _241->frame_store, _241->frame_store
	ldr	r2, [r2, #416]	@ D.40944, _242->frame.poc
	str	r2, [r6, #2764]	@ D.40944, MEM[base: _551, offset: 2800B]
	ldr	r2, [r8]	@ MEM[base: _549, offset: 0B], MEM[base: _549, offset: 0B]
	ldr	r2, [r2, #4]	@ _245->frame_store, _245->frame_store
	ldr	r2, [r2, #452]	@ D.40944, _246->top_field.poc
	str	r2, [r6, #2768]	@ D.40944, MEM[base: _551, offset: 2804B]
	ldr	r2, [r8], #4	@ MEM[base: _549, offset: 0B], MEM[base: _549, offset: 0B]
	ldr	r2, [r2, #4]	@ _249->frame_store, _249->frame_store
	ldr	r2, [r2, #488]	@ D.40944, _250->bottom_field.poc
	strb	r5, [r6, #2740]	@ D.40940, MEM[base: _551, offset: 2776B]
	str	r2, [r6, #2772]	@ D.40944, MEM[base: _551, offset: 2808B]
	ldr	r2, [r4, #248]	@ pH264Ctx_42(D)->CurrSlice.listXsize, pH264Ctx_42(D)->CurrSlice.listXsize
	cmp	r2, r7	@ pH264Ctx_42(D)->CurrSlice.listXsize, i
	bhi	.L1208	@,
	mov	r7, r4	@ tmp848, tmp848
	ldr	r4, [sp, #12]	@ pH264Ctx, %sfp
	b	.L1201	@
.L1279:
	ldrb	r2, [r7, #200]	@ zero_extendqisi2	@ pH264Ctx_42(D)->CurrSlice.slice_type, pH264Ctx_42(D)->CurrSlice.slice_type
	cmp	r2, #1	@ pH264Ctx_42(D)->CurrSlice.slice_type,
	bne	.L1221	@,
.L1220:
	ldr	r2, [r7, #264]	@ D.40942, pH264Ctx_42(D)->CurrSlice.luma_log2_weight_denom
	add	r3, r4, #20736	@ ivtmp.1550, pH264Ctx,
	add	r5, r4, #21504	@ ivtmp.1595, pH264Ctx,
	add	r6, r4, #20992	@ ivtmp.1581, pH264Ctx,
	add	ip, r4, #21760	@ ivtmp.1623, pH264Ctx,
	mov	r8, r3	@ ivtmp.1567, ivtmp.1550
	str	r2, [r9, #80]	@ D.40942, pCurrSlicePara_48->luma_log2_weight_denom
	mov	lr, r5	@ ivtmp.1609, ivtmp.1595
	ldr	r10, [r7, #268]	@ D.40942, pH264Ctx_42(D)->CurrSlice.chroma_log2_weight_denom
	add	r3, r3, #12	@ ivtmp.1550, ivtmp.1550,
	add	r8, r8, #140	@ ivtmp.1567, ivtmp.1567,
	add	r6, r6, #12	@ ivtmp.1581, ivtmp.1581,
	add	r5, r5, #12	@ ivtmp.1595, ivtmp.1595,
	add	lr, lr, #140	@ ivtmp.1609, ivtmp.1609,
	add	ip, ip, #12	@ ivtmp.1623, ivtmp.1623,
	add	fp, r9, #212	@ ivtmp.1574, pCurrSlicePara,
	mov	r0, r9	@ ivtmp.1559, pCurrSlicePara
	mov	r2, r9	@ ivtmp.1563, pCurrSlicePara
	mov	r1, #0	@ i,
	str	r9, [sp, #4]	@ pCurrSlicePara, %sfp
	str	r10, [r0, #84]!	@ D.40942, pCurrSlicePara_48->chroma_log2_weight_denom
.L1222:
	ldr	r10, [r3, #4]!	@ D.40944, MEM[base: _522, offset: 0B]
	add	r1, r1, #1	@ i, i,
	add	r2, r2, #4	@ ivtmp.1563, ivtmp.1563,
	str	r10, [r0, #4]!	@ D.40944, MEM[base: _523, offset: 0B]
	ldr	r10, [r8, #4]!	@ D.40944, MEM[base: _524, offset: 0B]
	str	r10, [fp, #4]!	@ D.40944, MEM[base: _525, offset: 0B]
	ldr	r10, [r6, #4]!	@ D.40944, MEM[base: _526, offset: 0B]
	str	r10, [r2, #340]	@ D.40944, MEM[base: _527, offset: 344B]
	ldr	r10, [r5, #4]!	@ D.40944, MEM[base: _528, offset: 0B]
	str	r10, [r2, #852]	@ D.40944, MEM[base: _527, offset: 856B]
	ldr	r10, [lr, #4]!	@ D.40944, MEM[base: _530, offset: 0B]
	str	r10, [r2, #980]	@ D.40944, MEM[base: _527, offset: 984B]
	ldr	r10, [ip, #4]!	@ D.40944, MEM[base: _532, offset: 0B]
	str	r10, [r2, #1108]	@ D.40944, MEM[base: _527, offset: 1112B]
	ldr	r10, [r7, #256]	@ pH264Ctx_42(D)->CurrSlice.num_ref_idx_l0_active_minus1, pH264Ctx_42(D)->CurrSlice.num_ref_idx_l0_active_minus1
	cmp	r10, r1	@ pH264Ctx_42(D)->CurrSlice.num_ref_idx_l0_active_minus1, i
	bcs	.L1222	@,
	ldrb	r2, [r7, #200]	@ zero_extendqisi2	@ pH264Ctx_42(D)->CurrSlice.slice_type, pH264Ctx_42(D)->CurrSlice.slice_type
	cmp	r2, #1	@ pH264Ctx_42(D)->CurrSlice.slice_type,
	bne	.L1221	@,
	add	r5, r4, #21248	@ ivtmp.1478, pH264Ctx,
	add	r0, r4, #22016	@ ivtmp.1520, pH264Ctx,
	add	r6, r4, #20992	@ ivtmp.1461, pH264Ctx,
	add	ip, r4, #21760	@ ivtmp.1506, pH264Ctx,
	add	r8, r9, #468	@ ivtmp.1470, pCurrSlicePara,
	add	r3, r9, #596	@ ivtmp.1485, pCurrSlicePara,
	ldr	r9, [sp, #4]	@ ivtmp.1474, %sfp
	mov	lr, r5	@ ivtmp.1492, ivtmp.1478
	mov	r1, r0	@ ivtmp.1534, ivtmp.1520
	add	r6, r6, #140	@ ivtmp.1461, ivtmp.1461,
	add	r5, r5, #12	@ ivtmp.1478, ivtmp.1478,
	add	lr, lr, #140	@ ivtmp.1492, ivtmp.1492,
	add	ip, ip, #140	@ ivtmp.1506, ivtmp.1506,
	add	r0, r0, #12	@ ivtmp.1520, ivtmp.1520,
	add	r1, r1, #140	@ ivtmp.1534, ivtmp.1534,
	mov	r2, #0	@ i,
.L1223:
	ldr	r10, [r6, #4]!	@ D.40944, MEM[base: _38, offset: 0B]
	add	r2, r2, #1	@ i, i,
	add	r9, r9, #4	@ ivtmp.1474, ivtmp.1474,
	str	r10, [r8, #4]!	@ D.40944, MEM[base: _434, offset: 0B]
	ldr	r10, [r5, #4]!	@ D.40944, MEM[base: _29, offset: 0B]
	str	r10, [r3, #4]!	@ D.40944, MEM[base: _5, offset: 0B]
	ldr	r10, [lr, #4]!	@ D.40944, MEM[base: _438, offset: 0B]
	str	r10, [r9, #724]	@ D.40944, MEM[base: _437, offset: 728B]
	ldr	r10, [ip, #4]!	@ D.40944, MEM[base: _444, offset: 0B]
	str	r10, [r9, #1236]	@ D.40944, MEM[base: _437, offset: 1240B]
	ldr	r10, [r0, #4]!	@ D.40944, MEM[base: _4, offset: 0B]
	str	r10, [r9, #1364]	@ D.40944, MEM[base: _437, offset: 1368B]
	ldr	r10, [r1, #4]!	@ D.40944, MEM[base: _3, offset: 0B]
	str	r10, [r9, #1492]	@ D.40944, MEM[base: _437, offset: 1496B]
	ldr	r10, [r7, #260]	@ pH264Ctx_42(D)->CurrSlice.num_ref_idx_l1_active_minus1, pH264Ctx_42(D)->CurrSlice.num_ref_idx_l1_active_minus1
	cmp	r10, r2	@ pH264Ctx_42(D)->CurrSlice.num_ref_idx_l1_active_minus1, i
	bcs	.L1223	@,
	b	.L1221	@
.L1277:
	ldr	r3, [sp, #4]	@ tmp847, %sfp
	ldr	r1, [r3, #1248]	@ pH264Ctx_42(D)->CurrPPS.weighted_bipred_idc, pH264Ctx_42(D)->CurrPPS.weighted_bipred_idc
	strb	r1, [r9, #4]	@ pH264Ctx_42(D)->CurrPPS.weighted_bipred_idc, pCurrSlicePara_48->weight_flag
	b	.L1182	@
.L1278:
	ldr	r1, [r7, #248]	@ pH264Ctx_42(D)->CurrSlice.listXsize, pH264Ctx_42(D)->CurrSlice.listXsize
	cmp	r1, #0	@ pH264Ctx_42(D)->CurrSlice.listXsize,
	beq	.L1201	@,
	add	r5, r4, #27136	@ ivtmp.1828, pH264Ctx,
	mov	r6, r9	@ ivtmp.1845, pCurrSlicePara
	add	r5, r5, #32	@ ivtmp.1828, ivtmp.1828,
	mov	r8, #0	@ i,
	ldr	fp, [sp, #16]	@ ExistImgIdc_1, %sfp
	b	.L1217	@
.L1215:
	strb	r3, [r6, #2782]	@ D.40946, MEM[base: _609, offset: 2782B]
	ldr	r3, [r5]	@ MEM[base: _607, offset: 0B], MEM[base: _607, offset: 0B]
	ldrb	r3, [r3, #1]	@ zero_extendqisi2	@ D.40946, _361->is_long_term
	strb	r3, [r6, #2783]	@ D.40946, MEM[base: _609, offset: 2783B]
	ldr	r3, [r5]	@ MEM[base: _607, offset: 0B], MEM[base: _607, offset: 0B]
	ldr	r3, [r3, #16]	@ D.40944, _364->poc
	str	r3, [r6, #2808]	@ D.40944, MEM[base: _609, offset: 2808B]
.L1216:
	ldr	r3, [r7, #248]	@ pH264Ctx_42(D)->CurrSlice.listXsize, pH264Ctx_42(D)->CurrSlice.listXsize
	add	r8, r8, #1	@ i, i,
	add	r5, r5, #4	@ ivtmp.1828, ivtmp.1828,
	add	r6, r6, #36	@ ivtmp.1845, ivtmp.1845,
	cmp	r3, r8	@ pH264Ctx_42(D)->CurrSlice.listXsize, i
	bls	.L1201	@,
.L1217:
	ldr	r3, [r5]	@ MEM[base: _607, offset: 0B], MEM[base: _607, offset: 0B]
	ldr	r0, [r10, #3688]	@, pH264Ctx_42(D)->ChanID
	ldr	r3, [r3, #4]	@ _313->frame_store, _313->frame_store
	ldr	r1, [r3, #508]	@, _314->logic_fs_id
	bl	FSP_GetLogicFs	@
	ldr	r3, [r5]	@ MEM[base: _607, offset: 0B], MEM[base: _607, offset: 0B]
	ldr	r3, [r3, #4]	@ _318->frame_store, _318->frame_store
	ldr	r3, [r3, #548]	@ D.40942, _319->pmv_address_idc
	str	r3, [r6, #2788]	@ D.40942, MEM[base: _609, offset: 2788B]
	ldr	r3, [r5]	@ MEM[base: _607, offset: 0B], MEM[base: _607, offset: 0B]
	ldr	r3, [r3, #4]	@ _322->frame_store, _322->frame_store
	ldrb	r3, [r3, #1]	@ zero_extendqisi2	@ D.40946, _323->is_used
	strb	r3, [r6, #2777]	@ D.40946, MEM[base: _609, offset: 2777B]
	ldr	r3, [r5]	@ MEM[base: _607, offset: 0B], MEM[base: _607, offset: 0B]
	ldr	r3, [r3, #4]	@ _326->frame_store, _326->frame_store
	ldrb	r3, [r3]	@ zero_extendqisi2	@ _327->non_existing, _327->non_existing
	cmp	r3, #1	@ _327->non_existing,
	moveq	r0, fp	@ D.40940, ExistImgIdc_1
	beq	.L1214	@,
	cmp	r0, #0	@ pstLogicFs,
	ldrne	r3, [r0, #408]	@ pstLogicFs_317->pstDecodeFs, pstLogicFs_317->pstDecodeFs
	ldrne	r0, [r3, #4]	@ D.40940, _329->PhyFsID
.L1214:
	str	r0, [r6, #2792]	@ D.40940, MEM[base: _609, offset: 2792B]
	ldr	r3, [r5]	@ MEM[base: _607, offset: 0B], MEM[base: _607, offset: 0B]
	ldr	r3, [r3, #4]	@ _334->frame_store, _334->frame_store
	ldr	r3, [r3, #552]	@ D.40942, _335->apc_idc
	str	r3, [r6, #2796]	@ D.40942, MEM[base: _609, offset: 2796B]
	ldr	r3, [r5]	@ MEM[base: _607, offset: 0B], MEM[base: _607, offset: 0B]
	ldr	r3, [r3, #4]	@ _338->frame_store, _338->frame_store
	ldr	r3, [r3, #524]	@ D.40944, _339->poc
	str	r3, [r6, #2784]	@ D.40944, MEM[base: _609, offset: 2784B]
	ldr	r3, [r5]	@ MEM[base: _607, offset: 0B], MEM[base: _607, offset: 0B]
	ldrb	r3, [r3]	@ zero_extendqisi2	@ D.40946, _342->structure
	strb	r3, [r6, #2776]	@ D.40946, MEM[base: _609, offset: 2776B]
	ldr	r3, [r5]	@ MEM[base: _607, offset: 0B], MEM[base: _607, offset: 0B]
	ldr	r3, [r3, #4]	@ _345->frame_store, _345->frame_store
	ldrb	r3, [r3, #400]	@ zero_extendqisi2	@ D.40946, _346->frame.structure
	strb	r3, [r6, #2778]	@ D.40946, MEM[base: _609, offset: 2778B]
	ldr	r3, [r5]	@ MEM[base: _607, offset: 0B], MEM[base: _607, offset: 0B]
	ldrb	r3, [r3]	@ zero_extendqisi2	@ D.40946, _349->structure
	cmp	r3, #1	@ D.40946,
	bne	.L1215	@,
	strb	r3, [r6, #2780]	@ D.40946, MEM[base: _609, offset: 2780B]
	ldr	r3, [r5]	@ MEM[base: _607, offset: 0B], MEM[base: _607, offset: 0B]
	ldrb	r3, [r3, #1]	@ zero_extendqisi2	@ D.40946, _353->is_long_term
	strb	r3, [r6, #2781]	@ D.40946, MEM[base: _609, offset: 2781B]
	ldr	r3, [r5]	@ MEM[base: _607, offset: 0B], MEM[base: _607, offset: 0B]
	ldr	r3, [r3, #16]	@ D.40944, _356->poc
	str	r3, [r6, #2804]	@ D.40944, MEM[base: _609, offset: 2804B]
	b	.L1216	@
.L1224:
	str	r8, [sp, #12]	@ D.40942, %sfp
	b	.L1186	@
.L1225:
	str	r3, [sp, #16]	@ D.40942, %sfp
	b	.L1192	@
	.fnend
	.size	WriteSliceMsg, .-WriteSliceMsg
	.align	2
	.global	H264_GetPicStreamSize
	.type	H264_GetPicStreamSize, %function
H264_GetPicStreamSize:
	.fnstart
	@ args = 0, pretend = 0, frame = 0
	@ frame_needed = 0, uses_anonymous_args = 0
	@ link register save eliminated.
	add	r0, r0, #49152	@ tmp122, pH264Ctx,
	ldr	r2, [r0, #3340]	@ pH264SliceParam, pH264Ctx_4(D)->DecPicPara.pFirstSlice
	cmp	r2, #0	@ pH264SliceParam,
	beq	.L1284	@,
	mov	r0, #0	@ TotalSize,
.L1283:
	ldr	r3, [r2, #8]	@ pH264SliceParam_18->valid_bitlen, pH264SliceParam_18->valid_bitlen
	ldr	r1, [r2, #12]	@ pH264SliceParam_18->valid_bitlen, pH264SliceParam_18->valid_bitlen
	ldr	r2, [r2, #4056]	@ pH264SliceParam, pH264SliceParam_18->pNextSlice
	add	r3, r3, r1	@ D.40957, pH264SliceParam_18->valid_bitlen, pH264SliceParam_18->valid_bitlen
	add	r3, r3, #7	@ D.40957, D.40957,
	cmp	r2, #0	@ pH264SliceParam,
	add	r0, r0, r3, lsr #3	@ TotalSize, TotalSize, D.40957,
	bne	.L1283	@,
	bx	lr	@
.L1284:
	mov	r0, r2	@ TotalSize, pH264SliceParam
	bx	lr	@
	.fnend
	.size	H264_GetPicStreamSize, .-H264_GetPicStreamSize
	.align	2
	.global	SliceCheck
	.type	SliceCheck, %function
SliceCheck:
	.fnstart
	@ args = 0, pretend = 0, frame = 0
	@ frame_needed = 0, uses_anonymous_args = 0
	stmfd	sp!, {r4, r5, r6, lr}	@,
	.save {r4, r5, r6, lr}
	add	r4, r0, #20480	@ tmp134, pH264Ctx,
	ldr	r1, .L1294	@,
	add	r6, r0, #49152	@ tmp139, pH264Ctx,
	mov	r5, r0	@ pH264Ctx, pH264Ctx
	bl	ue_v	@
	str	r0, [r4, #252]	@ D.40962, pH264Ctx_5(D)->CurrSlice.first_mb_in_slice
	ldr	r3, [r6, #3628]	@ pH264Ctx_5(D)->SeErrFlg, pH264Ctx_5(D)->SeErrFlg
	adds	r3, r3, #0	@ tmp142, pH264Ctx_5(D)->SeErrFlg,
	movne	r3, #1	@ tmp142,
	cmp	r0, #262144	@ D.40962,
	orrcs	r3, r3, #1	@,, tmp145, tmp142
	cmp	r3, #0	@ tmp145,
	bne	.L1289	@,
	add	r2, r5, #12288	@ tmp147, pH264Ctx,
	ldr	r1, [r2, #1272]	@ pH264Ctx_5(D)->CurWidthInMb, pH264Ctx_5(D)->CurWidthInMb
	ldr	r3, [r2, #1276]	@ pH264Ctx_5(D)->CurHeightInMb, pH264Ctx_5(D)->CurHeightInMb
	mul	r3, r3, r1	@ D.40963, pH264Ctx_5(D)->CurHeightInMb, pH264Ctx_5(D)->CurWidthInMb
	sub	r3, r3, #1	@ D.40963, D.40963,
	cmp	r0, r3	@ D.40962, D.40963
	bhi	.L1289	@,
	mov	r0, r5	@, pH264Ctx
	ldr	r1, .L1294+4	@,
	bl	ue_v	@
	ldr	r3, [r6, #3628]	@ pH264Ctx_5(D)->SeErrFlg, pH264Ctx_5(D)->SeErrFlg
	cmp	r0, #9	@ SliceType,
	cmpls	r3, #0	@, pH264Ctx_5(D)->SeErrFlg,
	movne	r3, #1	@ tmp164,
	moveq	r3, #0	@ tmp164,
	bne	.L1289	@,
	mov	ip, #1	@ tmp165,
	movw	r1, #297	@ D.40962,
	mov	r2, ip, asl r0	@ D.40962, tmp165,
	and	r1, r1, r2	@ D.40962, D.40962, D.40962
	cmp	r1, #0	@ D.40962,
	bne	.L1290	@,
	ands	r0, r2, #660	@ D.40962, D.40962,
	bne	.L1291	@,
	tst	r2, #66	@ D.40962,
	beq	.L1289	@,
	strb	ip, [r4, #200]	@ tmp165, pH264Ctx_5(D)->CurrSlice.slice_type
	ldmfd	sp!, {r4, r5, r6, pc}	@
.L1290:
	strb	r3, [r4, #200]	@ tmp164, pH264Ctx_5(D)->CurrSlice.slice_type
	mov	r0, r3	@ D.40960, tmp164
	ldmfd	sp!, {r4, r5, r6, pc}	@
.L1291:
	mov	r3, #2	@ tmp172,
	mov	r0, r1	@ D.40960, D.40962
	strb	r3, [r4, #200]	@ tmp172, pH264Ctx_5(D)->CurrSlice.slice_type
	ldmfd	sp!, {r4, r5, r6, pc}	@
.L1289:
	mvn	r0, #0	@ D.40960,
	ldmfd	sp!, {r4, r5, r6, pc}	@
.L1295:
	.align	2
.L1294:
	.word	.LC0
	.word	.LC1
	.fnend
	.size	SliceCheck, .-SliceCheck
	.align	2
	.global	PPSSPSCheck
	.type	PPSSPSCheck, %function
PPSSPSCheck:
	.fnstart
	@ args = 0, pretend = 0, frame = 0
	@ frame_needed = 0, uses_anonymous_args = 0
	@ link register save eliminated.
	add	r1, r0, #12288	@ tmp126, pH264Ctx,
	add	r0, r0, #20480	@ tmp128, pH264Ctx,
	mov	ip, #2208	@ tmp131,
	ldr	r2, [r0, #212]	@ pH264Ctx_3(D)->CurrSlice.pic_parameter_set_id, pH264Ctx_3(D)->CurrSlice.pic_parameter_set_id
	ldr	r3, [r1, #1296]	@ pH264Ctx_3(D)->PPS, pH264Ctx_3(D)->PPS
	mla	r3, ip, r2, r3	@ pPPS, tmp131, pH264Ctx_3(D)->CurrSlice.pic_parameter_set_id, pH264Ctx_3(D)->PPS
	ldrb	r2, [r3, #19]	@ zero_extendqisi2	@ pPPS_7->is_valid, pPPS_7->is_valid
	cmp	r2, #0	@ pPPS_7->is_valid,
	ldrne	r2, [r3, #28]	@ pPPS_7->seq_parameter_set_id, pPPS_7->seq_parameter_set_id
	movne	r0, #4000	@ tmp139,
	ldrne	r3, [r1, #1292]	@ pH264Ctx_3(D)->SPS, pH264Ctx_3(D)->SPS
	mlane	r3, r0, r2, r3	@ tmp140, tmp139, pPPS_7->seq_parameter_set_id, pH264Ctx_3(D)->SPS
	ldrneb	r0, [r3, #23]	@ zero_extendqisi2	@ pSPS_12->is_valid, pSPS_12->is_valid
	clzne	r0, r0	@ D.40973, pSPS_12->is_valid
	movne	r0, r0, lsr #5	@ D.40973, D.40973,
	rsbne	r0, r0, #0	@ D.40968, D.40973
	mvneq	r0, #0	@ D.40968,
	bx	lr	@
	.fnend
	.size	PPSSPSCheck, .-PPSSPSCheck
	.align	2
	.global	PPSSPSCheckTmpId
	.type	PPSSPSCheckTmpId, %function
PPSSPSCheckTmpId:
	.fnstart
	@ args = 0, pretend = 0, frame = 0
	@ frame_needed = 0, uses_anonymous_args = 0
	@ link register save eliminated.
	add	r0, r0, #12288	@ tmp129, pH264Ctx,
	mov	r3, #2208	@ tmp131,
	ldr	r2, [r0, #1296]	@ pH264Ctx_3(D)->PPS, pH264Ctx_3(D)->PPS
	mla	r1, r3, r1, r2	@ pPPS, tmp131, tmp_pic_parameter_set_id, pH264Ctx_3(D)->PPS
	ldrb	r3, [r1, #19]	@ zero_extendqisi2	@ pPPS_7->is_valid, pPPS_7->is_valid
	cmp	r3, #0	@ pPPS_7->is_valid,
	beq	.L1302	@,
	ldr	r2, [r0, #1284]	@ pH264Ctx_3(D)->MaxSpsNum, pH264Ctx_3(D)->MaxSpsNum
	ldr	r3, [r1, #28]	@ D.40979, pPPS_7->seq_parameter_set_id
	sub	r2, r2, #1	@ D.40981, pH264Ctx_3(D)->MaxSpsNum,
	cmp	r3, r2	@ D.40979, D.40981
	bhi	.L1302	@,
	ldr	r2, [r0, #1292]	@ pH264Ctx_3(D)->SPS, pH264Ctx_3(D)->SPS
	mov	r1, #4000	@ tmp142,
	mla	r3, r1, r3, r2	@ tmp143, tmp142, D.40979, pH264Ctx_3(D)->SPS
	ldrb	r0, [r3, #23]	@ zero_extendqisi2	@ pSPS_15->is_valid, pSPS_15->is_valid
	clz	r0, r0	@ D.40983, pSPS_15->is_valid
	mov	r0, r0, lsr #5	@ D.40983, D.40983,
	rsb	r0, r0, #0	@ D.40977, D.40983
	bx	lr	@
.L1302:
	mvn	r0, #0	@ D.40977,
	bx	lr	@
	.fnend
	.size	PPSSPSCheckTmpId, .-PPSSPSCheckTmpId
	.align	2
	.global	IsNewPic
	.type	IsNewPic, %function
IsNewPic:
	.fnstart
	@ args = 0, pretend = 0, frame = 0
	@ frame_needed = 0, uses_anonymous_args = 0
	add	r3, r0, #20480	@ tmp300, pH264Ctx,
	add	r1, r0, #12288	@ tmp182, pH264Ctx,
	stmfd	sp!, {r4, r5, lr}	@,
	.save {r4, r5, lr}
	ldr	r1, [r1, #2044]	@ pH264Ctx_7(D)->CurrSPS.seq_parameter_set_id, pH264Ctx_7(D)->CurrSPS.seq_parameter_set_id
	ldr	ip, [r3, #1852]	@ pH264Ctx_7(D)->PrevSlice.seq_parameter_set_id, pH264Ctx_7(D)->PrevSlice.seq_parameter_set_id
	ldr	r2, [r3, #1856]	@ pH264Ctx_7(D)->PrevSlice.pic_parameter_set_id, pH264Ctx_7(D)->PrevSlice.pic_parameter_set_id
	ldr	lr, [r3, #212]	@ pH264Ctx_7(D)->CurrSlice.pic_parameter_set_id, pH264Ctx_7(D)->CurrSlice.pic_parameter_set_id
	ldr	r5, [r3, #1864]	@ pH264Ctx_7(D)->PrevSlice.frame_num, pH264Ctx_7(D)->PrevSlice.frame_num
	cmp	r2, lr	@ pH264Ctx_7(D)->PrevSlice.pic_parameter_set_id, pH264Ctx_7(D)->CurrSlice.pic_parameter_set_id
	cmpeq	ip, r1	@, pH264Ctx_7(D)->PrevSlice.seq_parameter_set_id, pH264Ctx_7(D)->CurrSPS.seq_parameter_set_id
	ldr	r4, [r3, #220]	@ pH264Ctx_7(D)->CurrSlice.frame_num, pH264Ctx_7(D)->CurrSlice.frame_num
	ldrb	lr, [r3, #1848]	@ zero_extendqisi2	@ D.40988, pH264Ctx_7(D)->PrevSlice.field_pic_flag
	ldrb	ip, [r3, #201]	@ zero_extendqisi2	@ D.40988, pH264Ctx_7(D)->CurrSlice.field_pic_flag
	movne	r1, #1	@ tmp195,
	moveq	r1, #0	@ tmp195,
	cmp	r5, r4	@ pH264Ctx_7(D)->PrevSlice.frame_num, pH264Ctx_7(D)->CurrSlice.frame_num
	moveq	r2, r1	@, tmp205, tmp195
	orrne	r2, r1, #1	@,, tmp205, tmp195
	cmp	lr, ip	@ D.40988, D.40988
	orrne	r2, r2, #1	@,, D.40986, tmp205
	cmp	lr, #0	@ D.40988,
	cmpne	ip, #0	@, D.40988,
	beq	.L1305	@,
	ldrb	ip, [r3, #1849]	@ zero_extendqisi2	@ pH264Ctx_7(D)->PrevSlice.bottom_field_flag, pH264Ctx_7(D)->PrevSlice.bottom_field_flag
	ldrb	r1, [r3, #202]	@ zero_extendqisi2	@ pH264Ctx_7(D)->CurrSlice.bottom_field_flag, pH264Ctx_7(D)->CurrSlice.bottom_field_flag
	cmp	ip, r1	@ pH264Ctx_7(D)->PrevSlice.bottom_field_flag, pH264Ctx_7(D)->CurrSlice.bottom_field_flag
	orrne	r2, r2, #1	@,, result, D.40986
.L1305:
	ldr	r1, [r3, #1860]	@ D.40987, pH264Ctx_7(D)->PrevSlice.nal_ref_idc
	ldr	ip, [r3, #232]	@ D.40987, pH264Ctx_7(D)->CurrSlice.nal_ref_idc
	cmp	r1, ip	@ D.40987, D.40987
	moveq	r1, #0	@ D.40987,
	beq	.L1306	@,
	cmp	ip, #0	@ D.40987,
	cmpne	r1, #0	@, D.40987,
	moveq	r1, #1	@ D.40987,
	movne	r1, #0	@ D.40987,
.L1306:
	ldrb	ip, [r3, #1850]	@ zero_extendqisi2	@ D.40988, pH264Ctx_7(D)->PrevSlice.nal_unit_type
	ldrb	lr, [r3, #203]	@ zero_extendqisi2	@ D.40988, pH264Ctx_7(D)->CurrSlice.nal_unit_type
	cmp	ip, lr	@ D.40988, D.40988
	orrne	r2, r2, #1	@,, D.40989, result
	cmp	lr, #5	@ D.40988,
	cmpeq	ip, #5	@, D.40988,
	orr	r2, r2, r1	@ result, D.40989, D.40987
	beq	.L1315	@,
.L1307:
	add	r0, r0, #16384	@ tmp257, pH264Ctx,
	ldr	r1, [r0, #112]	@ D.40987, pH264Ctx_7(D)->CurrSPS.pic_order_cnt_type
	cmp	r1, #0	@ D.40987,
	bne	.L1308	@,
	ldr	r1, [r3, #1872]	@ pH264Ctx_7(D)->PrevSlice.pic_oder_cnt_lsb, pH264Ctx_7(D)->PrevSlice.pic_oder_cnt_lsb
	ldr	lr, [r0, #3416]	@ pH264Ctx_7(D)->CurrPOC.delta_pic_order_cnt_bottom, pH264Ctx_7(D)->CurrPOC.delta_pic_order_cnt_bottom
	ldr	ip, [r3, #1876]	@ pH264Ctx_7(D)->PrevSlice.delta_pic_oder_cnt_bottom, pH264Ctx_7(D)->PrevSlice.delta_pic_oder_cnt_bottom
	ldr	r0, [r0, #3412]	@ pH264Ctx_7(D)->CurrPOC.pic_order_cnt_lsb, pH264Ctx_7(D)->CurrPOC.pic_order_cnt_lsb
	cmp	r1, r0	@ pH264Ctx_7(D)->PrevSlice.pic_oder_cnt_lsb, pH264Ctx_7(D)->CurrPOC.pic_order_cnt_lsb
	cmpeq	ip, lr	@, pH264Ctx_7(D)->PrevSlice.delta_pic_oder_cnt_bottom, pH264Ctx_7(D)->CurrPOC.delta_pic_order_cnt_bottom
	movne	r1, #1	@ D.40989,
	moveq	r1, #0	@ D.40989,
	orr	r2, r2, r1	@ result, result, D.40989
.L1309:
	ldr	r0, [r3, #252]	@ pH264Ctx_7(D)->CurrSlice.first_mb_in_slice, pH264Ctx_7(D)->CurrSlice.first_mb_in_slice
	cmp	r0, #0	@ pH264Ctx_7(D)->CurrSlice.first_mb_in_slice,
	movne	r0, r2	@,, result
	orreq	r0, r2, #1	@,,, result
	ldmfd	sp!, {r4, r5, pc}	@
.L1308:
	cmp	r1, #1	@ D.40987,
	bne	.L1309	@,
	ldr	r1, [r3, #1880]	@ pH264Ctx_7(D)->PrevSlice.delta_pic_order_cnt, pH264Ctx_7(D)->PrevSlice.delta_pic_order_cnt
	ldr	lr, [r0, #3464]	@ pH264Ctx_7(D)->CurrPOC.delta_pic_order_cnt, pH264Ctx_7(D)->CurrPOC.delta_pic_order_cnt
	ldr	ip, [r3, #1884]	@ pH264Ctx_7(D)->PrevSlice.delta_pic_order_cnt, pH264Ctx_7(D)->PrevSlice.delta_pic_order_cnt
	ldr	r0, [r0, #3460]	@ pH264Ctx_7(D)->CurrPOC.delta_pic_order_cnt, pH264Ctx_7(D)->CurrPOC.delta_pic_order_cnt
	cmp	r1, r0	@ pH264Ctx_7(D)->PrevSlice.delta_pic_order_cnt, pH264Ctx_7(D)->CurrPOC.delta_pic_order_cnt
	cmpeq	ip, lr	@, pH264Ctx_7(D)->PrevSlice.delta_pic_order_cnt, pH264Ctx_7(D)->CurrPOC.delta_pic_order_cnt
	movne	r1, #1	@ D.40989,
	moveq	r1, #0	@ D.40989,
	orr	r2, r2, r1	@ result, result, D.40989
	b	.L1309	@
.L1315:
	ldr	ip, [r3, #1868]	@ pH264Ctx_7(D)->PrevSlice.idr_pic_id, pH264Ctx_7(D)->PrevSlice.idr_pic_id
	ldr	r1, [r3, #240]	@ pH264Ctx_7(D)->CurrSlice.idr_pic_id, pH264Ctx_7(D)->CurrSlice.idr_pic_id
	cmp	ip, r1	@ pH264Ctx_7(D)->PrevSlice.idr_pic_id, pH264Ctx_7(D)->CurrSlice.idr_pic_id
	orrne	r2, r2, #1	@,, result, result
	b	.L1307	@
	.fnend
	.size	IsNewPic, .-IsNewPic
	.align	2
	.global	ref_pic_list_reordering
	.type	ref_pic_list_reordering, %function
ref_pic_list_reordering:
	.fnstart
	@ args = 0, pretend = 0, frame = 0
	@ frame_needed = 0, uses_anonymous_args = 0
	stmfd	sp!, {r3, r4, r5, r6, r7, r8, r9, r10, fp, lr}	@,
	.save {r3, r4, r5, r6, r7, r8, r9, r10, fp, lr}
	add	r5, r0, #20480	@ tmp283, pH264Ctx,
	add	r3, r0, #12288	@ tmp175, pH264Ctx,
	mov	lr, #2208	@ tmp183,
	ldr	r1, [r5, #212]	@ pH264Ctx_14(D)->CurrSlice.pic_parameter_set_id, pH264Ctx_14(D)->CurrSlice.pic_parameter_set_id
	mov	ip, #4000	@ tmp187,
	ldr	r2, [r3, #1296]	@ pH264Ctx_14(D)->PPS, pH264Ctx_14(D)->PPS
	add	r7, r0, #16384	@ tmp282, pH264Ctx,
	ldr	r3, [r3, #1292]	@ pH264Ctx_14(D)->SPS, pH264Ctx_14(D)->SPS
	mov	r4, r0	@ pH264Ctx, pH264Ctx
	mov	r0, #0	@ tmp191,
	mov	r6, #1	@ tmp202,
	mla	r2, lr, r1, r2	@ tmp184, tmp183, pH264Ctx_14(D)->CurrSlice.pic_parameter_set_id, pH264Ctx_14(D)->PPS
	ldr	r2, [r2, #28]	@ pPPS_18->seq_parameter_set_id, pPPS_18->seq_parameter_set_id
	strb	r0, [r7, #3504]	@ tmp191, pH264Ctx_14(D)->CurrReorder.ref_pic_list_reordering_flag_l0
	strb	r0, [r7, #3505]	@ tmp191, pH264Ctx_14(D)->CurrReorder.ref_pic_list_reordering_flag_l1
	mla	r3, ip, r2, r3	@ pSPS, tmp187, pPPS_18->seq_parameter_set_id, pH264Ctx_14(D)->SPS
	ldrb	r1, [r5, #201]	@ zero_extendqisi2	@ pH264Ctx_14(D)->CurrSlice.field_pic_flag, pH264Ctx_14(D)->CurrSlice.field_pic_flag
	cmp	r1, r0	@ pH264Ctx_14(D)->CurrSlice.field_pic_flag,
	ldrb	r1, [r5, #200]	@ zero_extendqisi2	@ D.41023, pH264Ctx_14(D)->CurrSlice.slice_type
	ldr	r3, [r3, #2904]	@ pSPS_22->log2_max_frame_num_minus4, pSPS_22->log2_max_frame_num_minus4
	addne	r3, r3, #5	@ D.41021, pSPS_22->log2_max_frame_num_minus4,
	addeq	r3, r3, #4	@ D.41021, pSPS_22->log2_max_frame_num_minus4,
	cmp	r1, #1	@ D.41023,
	mov	r6, r6, asl r3	@ MaxPicNum, tmp205,
	bls	.L1352	@,
.L1333:
	add	r4, r4, #49152	@ tmp252, pH264Ctx,
	ldr	r3, [r4, #3628]	@ D.41026, pH264Ctx_14(D)->SeErrFlg
.L1331:
	adds	r0, r3, #0	@ D.41029, D.41026,
	movne	r0, #1	@ D.41029,
	rsb	r0, r0, #0	@ D.41019, D.41029
	ldmfd	sp!, {r3, r4, r5, r6, r7, r8, r9, r10, fp, pc}	@
.L1352:
	add	r8, r4, #13504	@ D.41025, pH264Ctx,
	mov	r1, #1	@,
	add	r8, r8, #24	@ D.41025, D.41025,
	mov	r0, r8	@, D.41025
	bl	BsGet	@
	ldr	r2, [r4, #368]	@ D.41028, pH264Ctx_14(D)->pCurrNal
	ldr	r3, [r2, #64]	@ _84->nal_bitoffset, _84->nal_bitoffset
	add	r3, r3, #1	@ D.41021, _84->nal_bitoffset,
	str	r3, [r2, #64]	@ D.41021, _84->nal_bitoffset
	uxtb	r0, r0	@ D.41023,
	strb	r0, [r7, #3504]	@ D.41023, pH264Ctx_14(D)->CurrReorder.ref_pic_list_reordering_flag_l0
	cmp	r0, #0	@ D.41023,
	beq	.L1351	@,
	ldr	r3, [r5, #256]	@ pH264Ctx_14(D)->CurrSlice.num_ref_idx_l0_active_minus1, pH264Ctx_14(D)->CurrSlice.num_ref_idx_l0_active_minus1
	cmn	r3, #2	@ pH264Ctx_14(D)->CurrSlice.num_ref_idx_l0_active_minus1,
	beq	.L1339	@,
	add	r10, r4, #19712	@ ivtmp.2076, pH264Ctx,
	mov	r9, #0	@ i,
	add	r10, r10, #176	@ ivtmp.2076, ivtmp.2076,
	b	.L1329	@
.L1326:
	cmp	r0, #2	@ D.41021,
	beq	.L1353	@,
.L1327:
	ldr	r3, [r5, #256]	@ pH264Ctx_14(D)->CurrSlice.num_ref_idx_l0_active_minus1, pH264Ctx_14(D)->CurrSlice.num_ref_idx_l0_active_minus1
	add	r3, r3, #2	@ D.41021, pH264Ctx_14(D)->CurrSlice.num_ref_idx_l0_active_minus1,
	cmp	r3, r9	@ D.41021, i
	bls	.L1354	@,
.L1329:
	ldr	r1, .L1358	@,
	mov	r0, r4	@, pH264Ctx
	bl	ue_v	@
	add	fp, r4, #49152	@ tmp223, pH264Ctx,
	add	r9, r9, #1	@ i, i,
	cmp	r0, #3	@ D.41021,
	str	r0, [r10, #4]!	@ D.41021, MEM[base: _98, offset: 0B]
	bhi	.L1324	@,
	ldr	r3, [fp, #3628]	@ pH264Ctx_14(D)->SeErrFlg, pH264Ctx_14(D)->SeErrFlg
	cmp	r3, #0	@ pH264Ctx_14(D)->SeErrFlg,
	bne	.L1324	@,
	cmp	r0, #3	@ D.41021,
	beq	.L1351	@,
	cmp	r0, #1	@ D.41021,
	bhi	.L1326	@,
	ldr	r1, .L1358+4	@,
	mov	r0, r4	@, pH264Ctx
	bl	ue_v	@
	cmp	r6, r0	@ MaxPicNum, D.41021
	str	r0, [r10, #264]	@ D.41021, MEM[base: _98, offset: 264B]
	bls	.L1324	@,
	ldr	r3, [fp, #3628]	@ pH264Ctx_14(D)->SeErrFlg, pH264Ctx_14(D)->SeErrFlg
	cmp	r3, #0	@ pH264Ctx_14(D)->SeErrFlg,
	beq	.L1327	@,
.L1324:
	mvn	r0, #0	@ D.41019,
	ldmfd	sp!, {r3, r4, r5, r6, r7, r8, r9, r10, fp, pc}	@
.L1354:
	cmp	r9, r3	@ i, D.41021
	bne	.L1351	@,
.L1321:
	add	r3, r3, #4928	@ tmp236, D.41021,
	add	r3, r3, #44	@ tmp236, tmp236,
	add	r3, r4, r3, lsl #2	@ tmp237, pH264Ctx, tmp236,
	ldr	r3, [r3, #4]	@ tmp239, pH264Ctx_14(D)->CurrReorder.reordering_of_pic_nums_idc_l0
	cmp	r3, #3	@ tmp239,
	bne	.L1324	@,
.L1351:
	ldrb	r1, [r5, #200]	@ zero_extendqisi2	@ D.41023, pH264Ctx_14(D)->CurrSlice.slice_type
	cmp	r1, #1	@ D.41023,
	bne	.L1333	@,
	mov	r0, r8	@, D.41025
	bl	BsGet	@
	ldr	r2, [r4, #368]	@ D.41028, pH264Ctx_14(D)->pCurrNal
	ldr	r3, [r2, #64]	@ _89->nal_bitoffset, _89->nal_bitoffset
	add	r3, r3, #1	@ D.41021, _89->nal_bitoffset,
	str	r3, [r2, #64]	@ D.41021, _89->nal_bitoffset
	uxtb	r0, r0	@ D.41023,
	strb	r0, [r7, #3505]	@ D.41023, pH264Ctx_14(D)->CurrReorder.ref_pic_list_reordering_flag_l1
	cmp	r0, #0	@ D.41023,
	beq	.L1333	@,
	ldr	r3, [r5, #260]	@ pH264Ctx_14(D)->CurrSlice.num_ref_idx_l1_active_minus1, pH264Ctx_14(D)->CurrSlice.num_ref_idx_l1_active_minus1
	cmn	r3, #2	@ pH264Ctx_14(D)->CurrSlice.num_ref_idx_l1_active_minus1,
	beq	.L1333	@,
	add	r8, r4, #19968	@ ivtmp.2063, pH264Ctx,
	mov	r7, #0	@ i,
	add	r8, r8, #52	@ ivtmp.2063, ivtmp.2063,
	b	.L1338	@
.L1337:
	add	r7, r7, #1	@ i, i,
	cmp	r7, r3	@ i, D.41021
	bcs	.L1355	@,
.L1338:
	ldr	r1, .L1358+8	@,
	mov	r0, r4	@, pH264Ctx
	bl	ue_v	@
	cmp	r0, #3	@ D.41021,
	str	r0, [r8, #4]!	@ D.41021, MEM[base: _103, offset: 0B]
	bhi	.L1324	@,
	add	r9, r4, #49152	@ tmp281, pH264Ctx,
	ldr	r3, [r9, #3628]	@ D.41026, pH264Ctx_14(D)->SeErrFlg
	cmp	r3, #0	@ D.41026,
	bne	.L1324	@,
	cmp	r0, #3	@ D.41021,
	beq	.L1331	@,
	cmp	r0, #1	@ D.41021,
	bls	.L1356	@,
	cmp	r0, #2	@ D.41021,
	beq	.L1357	@,
	ldr	r3, [r5, #260]	@ pH264Ctx_14(D)->CurrSlice.num_ref_idx_l1_active_minus1, pH264Ctx_14(D)->CurrSlice.num_ref_idx_l1_active_minus1
	add	r3, r3, #2	@ D.41021, pH264Ctx_14(D)->CurrSlice.num_ref_idx_l1_active_minus1,
	cmp	r3, r7	@ D.41021, i
	bne	.L1337	@,
	mvn	r0, #0	@ D.41019,
	ldmfd	sp!, {r3, r4, r5, r6, r7, r8, r9, r10, fp, pc}	@
.L1356:
	ldr	r1, .L1358+12	@,
	mov	r0, r4	@, pH264Ctx
	bl	ue_v	@
	cmp	r6, r0	@ MaxPicNum, D.41021
	str	r0, [r8, #264]	@ D.41021, MEM[base: _103, offset: 264B]
	bls	.L1324	@,
	ldr	r3, [r9, #3628]	@ pH264Ctx_14(D)->SeErrFlg, pH264Ctx_14(D)->SeErrFlg
	cmp	r3, #0	@ pH264Ctx_14(D)->SeErrFlg,
	bne	.L1324	@,
.L1335:
	ldr	r2, [r5, #260]	@ pH264Ctx_14(D)->CurrSlice.num_ref_idx_l1_active_minus1, pH264Ctx_14(D)->CurrSlice.num_ref_idx_l1_active_minus1
