	.arch armv7-a
	.fpu softvfp
	.eabi_attribute 20, 1
	.eabi_attribute 21, 1
	.eabi_attribute 23, 3
	.eabi_attribute 24, 1
	.eabi_attribute 25, 1
	.eabi_attribute 26, 2
	.eabi_attribute 30, 2
	.eabi_attribute 18, 4
	.file	"h264.c"
@ GNU C (Hisilicon_v200(gcc4.4-290+glibc-2.11+eabi+nptl)) version 4.4.1 (arm-hisiv200-linux-gnueabi)
@	compiled by GNU C version 4.1.1 20061011 (Red Hat 4.1.1-30), GMP version 4.3.1, MPFR version 2.4.2.
@ GGC heuristics: --param ggc-min-expand=100 --param ggc-min-heapsize=131072
@ options passed:  -nostdinc
@ -I/usr1/code/v1r4_v1r6_sourceCode/code/current/v1r6_hi3716mv330_pack/work/source/kernel/linux-3.10.y/arch/arm/include
@ -Iarch/arm/include/generated -Iinclude
@ -I/usr1/code/v1r4_v1r6_sourceCode/code/current/v1r6_hi3716mv330_pack/work/source/kernel/linux-3.10.y/arch/arm/include/uapi
@ -Iarch/arm/include/generated/uapi
@ -I/usr1/code/v1r4_v1r6_sourceCode/code/current/v1r6_hi3716mv330_pack/work/source/kernel/linux-3.10.y/include/uapi
@ -Iinclude/generated/uapi -Iarch/arm/mach-hi3716mv310/include
@ -I/usr1/code/v1r4_v1r6_sourceCode/code/current/v1r6_hi3716mv330_pack/work/source/kernel/linux-3.10.y/../../../source/common/include
@ -I/usr1/code/v1r4_v1r6_sourceCode/code/current/v1r6_hi3716mv330_pack/work/source/kernel/linux-3.10.y/../../../source/common/drv/include
@ -I/usr1/code/v1r4_v1r6_sourceCode/code/current/v1r6_hi3716mv330_pack/work/source/kernel/linux-3.10.y/../../../source/msp/drv/vfmw/vfmw_v4.0/drv/memmap
@ -I/usr1/code/v1r4_v1r6_sourceCode/code/current/v1r6_hi3716mv330_pack/work/source/kernel/linux-3.10.y/../../../source/msp/drv/vfmw/vfmw_v4.0/model/scd
@ -I/usr1/code/v1r4_v1r6_sourceCode/code/current/v1r6_hi3716mv330_pack/work/source/kernel/linux-3.10.y/../../../source/msp/drv/vfmw/vfmw_v4.0/firmware/common/softlib
@ -I/usr1/code/v1r4_v1r6_sourceCode/code/current/v1r6_hi3716mv330_pack/work/source/kernel/linux-3.10.y/../../../source/msp/drv/vfmw/vfmw_v4.0/firmware/common
@ -I/usr1/code/v1r4_v1r6_sourceCode/code/current/v1r6_hi3716mv330_pack/work/source/kernel/linux-3.10.y/../../../source/msp/drv/vfmw/vfmw_v4.0/firmware/common/syntax
@ -I/usr1/code/v1r4_v1r6_sourceCode/code/current/v1r6_hi3716mv330_pack/work/source/kernel/linux-3.10.y/../../../source/msp/drv/vfmw/vfmw_v4.0/firmware/driver/HiSCDV300
@ -I/usr1/code/v1r4_v1r6_sourceCode/code/current/v1r6_hi3716mv330_pack/work/source/kernel/linux-3.10.y/../../../source/msp/drv/vfmw/vfmw_v4.0/firmware/driver/HiVDHV100
@ -I/usr1/code/v1r4_v1r6_sourceCode/code/current/v1r6_hi3716mv330_pack/work/source/kernel/linux-3.10.y/../../../source/msp/drv/vfmw/vfmw_v4.0/firmware/driver/HiVDHV200R001
@ -I/usr1/code/v1r4_v1r6_sourceCode/code/current/v1r6_hi3716mv330_pack/work/source/kernel/linux-3.10.y/../../../source/msp/drv/vfmw/vfmw_v4.0/firmware/driver/HiVDHV200R002
@ -I/usr1/code/v1r4_v1r6_sourceCode/code/current/v1r6_hi3716mv330_pack/work/source/kernel/linux-3.10.y/../../../source/msp/drv/vfmw/vfmw_v4.0/firmware/driver/HiVDHV200R003
@ -I/usr1/code/v1r4_v1r6_sourceCode/code/current/v1r6_hi3716mv330_pack/work/source/kernel/linux-3.10.y/../../../source/msp/drv/vfmw/vfmw_v4.0/firmware/driver/HiVDHV200R004
@ -I/usr1/code/v1r4_v1r6_sourceCode/code/current/v1r6_hi3716mv330_pack/work/source/kernel/linux-3.10.y/../../../source/msp/drv/vfmw/vfmw_v4.0/model/rawpacket
@ -I/usr1/code/v1r4_v1r6_sourceCode/code/current/v1r6_hi3716mv330_pack/work/source/kernel/linux-3.10.y/../../../source/msp/drv/vfmw/vfmw_v4.0/firmware/product/Hi3716MV330/osal/linux_kernel
@ -I/usr1/code/v1r4_v1r6_sourceCode/code/current/v1r6_hi3716mv330_pack/work/source/kernel/linux-3.10.y/../../../source/msp/drv/vfmw/vfmw_v4.0/firmware/product/Hi3716MV330
@ -I/usr1/code/v1r4_v1r6_sourceCode/code/current/v1r6_hi3716mv330_pack/work/source/kernel/linux-3.10.y/../../../source/msp/drv/vfmw/vfmw_v4.0/firmware/driver/HiDNR
@ -I/usr1/code/v1r4_v1r6_sourceCode/code/current/v1r6_hi3716mv330_pack/work/source/kernel/linux-3.10.y/../../../source/msp/drv/vfmw/vfmw_v4.0/firmware/driver/HiBTLV100
@ -I/usr1/code/v1r4_v1r6_sourceCode/code/current/v1r6_hi3716mv330_pack/work/source/kernel/linux-3.10.y/../../../source/msp/drv/vfmw/vfmw_v4.0/firmware/common_test/vdecko
@ -imultilib armv7a_soft -iprefix
@ /opt/hisi-linux/x86-arm/arm-hisiv200-linux/bin/../lib/gcc/arm-hisiv200-linux-gnueabi/4.4.1/
@ -isysroot /opt/hisi-linux/x86-arm/arm-hisiv200-linux/bin/../target
@ -D__KERNEL__ -D__LINUX_ARM_ARCH__=7 -Uarm -DHi3716MV330
@ -DENV_ARMLINUX_KERNEL -DOFF_LINE_DNR_ENABLE -DSCD_MP4_SLICE_ENABLE
@ -DSUPPORT_JPEG_444 -DVFMW_EXTRA_TYPE_DEFINE -DPRODUCT_STB
@ -D__VFMW_REGISTER_ISR__ -DVFMW_VDH_V200R004_SUPPORT -DVFMW_H264_SUPPORT
@ -DVFMW_MPEG2_SUPPORT -DVFMW_MPEG4_SUPPORT -DVFMW_BPD_H_SUPPORT
@ -DVFMW_DNR_SUPPORT -DVFMW_RAW_SUPPORT -DVFMW_USER_SUPPORT
@ -DCFG_MAX_CHAN_NUM=1 -DCFG_MAX_CHAN_NUM=1 -DVFMW_DPRINT_SUPPORT
@ -DVFMW_AVSPLUS_SUPPORT -DVFMW_SYSTEM_REG_DISABLE -DREPAIR_ENABLE
@ -D_FORTIFY_SOURCE=2 -DCHIP_TYPE_hi3716mv330
@ -DSDK_VERSION=HiSTBLinuxV100R006C00SPC052 -DHI_LOG_SUPPORT=1
@ -DHI_LOG_LEVEL=4 -DHI_PROC_SUPPORT=1 -DHI_PNG_DECODER_SUPPORT
@ -DHI_KEYLED_SUPPORT -DHI_HDCP_SUPPORT -DHI_SCI_SUPPORT
@ -DHI_GPIOI2C_SUPPORT -DHI_IR_S2_SUPPORT -DHI_DSC_SUPPORT -DMODULE
@ -DKBUILD_STR(s)=#s -DKBUILD_BASENAME=KBUILD_STR(h264)
@ -DKBUILD_MODNAME=KBUILD_STR(hi_vfmw) -isystem
@ /opt/hisi-linux/x86-arm/arm-hisiv200-linux/bin/../lib/gcc/arm-hisiv200-linux-gnueabi/4.4.1/include
@ -include
@ /usr1/code/v1r4_v1r6_sourceCode/code/current/v1r6_hi3716mv330_pack/work/source/kernel/linux-3.10.y/include/linux/kconfig.h
@ -MD
@ /usr1/code/v1r4_v1r6_sourceCode/code/current/v1r6_hi3716mv330_pack/work/source/msp/drv/vfmw/vfmw_v4.0/firmware/common/syntax/.h264.o.d
@ /usr1/code/v1r4_v1r6_sourceCode/code/current/v1r6_hi3716mv330_pack/work/source/msp/drv/vfmw/vfmw_v4.0/firmware/common/syntax/h264.c
@ -mlittle-endian -mabi=aapcs-linux -mno-thumb-interwork -marm
@ -march=armv7-a -msoft-float -auxbase-strip
@ /usr1/code/v1r4_v1r6_sourceCode/code/current/v1r6_hi3716mv330_pack/work/source/msp/drv/vfmw/vfmw_v4.0/firmware/common/syntax/h264.o
@ -O2 -Wall -Wundef -Wstrict-prototypes -Wno-trigraphs
@ -Werror-implicit-function-declaration -Wno-format-security
@ -Wframe-larger-than=1024 -Wdeclaration-after-statement -Wno-pointer-sign
@ -fno-strict-aliasing -fno-common -fno-delete-null-pointer-checks
@ -fno-dwarf2-cfi-asm -funwind-tables -fno-stack-protector
@ -fomit-frame-pointer -fno-strict-overflow -fconserve-stack -fno-pic
@ -fverbose-asm
@ options enabled:  -falign-loops -fargument-alias -fauto-inc-dec
@ -fbranch-count-reg -fcaller-saves -fcprop-registers -fcrossjumping
@ -fcse-follow-jumps -fdefer-pop -fearly-inlining
@ -feliminate-unused-debug-types -fexpensive-optimizations
@ -fforward-propagate -ffunction-cse -fgcse -fgcse-lm
@ -fguess-branch-probability -fident -fif-conversion -fif-conversion2
@ -findirect-inlining -finline -finline-functions-called-once
@ -finline-small-functions -fipa-cp -fipa-pure-const -fipa-reference
@ -fira-share-save-slots -fira-share-spill-slots -fivopts
@ -fkeep-static-consts -fleading-underscore -fmath-errno -fmerge-constants
@ -fmerge-debug-strings -fmove-loop-invariants -fomit-frame-pointer
@ -foptimize-register-move -foptimize-sibling-calls -fpeephole -fpeephole2
@ -fpromote-loop-indices -freg-struct-return -fregmove -frename-registers
@ -freorder-blocks -freorder-functions -frerun-cse-after-loop
@ -fsched-interblock -fsched-spec -fsched-stalled-insns-dep
@ -fschedule-insns -fschedule-insns2 -fsection-anchors -fsigned-zeros
@ -fsplit-ivs-in-unroller -fsplit-wide-types -fthread-jumps
@ -ftoplevel-reorder -ftrapping-math -ftree-builtin-call-dce -ftree-ccp
@ -ftree-ch -ftree-copy-prop -ftree-copyrename -ftree-cselim -ftree-dce
@ -ftree-dominator-opts -ftree-dse -ftree-fre -ftree-loop-im
@ -ftree-loop-ivcanon -ftree-loop-optimize -ftree-parallelize-loops=
@ -ftree-pre -ftree-reassoc -ftree-scev-cprop -ftree-sink -ftree-sra
@ -ftree-switch-conversion -ftree-ter -ftree-vect-loop-version -ftree-vrp
@ -funit-at-a-time -funroll-loops -funwind-tables -fverbose-asm -fweb
@ -fzero-initialized-in-bss -mglibc -mlittle-endian -msched-prolog

@ Compiler executable checksum: fa59e0bd179ef45b3a3c3e6f3383fdac

	.text
	.align	2
	.global	GetMinPOC
	.type	GetMinPOC, %function
GetMinPOC:
	.fnstart
.LFB1608:
	@ args = 0, pretend = 0, frame = 0
	@ frame_needed = 0, uses_anonymous_args = 0
	@ link register save eliminated.
	movw	ip, #26628	@ tmp173,
	mvn	r3, #-2147483648	@ tmp172,
	stmfd	sp!, {r4, r5, r6, r7}	@,
	.save {r4, r5, r6, r7}
	mov	r4, #0	@ tmp171,
	str	r4, [r2, #0]	@ tmp171,* pos
	mov	r4, #26624	@ tmp174,
	str	r3, [r1, #0]	@ tmp172,* poc
	ldr	r3, [r0, r4]	@ prephitmp.879, <variable>.DPB.size
	ldr	r4, [r0, ip]	@ prephitmp.861, <variable>.DPB.used_size
	cmp	r4, r3	@ prephitmp.861, prephitmp.879
	strhi	r3, [r0, ip]	@ prephitmp.879, <variable>.DPB.used_size
	movls	r3, r4	@ prephitmp.879, prephitmp.861
	cmp	r3, #0	@ prephitmp.879,
	beq	.L7	@,
	add	r5, r0, #26368	@ ivtmp.875, pH264Ctx,
	mov	r3, #0	@ i,
	add	ip, r5, #64	@ ivtmp.875, ivtmp.875,
	movw	r7, #26628	@ tmp181,
.L6:
	ldr	r4, [ip, #0]	@ D.33011, <variable>.DPB.fs
	add	ip, ip, #4	@ ivtmp.875, ivtmp.875,
	ldr	r6, [r1, #0]	@ tmp177,* poc
	ldr	r5, [r4, #524]	@ D.33012, <variable>.poc
	cmp	r6, r5	@ tmp177, D.33012
	ble	.L5	@,
	ldrb	r4, [r4, #4]	@ zero_extendqisi2	@ <variable>.is_in_dpb, <variable>.is_in_dpb
	cmp	r4, #0	@ <variable>.is_in_dpb,
	strne	r5, [r1, #0]	@ D.33012,* poc
	strne	r3, [r2, #0]	@ i,* pos
.L5:
	ldr	r4, [r0, r7]	@ <variable>.DPB.used_size, <variable>.DPB.used_size
	add	r3, r3, #1	@ i, i,
	cmp	r4, r3	@ <variable>.DPB.used_size, i
	bhi	.L6	@,
.L7:
	ldmfd	sp!, {r4, r5, r6, r7}
	bx	lr
	.fnend
	.size	GetMinPOC, .-GetMinPOC
	.align	2
	.global	GetMaxPOC
	.type	GetMaxPOC, %function
GetMaxPOC:
	.fnstart
.LFB1609:
	@ args = 0, pretend = 0, frame = 0
	@ frame_needed = 0, uses_anonymous_args = 0
	@ link register save eliminated.
	stmfd	sp!, {r4, r5, r6, r7}	@,
	.save {r4, r5, r6, r7}
	mov	r4, #26624	@ tmp143,
	movw	r6, #26432	@ tmp148,
	movw	r7, #26628	@ tmp144,
	mov	ip, #0	@ tmp142,
	str	ip, [r2, #0]	@ tmp142,* pos
	ldr	r3, [r0, r4]	@ D.33028, <variable>.DPB.size
	ldr	ip, [r0, r6]	@ <variable>.DPB.fs, <variable>.DPB.fs
	ldr	r4, [r0, r7]	@ <variable>.DPB.used_size, <variable>.DPB.used_size
	cmp	r4, r3	@ <variable>.DPB.used_size, D.33028
	strhi	r3, [r0, r7]	@ D.33028, <variable>.DPB.used_size
	ldr	r6, [ip, #524]	@ prephitmp.895, <variable>.poc
	movw	r7, #26628	@ tmp149,
	str	r6, [r1, #0]	@ prephitmp.895,* poc
	ldr	r3, [r0, r7]	@ <variable>.DPB.used_size, <variable>.DPB.used_size
	cmp	r3, #0	@ <variable>.DPB.used_size,
	beq	.L15	@,
	add	r5, r0, #26368	@ ivtmp.911, pH264Ctx,
	mov	r3, #0	@ i,
	add	ip, r5, #64	@ ivtmp.911, ivtmp.911,
	b	.L14	@
.L16:
	ldr	r6, [r1, #0]	@ prephitmp.895,* poc
.L14:
	ldr	r4, [ip, #0]	@ D.33035, <variable>.DPB.fs
	add	ip, ip, #4	@ ivtmp.911, ivtmp.911,
	ldr	r5, [r4, #524]	@ D.33036, <variable>.poc
	cmp	r5, r6	@ D.33036, prephitmp.895
	ble	.L13	@,
	ldrb	r4, [r4, #4]	@ zero_extendqisi2	@ <variable>.is_in_dpb, <variable>.is_in_dpb
	cmp	r4, #0	@ <variable>.is_in_dpb,
	strne	r5, [r1, #0]	@ D.33036,* poc
	strne	r3, [r2, #0]	@ i,* pos
.L13:
	ldr	r4, [r0, r7]	@ <variable>.DPB.used_size, <variable>.DPB.used_size
	add	r3, r3, #1	@ i, i,
	cmp	r4, r3	@ <variable>.DPB.used_size, i
	bhi	.L16	@,
.L15:
	ldmfd	sp!, {r4, r5, r6, r7}
	bx	lr
	.fnend
	.size	GetMaxPOC, .-GetMaxPOC
	.align	2
	.global	FrameStoreRefFlg
	.type	FrameStoreRefFlg, %function
FrameStoreRefFlg:
	.fnstart
.LFB1610:
	@ args = 0, pretend = 0, frame = 0
	@ frame_needed = 0, uses_anonymous_args = 0
	@ link register save eliminated.
	ldrb	r0, [r0, #2]	@ zero_extendqisi2	@ <variable>.is_reference, <variable>.is_reference
	subs	r0, r0, #0	@, <variable>.is_reference,
	movne	r0, #1	@
	bx	lr	@
	.fnend
	.size	FrameStoreRefFlg, .-FrameStoreRefFlg
	.align	2
	.global	ShortTermRefFlg
	.type	ShortTermRefFlg, %function
ShortTermRefFlg:
	.fnstart
.LFB1611:
	@ args = 0, pretend = 0, frame = 0
	@ frame_needed = 0, uses_anonymous_args = 0
	@ link register save eliminated.
	ldrb	r3, [r0, #2]	@ zero_extendqisi2	@ D.33050, <variable>.is_reference
	cmp	r3, #3	@ D.33050,
	beq	.L27	@,
	tst	r3, #1	@ D.33050,
	bne	.L22	@,
.L23:
	ands	r3, r3, #2	@ tmp145, D.33050,
	moveq	r0, r3	@ D.33057, tmp145
	bxeq	lr	@
	ldr	r1, [r0, #472]	@ tmp148,
	bic	r2, r1, #-16777216	@ tmp146, tmp148,
	bic	r0, r2, #255	@ tmp146, tmp146,
	cmp	r0, #65536	@ tmp146,
	movne	r0, #0	@, D.33057
	moveq	r0, #1	@, D.33057
	bx	lr	@
.L27:
	ldr	ip, [r0, #400]	@ tmp140,
	bic	r1, ip, #-16777216	@ tmp138, tmp140,
	bic	r2, r1, #255	@ tmp138, tmp138,
	cmp	r2, #65536	@ tmp138,
	beq	.L21	@,
.L22:
	ldr	ip, [r0, #436]	@ tmp144,
	bic	r1, ip, #-16777216	@ tmp142, tmp144,
	bic	r2, r1, #255	@ tmp142, tmp142,
	cmp	r2, #65536	@ tmp142,
	bne	.L23	@,
.L21:
	mov	r0, #1	@ D.33057,
	bx	lr	@
	.fnend
	.size	ShortTermRefFlg, .-ShortTermRefFlg
	.align	2
	.global	LongTermRefFlg
	.type	LongTermRefFlg, %function
LongTermRefFlg:
	.fnstart
.LFB1612:
	@ args = 0, pretend = 0, frame = 0
	@ frame_needed = 0, uses_anonymous_args = 0
	@ link register save eliminated.
	ldrb	r3, [r0, #2]	@ zero_extendqisi2	@ D.33077, <variable>.is_reference
	cmp	r3, #3	@ D.33077,
	beq	.L36	@,
	tst	r3, #1	@ D.33077,
	bne	.L31	@,
.L32:
	ands	r3, r3, #2	@ tmp145, D.33077,
	moveq	r0, r3	@ D.33084, tmp145
	bxeq	lr	@
	ldr	r1, [r0, #472]	@ tmp148,
	bic	r2, r1, #-16777216	@ tmp146, tmp148,
	bic	r0, r2, #255	@ tmp146, tmp146,
	cmp	r0, #256	@ tmp146,
	movne	r0, #0	@, D.33084
	moveq	r0, #1	@, D.33084
	bx	lr	@
.L36:
	ldr	ip, [r0, #400]	@ tmp140,
	bic	r1, ip, #-16777216	@ tmp138, tmp140,
	bic	r2, r1, #255	@ tmp138, tmp138,
	cmp	r2, #256	@ tmp138,
	beq	.L30	@,
.L31:
	ldr	ip, [r0, #436]	@ tmp144,
	bic	r1, ip, #-16777216	@ tmp142, tmp144,
	bic	r2, r1, #255	@ tmp142, tmp142,
	cmp	r2, #256	@ tmp142,
	bne	.L32	@,
.L30:
	mov	r0, #1	@ D.33084,
	bx	lr	@
	.fnend
	.size	LongTermRefFlg, .-LongTermRefFlg
	.align	2
	.global	UpdateLTReflist
	.type	UpdateLTReflist, %function
UpdateLTReflist:
	.fnstart
.LFB1613:
	@ args = 0, pretend = 0, frame = 0
	@ frame_needed = 0, uses_anonymous_args = 0
	stmfd	sp!, {r3, r4, r5, r6, r7, r8, sl, lr}	@,
	.save {r3, r4, r5, r6, r7, r8, sl, lr}
	movw	sl, #26628	@ tmp141,
	ldr	r7, [r0, sl]	@ <variable>.DPB.used_size, <variable>.DPB.used_size
	mov	r8, r0	@ pH264Ctx, pH264Ctx
	cmp	r7, #0	@ <variable>.DPB.used_size,
	beq	.L39	@,
	add	r4, r0, #26368	@ ivtmp.1022, pH264Ctx,
	mov	r7, #0	@ j,
	add	r4, r4, #64	@ ivtmp.1022, ivtmp.1022,
	mov	r5, r7	@ i, j
.L41:
	ldr	r6, [r4, #0]	@ D.33113, <variable>.DPB.fs
	add	r5, r5, #1	@ i, i,
	add	r4, r4, #4	@ ivtmp.1022, ivtmp.1022,
	mov	r0, r6	@, D.33113
	bl	LongTermRefFlg	@
	add	r2, r7, #6592	@ tmp144, j,
	add	r1, r2, #48	@ tmp144, tmp144,
	ldr	r3, [r8, sl]	@ <variable>.DPB.used_size, <variable>.DPB.used_size
	cmp	r0, #0	@,
	strne	r6, [r8, r1, asl #2]	@ D.33113, <variable>.DPB.fs_ltref
	addne	r7, r7, #1	@ j, j,
	cmp	r3, r5	@ <variable>.DPB.used_size, i
	bhi	.L41	@,
.L39:
	mov	r3, #26624	@ tmp149,
	movw	ip, #26636	@ tmp148,
	ldr	r0, [r8, r3]	@ D.33119, <variable>.DPB.size
	str	r7, [r8, ip]	@ j, <variable>.DPB.ltref_frames_in_buffer
	cmp	r7, r0	@ j, D.33119
	ldmcsfd	sp!, {r3, r4, r5, r6, r7, r8, sl, pc}	@
	add	r3, r7, #6592	@ tmp150, j,
	add	r2, r7, #1	@ j, j,
	add	r1, r3, #48	@ tmp150, tmp150,
	cmp	r2, r0	@ j, D.33119
	mvn	ip, r7	@ tmp157, j
	add	r7, ip, r0	@ tmp156, tmp157, D.33119
	add	r8, r8, r1, asl #2	@, ivtmp.1018, pH264Ctx, tmp150,
	and	r7, r7, #1	@ tmp158, tmp156,
	mov	r1, #0	@ tmp154,
	str	r1, [r8], #4	@ tmp154, <variable>.DPB.fs_ltref
	ldmcsfd	sp!, {r3, r4, r5, r6, r7, r8, sl, pc}	@
	cmp	r7, #0	@ tmp158,
	beq	.L43	@,
	add	r2, r2, #1	@ j, j,
	str	r1, [r8], #4	@ tmp154, <variable>.DPB.fs_ltref
	cmp	r2, r0	@ j, D.33119
	ldmcsfd	sp!, {r3, r4, r5, r6, r7, r8, sl, pc}	@
.L43:
	add	r2, r2, #2	@ j, j,
	mov	ip, r8	@ tmp160, ivtmp.1018
	cmp	r2, r0	@ j, D.33119
	str	r1, [ip], #4	@ tmp154, <variable>.DPB.fs_ltref
	str	r1, [r8, #4]	@ tmp154, <variable>.DPB.fs_ltref
	add	r8, ip, #4	@ ivtmp.1018, tmp160,
	bcc	.L43	@,
	ldmfd	sp!, {r3, r4, r5, r6, r7, r8, sl, pc}	@
	.fnend
	.size	UpdateLTReflist, .-UpdateLTReflist
	.align	2
	.global	UpdateReflist
	.type	UpdateReflist, %function
UpdateReflist:
	.fnstart
.LFB1614:
	@ args = 0, pretend = 0, frame = 0
	@ frame_needed = 0, uses_anonymous_args = 0
	stmfd	sp!, {r3, r4, r5, r6, r7, r8, sl, lr}	@,
	.save {r3, r4, r5, r6, r7, r8, sl, lr}
	movw	sl, #26628	@ tmp141,
	ldr	r7, [r0, sl]	@ <variable>.DPB.used_size, <variable>.DPB.used_size
	mov	r8, r0	@ pH264Ctx, pH264Ctx
	cmp	r7, #0	@ <variable>.DPB.used_size,
	beq	.L54	@,
	add	r4, r0, #26368	@ ivtmp.1060, pH264Ctx,
	mov	r7, #0	@ j,
	add	r4, r4, #64	@ ivtmp.1060, ivtmp.1060,
	mov	r5, r7	@ i, j
.L56:
	ldr	r6, [r4, #0]	@ D.33132, <variable>.DPB.fs
	add	r5, r5, #1	@ i, i,
	add	r4, r4, #4	@ ivtmp.1060, ivtmp.1060,
	mov	r0, r6	@, D.33132
	bl	ShortTermRefFlg	@
	add	r2, r7, #6592	@ tmp144, j,
	add	r1, r2, #32	@ tmp144, tmp144,
	ldr	r3, [r8, sl]	@ <variable>.DPB.used_size, <variable>.DPB.used_size
	cmp	r0, #0	@,
	strne	r6, [r8, r1, asl #2]	@ D.33132, <variable>.DPB.fs_ref
	addne	r7, r7, #1	@ j, j,
	cmp	r3, r5	@ <variable>.DPB.used_size, i
	bhi	.L56	@,
.L54:
	mov	r3, #26624	@ tmp149,
	movw	ip, #26632	@ tmp148,
	ldr	r0, [r8, r3]	@ D.33138, <variable>.DPB.size
	str	r7, [r8, ip]	@ j, <variable>.DPB.ref_frames_in_buffer
	cmp	r7, r0	@ j, D.33138
	ldmcsfd	sp!, {r3, r4, r5, r6, r7, r8, sl, pc}	@
	add	r3, r7, #6592	@ tmp150, j,
	add	r2, r7, #1	@ j, j,
	add	r1, r3, #32	@ tmp150, tmp150,
	cmp	r2, r0	@ j, D.33138
	mvn	ip, r7	@ tmp157, j
	add	r7, ip, r0	@ tmp156, tmp157, D.33138
	add	r8, r8, r1, asl #2	@, ivtmp.1056, pH264Ctx, tmp150,
	and	r7, r7, #1	@ tmp158, tmp156,
	mov	r1, #0	@ tmp154,
	str	r1, [r8], #4	@ tmp154, <variable>.DPB.fs_ref
	ldmcsfd	sp!, {r3, r4, r5, r6, r7, r8, sl, pc}	@
	cmp	r7, #0	@ tmp158,
	beq	.L58	@,
	add	r2, r2, #1	@ j, j,
	str	r1, [r8], #4	@ tmp154, <variable>.DPB.fs_ref
	cmp	r2, r0	@ j, D.33138
	ldmcsfd	sp!, {r3, r4, r5, r6, r7, r8, sl, pc}	@
.L58:
	add	r2, r2, #2	@ j, j,
	mov	ip, r8	@ tmp160, ivtmp.1056
	cmp	r2, r0	@ j, D.33138
	str	r1, [ip], #4	@ tmp154, <variable>.DPB.fs_ref
	str	r1, [r8, #4]	@ tmp154, <variable>.DPB.fs_ref
	add	r8, ip, #4	@ ivtmp.1056, tmp160,
	bcc	.L58	@,
	ldmfd	sp!, {r3, r4, r5, r6, r7, r8, sl, pc}	@
	.fnend
	.size	UpdateReflist, .-UpdateReflist
	.align	2
	.global	GetPicNumX
	.type	GetPicNumX, %function
GetPicNumX:
	.fnstart
.LFB1615:
	@ args = 0, pretend = 0, frame = 0
	@ frame_needed = 0, uses_anonymous_args = 0
	@ link register save eliminated.
	ldrb	r3, [r0, #3]	@ zero_extendqisi2	@ <variable>.structure, <variable>.structure
	mvn	r1, r1	@ tmp141, difference_of_pic_nums_minus1
	ldr	r0, [r0, #416]	@ CurrPicNum, <variable>.frame_num
	cmp	r3, #0	@ <variable>.structure,
	movne	r0, r0, asl #1	@ tmp138, <variable>.frame_num,
	addne	r0, r0, #1	@ CurrPicNum, tmp138,
	add	r0, r0, r1	@, CurrPicNum, tmp141
	bx	lr	@
	.fnend
	.size	GetPicNumX, .-GetPicNumX
	.align	2
	.global	MarkPicLTRef
	.type	MarkPicLTRef, %function
MarkPicLTRef:
	.fnstart
.LFB1621:
	@ args = 0, pretend = 0, frame = 0
	@ frame_needed = 0, uses_anonymous_args = 0
	@ link register save eliminated.
	stmfd	sp!, {r4, r5, r6, r7, r8, sl}	@,
	.save {r4, r5, r6, r7, r8, sl}
	ldrb	r3, [r3, #3]	@ zero_extendqisi2	@ D.33377, <variable>.structure
	cmp	r3, #0	@ D.33377,
	beq	.L72	@,
	movw	ip, #26632	@ tmp155,
	ldr	r8, [r0, ip]	@ D.33393, <variable>.DPB.ref_frames_in_buffer
	cmp	r8, #0	@ D.33393,
	beq	.L82	@,
	add	r5, r0, #26368	@ ivtmp.1124, pH264Ctx,
	sub	r6, r8, #1	@ tmp280, D.33393,
	and	r7, r6, #1	@ tmp282, tmp280,
	mov	r4, #0	@ i.1142,
	ldr	ip, [r5, #128]!	@ temp.1134, <variable>.DPB.fs_ref
	ldrb	r6, [ip, #2]	@ zero_extendqisi2	@ D.33395, <variable>.is_reference
	tst	r6, #1	@ D.33395,
	beq	.L92	@,
	ldr	sl, [ip, #436]	@ tmp311,
	bic	sl, sl, #-16777216	@ tmp312, tmp311,
	bic	sl, sl, #255	@ tmp312, tmp312,
	cmp	sl, #65536	@ tmp312,
	beq	.L111	@,
.L92:
	tst	r6, #2	@ D.33395,
	beq	.L93	@,
	ldr	r6, [ip, #472]	@ tmp306,
	bic	r6, r6, #-16777216	@ tmp307, tmp306,
	bic	r6, r6, #255	@ tmp307, tmp307,
	cmp	r6, #65536	@ tmp307,
	beq	.L112	@,
.L93:
	mov	r4, #1	@ i.1142,
	cmp	r8, r4	@ D.33393, i.1142
	add	r5, r5, #4	@ ivtmp.1124, ivtmp.1124,
	bls	.L82	@,
	cmp	r7, #0	@ tmp282,
	beq	.L81	@,
	ldr	ip, [r5, #0]	@ temp.1134, <variable>.DPB.fs_ref
	ldrb	r6, [ip, #2]	@ zero_extendqisi2	@ D.33395, <variable>.is_reference
	tst	r6, #1	@ D.33395,
	beq	.L95	@,
	ldr	r7, [ip, #436]	@ tmp324,
	bic	r7, r7, #-16777216	@ tmp325, tmp324,
	bic	r7, r7, #255	@ tmp325, tmp325,
	cmp	r7, #65536	@ tmp325,
	beq	.L113	@,
.L95:
	tst	r6, #2	@ D.33395,
	beq	.L96	@,
	ldr	r6, [ip, #472]	@ tmp319,
	bic	r6, r6, #-16777216	@ tmp320, tmp319,
	bic	r6, r6, #255	@ tmp320, tmp320,
	cmp	r6, #65536	@ tmp320,
	beq	.L114	@,
.L96:
	add	r4, r4, #1	@ i.1142, i.1142,
	add	r5, r5, #4	@ ivtmp.1124, ivtmp.1124,
	cmp	r8, r4	@ D.33393, i.1142
	bhi	.L81	@,
.L82:
	ldmfd	sp!, {r4, r5, r6, r7, r8, sl}
	bx	lr
.L72:
	movw	ip, #26632	@ tmp156,
	ldr	r7, [r0, ip]	@ temp.1143, <variable>.DPB.ref_frames_in_buffer
	cmp	r7, #0	@ temp.1143,
	beq	.L82	@,
	add	r4, r0, #26368	@ ivtmp.1119, pH264Ctx,
	sub	r5, r7, #1	@ tmp275, temp.1143,
	and	r6, r5, #1	@ tmp277, tmp275,
	ldr	ip, [r4, #128]!	@ D.33381, <variable>.DPB.fs_ref
	ldrb	r5, [ip, #2]	@ zero_extendqisi2	@ <variable>.is_reference, <variable>.is_reference
	cmp	r5, #3	@ <variable>.is_reference,
	beq	.L115	@,
.L85:
	mov	r3, #1	@ i,
	cmp	r3, r7	@ i, temp.1143
	add	r4, r4, #4	@ ivtmp.1119, ivtmp.1119,
	bcs	.L82	@,
	cmp	r6, #0	@ tmp277,
	beq	.L76	@,
	ldr	ip, [r4, #0]	@ D.33381, <variable>.DPB.fs_ref
	ldrb	r5, [ip, #2]	@ zero_extendqisi2	@ <variable>.is_reference, <variable>.is_reference
	cmp	r5, #3	@ <variable>.is_reference,
	beq	.L116	@,
.L87:
	add	r3, r3, #1	@ i, i,
	add	r4, r4, #4	@ ivtmp.1119, ivtmp.1119,
	cmp	r3, r7	@ i, temp.1143
	bcc	.L76	@,
	b	.L82	@
.L75:
	ldr	ip, [r4, #4]	@ D.33381, <variable>.DPB.fs_ref
	add	r3, r3, #1	@ i, i,
	mov	r5, r3	@ tmp279, i
	ldrb	r4, [ip, #2]	@ zero_extendqisi2	@ <variable>.is_reference, <variable>.is_reference
	cmp	r4, #3	@ <variable>.is_reference,
	beq	.L117	@,
.L90:
	add	r3, r5, #1	@ i, tmp279,
	add	r4, r6, #4	@ ivtmp.1119, tmp278,
	cmp	r3, r7	@ i, temp.1143
	bcs	.L82	@,
.L76:
	ldr	ip, [r4, #0]	@ D.33381, <variable>.DPB.fs_ref
	add	r6, r4, #4	@ tmp278, ivtmp.1119,
	ldrb	r5, [ip, #2]	@ zero_extendqisi2	@ <variable>.is_reference, <variable>.is_reference
	cmp	r5, #3	@ <variable>.is_reference,
	bne	.L75	@,
	ldr	r5, [ip, #400]	@ tmp161,
	bic	r5, r5, #-16777216	@ tmp159, tmp161,
	bic	r5, r5, #255	@ tmp159, tmp159,
	cmp	r5, #65536	@ tmp159,
	bne	.L75	@,
	ldr	r5, [ip, #412]	@ <variable>.frame.pic_num, <variable>.frame.pic_num
	cmp	r5, r2	@ <variable>.frame.pic_num, picNumX
	beq	.L108	@,
	ldr	ip, [r4, #4]	@ D.33381, <variable>.DPB.fs_ref
	add	r3, r3, #1	@ i, i,
	mov	r5, r3	@ tmp279, i
	ldrb	r4, [ip, #2]	@ zero_extendqisi2	@ <variable>.is_reference, <variable>.is_reference
	cmp	r4, #3	@ <variable>.is_reference,
	bne	.L90	@,
.L117:
	ldr	r4, [ip, #400]	@ tmp302,
	bic	r4, r4, #-16777216	@ tmp303, tmp302,
	bic	r4, r4, #255	@ tmp303, tmp303,
	cmp	r4, #65536	@ tmp303,
	bne	.L90	@,
	ldr	r4, [ip, #412]	@ <variable>.frame.pic_num, <variable>.frame.pic_num
	cmp	r4, r2	@ <variable>.frame.pic_num, picNumX
	bne	.L90	@,
	b	.L108	@
.L77:
	tst	r6, #2	@ D.33395,
	beq	.L79	@,
	ldr	r6, [ip, #472]	@ tmp239,
	bic	r6, r6, #-16777216	@ tmp237, tmp239,
	bic	r6, r6, #255	@ tmp237, tmp237,
	cmp	r6, #65536	@ tmp237,
	beq	.L118	@,
.L79:
	ldr	ip, [r5, #4]	@ temp.1134, <variable>.DPB.fs_ref
	add	r4, r4, #1	@ i.1142, i.1142,
	add	r5, r5, #4	@ tmp284, ivtmp.1124,
	mov	sl, r4	@ tmp283, i.1142
	ldrb	r6, [ip, #2]	@ zero_extendqisi2	@ D.33395, <variable>.is_reference
	tst	r6, #1	@ D.33395,
	beq	.L99	@,
	ldr	r7, [ip, #436]	@ tmp335,
	bic	r7, r7, #-16777216	@ tmp336, tmp335,
	bic	r7, r7, #255	@ tmp336, tmp336,
	cmp	r7, #65536	@ tmp336,
	beq	.L119	@,
.L99:
	tst	r6, #2	@ D.33395,
	beq	.L100	@,
	ldr	r6, [ip, #472]	@ tmp330,
	bic	r6, r6, #-16777216	@ tmp331, tmp330,
	bic	r6, r6, #255	@ tmp331, tmp331,
	cmp	r6, #65536	@ tmp331,
	beq	.L120	@,
.L100:
	add	r4, sl, #1	@ i.1142, tmp283,
	add	r5, r5, #4	@ ivtmp.1124, tmp284,
	cmp	r8, r4	@ D.33393, i.1142
	bls	.L82	@,
.L81:
	ldr	ip, [r5, #0]	@ temp.1134, <variable>.DPB.fs_ref
	ldrb	r6, [ip, #2]	@ zero_extendqisi2	@ D.33395, <variable>.is_reference
	tst	r6, #1	@ D.33395,
	beq	.L77	@,
	ldr	r7, [ip, #436]	@ tmp200,
	bic	r7, r7, #-16777216	@ tmp198, tmp200,
	bic	r7, r7, #255	@ tmp198, tmp198,
	cmp	r7, #65536	@ tmp198,
	bne	.L77	@,
	ldr	r7, [ip, #448]	@ <variable>.top_field.pic_num, <variable>.top_field.pic_num
	cmp	r7, r2	@ <variable>.top_field.pic_num, picNumX
	bne	.L77	@,
	ldrb	r6, [ip, #473]	@ zero_extendqisi2	@ <variable>.bottom_field.is_long_term, <variable>.bottom_field.is_long_term
	cmp	r6, #1	@ <variable>.bottom_field.is_long_term,
	bne	.L78	@,
	ldr	r6, [ip, #520]	@ <variable>.long_term_frame_idx, <variable>.long_term_frame_idx
	cmp	r6, r1	@ <variable>.long_term_frame_idx, long_term_frame_idx
	bne	.L79	@,
.L78:
	add	r4, r4, #6592	@ tmp204, i.1142,
	str	r1, [ip, #520]	@ long_term_frame_idx, <variable>.long_term_frame_idx
	add	r4, r4, #32	@ tmp204, tmp204,
	cmp	r3, #1	@ D.33377,
	movne	r2, #0	@, tmp209
	moveq	r2, #1	@, tmp209
	add	ip, r2, r1, asl #1	@, tmp210, tmp209, long_term_frame_idx,
	mov	r1, #1	@ tmp214,
	ldr	r3, [r0, r4, asl #2]	@ tmp206, <variable>.DPB.fs_ref
	str	ip, [r3, #444]	@ tmp210, <variable>.top_field.long_term_pic_num
	mov	ip, #0	@ tmp219,
	ldr	r2, [r0, r4, asl #2]	@ tmp213, <variable>.DPB.fs_ref
	strb	r1, [r2, #437]	@ tmp214, <variable>.top_field.is_long_term
	ldr	r3, [r0, r4, asl #2]	@ tmp218, <variable>.DPB.fs_ref
	strb	ip, [r3, #438]	@ tmp219, <variable>.top_field.is_short_term
	ldr	r3, [r0, r4, asl #2]	@ temp.1139, <variable>.DPB.fs_ref
	ldrb	r2, [r3, #400]	@ zero_extendqisi2	@ D.33416, <variable>.frame.structure
	cmp	r2, #3	@ D.33416,
	cmpne	r2, #0	@, D.33416,
	bne	.L82	@,
	ldrb	r1, [r3, #437]	@ zero_extendqisi2	@ D.33422, <variable>.top_field.is_long_term
	ldrb	r2, [r3, #473]	@ zero_extendqisi2	@ <variable>.bottom_field.is_long_term, <variable>.bottom_field.is_long_term
	cmp	r2, r1	@ <variable>.bottom_field.is_long_term, D.33422
	streqb	r2, [r3, #401]	@ <variable>.bottom_field.is_long_term, <variable>.frame.is_long_term
	ldreq	ip, [r0, r4, asl #2]	@ temp.1141, <variable>.DPB.fs_ref
	ldreqb	r0, [ip, #438]	@ zero_extendqisi2	@ <variable>.top_field.is_short_term, <variable>.top_field.is_short_term
	streqb	r0, [ip, #402]	@ <variable>.top_field.is_short_term, <variable>.frame.is_short_term
	b	.L82	@
.L119:
	ldr	r7, [ip, #448]	@ <variable>.top_field.pic_num, <variable>.top_field.pic_num
	cmp	r7, r2	@ <variable>.top_field.pic_num, picNumX
	bne	.L99	@,
	ldrb	r6, [ip, #473]	@ zero_extendqisi2	@ <variable>.bottom_field.is_long_term, <variable>.bottom_field.is_long_term
	cmp	r6, #1	@ <variable>.bottom_field.is_long_term,
	bne	.L78	@,
	ldr	r6, [ip, #520]	@ <variable>.long_term_frame_idx, <variable>.long_term_frame_idx
	cmp	r6, r1	@ <variable>.long_term_frame_idx, long_term_frame_idx
	bne	.L100	@,
	b	.L78	@
.L118:
	ldr	r6, [ip, #484]	@ <variable>.bottom_field.pic_num, <variable>.bottom_field.pic_num
	cmp	r6, r2	@ <variable>.bottom_field.pic_num, picNumX
	bne	.L79	@,
	ldrb	r6, [ip, #437]	@ zero_extendqisi2	@ <variable>.top_field.is_long_term, <variable>.top_field.is_long_term
	cmp	r6, #1	@ <variable>.top_field.is_long_term,
	bne	.L80	@,
	ldr	r6, [ip, #520]	@ <variable>.long_term_frame_idx, <variable>.long_term_frame_idx
	cmp	r6, r1	@ <variable>.long_term_frame_idx, long_term_frame_idx
	bne	.L79	@,
	b	.L80	@
.L120:
	ldr	r6, [ip, #484]	@ <variable>.bottom_field.pic_num, <variable>.bottom_field.pic_num
	cmp	r6, r2	@ <variable>.bottom_field.pic_num, picNumX
	bne	.L100	@,
	ldrb	r6, [ip, #437]	@ zero_extendqisi2	@ <variable>.top_field.is_long_term, <variable>.top_field.is_long_term
	cmp	r6, #1	@ <variable>.top_field.is_long_term,
	bne	.L80	@,
	ldr	r6, [ip, #520]	@ <variable>.long_term_frame_idx, <variable>.long_term_frame_idx
	cmp	r6, r1	@ <variable>.long_term_frame_idx, long_term_frame_idx
	bne	.L100	@,
.L80:
	add	r4, r4, #6592	@ tmp243, i.1142,
	str	r1, [ip, #520]	@ long_term_frame_idx, <variable>.long_term_frame_idx
	add	r4, r4, #32	@ tmp243, tmp243,
	cmp	r3, #2	@ D.33377,
	movne	ip, #0	@, tmp248
	moveq	ip, #1	@, tmp248
	add	r1, ip, r1, asl #1	@, tmp249, tmp248, long_term_frame_idx,
	mov	ip, #1	@ tmp253,
	ldr	r3, [r0, r4, asl #2]	@ tmp245, <variable>.DPB.fs_ref
	str	r1, [r3, #480]	@ tmp249, <variable>.bottom_field.long_term_pic_num
	mov	r1, #0	@ tmp258,
	ldr	r2, [r0, r4, asl #2]	@ tmp252, <variable>.DPB.fs_ref
	strb	ip, [r2, #473]	@ tmp253, <variable>.bottom_field.is_long_term
	ldr	r3, [r0, r4, asl #2]	@ tmp257, <variable>.DPB.fs_ref
	strb	r1, [r3, #474]	@ tmp258, <variable>.bottom_field.is_short_term
	ldr	r3, [r0, r4, asl #2]	@ temp.1150, <variable>.DPB.fs_ref
	ldrb	r2, [r3, #400]	@ zero_extendqisi2	@ D.33442, <variable>.frame.structure
	cmp	r2, #3	@ D.33442,
	cmpne	r2, #0	@, D.33442,
	bne	.L82	@,
	ldrb	r1, [r3, #437]	@ zero_extendqisi2	@ temp.1151, <variable>.top_field.is_long_term
	ldrb	r2, [r3, #473]	@ zero_extendqisi2	@ <variable>.bottom_field.is_long_term, <variable>.bottom_field.is_long_term
	cmp	r2, r1	@ <variable>.bottom_field.is_long_term, temp.1151
	streqb	r2, [r3, #401]	@ <variable>.bottom_field.is_long_term, <variable>.frame.is_long_term
	ldreq	r2, [r0, r4, asl #2]	@ temp.1153, <variable>.DPB.fs_ref
	ldreqb	r0, [r2, #474]	@ zero_extendqisi2	@ <variable>.bottom_field.is_short_term, <variable>.bottom_field.is_short_term
	streqb	r0, [r2, #402]	@ <variable>.bottom_field.is_short_term, <variable>.frame.is_short_term
	b	.L82	@
.L111:
	ldr	sl, [ip, #448]	@ <variable>.top_field.pic_num, <variable>.top_field.pic_num
	cmp	sl, r2	@ <variable>.top_field.pic_num, picNumX
	bne	.L92	@,
	ldrb	r6, [ip, #473]	@ zero_extendqisi2	@ <variable>.bottom_field.is_long_term, <variable>.bottom_field.is_long_term
	cmp	r6, #1	@ <variable>.bottom_field.is_long_term,
	bne	.L78	@,
	ldr	r6, [ip, #520]	@ <variable>.long_term_frame_idx, <variable>.long_term_frame_idx
	cmp	r6, r1	@ <variable>.long_term_frame_idx, long_term_frame_idx
	bne	.L93	@,
	b	.L78	@
.L113:
	ldr	r7, [ip, #448]	@ <variable>.top_field.pic_num, <variable>.top_field.pic_num
	cmp	r7, r2	@ <variable>.top_field.pic_num, picNumX
	bne	.L95	@,
	ldrb	r6, [ip, #473]	@ zero_extendqisi2	@ <variable>.bottom_field.is_long_term, <variable>.bottom_field.is_long_term
	cmp	r6, #1	@ <variable>.bottom_field.is_long_term,
	bne	.L78	@,
	ldr	r6, [ip, #520]	@ <variable>.long_term_frame_idx, <variable>.long_term_frame_idx
	cmp	r6, r1	@ <variable>.long_term_frame_idx, long_term_frame_idx
	bne	.L96	@,
	b	.L78	@
.L112:
	ldr	r6, [ip, #484]	@ <variable>.bottom_field.pic_num, <variable>.bottom_field.pic_num
	cmp	r6, r2	@ <variable>.bottom_field.pic_num, picNumX
	bne	.L93	@,
	ldrb	r6, [ip, #437]	@ zero_extendqisi2	@ <variable>.top_field.is_long_term, <variable>.top_field.is_long_term
	cmp	r6, #1	@ <variable>.top_field.is_long_term,
	bne	.L80	@,
	ldr	r6, [ip, #520]	@ <variable>.long_term_frame_idx, <variable>.long_term_frame_idx
	cmp	r6, r1	@ <variable>.long_term_frame_idx, long_term_frame_idx
	bne	.L93	@,
	b	.L80	@
.L114:
	ldr	r6, [ip, #484]	@ <variable>.bottom_field.pic_num, <variable>.bottom_field.pic_num
	cmp	r6, r2	@ <variable>.bottom_field.pic_num, picNumX
	bne	.L96	@,
	ldrb	r6, [ip, #437]	@ zero_extendqisi2	@ <variable>.top_field.is_long_term, <variable>.top_field.is_long_term
	cmp	r6, #1	@ <variable>.top_field.is_long_term,
	bne	.L80	@,
	ldr	r6, [ip, #520]	@ <variable>.long_term_frame_idx, <variable>.long_term_frame_idx
	cmp	r6, r1	@ <variable>.long_term_frame_idx, long_term_frame_idx
	bne	.L96	@,
	b	.L80	@
.L115:
	ldr	r5, [ip, #400]	@ tmp295,
	bic	r5, r5, #-16777216	@ tmp296, tmp295,
	bic	r5, r5, #255	@ tmp296, tmp296,
	cmp	r5, #65536	@ tmp296,
	bne	.L85	@,
	ldr	r5, [ip, #412]	@ <variable>.frame.pic_num, <variable>.frame.pic_num
	cmp	r5, r2	@ <variable>.frame.pic_num, picNumX
	bne	.L85	@,
.L108:
	add	r4, r3, #6592	@ tmp163, i,
	str	r1, [ip, #520]	@ long_term_frame_idx, <variable>.long_term_frame_idx
	add	r3, r4, #32	@ tmp163, tmp163,
	mov	ip, #1	@ tmp169,
	mov	r2, #0	@ tmp184,
	ldr	r4, [r0, r3, asl #2]	@ tmp165, <variable>.DPB.fs_ref
	str	r1, [r4, #408]	@ long_term_frame_idx, <variable>.frame.long_term_pic_num
	ldr	r1, [r0, r3, asl #2]	@ tmp168, <variable>.DPB.fs_ref
	strb	ip, [r1, #401]	@ tmp169, <variable>.frame.is_long_term
	ldr	r1, [r0, r3, asl #2]	@ tmp173, <variable>.DPB.fs_ref
	strb	ip, [r1, #437]	@ tmp169, <variable>.top_field.is_long_term
	ldr	r1, [r0, r3, asl #2]	@ tmp178, <variable>.DPB.fs_ref
	strb	ip, [r1, #473]	@ tmp169, <variable>.bottom_field.is_long_term
	ldr	ip, [r0, r3, asl #2]	@ tmp183, <variable>.DPB.fs_ref
	strb	r2, [ip, #402]	@ tmp184, <variable>.frame.is_short_term
	ldr	r1, [r0, r3, asl #2]	@ tmp188, <variable>.DPB.fs_ref
	strb	r2, [r1, #438]	@ tmp184, <variable>.top_field.is_short_term
	ldr	r3, [r0, r3, asl #2]	@ tmp193, <variable>.DPB.fs_ref
	strb	r2, [r3, #474]	@ tmp184, <variable>.bottom_field.is_short_term
	b	.L82	@
.L116:
	ldr	r5, [ip, #400]	@ tmp299,
	bic	r5, r5, #-16777216	@ tmp300, tmp299,
	bic	r5, r5, #255	@ tmp300, tmp300,
	cmp	r5, #65536	@ tmp300,
	bne	.L87	@,
	ldr	r5, [ip, #412]	@ <variable>.frame.pic_num, <variable>.frame.pic_num
	cmp	r5, r2	@ <variable>.frame.pic_num, picNumX
	bne	.L87	@,
	b	.L108	@
	.fnend
	.size	MarkPicLTRef, .-MarkPicLTRef
	.align	2
	.global	SetFrmRepeatCount
	.type	SetFrmRepeatCount, %function
SetFrmRepeatCount:
	.fnstart
.LFB1631:
	@ args = 0, pretend = 0, frame = 0
	@ frame_needed = 0, uses_anonymous_args = 0
	@ link register save eliminated.
	str	r4, [sp, #-4]!	@,
	.save {r4}
	ldr	r3, [r0, #0]	@ <variable>.pstExtraData, <variable>.pstExtraData
	ldr	ip, [r3, #520]	@ <variable>.s32FastForwardBackwardSpeed, <variable>.s32FastForwardBackwardSpeed
	add	r2, ip, #2032	@ tmp138, <variable>.s32FastForwardBackwardSpeed,
	add	r3, r2, #15	@ tmp138, tmp138,
	cmp	r3, #4096	@ tmp138,
	bcc	.L122	@,
	movw	r3, #52864	@ tmp144,
	movw	r2, #52860	@ tmp142,
	ldr	r4, [r0, r3]	@ <variable>.PicOutCounter, <variable>.PicOutCounter
	mov	ip, #26624	@ tmp147,
	ldr	r2, [r0, r2]	@ <variable>.NewPicCounter, <variable>.NewPicCounter
	ldr	ip, [r0, ip]	@ <variable>.DPB.size, <variable>.DPB.size
	add	ip, ip, r4, lsr #1	@, D.33879, <variable>.DPB.size, <variable>.PicOutCounter,
	mov	r2, r2, lsr #1	@ D.33875, <variable>.NewPicCounter,
	add	r4, ip, #1	@ tmp149, D.33879,
	cmp	r2, r4	@ D.33875, tmp149
	bcc	.L122	@,
	mvn	ip, ip	@ tmp150, D.33879
	add	r2, ip, r2	@ tmp151, tmp150, D.33875
	cmp	r2, #1	@ tmp151,
	movhi	r2, #2	@ tmp152,
	movls	r2, #1	@ tmp157,
	strhi	r2, [r1, #84]	@ tmp152, <variable>.u32RepeatCnt
	strls	r2, [r1, #84]	@ tmp157, <variable>.u32RepeatCnt
	ldrhi	r2, [r0, r3]	@ <variable>.PicOutCounter, <variable>.PicOutCounter
	ldrls	r2, [r0, r3]	@ <variable>.PicOutCounter, <variable>.PicOutCounter
	addhi	r2, r2, #4	@ tmp156, <variable>.PicOutCounter,
	addls	r2, r2, #2	@ tmp161, <variable>.PicOutCounter,
	str	r2, [r0, r3]	@ tmp161, <variable>.PicOutCounter
	b	.L126	@
.L122:
	mov	r0, #0	@ tmp163,
	str	r0, [r1, #84]	@ tmp163, <variable>.u32RepeatCnt
.L126:
	ldmfd	sp!, {r4}
	bx	lr
	.fnend
	.size	SetFrmRepeatCount, .-SetFrmRepeatCount
	.align	2
	.global	SplitFrmToFlds
	.type	SplitFrmToFlds, %function
SplitFrmToFlds:
	.fnstart
.LFB1634:
	@ args = 0, pretend = 0, frame = 0
	@ frame_needed = 0, uses_anonymous_args = 0
	@ link register save eliminated.
	stmfd	sp!, {r4, r5}	@,
	.save {r4, r5}
	ldrb	ip, [r0, #402]	@ zero_extendqisi2	@ <variable>.frame.is_short_term, <variable>.frame.is_short_term
	ldrb	r4, [r0, #401]	@ zero_extendqisi2	@ <variable>.frame.is_long_term, <variable>.frame.is_long_term
	mov	r5, #1	@ tmp138,
	ldr	r1, [r0, #420]	@ <variable>.frame.err_level, <variable>.frame.err_level
	ldr	r2, [r0, #424]	@ <variable>.frame.pic_type, <variable>.frame.pic_type
	ldr	r3, [r0, #404]	@ <variable>.frame.frame_store, <variable>.frame.frame_store
	strb	r5, [r0, #436]	@ tmp138, <variable>.top_field.structure
	mov	r5, #2	@ tmp147,
	strb	r4, [r0, #473]	@ <variable>.frame.is_long_term, <variable>.bottom_field.is_long_term
	str	r3, [r0, #476]	@ <variable>.frame.frame_store, <variable>.bottom_field.frame_store
	strb	ip, [r0, #474]	@ <variable>.frame.is_short_term, <variable>.bottom_field.is_short_term
	strb	r5, [r0, #472]	@ tmp147, <variable>.bottom_field.structure
	str	r1, [r0, #492]	@ <variable>.frame.err_level, <variable>.bottom_field.err_level
	str	r2, [r0, #496]	@ <variable>.frame.pic_type, <variable>.bottom_field.pic_type
	strb	r4, [r0, #437]	@ <variable>.frame.is_long_term, <variable>.top_field.is_long_term
	strb	ip, [r0, #438]	@ <variable>.frame.is_short_term, <variable>.top_field.is_short_term
	str	r1, [r0, #456]	@ <variable>.frame.err_level, <variable>.top_field.err_level
	str	r2, [r0, #460]	@ <variable>.frame.pic_type, <variable>.top_field.pic_type
	str	r3, [r0, #440]	@ <variable>.frame.frame_store, <variable>.top_field.frame_store
	ldmfd	sp!, {r4, r5}
	bx	lr
	.fnend
	.size	SplitFrmToFlds, .-SplitFrmToFlds
	.align	2
	.global	CombineFldsToFrm
	.type	CombineFldsToFrm, %function
CombineFldsToFrm:
	.fnstart
.LFB1635:
	@ args = 0, pretend = 0, frame = 0
	@ frame_needed = 0, uses_anonymous_args = 0
	@ link register save eliminated.
	ldr	r1, [r0, #488]	@ <variable>.bottom_field.poc, <variable>.bottom_field.poc
	ldr	r3, [r0, #452]	@ <variable>.top_field.poc, <variable>.top_field.poc
	str	r4, [sp, #-4]!	@,
	.save {r4}
	cmp	r1, r3	@ <variable>.bottom_field.poc, <variable>.top_field.poc
	movlt	r3, r1	@ D.33993, <variable>.bottom_field.poc
	movge	r3, r3	@ D.33993, <variable>.top_field.poc
	ldr	r4, [r0, #492]	@ <variable>.bottom_field.err_level, <variable>.bottom_field.err_level
	ldr	r2, [r0, #456]	@ <variable>.top_field.err_level, <variable>.top_field.err_level
	ldrb	r1, [r0, #473]	@ zero_extendqisi2	@ <variable>.bottom_field.is_long_term, <variable>.bottom_field.is_long_term
	ldr	ip, [r0, #440]	@ <variable>.top_field.frame_store, <variable>.top_field.frame_store
	add	r2, r4, r2	@ tmp144, <variable>.bottom_field.err_level, <variable>.top_field.err_level
	cmp	r1, #0	@ <variable>.bottom_field.is_long_term,
	mov	r4, #3	@ tmp142,
	mov	r2, r2, lsr #1	@ D.33998, tmp144,
	str	r3, [r0, #524]	@ D.33993, <variable>.poc
	strb	r4, [r0, #400]	@ tmp142, <variable>.frame.structure
	str	ip, [r0, #404]	@ <variable>.top_field.frame_store, <variable>.frame.frame_store
	str	r3, [r0, #416]	@ D.33993, <variable>.frame.poc
	str	r2, [r0, #420]	@ D.33998, <variable>.frame.err_level
	beq	.L131	@,
	ldrb	ip, [r0, #437]	@ zero_extendqisi2	@ <variable>.top_field.is_long_term, <variable>.top_field.is_long_term
	subs	r1, ip, #0	@ prephitmp.1231, <variable>.top_field.is_long_term,
	movne	r1, #1	@ prephitmp.1231
.L131:
	ldr	r3, [r0, #472]	@ tmp154,
	strb	r1, [r0, #401]	@ prephitmp.1231, <variable>.frame.is_long_term
	bic	ip, r3, #-16777216	@ tmp152, tmp154,
	bic	r3, ip, #255	@ tmp152, tmp152,
	cmp	r3, #0	@ tmp152,
	beq	.L132	@,
	ldr	ip, [r0, #436]	@ tmp157,
	bic	r3, ip, #-16777216	@ tmp155, tmp157,
	bic	ip, r3, #255	@ tmp155, tmp155,
	cmp	ip, #0	@ tmp155,
	bne	.L135	@,
.L132:
	mov	r1, #0	@ prephitmp.1220,
.L133:
	ldr	ip, [r0, #496]	@ <variable>.bottom_field.pic_type, <variable>.bottom_field.pic_type
	ldr	r3, [r0, #460]	@ <variable>.top_field.pic_type, <variable>.top_field.pic_type
	str	r2, [r0, #544]	@ D.33998, <variable>.err_level
	cmp	ip, r3	@ <variable>.bottom_field.pic_type, <variable>.top_field.pic_type
	movcs	r3, ip	@ D.34022, <variable>.bottom_field.pic_type
	strb	r1, [r0, #402]	@ prephitmp.1220, <variable>.frame.is_short_term
	str	r3, [r0, #540]	@ D.34022, <variable>.pic_type
	str	r3, [r0, #424]	@ D.34022, <variable>.frame.pic_type
	ldmfd	sp!, {r4}
	bx	lr
.L135:
	rsbs	r1, r1, #1	@ prephitmp.1220, prephitmp.1231
	movcc	r1, #0	@ prephitmp.1220
	b	.L133	@
	.fnend
	.size	CombineFldsToFrm, .-CombineFldsToFrm
	.align	2
	.global	GetShortTermPicPoint
	.type	GetShortTermPicPoint, %function
GetShortTermPicPoint:
	.fnstart
.LFB1650:
	@ args = 0, pretend = 0, frame = 0
	@ frame_needed = 0, uses_anonymous_args = 0
	@ link register save eliminated.
	movw	r3, #20681	@ tmp144,
	stmfd	sp!, {r4, r5, r6}	@,
	.save {r4, r5, r6}
	ldrb	r3, [r0, r3]	@ zero_extendqisi2	@ <variable>.CurrSlice.field_pic_flag, <variable>.CurrSlice.field_pic_flag
	cmp	r3, #0	@ <variable>.CurrSlice.field_pic_flag,
	beq	.L138	@,
	movw	r2, #20682	@ tmp146,
	ldrb	r3, [r0, r2]	@ zero_extendqisi2	@ <variable>.CurrSlice.bottom_field_flag, <variable>.CurrSlice.bottom_field_flag
	cmp	r3, #0	@ <variable>.CurrSlice.bottom_field_flag,
	movne	r3, #2	@ structure,
	moveq	r3, #1	@ structure,
.L138:
	movw	ip, #26632	@ tmp148,
	ldr	r5, [r0, ip]	@ D.35025, <variable>.DPB.ref_frames_in_buffer
	cmp	r5, #0	@ D.35025,
	beq	.L140	@,
	cmp	r3, #0	@ structure,
	add	r0, r0, #26368	@ ivtmp.1258, pH264Ctx,
	sub	r2, r5, #1	@ tmp166, D.35025,
	add	r0, r0, #128	@ ivtmp.1258, ivtmp.1258,
	and	r4, r2, #1	@ tmp168, tmp166,
	bne	.L148	@,
	ldr	r2, [r0, #0]	@ D.34990, <variable>.DPB.fs_ref
	ldrb	ip, [r2, #2]	@ zero_extendqisi2	@ <variable>.is_reference, <variable>.is_reference
	cmp	ip, #3	@ <variable>.is_reference,
	bne	.L150	@,
	ldr	ip, [r2, #400]	@ tmp185,
	bic	ip, ip, #-16777216	@ tmp186, tmp185,
	bic	ip, ip, #255	@ tmp186, tmp186,
	cmp	ip, #65536	@ tmp186,
	bne	.L150	@,
	ldr	ip, [r2, #412]	@ <variable>.frame.pic_num, <variable>.frame.pic_num
	cmp	ip, r1	@ <variable>.frame.pic_num, picNum
	beq	.L167	@,
.L150:
	mov	ip, #1	@ i,
	cmp	r5, ip	@ D.35025, i
	add	r0, r0, #4	@ ivtmp.1258, ivtmp.1258,
	bls	.L140	@,
	cmp	r4, #0	@ tmp168,
	beq	.L145	@,
	cmp	r3, #0	@ structure,
	beq	.L168	@,
	ldr	r2, [r0, #0]	@ temp.1261, <variable>.DPB.fs_ref
	ldrb	r4, [r2, #2]	@ zero_extendqisi2	@ D.35003, <variable>.is_reference
	tst	r4, #1	@ D.35003,
	beq	.L153	@,
	ldr	r6, [r2, #436]	@ tmp194,
	bic	r6, r6, #-16777216	@ tmp195, tmp194,
	bic	r6, r6, #255	@ tmp195, tmp195,
	cmp	r6, #65536	@ tmp195,
	beq	.L172	@,
.L153:
	tst	r4, #2	@ D.35003,
	beq	.L154	@,
	ldr	r4, [r2, #472]	@ tmp191,
	bic	r4, r4, #-16777216	@ tmp192, tmp191,
	bic	r4, r4, #255	@ tmp192, tmp192,
	cmp	r4, #65536	@ tmp192,
	bne	.L154	@,
	ldr	r4, [r2, #484]	@ <variable>.bottom_field.pic_num, <variable>.bottom_field.pic_num
	cmp	r4, r1	@ <variable>.bottom_field.pic_num, picNum
	beq	.L165	@,
.L154:
	add	ip, ip, #1	@ i, i,
	add	r0, r0, #4	@ ivtmp.1258, ivtmp.1258,
	cmp	r5, ip	@ D.35025, i
	bhi	.L145	@,
.L140:
	mov	r0, #0	@ D.35001,
.L143:
	ldmfd	sp!, {r4, r5, r6}
	bx	lr
.L148:
	ldr	r2, [r0, #0]	@ temp.1261, <variable>.DPB.fs_ref
	ldrb	ip, [r2, #2]	@ zero_extendqisi2	@ D.35003, <variable>.is_reference
	tst	ip, #1	@ D.35003,
	beq	.L149	@,
	ldr	r6, [r2, #436]	@ tmp181,
	bic	r6, r6, #-16777216	@ tmp182, tmp181,
	bic	r6, r6, #255	@ tmp182, tmp182,
	cmp	r6, #65536	@ tmp182,
	beq	.L173	@,
.L149:
	tst	ip, #2	@ D.35003,
	beq	.L150	@,
	ldr	ip, [r2, #472]	@ tmp178,
	bic	ip, ip, #-16777216	@ tmp179, tmp178,
	bic	ip, ip, #255	@ tmp179, tmp179,
	cmp	ip, #65536	@ tmp179,
	bne	.L150	@,
	ldr	ip, [r2, #484]	@ <variable>.bottom_field.pic_num, <variable>.bottom_field.pic_num
	cmp	ip, r1	@ <variable>.bottom_field.pic_num, picNum
	bne	.L150	@,
.L165:
	add	r0, r2, #472	@ D.35001, temp.1261,
	b	.L143	@
.L174:
	ldr	r2, [r0, #0]	@ D.34990, <variable>.DPB.fs_ref
	ldrb	r4, [r2, #2]	@ zero_extendqisi2	@ <variable>.is_reference, <variable>.is_reference
	cmp	r4, #3	@ <variable>.is_reference,
	bne	.L142	@,
	ldr	r4, [r2, #400]	@ tmp153,
	bic	r4, r4, #-16777216	@ tmp151, tmp153,
	bic	r4, r4, #255	@ tmp151, tmp151,
	cmp	r4, #65536	@ tmp151,
	bne	.L142	@,
	ldr	r4, [r2, #412]	@ <variable>.frame.pic_num, <variable>.frame.pic_num
	cmp	r4, r1	@ <variable>.frame.pic_num, picNum
	beq	.L167	@,
.L142:
	cmp	r3, #0	@ structure,
	add	ip, ip, #1	@ tmp169, i,
	add	r4, r0, #4	@ tmp170, ivtmp.1258,
	bne	.L157	@,
.L176:
	ldr	r2, [r0, #4]	@ D.34990, <variable>.DPB.fs_ref
	ldrb	r0, [r2, #2]	@ zero_extendqisi2	@ <variable>.is_reference, <variable>.is_reference
	cmp	r0, #3	@ <variable>.is_reference,
	bne	.L159	@,
	ldr	r0, [r2, #400]	@ tmp211,
	bic	r0, r0, #-16777216	@ tmp212, tmp211,
	bic	r0, r0, #255	@ tmp212, tmp212,
	cmp	r0, #65536	@ tmp212,
	bne	.L159	@,
	ldr	r0, [r2, #412]	@ <variable>.frame.pic_num, <variable>.frame.pic_num
	cmp	r0, r1	@ <variable>.frame.pic_num, picNum
	beq	.L167	@,
.L159:
	add	ip, ip, #1	@ i, tmp169,
	add	r0, r4, #4	@ ivtmp.1258, tmp170,
	cmp	r5, ip	@ D.35025, i
	bls	.L140	@,
.L145:
	cmp	r3, #0	@ structure,
	beq	.L174	@,
	ldr	r2, [r0, #0]	@ temp.1261, <variable>.DPB.fs_ref
	ldrb	r4, [r2, #2]	@ zero_extendqisi2	@ D.35003, <variable>.is_reference
	tst	r4, #1	@ D.35003,
	beq	.L144	@,
	ldr	r6, [r2, #436]	@ tmp158,
	bic	r6, r6, #-16777216	@ tmp156, tmp158,
	bic	r6, r6, #255	@ tmp156, tmp156,
	cmp	r6, #65536	@ tmp156,
	beq	.L175	@,
.L144:
	tst	r4, #2	@ D.35003,
	beq	.L142	@,
	ldr	r4, [r2, #472]	@ tmp163,
	bic	r4, r4, #-16777216	@ tmp161, tmp163,
	bic	r4, r4, #255	@ tmp161, tmp161,
	cmp	r4, #65536	@ tmp161,
	bne	.L142	@,
	ldr	r4, [r2, #484]	@ <variable>.bottom_field.pic_num, <variable>.bottom_field.pic_num
	cmp	r4, r1	@ <variable>.bottom_field.pic_num, picNum
	beq	.L165	@,
	cmp	r3, #0	@ structure,
	add	ip, ip, #1	@ tmp169, i,
	add	r4, r0, #4	@ tmp170, ivtmp.1258,
	beq	.L176	@,
.L157:
	ldr	r2, [r0, #4]	@ temp.1261, <variable>.DPB.fs_ref
	ldrb	r0, [r2, #2]	@ zero_extendqisi2	@ D.35003, <variable>.is_reference
	tst	r0, #1	@ D.35003,
	beq	.L158	@,
	ldr	r6, [r2, #436]	@ tmp207,
	bic	r6, r6, #-16777216	@ tmp208, tmp207,
	bic	r6, r6, #255	@ tmp208, tmp208,
	cmp	r6, #65536	@ tmp208,
	beq	.L177	@,
.L158:
	tst	r0, #2	@ D.35003,
	beq	.L159	@,
	ldr	r0, [r2, #472]	@ tmp204,
	bic	r0, r0, #-16777216	@ tmp205, tmp204,
	bic	r0, r0, #255	@ tmp205, tmp205,
	cmp	r0, #65536	@ tmp205,
	bne	.L159	@,
	ldr	r0, [r2, #484]	@ <variable>.bottom_field.pic_num, <variable>.bottom_field.pic_num
	cmp	r0, r1	@ <variable>.bottom_field.pic_num, picNum
	bne	.L159	@,
	add	r0, r2, #472	@ D.35001, temp.1261,
	b	.L143	@
.L175:
	ldr	r6, [r2, #448]	@ <variable>.top_field.pic_num, <variable>.top_field.pic_num
	cmp	r6, r1	@ <variable>.top_field.pic_num, picNum
	bne	.L144	@,
	add	r0, r2, #436	@ D.35001, temp.1261,
	b	.L143	@
.L177:
	ldr	r6, [r2, #448]	@ <variable>.top_field.pic_num, <variable>.top_field.pic_num
	cmp	r6, r1	@ <variable>.top_field.pic_num, picNum
	bne	.L158	@,
	add	r0, r2, #436	@ D.35001, temp.1261,
	b	.L143	@
.L168:
	ldr	r2, [r0, #0]	@ D.34990, <variable>.DPB.fs_ref
	ldrb	r4, [r2, #2]	@ zero_extendqisi2	@ <variable>.is_reference, <variable>.is_reference
	cmp	r4, #3	@ <variable>.is_reference,
	bne	.L154	@,
	ldr	r4, [r2, #400]	@ tmp198,
	bic	r4, r4, #-16777216	@ tmp199, tmp198,
	bic	r4, r4, #255	@ tmp199, tmp199,
	cmp	r4, #65536	@ tmp199,
	bne	.L154	@,
	ldr	r4, [r2, #412]	@ <variable>.frame.pic_num, <variable>.frame.pic_num
	cmp	r4, r1	@ <variable>.frame.pic_num, picNum
	bne	.L154	@,
.L167:
	add	r0, r2, #400	@ D.35001, D.34990,
	b	.L143	@
.L173:
	ldr	r6, [r2, #448]	@ <variable>.top_field.pic_num, <variable>.top_field.pic_num
	cmp	r6, r1	@ <variable>.top_field.pic_num, picNum
	bne	.L149	@,
	add	r0, r2, #436	@ D.35001, temp.1261,
	b	.L143	@
.L172:
	ldr	r6, [r2, #448]	@ <variable>.top_field.pic_num, <variable>.top_field.pic_num
	cmp	r6, r1	@ <variable>.top_field.pic_num, picNum
	bne	.L153	@,
	add	r0, r2, #436	@ D.35001, temp.1261,
	b	.L143	@
	.fnend
	.size	GetShortTermPicPoint, .-GetShortTermPicPoint
	.align	2
	.global	GetLongTermPicPoint
	.type	GetLongTermPicPoint, %function
GetLongTermPicPoint:
	.fnstart
.LFB1651:
	@ args = 0, pretend = 0, frame = 0
	@ frame_needed = 0, uses_anonymous_args = 0
	@ link register save eliminated.
	movw	r3, #20681	@ tmp144,
	stmfd	sp!, {r4, r5, r6}	@,
	.save {r4, r5, r6}
	ldrb	r3, [r0, r3]	@ zero_extendqisi2	@ <variable>.CurrSlice.field_pic_flag, <variable>.CurrSlice.field_pic_flag
	cmp	r3, #0	@ <variable>.CurrSlice.field_pic_flag,
	beq	.L180	@,
	movw	r2, #20682	@ tmp146,
	ldrb	r3, [r0, r2]	@ zero_extendqisi2	@ <variable>.CurrSlice.bottom_field_flag, <variable>.CurrSlice.bottom_field_flag
	cmp	r3, #0	@ <variable>.CurrSlice.bottom_field_flag,
	movne	r3, #2	@ structure,
	moveq	r3, #1	@ structure,
.L180:
	movw	ip, #26636	@ tmp148,
	ldr	r5, [r0, ip]	@ D.35083, <variable>.DPB.ltref_frames_in_buffer
	cmp	r5, #0	@ D.35083,
	beq	.L182	@,
	cmp	r3, #0	@ structure,
	add	r0, r0, #26368	@ ivtmp.1289, pH264Ctx,
	sub	r2, r5, #1	@ tmp166, D.35083,
	add	r0, r0, #192	@ ivtmp.1289, ivtmp.1289,
	and	r4, r2, #1	@ tmp168, tmp166,
	bne	.L190	@,
	ldr	r2, [r0, #0]	@ D.35048, <variable>.DPB.fs_ltref
	ldrb	ip, [r2, #2]	@ zero_extendqisi2	@ <variable>.is_reference, <variable>.is_reference
	cmp	ip, #3	@ <variable>.is_reference,
	bne	.L192	@,
	ldr	ip, [r2, #400]	@ tmp185,
	bic	ip, ip, #-16777216	@ tmp186, tmp185,
	bic	ip, ip, #255	@ tmp186, tmp186,
	cmp	ip, #256	@ tmp186,
	bne	.L192	@,
	ldr	ip, [r2, #408]	@ <variable>.frame.long_term_pic_num, <variable>.frame.long_term_pic_num
	cmp	ip, r1	@ <variable>.frame.long_term_pic_num, LongtermPicNum
	beq	.L209	@,
.L192:
	mov	ip, #1	@ i,
	cmp	r5, ip	@ D.35083, i
	add	r0, r0, #4	@ ivtmp.1289, ivtmp.1289,
	bls	.L182	@,
	cmp	r4, #0	@ tmp168,
	beq	.L187	@,
	cmp	r3, #0	@ structure,
	beq	.L210	@,
	ldr	r2, [r0, #0]	@ temp.1292, <variable>.DPB.fs_ltref
	ldrb	r4, [r2, #2]	@ zero_extendqisi2	@ D.35061, <variable>.is_reference
	tst	r4, #1	@ D.35061,
	beq	.L195	@,
	ldr	r6, [r2, #436]	@ tmp194,
	bic	r6, r6, #-16777216	@ tmp195, tmp194,
	bic	r6, r6, #255	@ tmp195, tmp195,
	cmp	r6, #256	@ tmp195,
	beq	.L214	@,
.L195:
	tst	r4, #2	@ D.35061,
	beq	.L196	@,
	ldr	r4, [r2, #472]	@ tmp191,
	bic	r4, r4, #-16777216	@ tmp192, tmp191,
	bic	r4, r4, #255	@ tmp192, tmp192,
	cmp	r4, #256	@ tmp192,
	bne	.L196	@,
	ldr	r4, [r2, #480]	@ <variable>.bottom_field.long_term_pic_num, <variable>.bottom_field.long_term_pic_num
	cmp	r4, r1	@ <variable>.bottom_field.long_term_pic_num, LongtermPicNum
	beq	.L207	@,
.L196:
	add	ip, ip, #1	@ i, i,
	add	r0, r0, #4	@ ivtmp.1289, ivtmp.1289,
	cmp	r5, ip	@ D.35083, i
	bhi	.L187	@,
.L182:
	mov	r0, #0	@ D.35059,
.L185:
	ldmfd	sp!, {r4, r5, r6}
	bx	lr
.L190:
	ldr	r2, [r0, #0]	@ temp.1292, <variable>.DPB.fs_ltref
	ldrb	ip, [r2, #2]	@ zero_extendqisi2	@ D.35061, <variable>.is_reference
	tst	ip, #1	@ D.35061,
	beq	.L191	@,
	ldr	r6, [r2, #436]	@ tmp181,
	bic	r6, r6, #-16777216	@ tmp182, tmp181,
	bic	r6, r6, #255	@ tmp182, tmp182,
	cmp	r6, #256	@ tmp182,
	beq	.L215	@,
.L191:
	tst	ip, #2	@ D.35061,
	beq	.L192	@,
	ldr	ip, [r2, #472]	@ tmp178,
	bic	ip, ip, #-16777216	@ tmp179, tmp178,
	bic	ip, ip, #255	@ tmp179, tmp179,
	cmp	ip, #256	@ tmp179,
	bne	.L192	@,
	ldr	ip, [r2, #480]	@ <variable>.bottom_field.long_term_pic_num, <variable>.bottom_field.long_term_pic_num
	cmp	ip, r1	@ <variable>.bottom_field.long_term_pic_num, LongtermPicNum
	bne	.L192	@,
.L207:
	add	r0, r2, #472	@ D.35059, temp.1292,
	b	.L185	@
.L216:
	ldr	r2, [r0, #0]	@ D.35048, <variable>.DPB.fs_ltref
	ldrb	r4, [r2, #2]	@ zero_extendqisi2	@ <variable>.is_reference, <variable>.is_reference
	cmp	r4, #3	@ <variable>.is_reference,
	bne	.L184	@,
	ldr	r4, [r2, #400]	@ tmp153,
	bic	r4, r4, #-16777216	@ tmp151, tmp153,
	bic	r4, r4, #255	@ tmp151, tmp151,
	cmp	r4, #256	@ tmp151,
	bne	.L184	@,
	ldr	r4, [r2, #408]	@ <variable>.frame.long_term_pic_num, <variable>.frame.long_term_pic_num
	cmp	r4, r1	@ <variable>.frame.long_term_pic_num, LongtermPicNum
	beq	.L209	@,
.L184:
	cmp	r3, #0	@ structure,
	add	ip, ip, #1	@ tmp169, i,
	add	r4, r0, #4	@ tmp170, ivtmp.1289,
	bne	.L199	@,
.L218:
	ldr	r2, [r0, #4]	@ D.35048, <variable>.DPB.fs_ltref
	ldrb	r0, [r2, #2]	@ zero_extendqisi2	@ <variable>.is_reference, <variable>.is_reference
	cmp	r0, #3	@ <variable>.is_reference,
	bne	.L201	@,
	ldr	r0, [r2, #400]	@ tmp211,
	bic	r0, r0, #-16777216	@ tmp212, tmp211,
	bic	r0, r0, #255	@ tmp212, tmp212,
	cmp	r0, #256	@ tmp212,
	bne	.L201	@,
	ldr	r0, [r2, #408]	@ <variable>.frame.long_term_pic_num, <variable>.frame.long_term_pic_num
	cmp	r0, r1	@ <variable>.frame.long_term_pic_num, LongtermPicNum
	beq	.L209	@,
.L201:
	add	ip, ip, #1	@ i, tmp169,
	add	r0, r4, #4	@ ivtmp.1289, tmp170,
	cmp	r5, ip	@ D.35083, i
	bls	.L182	@,
.L187:
	cmp	r3, #0	@ structure,
	beq	.L216	@,
	ldr	r2, [r0, #0]	@ temp.1292, <variable>.DPB.fs_ltref
	ldrb	r4, [r2, #2]	@ zero_extendqisi2	@ D.35061, <variable>.is_reference
	tst	r4, #1	@ D.35061,
	beq	.L186	@,
	ldr	r6, [r2, #436]	@ tmp158,
	bic	r6, r6, #-16777216	@ tmp156, tmp158,
	bic	r6, r6, #255	@ tmp156, tmp156,
	cmp	r6, #256	@ tmp156,
	beq	.L217	@,
.L186:
	tst	r4, #2	@ D.35061,
	beq	.L184	@,
	ldr	r4, [r2, #472]	@ tmp163,
	bic	r4, r4, #-16777216	@ tmp161, tmp163,
	bic	r4, r4, #255	@ tmp161, tmp161,
	cmp	r4, #256	@ tmp161,
	bne	.L184	@,
	ldr	r4, [r2, #480]	@ <variable>.bottom_field.long_term_pic_num, <variable>.bottom_field.long_term_pic_num
	cmp	r4, r1	@ <variable>.bottom_field.long_term_pic_num, LongtermPicNum
	beq	.L207	@,
	cmp	r3, #0	@ structure,
	add	ip, ip, #1	@ tmp169, i,
	add	r4, r0, #4	@ tmp170, ivtmp.1289,
	beq	.L218	@,
.L199:
	ldr	r2, [r0, #4]	@ temp.1292, <variable>.DPB.fs_ltref
	ldrb	r0, [r2, #2]	@ zero_extendqisi2	@ D.35061, <variable>.is_reference
	tst	r0, #1	@ D.35061,
	beq	.L200	@,
	ldr	r6, [r2, #436]	@ tmp207,
	bic	r6, r6, #-16777216	@ tmp208, tmp207,
	bic	r6, r6, #255	@ tmp208, tmp208,
	cmp	r6, #256	@ tmp208,
	beq	.L219	@,
.L200:
	tst	r0, #2	@ D.35061,
	beq	.L201	@,
	ldr	r0, [r2, #472]	@ tmp204,
	bic	r0, r0, #-16777216	@ tmp205, tmp204,
	bic	r0, r0, #255	@ tmp205, tmp205,
	cmp	r0, #256	@ tmp205,
	bne	.L201	@,
	ldr	r0, [r2, #480]	@ <variable>.bottom_field.long_term_pic_num, <variable>.bottom_field.long_term_pic_num
	cmp	r0, r1	@ <variable>.bottom_field.long_term_pic_num, LongtermPicNum
	bne	.L201	@,
	add	r0, r2, #472	@ D.35059, temp.1292,
	b	.L185	@
.L217:
	ldr	r6, [r2, #444]	@ <variable>.top_field.long_term_pic_num, <variable>.top_field.long_term_pic_num
	cmp	r6, r1	@ <variable>.top_field.long_term_pic_num, LongtermPicNum
	bne	.L186	@,
	add	r0, r2, #436	@ D.35059, temp.1292,
	b	.L185	@
.L219:
	ldr	r6, [r2, #444]	@ <variable>.top_field.long_term_pic_num, <variable>.top_field.long_term_pic_num
	cmp	r6, r1	@ <variable>.top_field.long_term_pic_num, LongtermPicNum
	bne	.L200	@,
	add	r0, r2, #436	@ D.35059, temp.1292,
	b	.L185	@
.L210:
	ldr	r2, [r0, #0]	@ D.35048, <variable>.DPB.fs_ltref
	ldrb	r4, [r2, #2]	@ zero_extendqisi2	@ <variable>.is_reference, <variable>.is_reference
	cmp	r4, #3	@ <variable>.is_reference,
	bne	.L196	@,
	ldr	r4, [r2, #400]	@ tmp198,
	bic	r4, r4, #-16777216	@ tmp199, tmp198,
	bic	r4, r4, #255	@ tmp199, tmp199,
	cmp	r4, #256	@ tmp199,
	bne	.L196	@,
	ldr	r4, [r2, #408]	@ <variable>.frame.long_term_pic_num, <variable>.frame.long_term_pic_num
	cmp	r4, r1	@ <variable>.frame.long_term_pic_num, LongtermPicNum
	bne	.L196	@,
.L209:
	add	r0, r2, #400	@ D.35059, D.35048,
	b	.L185	@
.L215:
	ldr	r6, [r2, #444]	@ <variable>.top_field.long_term_pic_num, <variable>.top_field.long_term_pic_num
	cmp	r6, r1	@ <variable>.top_field.long_term_pic_num, LongtermPicNum
	bne	.L191	@,
	add	r0, r2, #436	@ D.35059, temp.1292,
	b	.L185	@
.L214:
	ldr	r6, [r2, #444]	@ <variable>.top_field.long_term_pic_num, <variable>.top_field.long_term_pic_num
	cmp	r6, r1	@ <variable>.top_field.long_term_pic_num, LongtermPicNum
	bne	.L195	@,
	add	r0, r2, #436	@ D.35059, temp.1292,
	b	.L185	@
	.fnend
	.size	GetLongTermPicPoint, .-GetLongTermPicPoint
	.align	2
	.global	ReorderSTList
	.type	ReorderSTList, %function
ReorderSTList:
	.fnstart
.LFB1652:
	@ args = 4, pretend = 0, frame = 0
	@ frame_needed = 0, uses_anonymous_args = 0
	stmfd	sp!, {r4, r5, r6, r7, r8, lr}	@,
	.save {r4, r5, r6, r7, r8, lr}
	ldr	r4, [sp, #24]	@ refIdxLX, refIdxLX
	mov	r5, r1	@ RefPicListX, RefPicListX
	mov	r1, r3	@, picNumLX
	mov	r6, r3	@ picNumLX, picNumLX
	mov	r7, r2	@ num_ref_idx_lX_active_minus1, num_ref_idx_lX_active_minus1
	bl	GetShortTermPicPoint	@
	ldr	r3, [r4, #0]	@ D.35109,* refIdxLX
	add	r8, r7, #1	@ cIdx, num_ref_idx_lX_active_minus1,
	cmp	r8, r3	@ cIdx, D.35109
	ble	.L221	@,
	add	r1, r5, r8, asl #2	@, ivtmp.1339, RefPicListX, cIdx,
	add	r2, r5, r7, asl #2	@, ivtmp.1337, RefPicListX, ivtmp.1334,
.L222:
	ldr	r3, [r2], #-4	@ tmp155,
	mov	ip, r7	@ cIdx.1341, ivtmp.1334
	sub	r7, r7, #1	@ ivtmp.1334, ivtmp.1334,
	str	r3, [r1], #-4	@ tmp155,
	ldr	r3, [r4, #0]	@ D.35109,* refIdxLX
	cmp	r3, ip	@ D.35109, cIdx.1341
	blt	.L222	@,
.L221:
	add	r1, r3, #1	@ cIdx.1340, D.35109,
	str	r0, [r5, r3, asl #2]	@ picLX,* RefPicListX
	cmp	r8, r1	@ cIdx, cIdx.1340
	str	r1, [r4, #0]	@ cIdx.1340,* refIdxLX
	ldmltfd	sp!, {r4, r5, r6, r7, r8, pc}	@
	add	r2, r5, r1, asl #2	@, ivtmp.1330, RefPicListX, cIdx.1340,
	rsb	r0, r1, r8	@ tmp159, cIdx.1340, cIdx
	and	ip, r0, #1	@ tmp160, tmp159,
	mov	r3, r1	@ nIdx, cIdx.1340
	ldr	r0, [r2, #0]	@ D.35114,* ivtmp.1330
	cmp	r0, #0	@ D.35114,
	beq	.L230	@,
	ldrb	r4, [r0, #1]	@ zero_extendqisi2	@ <variable>.is_long_term, <variable>.is_long_term
	cmp	r4, #0	@ <variable>.is_long_term,
	beq	.L243	@,
.L231:
	add	r3, r1, #1	@ nIdx, cIdx.1340,
	str	r0, [r5, r1, asl #2]	@ D.35114,* RefPicListX
.L230:
	add	r1, r1, #1	@ cIdx.1340, cIdx.1340,
	add	r2, r2, #4	@ ivtmp.1330, ivtmp.1330,
	cmp	r8, r1	@ cIdx, cIdx.1340
	ldmltfd	sp!, {r4, r5, r6, r7, r8, pc}	@
.L246:
	cmp	ip, #0	@ tmp160,
	beq	.L226	@,
	ldr	r0, [r2, #0]	@ D.35114,* ivtmp.1330
	cmp	r0, #0	@ D.35114,
	beq	.L233	@,
	ldrb	lr, [r0, #1]	@ zero_extendqisi2	@ <variable>.is_long_term, <variable>.is_long_term
	cmp	lr, #0	@ <variable>.is_long_term,
	beq	.L244	@,
.L234:
	str	r0, [r5, r3, asl #2]	@ D.35114,* RefPicListX
	add	r3, r3, #1	@ nIdx, nIdx,
.L233:
	add	r1, r1, #1	@ cIdx.1340, cIdx.1340,
	add	r2, r2, #4	@ ivtmp.1330, ivtmp.1330,
	cmp	r8, r1	@ cIdx, cIdx.1340
	ldmltfd	sp!, {r4, r5, r6, r7, r8, pc}	@
.L226:
	ldr	r0, [r2, #0]	@ D.35114,* ivtmp.1330
	add	r1, r1, #1	@ tmp161, cIdx.1340,
	add	ip, r2, #4	@ tmp162, ivtmp.1330,
	cmp	r0, #0	@ D.35114,
	beq	.L224	@,
	ldrb	r4, [r0, #1]	@ zero_extendqisi2	@ <variable>.is_long_term, <variable>.is_long_term
	cmp	r4, #0	@ <variable>.is_long_term,
	bne	.L225	@,
	ldr	r4, [r0, #12]	@ <variable>.pic_num, <variable>.pic_num
	cmp	r4, r6	@ <variable>.pic_num, picNumLX
	beq	.L224	@,
.L225:
	str	r0, [r5, r3, asl #2]	@ D.35114,* RefPicListX
	add	r3, r3, #1	@ nIdx, nIdx,
.L224:
	ldr	r2, [r2, #4]	@ D.35114,
	cmp	r2, #0	@ D.35114,
	beq	.L237	@,
	ldrb	r0, [r2, #1]	@ zero_extendqisi2	@ <variable>.is_long_term, <variable>.is_long_term
	cmp	r0, #0	@ <variable>.is_long_term,
	bne	.L238	@,
	ldr	lr, [r2, #12]	@ <variable>.pic_num, <variable>.pic_num
	cmp	lr, r6	@ <variable>.pic_num, picNumLX
	beq	.L237	@,
.L238:
	str	r2, [r5, r3, asl #2]	@ D.35114,* RefPicListX
	add	r3, r3, #1	@ nIdx, nIdx,
.L237:
	add	r1, r1, #1	@ cIdx.1340, tmp161,
	add	r2, ip, #4	@ ivtmp.1330, tmp162,
	cmp	r8, r1	@ cIdx, cIdx.1340
	bge	.L226	@,
	ldmfd	sp!, {r4, r5, r6, r7, r8, pc}	@
.L243:
	ldr	r4, [r0, #12]	@ <variable>.pic_num, <variable>.pic_num
	cmp	r4, r6	@ <variable>.pic_num, picNumLX
	bne	.L231	@,
	add	r1, r1, #1	@ cIdx.1340, cIdx.1340,
	add	r2, r2, #4	@ ivtmp.1330, ivtmp.1330,
	cmp	r8, r1	@ cIdx, cIdx.1340
	bge	.L246	@,
	ldmfd	sp!, {r4, r5, r6, r7, r8, pc}	@
.L244:
	ldr	ip, [r0, #12]	@ <variable>.pic_num, <variable>.pic_num
	cmp	ip, r6	@ <variable>.pic_num, picNumLX
	bne	.L234	@,
	b	.L233	@
	.fnend
	.size	ReorderSTList, .-ReorderSTList
	.align	2
	.global	ReorderLTList
	.type	ReorderLTList, %function
ReorderLTList:
	.fnstart
.LFB1653:
	@ args = 4, pretend = 0, frame = 0
	@ frame_needed = 0, uses_anonymous_args = 0
	stmfd	sp!, {r4, r5, r6, r7, r8, lr}	@,
	.save {r4, r5, r6, r7, r8, lr}
	ldr	r4, [sp, #24]	@ refIdxLX, refIdxLX
	mov	r5, r1	@ RefPicListX, RefPicListX
	mov	r1, r3	@, LongTermPicNum
	mov	r6, r3	@ LongTermPicNum, LongTermPicNum
	mov	r7, r2	@ num_ref_idx_lX_active_minus1, num_ref_idx_lX_active_minus1
	bl	GetLongTermPicPoint	@
	ldr	r3, [r4, #0]	@ D.35151,* refIdxLX
	add	r8, r7, #1	@ cIdx, num_ref_idx_lX_active_minus1,
	cmp	r8, r3	@ cIdx, D.35151
	ble	.L248	@,
	add	r1, r5, r8, asl #2	@, ivtmp.1387, RefPicListX, cIdx,
	add	r2, r5, r7, asl #2	@, ivtmp.1385, RefPicListX, ivtmp.1382,
.L249:
	ldr	r3, [r2], #-4	@ tmp151,
	mov	ip, r7	@ cIdx.1389, ivtmp.1382
	sub	r7, r7, #1	@ ivtmp.1382, ivtmp.1382,
	str	r3, [r1], #-4	@ tmp151,
	ldr	r3, [r4, #0]	@ D.35151,* refIdxLX
	cmp	r3, ip	@ D.35151, cIdx.1389
	blt	.L249	@,
.L248:
	add	r1, r3, #1	@ cIdx.1388, D.35151,
	str	r0, [r5, r3, asl #2]	@ picLX,* RefPicListX
	cmp	r8, r1	@ cIdx, cIdx.1388
	str	r1, [r4, #0]	@ cIdx.1388,* refIdxLX
	ldmltfd	sp!, {r4, r5, r6, r7, r8, pc}	@
	add	r2, r5, r1, asl #2	@, ivtmp.1378, RefPicListX, cIdx.1388,
	rsb	r0, r1, r8	@ tmp155, cIdx.1388, cIdx
	and	ip, r0, #1	@ tmp156, tmp155,
	mov	r3, r1	@ nIdx, cIdx.1388
	ldr	r0, [r2, #0]	@ D.35156,* ivtmp.1378
	cmp	r0, #0	@ D.35156,
	beq	.L257	@,
	ldrb	r4, [r0, #1]	@ zero_extendqisi2	@ <variable>.is_long_term, <variable>.is_long_term
	cmp	r4, #0	@ <variable>.is_long_term,
	bne	.L270	@,
.L258:
	add	r3, r1, #1	@ nIdx, cIdx.1388,
	str	r0, [r5, r1, asl #2]	@ D.35156,* RefPicListX
.L257:
	add	r1, r1, #1	@ cIdx.1388, cIdx.1388,
	add	r2, r2, #4	@ ivtmp.1378, ivtmp.1378,
	cmp	r8, r1	@ cIdx, cIdx.1388
	ldmltfd	sp!, {r4, r5, r6, r7, r8, pc}	@
.L273:
	cmp	ip, #0	@ tmp156,
	beq	.L253	@,
	ldr	r0, [r2, #0]	@ D.35156,* ivtmp.1378
	cmp	r0, #0	@ D.35156,
	beq	.L260	@,
	ldrb	lr, [r0, #1]	@ zero_extendqisi2	@ <variable>.is_long_term, <variable>.is_long_term
	cmp	lr, #0	@ <variable>.is_long_term,
	bne	.L271	@,
.L261:
	str	r0, [r5, r3, asl #2]	@ D.35156,* RefPicListX
	add	r3, r3, #1	@ nIdx, nIdx,
.L260:
	add	r1, r1, #1	@ cIdx.1388, cIdx.1388,
	add	r2, r2, #4	@ ivtmp.1378, ivtmp.1378,
	cmp	r8, r1	@ cIdx, cIdx.1388
	ldmltfd	sp!, {r4, r5, r6, r7, r8, pc}	@
.L253:
	ldr	r0, [r2, #0]	@ D.35156,* ivtmp.1378
	add	r1, r1, #1	@ tmp157, cIdx.1388,
	add	ip, r2, #4	@ tmp158, ivtmp.1378,
	cmp	r0, #0	@ D.35156,
	beq	.L251	@,
	ldrb	r4, [r0, #1]	@ zero_extendqisi2	@ <variable>.is_long_term, <variable>.is_long_term
	cmp	r4, #0	@ <variable>.is_long_term,
	beq	.L252	@,
	ldr	r4, [r0, #8]	@ <variable>.long_term_pic_num, <variable>.long_term_pic_num
	cmp	r4, r6	@ <variable>.long_term_pic_num, LongTermPicNum
	beq	.L251	@,
.L252:
	str	r0, [r5, r3, asl #2]	@ D.35156,* RefPicListX
	add	r3, r3, #1	@ nIdx, nIdx,
.L251:
	ldr	r2, [r2, #4]	@ D.35156,
	cmp	r2, #0	@ D.35156,
	beq	.L264	@,
	ldrb	r0, [r2, #1]	@ zero_extendqisi2	@ <variable>.is_long_term, <variable>.is_long_term
	cmp	r0, #0	@ <variable>.is_long_term,
	beq	.L265	@,
	ldr	lr, [r2, #8]	@ <variable>.long_term_pic_num, <variable>.long_term_pic_num
	cmp	lr, r6	@ <variable>.long_term_pic_num, LongTermPicNum
	beq	.L264	@,
.L265:
	str	r2, [r5, r3, asl #2]	@ D.35156,* RefPicListX
	add	r3, r3, #1	@ nIdx, nIdx,
.L264:
	add	r1, r1, #1	@ cIdx.1388, tmp157,
	add	r2, ip, #4	@ ivtmp.1378, tmp158,
	cmp	r8, r1	@ cIdx, cIdx.1388
	bge	.L253	@,
	ldmfd	sp!, {r4, r5, r6, r7, r8, pc}	@
.L270:
	ldr	r4, [r0, #8]	@ <variable>.long_term_pic_num, <variable>.long_term_pic_num
	cmp	r4, r6	@ <variable>.long_term_pic_num, LongTermPicNum
	bne	.L258	@,
	add	r1, r1, #1	@ cIdx.1388, cIdx.1388,
	add	r2, r2, #4	@ ivtmp.1378, ivtmp.1378,
	cmp	r8, r1	@ cIdx, cIdx.1388
	bge	.L273	@,
	ldmfd	sp!, {r4, r5, r6, r7, r8, pc}	@
.L271:
	ldr	ip, [r0, #8]	@ <variable>.long_term_pic_num, <variable>.long_term_pic_num
	cmp	ip, r6	@ <variable>.long_term_pic_num, LongTermPicNum
	bne	.L261	@,
	b	.L260	@
	.fnend
	.size	ReorderLTList, .-ReorderLTList
	.align	2
	.global	ReorderRefPiclist
	.type	ReorderRefPiclist, %function
ReorderRefPiclist:
	.fnstart
.LFB1654:
	@ args = 12, pretend = 0, frame = 16
	@ frame_needed = 0, uses_anonymous_args = 0
	stmfd	sp!, {r4, r5, r6, r7, r8, r9, sl, fp, lr}	@,
	.save {r4, r5, r6, r7, r8, r9, sl, fp, lr}
	mov	r5, r0	@ pH264Ctx, pH264Ctx
	movw	r0, #20681	@ tmp152,
	.pad #28
	sub	sp, sp, #28	@,,
	ldrb	r2, [r5, r0]	@ zero_extendqisi2	@ <variable>.CurrSlice.field_pic_flag, <variable>.CurrSlice.field_pic_flag
	mov	r6, r3	@ num_ref_idx_lX_active_minus1, num_ref_idx_lX_active_minus1
	mov	r8, r1	@ list, list
	mov	r3, #0	@ tmp151,
	cmp	r2, #0	@ <variable>.CurrSlice.field_pic_flag,
	str	r3, [sp, #20]	@ tmp151, refIdxLX
	ldr	r9, [sp, #64]	@ reordering_of_pic_nums_idc, reordering_of_pic_nums_idc
	beq	.L275	@,
	movw	r1, #20692	@ tmp155,
	movw	ip, #13584	@ tmp157,
	ldr	r3, [r5, r1]	@ <variable>.CurrSlice.pic_parameter_set_id, <variable>.CurrSlice.pic_parameter_set_id
	mov	r0, #2208	@ tmp159,
	ldr	fp, [r5, ip]	@ <variable>.PPS, <variable>.PPS
	movw	r1, #20700	@ tmp171,
	movw	r2, #13580	@ tmp163,
	ldr	r2, [r5, r2]	@ <variable>.SPS, <variable>.SPS
	mla	ip, r0, r3, fp	@ tmp160, tmp159, <variable>.CurrSlice.pic_parameter_set_id, <variable>.PPS
	ldr	fp, [r5, r1]	@ <variable>.CurrSlice.frame_num, <variable>.CurrSlice.frame_num
	mov	r0, fp, asl #1	@ tmp172, <variable>.CurrSlice.frame_num,
	mov	fp, #4000	@ tmp165,
	add	r1, r0, #1	@, tmp172,
	str	r1, [sp, #8]	@, %sfp
	ldr	r0, [ip, #28]	@ <variable>.seq_parameter_set_id, <variable>.seq_parameter_set_id
	mla	r3, fp, r0, r2	@ tmp166, tmp165, <variable>.seq_parameter_set_id, <variable>.SPS
	mov	fp, #2	@ tmp169,
	ldr	ip, [r3, #2904]	@ <variable>.log2_max_frame_num_minus4, <variable>.log2_max_frame_num_minus4
	add	r1, ip, #4	@ tmp167, <variable>.log2_max_frame_num_minus4,
	mov	fp, fp, asl r1	@ maxPicNum, tmp169,
.L285:
	adds	r3, r6, #2	@, num_ref_idx_lX_active_minus1,
	str	r3, [sp, #12]	@, %sfp
	beq	.L286	@,
	ldr	r3, [r9, #0]	@ D.35218,* reordering_of_pic_nums_idc
	cmp	r3, #3	@ D.35218,
	beq	.L286	@,
	tst	r6, #1	@ num_ref_idx_lX_active_minus1,
	mov	r2, #0	@ D.35216,
	ldr	r7, [sp, #8]	@ picNumLXPred, %sfp
	mov	r4, r2	@ i, D.35216
	add	sl, sp, #20	@ tmp198,,
	bne	.L277	@,
	cmp	r3, #1	@ D.35218,
	bls	.L300	@,
	ldr	r4, [sp, #72]	@, long_term_pic_idx
	mov	r0, r5	@, pH264Ctx
	mov	r1, r8	@, list
	mov	r2, r6	@, num_ref_idx_lX_active_minus1
	ldr	r3, [r4, #0]	@ tmp206,
	str	sl, [sp, #0]	@ tmp198,
	bl	ReorderLTList	@
.L301:
	mov	r2, #4	@ D.35216,
	mov	r4, #1	@ i,
	ldr	r3, [r9, r2]	@ D.35218,* D.35216
	cmp	r3, #3	@ D.35218,
	bne	.L277	@,
.L286:
	add	sp, sp, #28	@,,
	ldmfd	sp!, {r4, r5, r6, r7, r8, r9, sl, fp, pc}
.L278:
	ldr	r1, [sp, #72]	@, long_term_pic_idx
	mov	r0, r5	@, pH264Ctx
	ldr	r3, [r1, r2]	@ tmp179,* D.35216
	mov	r1, r8	@, list
	mov	r2, r6	@, num_ref_idx_lX_active_minus1
	str	sl, [sp, #0]	@ tmp198,
	bl	ReorderLTList	@
.L283:
	ldr	r3, [sp, #12]	@, %sfp
	add	r4, r4, #1	@ tmp202, i,
	cmp	r3, r4	@, tmp202
	bls	.L286	@,
	ldr	r3, [r9, r4, asl #2]	@ D.35218,* reordering_of_pic_nums_idc
	cmp	r3, #3	@ D.35218,
	beq	.L286	@,
	cmp	r3, #1	@ D.35218,
	bls	.L305	@,
	ldr	lr, [sp, #72]	@, long_term_pic_idx
	mov	r0, r5	@, pH264Ctx
	mov	r1, r8	@, list
	mov	r2, r6	@, num_ref_idx_lX_active_minus1
	ldr	r3, [lr, r4, asl #2]	@ tmp213,
	str	sl, [sp, #0]	@ tmp198,
	bl	ReorderLTList	@
.L306:
	add	r4, r4, #1	@ i, tmp202,
	ldr	r3, [r9, r4, asl #2]	@ D.35218,* reordering_of_pic_nums_idc
	mov	r2, r4, asl #2	@ D.35216, i,
	cmp	r3, #3	@ D.35218,
	beq	.L286	@,
.L277:
	cmp	r3, #1	@ D.35218,
	bhi	.L278	@,
	cmp	r3, #0	@ D.35218,
	bne	.L279	@,
	ldr	r0, [sp, #68]	@, abs_diff_pic_num_minus1
	ldr	lr, [r0, r2]	@ tmp175,* D.35216
	mvn	r3, lr	@ tmp174, tmp175
	adds	r7, r3, r7	@ picNumLXNoWrap, tmp174, picNumLXPred
	addmi	r7, r7, fp	@ picNumLXNoWrap, picNumLXNoWrap, maxPicNum
.L280:
	ldr	r2, [sp, #8]	@, %sfp
	mov	r0, r5	@, pH264Ctx
	mov	r1, r8	@, list
	str	sl, [sp, #0]	@ tmp198,
	cmp	r2, r7	@, picNumLXNoWrap
	mov	r2, r6	@, num_ref_idx_lX_active_minus1
	rsblt	r3, fp, r7	@ picNumLX, maxPicNum, picNumLXNoWrap
	movge	r3, r7	@ picNumLX, picNumLXNoWrap
	bl	ReorderSTList	@
	b	.L283	@
.L305:
	cmp	r3, #0	@ D.35218,
	bne	.L294	@,
	ldr	r2, [sp, #68]	@, abs_diff_pic_num_minus1
	ldr	ip, [r2, r4, asl #2]	@ tmp218,
	mvn	r1, ip	@ tmp219, tmp218
	adds	r7, r1, r7	@ picNumLXNoWrap, tmp219, picNumLXPred
	addmi	r7, r7, fp	@ picNumLXNoWrap, picNumLXNoWrap, maxPicNum
.L296:
	ldr	r3, [sp, #8]	@, %sfp
	cmp	r3, r7	@, picNumLXNoWrap
	rsblt	r3, fp, r7	@ picNumLX, maxPicNum, picNumLXNoWrap
	movge	r3, r7	@ picNumLX, picNumLXNoWrap
.L309:
	mov	r0, r5	@, pH264Ctx
	mov	r1, r8	@, list
	mov	r2, r6	@, num_ref_idx_lX_active_minus1
	str	sl, [sp, #0]	@ tmp198,
	bl	ReorderSTList	@
	b	.L306	@
.L279:
	ldr	ip, [sp, #68]	@, abs_diff_pic_num_minus1
	add	r7, r7, #1	@ tmp176, picNumLXPred,
	ldr	r3, [ip, r2]	@ tmp177,* D.35216
	add	r7, r7, r3	@ picNumLXNoWrap, tmp176, tmp177
	cmp	fp, r7	@ maxPicNum, picNumLXNoWrap
	rsble	r7, fp, r7	@ picNumLXNoWrap, maxPicNum, picNumLXNoWrap
	b	.L280	@
.L294:
	ldr	r0, [sp, #68]	@, abs_diff_pic_num_minus1
	add	r7, r7, #1	@ tmp216, picNumLXPred,
	ldr	r3, [r0, r4, asl #2]	@ tmp217,
	add	r7, r7, r3	@ picNumLXNoWrap, tmp216, tmp217
	cmp	fp, r7	@ maxPicNum, picNumLXNoWrap
	rsble	r7, fp, r7	@ picNumLXNoWrap, maxPicNum, picNumLXNoWrap
	b	.L296	@
.L275:
	movw	fp, #20692	@ tmp182,
	movw	ip, #13584	@ tmp184,
	ldr	r3, [r5, fp]	@ <variable>.CurrSlice.pic_parameter_set_id, <variable>.CurrSlice.pic_parameter_set_id
	mov	r0, #2208	@ tmp186,
	ldr	r1, [r5, ip]	@ <variable>.PPS, <variable>.PPS
	movw	fp, #20700	@ tmp197,
	movw	r2, #13580	@ tmp190,
	ldr	r2, [r5, r2]	@ <variable>.SPS, <variable>.SPS
	mla	ip, r0, r3, r1	@ tmp187, tmp186, <variable>.CurrSlice.pic_parameter_set_id, <variable>.PPS
	ldr	r0, [r5, fp]	@, <variable>.CurrSlice.frame_num
	mov	r1, #4000	@ tmp192,
	str	r0, [sp, #8]	@, %sfp
	ldr	fp, [ip, #28]	@ <variable>.seq_parameter_set_id, <variable>.seq_parameter_set_id
	mla	r3, r1, fp, r2	@ tmp193, tmp192, <variable>.seq_parameter_set_id, <variable>.SPS
	mov	fp, #1	@ tmp196,
	ldr	ip, [r3, #2904]	@ <variable>.log2_max_frame_num_minus4, <variable>.log2_max_frame_num_minus4
	add	r0, ip, #4	@ tmp194, <variable>.log2_max_frame_num_minus4,
	mov	fp, fp, asl r0	@ maxPicNum, tmp196,
	b	.L285	@
.L300:
	cmp	r3, #0	@ D.35218,
	bne	.L288	@,
	ldr	r3, [sp, #68]	@, abs_diff_pic_num_minus1
	ldr	ip, [sp, #8]	@, %sfp
	ldr	r4, [r3, #0]	@ tmp211,
	mvn	r2, r4	@ tmp212, tmp211
	adds	r7, r2, ip	@ picNumLXNoWrap, tmp212,
	addmi	r7, r7, fp	@ picNumLXNoWrap, picNumLXNoWrap, maxPicNum
.L290:
	ldr	lr, [sp, #8]	@, %sfp
	cmp	lr, r7	@, picNumLXNoWrap
	rsblt	r3, fp, r7	@ picNumLX, maxPicNum, picNumLXNoWrap
	movge	r3, r7	@ picNumLX, picNumLXNoWrap
.L304:
	mov	r0, r5	@, pH264Ctx
	mov	r1, r8	@, list
	mov	r2, r6	@, num_ref_idx_lX_active_minus1
	str	sl, [sp, #0]	@ tmp198,
	bl	ReorderSTList	@
	b	.L301	@
.L288:
	ldr	r1, [sp, #68]	@, abs_diff_pic_num_minus1
	ldr	r0, [sp, #8]	@, %sfp
	ldr	r3, [r1, #0]	@ tmp210,
	add	r7, r0, #1	@ tmp209,,
	add	r7, r7, r3	@ picNumLXNoWrap, tmp209, tmp210
	cmp	fp, r7	@ maxPicNum, picNumLXNoWrap
	rsble	r7, fp, r7	@ picNumLXNoWrap, maxPicNum, picNumLXNoWrap
	b	.L290	@
	.fnend
	.size	ReorderRefPiclist, .-ReorderRefPiclist
	.align	2
	.global	ReorderListX
	.type	ReorderListX, %function
ReorderListX:
	.fnstart
.LFB1655:
	@ args = 0, pretend = 0, frame = 0
	@ frame_needed = 0, uses_anonymous_args = 0
	movw	r1, #20680	@ tmp134,
	stmfd	sp!, {r4, r5, lr}	@,
	.save {r4, r5, lr}
	ldrb	r3, [r0, r1]	@ zero_extendqisi2	@ <variable>.CurrSlice.slice_type, <variable>.CurrSlice.slice_type
	.pad #20
	sub	sp, sp, #20	@,,
	mov	r4, r0	@ pH264Ctx, pH264Ctx
	cmp	r3, #2	@ <variable>.CurrSlice.slice_type,
	beq	.L316	@,
	movw	ip, #19888	@ tmp136,
	ldrb	r2, [r0, ip]	@ zero_extendqisi2	@ <variable>.CurrReorder.ref_pic_list_reordering_flag_l0, <variable>.CurrReorder.ref_pic_list_reordering_flag_l0
	cmp	r2, #0	@ <variable>.CurrReorder.ref_pic_list_reordering_flag_l0,
	bne	.L317	@,
.L314:
	movw	r3, #20680	@ tmp154,
	mov	r0, #20736	@ tmp151,
	ldrb	r1, [r4, r3]	@ zero_extendqisi2	@ <variable>.CurrSlice.slice_type, <variable>.CurrSlice.slice_type
	movw	ip, #20724	@ tmp150,
	ldr	r2, [r4, r0]	@ <variable>.CurrSlice.num_ref_idx_l0_active_minus1, <variable>.CurrSlice.num_ref_idx_l0_active_minus1
	cmp	r1, #1	@ <variable>.CurrSlice.slice_type,
	add	r0, r2, #1	@ tmp153, <variable>.CurrSlice.num_ref_idx_l0_active_minus1,
	str	r0, [r4, ip]	@ tmp153, <variable>.CurrSlice.listXsize
	bne	.L316	@,
	movw	r2, #19889	@ tmp156,
	ldrb	ip, [r4, r2]	@ zero_extendqisi2	@ <variable>.CurrReorder.ref_pic_list_reordering_flag_l1, <variable>.CurrReorder.ref_pic_list_reordering_flag_l1
	cmp	ip, #0	@ <variable>.CurrReorder.ref_pic_list_reordering_flag_l1,
	bne	.L318	@,
.L315:
	movw	r1, #20740	@ tmp172,
	movw	r3, #20728	@ tmp171,
	ldr	ip, [r4, r1]	@ <variable>.CurrSlice.num_ref_idx_l1_active_minus1, <variable>.CurrSlice.num_ref_idx_l1_active_minus1
	add	r2, ip, #1	@ tmp174, <variable>.CurrSlice.num_ref_idx_l1_active_minus1,
	str	r2, [r4, r3]	@ tmp174, <variable>.CurrSlice.listXsize
.L316:
	add	sp, sp, #20	@,,
	ldmfd	sp!, {r4, r5, pc}
.L317:
	add	r1, r0, #26880	@, pH264Ctx,
	add	r2, r0, #20480	@, pH264Ctx,
	mov	r3, #20736	@ tmp142,
	add	r5, r0, #19712	@ tmp144, pH264Ctx,
	ldr	r3, [r0, r3]	@ <variable>.CurrSlice.num_ref_idx_l0_active_minus1, <variable>.CurrSlice.num_ref_idx_l0_active_minus1
	add	lr, r0, #19968	@ tmp146, pH264Ctx,
	add	ip, r0, #20224	@ tmp148, pH264Ctx,
	add	r1, r1, #156	@,,
	add	r2, r2, #244	@,,
	add	r5, r5, #180	@ tmp144, tmp144,
	add	lr, lr, #188	@ tmp146, tmp146,
	stmia	sp, {r5, lr}	@ phole stm
	add	lr, ip, #196	@ tmp148, tmp148,
	str	lr, [sp, #8]	@ tmp148,
	bl	ReorderRefPiclist	@
	b	.L314	@
.L318:
	add	r5, r4, #20480	@ tmp162, pH264Ctx,
	movw	r0, #20740	@ tmp163,
	add	r1, r4, #27136	@, pH264Ctx,
	ldr	r3, [r4, r0]	@ <variable>.CurrSlice.num_ref_idx_l1_active_minus1, <variable>.CurrSlice.num_ref_idx_l1_active_minus1
	add	r2, r5, #248	@, tmp162,
	add	lr, r4, #19968	@ tmp165, pH264Ctx,
	add	ip, r4, #20224	@ tmp167, pH264Ctx,
	add	r1, r1, #32	@,,
	mov	r0, r4	@, pH264Ctx
	add	lr, lr, #56	@ tmp165, tmp165,
	add	r5, r5, #68	@ tmp169, tmp162,
	str	lr, [sp, #0]	@ tmp165,
	str	r5, [sp, #8]	@ tmp169,
	add	lr, ip, #64	@ tmp167, tmp167,
	str	lr, [sp, #4]	@ tmp167,
	bl	ReorderRefPiclist	@
	b	.L315	@
	.fnend
	.size	ReorderListX, .-ReorderListX
	.align	2
	.global	IsSTRefFlg
	.type	IsSTRefFlg, %function
IsSTRefFlg:
	.fnstart
.LFB1656:
	@ args = 0, pretend = 0, frame = 0
	@ frame_needed = 0, uses_anonymous_args = 0
	@ link register save eliminated.
	ldr	r2, [r0, #0]	@ tmp138,* s
	bic	r1, r2, #-16777216	@ tmp136, tmp138,
	bic	r0, r1, #255	@ tmp136, tmp136,
	cmp	r0, #65536	@ tmp136,
	movne	r0, #0	@,
	moveq	r0, #1	@,
	bx	lr	@
	.fnend
	.size	IsSTRefFlg, .-IsSTRefFlg
	.align	2
	.global	IsLTRefFlg
	.type	IsLTRefFlg, %function
IsLTRefFlg:
	.fnstart
.LFB1657:
	@ args = 0, pretend = 0, frame = 0
	@ frame_needed = 0, uses_anonymous_args = 0
	@ link register save eliminated.
	ldr	r2, [r0, #0]	@ tmp138,* s
	bic	r1, r2, #-16777216	@ tmp136, tmp138,
	bic	r0, r1, #255	@ tmp136, tmp136,
	cmp	r0, #256	@ tmp136,
	movne	r0, #0	@,
	moveq	r0, #1	@,
	bx	lr	@
	.fnend
	.size	IsLTRefFlg, .-IsLTRefFlg
	.align	2
	.global	compare_pic_by_pic_num_desc
	.type	compare_pic_by_pic_num_desc, %function
compare_pic_by_pic_num_desc:
	.fnstart
.LFB1658:
	@ args = 0, pretend = 0, frame = 0
	@ frame_needed = 0, uses_anonymous_args = 0
	@ link register save eliminated.
	ldr	ip, [r0, #0]	@ tmp139,* arg1
	ldr	r1, [r1, #0]	@ tmp140,* arg2
	ldr	r2, [ip, #12]	@ D.35294, <variable>.pic_num
	ldr	r3, [r1, #12]	@ D.35297, <variable>.pic_num
	cmp	r2, r3	@ D.35294, D.35297
	movlt	r0, #1	@ D.35300,
	bxlt	lr	@
	movle	r0, #0	@ D.35300,
	mvngt	r0, #0	@ D.35300,
	bx	lr	@
	.fnend
	.size	compare_pic_by_pic_num_desc, .-compare_pic_by_pic_num_desc
	.align	2
	.global	compare_pic_by_lt_pic_num_asc
	.type	compare_pic_by_lt_pic_num_asc, %function
compare_pic_by_lt_pic_num_asc:
	.fnstart
.LFB1659:
	@ args = 0, pretend = 0, frame = 0
	@ frame_needed = 0, uses_anonymous_args = 0
	@ link register save eliminated.
	ldr	ip, [r0, #0]	@ tmp139,* arg1
	ldr	r1, [r1, #0]	@ tmp140,* arg2
	ldr	r2, [ip, #8]	@ D.35309, <variable>.long_term_pic_num
	ldr	r3, [r1, #8]	@ D.35312, <variable>.long_term_pic_num
	cmp	r2, r3	@ D.35309, D.35312
	mvnlt	r0, #0	@ D.35315,
	bxlt	lr	@
	movle	r0, #0	@, D.35315
	movgt	r0, #1	@, D.35315
	bx	lr	@
	.fnend
	.size	compare_pic_by_lt_pic_num_asc, .-compare_pic_by_lt_pic_num_asc
	.align	2
	.global	compare_fs_by_frame_num_desc
	.type	compare_fs_by_frame_num_desc, %function
compare_fs_by_frame_num_desc:
	.fnstart
.LFB1660:
	@ args = 0, pretend = 0, frame = 0
	@ frame_needed = 0, uses_anonymous_args = 0
	@ link register save eliminated.
	ldr	ip, [r0, #0]	@ tmp139,* arg1
	ldr	r1, [r1, #0]	@ tmp140,* arg2
	ldr	r2, [ip, #516]	@ D.35324, <variable>.frame_num_wrap
	ldr	r3, [r1, #516]	@ D.35327, <variable>.frame_num_wrap
	cmp	r2, r3	@ D.35324, D.35327
	movlt	r0, #1	@ D.35330,
	bxlt	lr	@
	movle	r0, #0	@ D.35330,
	mvngt	r0, #0	@ D.35330,
	bx	lr	@
	.fnend
	.size	compare_fs_by_frame_num_desc, .-compare_fs_by_frame_num_desc
	.align	2
	.global	compare_fs_by_lt_pic_idx_asc
	.type	compare_fs_by_lt_pic_idx_asc, %function
compare_fs_by_lt_pic_idx_asc:
	.fnstart
.LFB1661:
	@ args = 0, pretend = 0, frame = 0
	@ frame_needed = 0, uses_anonymous_args = 0
	@ link register save eliminated.
	ldr	ip, [r0, #0]	@ tmp139,* arg1
	ldr	r1, [r1, #0]	@ tmp140,* arg2
	ldr	r2, [ip, #520]	@ D.35339, <variable>.long_term_frame_idx
	ldr	r3, [r1, #520]	@ D.35342, <variable>.long_term_frame_idx
	cmp	r2, r3	@ D.35339, D.35342
	mvncc	r0, #0	@ D.35345,
	bxcc	lr	@
	movls	r0, #0	@, D.35345
	movhi	r0, #1	@, D.35345
	bx	lr	@
	.fnend
	.size	compare_fs_by_lt_pic_idx_asc, .-compare_fs_by_lt_pic_idx_asc
	.align	2
	.global	compare_pic_by_poc_asc
	.type	compare_pic_by_poc_asc, %function
compare_pic_by_poc_asc:
	.fnstart
.LFB1662:
	@ args = 0, pretend = 0, frame = 0
	@ frame_needed = 0, uses_anonymous_args = 0
	@ link register save eliminated.
	ldr	ip, [r0, #0]	@ tmp139,* arg1
	ldr	r1, [r1, #0]	@ tmp140,* arg2
	ldr	r2, [ip, #16]	@ D.35354, <variable>.poc
	ldr	r3, [r1, #16]	@ D.35357, <variable>.poc
	cmp	r2, r3	@ D.35354, D.35357
	mvnlt	r0, #0	@ D.35360,
	bxlt	lr	@
	movle	r0, #0	@, D.35360
	movgt	r0, #1	@, D.35360
	bx	lr	@
	.fnend
	.size	compare_pic_by_poc_asc, .-compare_pic_by_poc_asc
	.align	2
	.global	compare_pic_by_poc_desc
	.type	compare_pic_by_poc_desc, %function
compare_pic_by_poc_desc:
	.fnstart
.LFB1663:
	@ args = 0, pretend = 0, frame = 0
	@ frame_needed = 0, uses_anonymous_args = 0
	@ link register save eliminated.
	ldr	ip, [r0, #0]	@ tmp139,* arg1
	ldr	r1, [r1, #0]	@ tmp140,* arg2
	ldr	r2, [ip, #16]	@ D.35369, <variable>.poc
	ldr	r3, [r1, #16]	@ D.35372, <variable>.poc
	cmp	r2, r3	@ D.35369, D.35372
	movlt	r0, #1	@ D.35375,
	bxlt	lr	@
	movle	r0, #0	@ D.35375,
	mvngt	r0, #0	@ D.35375,
	bx	lr	@
	.fnend
	.size	compare_pic_by_poc_desc, .-compare_pic_by_poc_desc
	.align	2
	.global	compare_fs_by_poc_asc
	.type	compare_fs_by_poc_asc, %function
compare_fs_by_poc_asc:
	.fnstart
.LFB1664:
	@ args = 0, pretend = 0, frame = 0
	@ frame_needed = 0, uses_anonymous_args = 0
	@ link register save eliminated.
	ldr	ip, [r0, #0]	@ tmp139,* arg1
	ldr	r1, [r1, #0]	@ tmp140,* arg2
	ldr	r2, [ip, #524]	@ D.35384, <variable>.poc
	ldr	r3, [r1, #524]	@ D.35387, <variable>.poc
	cmp	r2, r3	@ D.35384, D.35387
	mvnlt	r0, #0	@ D.35390,
	bxlt	lr	@
	movle	r0, #0	@, D.35390
	movgt	r0, #1	@, D.35390
	bx	lr	@
	.fnend
	.size	compare_fs_by_poc_asc, .-compare_fs_by_poc_asc
	.align	2
	.global	compare_fs_by_poc_desc
	.type	compare_fs_by_poc_desc, %function
compare_fs_by_poc_desc:
	.fnstart
.LFB1665:
	@ args = 0, pretend = 0, frame = 0
	@ frame_needed = 0, uses_anonymous_args = 0
	@ link register save eliminated.
	ldr	ip, [r0, #0]	@ tmp139,* arg1
	ldr	r1, [r1, #0]	@ tmp140,* arg2
	ldr	r2, [ip, #524]	@ D.35399, <variable>.poc
	ldr	r3, [r1, #524]	@ D.35402, <variable>.poc
	cmp	r2, r3	@ D.35399, D.35402
	movlt	r0, #1	@ D.35405,
	bxlt	lr	@
	movle	r0, #0	@ D.35405,
	mvngt	r0, #0	@ D.35405,
	bx	lr	@
	.fnend
	.size	compare_fs_by_poc_desc, .-compare_fs_by_poc_desc
	.align	2
	.global	GenPiclistfromFrmlist
	.type	GenPiclistfromFrmlist, %function
GenPiclistfromFrmlist:
	.fnstart
.LFB1666:
	@ args = 8, pretend = 0, frame = 16
	@ frame_needed = 0, uses_anonymous_args = 0
	stmfd	sp!, {r4, r5, r6, r7, r8, r9, sl, fp, lr}	@,
	.save {r4, r5, r6, r7, r8, r9, sl, fp, lr}
	.pad #20
	sub	sp, sp, #20	@,,
	cmp	r2, #31	@ list_idx,
	movcc	r4, r2	@ list_idx.1823, list_idx
	movcs	r4, #31	@ list_idx.1823,
	movw	ip, #:lower16:IsSTRefFlg	@ tmp218,
	ldr	r2, [sp, #60]	@ long_term, long_term
	movt	ip, #:upper16:IsSTRefFlg	@ tmp218,
	movw	r5, #:lower16:IsLTRefFlg	@ tmp217,
	movt	r5, #:upper16:IsLTRefFlg	@ tmp217,
	cmp	r2, #0	@ long_term,
	mov	r6, r1	@ fs_list, fs_list
	str	r3, [sp, #12]	@ list, %sfp
	moveq	r5, ip	@ is_ref, tmp218
	cmp	r0, #1	@ currStrcture,
	ldr	r9, [sp, #56]	@ list_size, list_size
	moveq	r8, #0	@ bot_idx,
	moveq	sl, r8	@ top_idx.1806, bot_idx
	beq	.L415	@,
	cmp	r0, #2	@ currStrcture,
	moveq	r8, #0	@ bot_idx.1801,
	moveq	sl, r8	@ top_idx, bot_idx.1801
	bne	.L370	@,
.L420:
	cmp	sl, r4	@ top_idx, list_idx.1823
	movcs	r0, #0	@,
	movcc	r0, #1	@,
	cmp	r8, r4	@ bot_idx.1801, list_idx.1823
	movcs	r3, #0	@, temp.1795
	movcc	r3, #1	@, temp.1795
	orrs	r2, r3, r0	@, temp.1795,
	str	r0, [sp, #8]	@, %sfp
	beq	.L370	@,
	cmp	r3, #0	@ temp.1795,
	beq	.L375	@,
	ldr	r0, [r6, r8, asl #2]	@ temp.1797,* fs_list
	mvn	r7, r8	@ tmp235, bot_idx.1801
	add	fp, r7, r4	@ tmp234, tmp235, list_idx.1823
	add	r7, r6, r8, asl #2	@, ivtmp.1782, fs_list, bot_idx.1801,
	and	fp, fp, #1	@ tmp236, tmp234,
	ldrb	r2, [r0, #1]	@ zero_extendqisi2	@ <variable>.is_used, <variable>.is_used
	tst	r2, #2	@ <variable>.is_used,
	bne	.L430	@,
.L404:
	add	r8, r8, #1	@ bot_idx.1801, bot_idx.1801,
	add	r7, r7, #4	@ ivtmp.1782, ivtmp.1782,
	cmp	r8, r4	@ bot_idx.1801, list_idx.1823
	bcs	.L375	@,
	cmp	fp, #0	@ tmp236,
	beq	.L374	@,
	ldr	r0, [r7, #0]	@ temp.1797,* ivtmp.1782
	ldrb	r2, [r0, #1]	@ zero_extendqisi2	@ <variable>.is_used, <variable>.is_used
	tst	r2, #2	@ <variable>.is_used,
	bne	.L431	@,
.L406:
	add	r8, r8, #1	@ bot_idx.1801, bot_idx.1801,
	add	r7, r7, #4	@ ivtmp.1782, ivtmp.1782,
	cmp	r8, r4	@ bot_idx.1801, list_idx.1823
	bcc	.L374	@,
	b	.L375	@
.L372:
	add	r7, r7, #4	@ ivtmp.1782, ivtmp.1782,
	add	r8, r8, #1	@ bot_idx.1801, bot_idx.1801,
	ldr	r0, [r7, #0]	@ temp.1797,* ivtmp.1782
	mov	r3, r8	@ tmp237, bot_idx.1801
	mov	fp, r7	@ tmp238, ivtmp.1782
	ldrb	r2, [r0, #1]	@ zero_extendqisi2	@ <variable>.is_used, <variable>.is_used
	tst	r2, #2	@ <variable>.is_used,
	bne	.L432	@,
.L409:
	add	r8, r3, #1	@ bot_idx.1801, tmp237,
	add	r7, fp, #4	@ ivtmp.1782, tmp238,
	cmp	r8, r4	@ bot_idx.1801, list_idx.1823
	bcs	.L375	@,
.L374:
	ldr	r0, [r7, #0]	@ temp.1797,* ivtmp.1782
	ldrb	ip, [r0, #1]	@ zero_extendqisi2	@ <variable>.is_used, <variable>.is_used
	tst	ip, #2	@ <variable>.is_used,
	beq	.L372	@,
	add	r0, r0, #472	@, temp.1797,
	blx	r5	@ is_ref
	cmp	r0, #0	@,
	beq	.L372	@,
.L428:
	ldr	r1, [r9, #0]	@ tmp194,* list_size
	add	r8, r8, #1	@ bot_idx.1801, bot_idx.1801,
	ldr	r0, [sp, #12]	@, %sfp
	ldr	ip, [r7, #0]	@ tmp195,* ivtmp.1782
	add	r2, ip, #472	@ tmp196, tmp195,
	str	r2, [r0, r1, asl #2]	@ tmp196,
	ldr	r3, [r9, #0]	@ tmp197,* list_size
	add	lr, r3, #1	@ tmp198, tmp197,
	str	lr, [r9, #0]	@ tmp198,* list_size
.L375:
	ldr	r3, [sp, #8]	@, %sfp
	cmp	r3, #0	@,
	beq	.L420	@,
	ldr	r0, [r6, sl, asl #2]	@ temp.1811,* fs_list
	mvn	r7, sl	@ tmp230, top_idx
	add	fp, r7, r4	@ tmp229, tmp230, list_idx.1823
	add	r7, r6, sl, asl #2	@, ivtmp.1777, fs_list, top_idx,
	and	fp, fp, #1	@ tmp231, tmp229,
	ldrb	r1, [r0, #1]	@ zero_extendqisi2	@ <variable>.is_used, <variable>.is_used
	tst	r1, #1	@ <variable>.is_used,
	bne	.L433	@,
.L397:
	add	sl, sl, #1	@ top_idx, top_idx,
	add	r7, r7, #4	@ ivtmp.1777, ivtmp.1777,
	cmp	sl, r4	@ top_idx, list_idx.1823
	bcs	.L420	@,
	cmp	fp, #0	@ tmp231,
	beq	.L377	@,
	ldr	r0, [r7, #0]	@ temp.1811,* ivtmp.1777
	ldrb	r1, [r0, #1]	@ zero_extendqisi2	@ <variable>.is_used, <variable>.is_used
	tst	r1, #1	@ <variable>.is_used,
	bne	.L434	@,
.L399:
	add	sl, sl, #1	@ top_idx, top_idx,
	add	r7, r7, #4	@ ivtmp.1777, ivtmp.1777,
	cmp	sl, r4	@ top_idx, list_idx.1823
	bcc	.L377	@,
	b	.L420	@
.L376:
	add	r7, r7, #4	@ ivtmp.1777, ivtmp.1777,
	add	sl, sl, #1	@ top_idx, top_idx,
	ldr	r0, [r7, #0]	@ temp.1811,* ivtmp.1777
	mov	r3, sl	@ tmp232, top_idx
	mov	fp, r7	@ tmp233, ivtmp.1777
	ldrb	r1, [r0, #1]	@ zero_extendqisi2	@ <variable>.is_used, <variable>.is_used
	tst	r1, #1	@ <variable>.is_used,
	bne	.L435	@,
.L402:
	add	sl, r3, #1	@ top_idx, tmp232,
	add	r7, fp, #4	@ ivtmp.1777, tmp233,
	cmp	sl, r4	@ top_idx, list_idx.1823
	bcs	.L420	@,
.L377:
	ldr	r0, [r7, #0]	@ temp.1811,* ivtmp.1777
	ldrb	ip, [r0, #1]	@ zero_extendqisi2	@ <variable>.is_used, <variable>.is_used
	tst	ip, #1	@ <variable>.is_used,
	beq	.L376	@,
	add	r0, r0, #436	@, temp.1811,
	blx	r5	@ is_ref
	cmp	r0, #0	@,
	beq	.L376	@,
.L427:
	ldr	r3, [r9, #0]	@ tmp203,* list_size
	add	sl, sl, #1	@ top_idx, top_idx,
	ldr	r1, [sp, #12]	@, %sfp
	ldr	ip, [r7, #0]	@ tmp204,* ivtmp.1777
	add	r2, ip, #436	@ tmp205, tmp204,
	str	r2, [r1, r3, asl #2]	@ tmp205,
	ldr	r0, [r9, #0]	@ tmp206,* list_size
	add	lr, r0, #1	@ tmp207, tmp206,
	str	lr, [r9, #0]	@ tmp207,* list_size
	b	.L420	@
.L442:
	add	r0, r0, #436	@, D.35447,
	blx	r5	@ is_ref
	cmp	r0, #0	@,
	beq	.L364	@,
.L426:
	ldr	r3, [r9, #0]	@ tmp169,* list_size
	add	sl, sl, #1	@ top_idx.1806, top_idx.1806,
	ldr	lr, [sp, #12]	@, %sfp
	ldr	r2, [r7, #0]	@ tmp170,* ivtmp.1772
	add	ip, r2, #436	@ tmp171, tmp170,
	str	ip, [lr, r3, asl #2]	@ tmp171,
	ldr	r1, [r9, #0]	@ tmp172,* list_size
	add	r0, r1, #1	@ tmp173, tmp172,
	str	r0, [r9, #0]	@ tmp173,* list_size
.L367:
	ldr	r0, [sp, #8]	@, %sfp
	cmp	r0, #0	@,
	beq	.L415	@,
	ldr	r0, [r6, r8, asl #2]	@ D.35464,* fs_list
	mvn	r7, r8	@ tmp220, bot_idx
	add	fp, r7, r4	@ tmp219, tmp220, list_idx.1823
	add	r7, r6, r8, asl #2	@, ivtmp.1767, fs_list, bot_idx,
	and	fp, fp, #1	@ tmp221, tmp219,
	ldrb	ip, [r0, #1]	@ zero_extendqisi2	@ <variable>.is_used, <variable>.is_used
	tst	ip, #2	@ <variable>.is_used,
	bne	.L436	@,
.L383:
	add	r8, r8, #1	@ bot_idx, bot_idx,
	add	r7, r7, #4	@ ivtmp.1767, ivtmp.1767,
	cmp	r8, r4	@ bot_idx, list_idx.1823
	bcs	.L415	@,
	cmp	fp, #0	@ tmp221,
	beq	.L369	@,
	ldr	r0, [r7, #0]	@ D.35464,* ivtmp.1767
	ldrb	r3, [r0, #1]	@ zero_extendqisi2	@ <variable>.is_used, <variable>.is_used
	tst	r3, #2	@ <variable>.is_used,
	bne	.L437	@,
.L385:
	add	r8, r8, #1	@ bot_idx, bot_idx,
	add	r7, r7, #4	@ ivtmp.1767, ivtmp.1767,
	cmp	r8, r4	@ bot_idx, list_idx.1823
	bcc	.L369	@,
	b	.L415	@
.L368:
	add	r7, r7, #4	@ ivtmp.1767, ivtmp.1767,
	add	r8, r8, #1	@ bot_idx, bot_idx,
	ldr	r0, [r7, #0]	@ D.35464,* ivtmp.1767
	mov	r3, r8	@ tmp222, bot_idx
	mov	fp, r7	@ tmp223, ivtmp.1767
	ldrb	r2, [r0, #1]	@ zero_extendqisi2	@ <variable>.is_used, <variable>.is_used
	tst	r2, #2	@ <variable>.is_used,
	bne	.L438	@,
.L388:
	add	r8, r3, #1	@ bot_idx, tmp222,
	add	r7, fp, #4	@ ivtmp.1767, tmp223,
	cmp	r8, r4	@ bot_idx, list_idx.1823
	bcs	.L415	@,
.L369:
	ldr	r0, [r7, #0]	@ D.35464,* ivtmp.1767
	ldrb	r3, [r0, #1]	@ zero_extendqisi2	@ <variable>.is_used, <variable>.is_used
	tst	r3, #2	@ <variable>.is_used,
	beq	.L368	@,
	add	r0, r0, #472	@, D.35464,
	blx	r5	@ is_ref
	cmp	r0, #0	@,
	beq	.L368	@,
.L425:
	ldr	ip, [r9, #0]	@ tmp178,* list_size
	add	r8, r8, #1	@ bot_idx, bot_idx,
	ldr	r0, [sp, #12]	@, %sfp
	ldr	r3, [r7, #0]	@ tmp179,* ivtmp.1767
	add	r1, r3, #472	@ tmp180, tmp179,
	str	r1, [r0, ip, asl #2]	@ tmp180,
	ldr	r2, [r9, #0]	@ tmp181,* list_size
	add	lr, r2, #1	@ tmp182, tmp181,
	str	lr, [r9, #0]	@ tmp182,* list_size
.L415:
	cmp	r8, r4	@ bot_idx, list_idx.1823
	movcs	r0, #0	@,
	movcc	r0, #1	@,
	cmp	sl, r4	@ top_idx.1806, list_idx.1823
	movcs	r3, #0	@, D.35474
	movcc	r3, #1	@, D.35474
	orrs	r2, r0, r3	@,, D.35474
	str	r0, [sp, #8]	@, %sfp
	beq	.L370	@,
	cmp	r3, #0	@ D.35474,
	beq	.L367	@,
	ldr	r0, [r6, sl, asl #2]	@ D.35447,* fs_list
	mvn	r7, sl	@ tmp225, top_idx.1806
	add	fp, r7, r4	@ tmp224, tmp225, list_idx.1823
	add	r7, r6, sl, asl #2	@, ivtmp.1772, fs_list, top_idx.1806,
	and	fp, fp, #1	@ tmp226, tmp224,
	ldrb	r1, [r0, #1]	@ zero_extendqisi2	@ <variable>.is_used, <variable>.is_used
	tst	r1, #1	@ <variable>.is_used,
	bne	.L439	@,
.L390:
	add	sl, sl, #1	@ top_idx.1806, top_idx.1806,
	add	r7, r7, #4	@ ivtmp.1772, ivtmp.1772,
	cmp	sl, r4	@ top_idx.1806, list_idx.1823
	bcs	.L367	@,
	cmp	fp, #0	@ tmp226,
	beq	.L366	@,
	ldr	r0, [r7, #0]	@ D.35447,* ivtmp.1772
	ldrb	ip, [r0, #1]	@ zero_extendqisi2	@ <variable>.is_used, <variable>.is_used
	tst	ip, #1	@ <variable>.is_used,
	bne	.L440	@,
.L392:
	add	sl, sl, #1	@ top_idx.1806, top_idx.1806,
	add	r7, r7, #4	@ ivtmp.1772, ivtmp.1772,
	cmp	sl, r4	@ top_idx.1806, list_idx.1823
	bcc	.L366	@,
	b	.L367	@
.L364:
	add	r7, r7, #4	@ ivtmp.1772, ivtmp.1772,
	add	sl, sl, #1	@ top_idx.1806, top_idx.1806,
	ldr	r0, [r7, #0]	@ D.35447,* ivtmp.1772
	mov	r3, sl	@ tmp228, top_idx.1806
	mov	fp, r7	@ tmp227, ivtmp.1772
	ldrb	r1, [r0, #1]	@ zero_extendqisi2	@ <variable>.is_used, <variable>.is_used
	tst	r1, #1	@ <variable>.is_used,
	bne	.L441	@,
.L395:
	add	sl, r3, #1	@ top_idx.1806, tmp228,
	add	r7, fp, #4	@ ivtmp.1772, tmp227,
	cmp	sl, r4	@ top_idx.1806, list_idx.1823
	bcs	.L367	@,
.L366:
	ldr	r0, [r7, #0]	@ D.35447,* ivtmp.1772
	ldrb	r3, [r0, #1]	@ zero_extendqisi2	@ <variable>.is_used, <variable>.is_used
	tst	r3, #1	@ <variable>.is_used,
	bne	.L442	@,
	add	r7, r7, #4	@ ivtmp.1772, ivtmp.1772,
	add	sl, sl, #1	@ top_idx.1806, top_idx.1806,
	ldr	r0, [r7, #0]	@ D.35447,* ivtmp.1772
	mov	r3, sl	@ tmp228, top_idx.1806
	mov	fp, r7	@ tmp227, ivtmp.1772
	ldrb	r1, [r0, #1]	@ zero_extendqisi2	@ <variable>.is_used, <variable>.is_used
	tst	r1, #1	@ <variable>.is_used,
	beq	.L395	@,
.L441:
	add	r0, r0, #436	@, D.35447,
	str	sl, [sp, #4]	@ tmp3,
	blx	r5	@ is_ref
	ldr	r3, [sp, #4]	@,
	cmp	r0, #0	@,
	beq	.L395	@,
	b	.L426	@
.L370:
	mov	r0, #0	@,
	add	sp, sp, #20	@,,
	ldmfd	sp!, {r4, r5, r6, r7, r8, r9, sl, fp, pc}
.L432:
	add	r0, r0, #472	@, temp.1797,
	str	r8, [sp, #4]	@ tmp3,
	blx	r5	@ is_ref
	ldr	r3, [sp, #4]	@,
	cmp	r0, #0	@,
	beq	.L409	@,
	b	.L428	@
.L435:
	add	r0, r0, #436	@, temp.1811,
	str	sl, [sp, #4]	@ tmp3,
	blx	r5	@ is_ref
	ldr	r3, [sp, #4]	@,
	cmp	r0, #0	@,
	beq	.L402	@,
	b	.L427	@
.L438:
	add	r0, r0, #472	@, D.35464,
	str	r8, [sp, #4]	@ tmp3,
	blx	r5	@ is_ref
	ldr	r3, [sp, #4]	@,
	cmp	r0, #0	@,
	beq	.L388	@,
	b	.L425	@
.L430:
	add	r0, r0, #472	@, temp.1797,
	blx	r5	@ is_ref
	cmp	r0, #0	@,
	beq	.L404	@,
	b	.L428	@
.L433:
	add	r0, r0, #436	@, temp.1811,
	blx	r5	@ is_ref
	cmp	r0, #0	@,
	beq	.L397	@,
	b	.L427	@
.L431:
	add	r0, r0, #472	@, temp.1797,
	blx	r5	@ is_ref
	cmp	r0, #0	@,
	beq	.L406	@,
	b	.L428	@
.L434:
	add	r0, r0, #436	@, temp.1811,
	blx	r5	@ is_ref
	cmp	r0, #0	@,
	beq	.L399	@,
	b	.L427	@
.L436:
	add	r0, r0, #472	@, D.35464,
	blx	r5	@ is_ref
	cmp	r0, #0	@,
	beq	.L383	@,
	b	.L425	@
.L439:
	add	r0, r0, #436	@, D.35447,
	blx	r5	@ is_ref
	cmp	r0, #0	@,
	beq	.L390	@,
	b	.L426	@
.L440:
	add	r0, r0, #436	@, D.35447,
	blx	r5	@ is_ref
	cmp	r0, #0	@,
	beq	.L392	@,
	b	.L426	@
.L437:
	add	r0, r0, #472	@, D.35464,
	blx	r5	@ is_ref
	cmp	r0, #0	@,
	beq	.L385	@,
	b	.L425	@
	.fnend
	.size	GenPiclistfromFrmlist, .-GenPiclistfromFrmlist
	.align	2
	.global	FindNearestPOCPicId
	.type	FindNearestPOCPicId, %function
FindNearestPOCPicId:
	.fnstart
.LFB1669:
	@ args = 0, pretend = 0, frame = 0
	@ frame_needed = 0, uses_anonymous_args = 0
	@ link register save eliminated.
	movw	r3, #26628	@ tmp144,
	mov	r1, r0	@ pH264Ctx, pH264Ctx
	stmfd	sp!, {r4, r5, r6, r7}	@,
	.save {r4, r5, r6, r7}
	ldr	r6, [r0, r3]	@ D.35754, <variable>.DPB.used_size
	cmp	r6, #0	@ D.35754,
	mvneq	r0, #0	@ nearest_pic_id,
	beq	.L445	@,
	movw	r4, #26432	@ tmp147,
	cmp	r6, #1	@ D.35754,
	ldr	ip, [r1, r4]	@ <variable>.DPB.fs, <variable>.DPB.fs
	movw	r2, #50132	@ tmp145,
	ldr	r4, [r1, r2]	@ curr_poc, <variable>.CurrPic.thispoc
	movls	r0, #0	@ nearest_pic_id,
	ldr	r2, [ip, #524]	@ nearest_poc, <variable>.poc
	bls	.L445	@,
	add	r0, r1, #26368	@ tmp151, pH264Ctx,
	sub	r6, r6, #1	@ tmp149, D.35754,
	add	r5, r0, #68	@ tmp151, tmp151,
	rsb	r2, r2, r4	@ tmp148, nearest_poc, curr_poc
	mov	r6, r6, asl #2	@ D.42321, tmp149,
	cmp	r2, #0	@ tmp148,
	ldr	ip, [r5, #0]	@ D.35761, <variable>.DPB.fs
	sub	r3, r6, #4	@ tmp158, D.42321,
	ubfx	r5, r3, #2, #1	@ tmp159, tmp158,,
	rsblt	r2, r2, #0	@ nearest_poc_diff, tmp148
	mov	r0, #0	@ nearest_pic_id,
	ldr	r3, [ip, #524]	@ <variable>.poc, <variable>.poc
	rsb	r3, r3, r4	@ tmp153, <variable>.poc, curr_poc
	cmp	r3, #0	@ tmp153,
	rsblt	r3, r3, #0	@ new_poc_diff, tmp153
	cmp	r3, r2	@ new_poc_diff, nearest_poc_diff
	blt	.L461	@,
.L451:
	mov	r3, #4	@ ivtmp.1858,
	cmp	r3, r6	@ ivtmp.1858, D.42321
	beq	.L445	@,
	cmp	r5, #0	@ tmp159,
	beq	.L448	@,
	add	ip, r1, r3	@ tmp177, pH264Ctx, ivtmp.1858
	add	r3, r3, #4	@ ivtmp.1858, ivtmp.1858,
	add	r5, ip, #26368	@ tmp179, tmp177,
	add	ip, r5, #68	@ tmp179, tmp179,
	ldr	r5, [ip, #0]	@ D.35761, <variable>.DPB.fs
	ldr	ip, [r5, #524]	@ <variable>.poc, <variable>.poc
	rsb	ip, ip, r4	@ tmp182, <variable>.poc, curr_poc
	cmp	ip, #0	@ tmp182,
	rsblt	ip, ip, #0	@ new_poc_diff, tmp182
	cmp	ip, r2	@ new_poc_diff, nearest_poc_diff
	ldrlt	r0, [r5, #184]	@ nearest_pic_id, <variable>.fs_image.image_id
	movlt	r2, ip	@ nearest_poc_diff, new_poc_diff
	cmp	r3, r6	@ ivtmp.1858, D.42321
	beq	.L445	@,
.L448:
	add	r5, r1, r3	@ tmp162, pH264Ctx, ivtmp.1858
	add	ip, r3, #4	@ tmp160, ivtmp.1858,
	add	r3, r5, #26368	@ tmp163, tmp162,
	add	r7, r1, ip	@ tmp170, pH264Ctx, tmp160
	add	r7, r7, #26368	@ tmp171, tmp170,
	ldr	r5, [r3, #68]	@ D.35761, <variable>.DPB.fs
	ldr	r3, [r5, #524]	@ <variable>.poc, <variable>.poc
	rsb	r3, r3, r4	@ tmp167, <variable>.poc, curr_poc
	cmp	r3, #0	@ tmp167,
	rsblt	r3, r3, #0	@ new_poc_diff, tmp167
	cmp	r3, r2	@ new_poc_diff, nearest_poc_diff
	ldrlt	r0, [r5, #184]	@ nearest_pic_id, <variable>.fs_image.image_id
	movlt	r2, r3	@ nearest_poc_diff, new_poc_diff
	ldr	r5, [r7, #68]	@ D.35761, <variable>.DPB.fs
	ldr	r3, [r5, #524]	@ <variable>.poc, <variable>.poc
	rsb	r3, r3, r4	@ tmp175, <variable>.poc, curr_poc
	cmp	r3, #0	@ tmp175,
	rsblt	r3, r3, #0	@ new_poc_diff, tmp175
	cmp	r3, r2	@ new_poc_diff, nearest_poc_diff
	ldrlt	r0, [r5, #184]	@ nearest_pic_id, <variable>.fs_image.image_id
	movlt	r2, r3	@ nearest_poc_diff, new_poc_diff
.L456:
	add	r3, ip, #4	@ ivtmp.1858, tmp160,
	cmp	r3, r6	@ ivtmp.1858, D.42321
	bne	.L448	@,
.L445:
	ldmfd	sp!, {r4, r5, r6, r7}
	bx	lr
.L461:
	ldr	r0, [ip, #184]	@ nearest_pic_id, <variable>.fs_image.image_id
	mov	r2, r3	@ nearest_poc_diff, new_poc_diff
	b	.L451	@
	.fnend
	.size	FindNearestPOCPicId, .-FindNearestPOCPicId
	.align	2
	.global	FindMinRefIdx
	.type	FindMinRefIdx, %function
FindMinRefIdx:
	.fnstart
.LFB1670:
	@ args = 0, pretend = 0, frame = 0
	@ frame_needed = 0, uses_anonymous_args = 0
	@ link register save eliminated.
	stmfd	sp!, {r4, r5, r6, r7, r8, r9, sl, fp}	@,
	.save {r4, r5, r6, r7, r8, r9, sl, fp}
	mov	r9, r0	@ pH264Ctx, pH264Ctx
	movw	r0, #20680	@ tmp154,
	ldrb	r3, [r9, r0]	@ zero_extendqisi2	@ <variable>.CurrSlice.slice_type, <variable>.CurrSlice.slice_type
	cmp	r3, #2	@ <variable>.CurrSlice.slice_type,
	beq	.L475	@,
	movw	r1, #49707	@ tmp156,
	ldrb	r0, [r9, r1]	@ zero_extendqisi2	@ <variable>.CurrPic.structure, <variable>.CurrPic.structure
	cmp	r0, #0	@ <variable>.CurrPic.structure,
	bne	.L504	@,
	add	r6, r9, #26880	@ ivtmp.1909, pH264Ctx,
	movw	ip, #20724	@ tmp160,
	mov	sl, ip	@ tmp179, tmp160
	mov	fp, r6	@ tmp180, ivtmp.1909
	add	r8, fp, #156	@ ivtmp.1901, tmp180,
	ldr	fp, [r9, ip]	@ D.35799, <variable>.CurrSlice.listXsize
	add	r6, r6, #28	@ ivtmp.1909, ivtmp.1909,
.L466:
	cmp	fp, #0	@ D.35799,
	beq	.L470	@,
	ldr	r2, [r8, #0]	@ tmp206, <variable>.pListX
	mov	r1, #32	@ minrefidx,
	ldr	r7, [r9, sl]	@ temp.1927, <variable>.CurrSlice.listXsize
	ldr	r3, [r2, #4]	@ <variable>.frame_store, <variable>.frame_store
	sub	ip, r7, #1	@ tmp189, temp.1927,
	and	ip, ip, #1	@ tmp191, tmp189,
	ldr	r2, [r3, #552]	@ <variable>.apc_idc, <variable>.apc_idc
	cmp	r2, r0	@ <variable>.apc_idc, i
	beq	.L505	@,
.L478:
	mov	r2, #1	@ j,
	cmp	r7, r2	@ temp.1927, j
	add	r3, r8, #4	@ ivtmp.1901, ivtmp.1901,
	bls	.L498	@,
	cmp	ip, #0	@ tmp191,
	beq	.L468	@,
	ldr	ip, [r8, #4]	@ tmp227, <variable>.pListX
	ldr	ip, [ip, #4]	@ <variable>.frame_store, <variable>.frame_store
	ldr	ip, [ip, #552]	@ <variable>.apc_idc, <variable>.apc_idc
	cmp	ip, r0	@ <variable>.apc_idc, i
	beq	.L506	@,
.L480:
	add	r2, r2, #1	@ j, j,
	add	r3, r3, #4	@ ivtmp.1901, ivtmp.1901,
	cmp	r7, r2	@ temp.1927, j
	bhi	.L468	@,
	b	.L498	@
.L467:
	ldr	r3, [r3, #4]	@ tmp201, <variable>.pListX
	ldr	r2, [r3, #4]	@ <variable>.frame_store, <variable>.frame_store
	ldr	r3, [r2, #552]	@ <variable>.apc_idc, <variable>.apc_idc
	cmp	r3, r0	@ <variable>.apc_idc, i
	beq	.L507	@,
.L483:
	add	r2, ip, #1	@ j, tmp192,
	add	r3, r4, #4	@ ivtmp.1901, tmp193,
	cmp	r7, r2	@ temp.1927, j
	bls	.L498	@,
.L468:
	ldr	r5, [r3, #0]	@ tmp162, <variable>.pListX
	add	ip, r2, #1	@ tmp192, j,
	add	r4, r3, #4	@ tmp193, ivtmp.1901,
	ldr	r5, [r5, #4]	@ <variable>.frame_store, <variable>.frame_store
	ldr	r5, [r5, #552]	@ <variable>.apc_idc, <variable>.apc_idc
	cmp	r5, r0	@ <variable>.apc_idc, i
	bne	.L467	@,
	ldr	r3, [r3, #4]	@ tmp201, <variable>.pListX
	cmp	r1, r2	@ minrefidx, j
	movcs	r1, r2	@ minrefidx, j
	str	r1, [r6, #0]	@ minrefidx, <variable>.APC.RefIdx
	str	r1, [r6, #4]	@ minrefidx, <variable>.APC.RefIdx
	ldr	r2, [r3, #4]	@ <variable>.frame_store, <variable>.frame_store
	ldr	r3, [r2, #552]	@ <variable>.apc_idc, <variable>.apc_idc
	cmp	r3, r0	@ <variable>.apc_idc, i
	bne	.L483	@,
.L507:
	add	r2, ip, #1	@ j, tmp192,
	cmp	r1, ip	@ minrefidx, tmp192
	movcs	r1, ip	@ minrefidx, tmp192
	cmp	r7, r2	@ temp.1927, j
	str	r1, [r6, #0]	@ minrefidx, <variable>.APC.RefIdx
	str	r1, [r6, #4]	@ minrefidx, <variable>.APC.RefIdx
	add	r3, r4, #4	@ ivtmp.1901, tmp193,
	bhi	.L468	@,
.L498:
	cmp	r1, #31	@ minrefidx,
	bls	.L469	@,
.L470:
	mov	r1, #0	@,
	str	r1, [r6, #0]	@, <variable>.APC.RefIdx
	str	r1, [r6, #4]	@, <variable>.APC.RefIdx
.L469:
	add	r0, r0, #1	@ i, i,
	add	r6, r6, #8	@ ivtmp.1909, ivtmp.1909,
	cmp	r0, #16	@ i,
	bne	.L466	@,
.L475:
	ldmfd	sp!, {r4, r5, r6, r7, r8, r9, sl, fp}
	bx	lr
.L504:
	add	r8, r9, #26880	@ ivtmp.1923, pH264Ctx,
	movw	r2, #20724	@ tmp158,
	ldr	fp, [r9, r2]	@ temp.1929, <variable>.CurrSlice.listXsize
	mov	ip, #0	@ i.1934,
	mov	sl, r8	@ tmp185, ivtmp.1923
	add	r8, r8, #28	@ ivtmp.1923, ivtmp.1923,
	add	sl, sl, #156	@ ivtmp.1915, tmp185,
.L465:
	cmp	fp, #0	@ temp.1929,
	beq	.L474	@,
	ldr	r3, [sl, #0]	@ temp.1930, <variable>.pListX
	movw	r2, #20724	@,
	ldr	r7, [r9, r2]	@ temp.1928, <variable>.CurrSlice.listXsize
	mov	r6, #32	@ minrefidx.1926,
	ldr	r0, [r3, #4]	@ <variable>.frame_store, <variable>.frame_store
	sub	r1, r7, #1	@ tmp194, temp.1928,
	ldrb	r2, [r3, #0]	@ zero_extendqisi2	@ <variable>.structure, <variable>.structure
	and	r1, r1, #1	@ tmp196, tmp194,
	ldr	r3, [r0, #552]	@ <variable>.apc_idc, <variable>.apc_idc
	mov	r3, r3, asl #1	@ tmp225, <variable>.apc_idc,
	cmp	r2, #2	@ <variable>.structure,
	orreq	r3, r3, #1	@,, tmp226, tmp225
	cmp	r3, ip	@ tmp226, i.1934
	beq	.L508	@,
.L485:
	mov	r2, #1	@ j.1933,
	cmp	r7, r2	@ temp.1928, j.1933
	add	r3, sl, #4	@ ivtmp.1915, ivtmp.1915,
	bls	.L499	@,
	cmp	r1, #0	@ tmp196,
	beq	.L472	@,
	ldr	r1, [sl, #4]	@ temp.1930, <variable>.pListX
	ldr	r4, [r1, #4]	@ <variable>.frame_store, <variable>.frame_store
	ldrb	r0, [r1, #0]	@ zero_extendqisi2	@ <variable>.structure, <variable>.structure
	ldr	r1, [r4, #552]	@ <variable>.apc_idc, <variable>.apc_idc
	mov	r1, r1, asl r2	@ tmp235, <variable>.apc_idc,
	cmp	r0, #2	@ <variable>.structure,
	orreq	r1, r1, #1	@,, tmp236, tmp235
	cmp	r1, ip	@ tmp236, i.1934
	beq	.L509	@,
.L487:
	add	r2, r2, #1	@ j.1933, j.1933,
	add	r3, r3, #4	@ ivtmp.1915, ivtmp.1915,
	cmp	r7, r2	@ temp.1928, j.1933
	bhi	.L472	@,
	b	.L499	@
.L471:
	ldr	r3, [r3, #4]	@ temp.1930, <variable>.pListX
	ldr	r1, [r3, #4]	@ <variable>.frame_store, <variable>.frame_store
	ldrb	r2, [r3, #0]	@ zero_extendqisi2	@ <variable>.structure, <variable>.structure
	ldr	r3, [r1, #552]	@ <variable>.apc_idc, <variable>.apc_idc
	mov	r3, r3, asl #1	@ tmp216, <variable>.apc_idc,
	cmp	r2, #2	@ <variable>.structure,
	orreq	r3, r3, #1	@,, tmp217, tmp216
	cmp	r3, ip	@ tmp217, i.1934
	beq	.L510	@,
	add	r2, r0, #1	@ j.1933, tmp197,
	add	r3, r4, #4	@ ivtmp.1915, tmp198,
	cmp	r7, r2	@ temp.1928, j.1933
	bls	.L499	@,
.L472:
	ldr	r1, [r3, #0]	@ temp.1930, <variable>.pListX
	add	r0, r2, #1	@ tmp197, j.1933,
	add	r4, r3, #4	@ tmp198, ivtmp.1915,
	ldr	r5, [r1, #4]	@ <variable>.frame_store, <variable>.frame_store
	ldrb	r1, [r1, #0]	@ zero_extendqisi2	@ <variable>.structure, <variable>.structure
	ldr	r5, [r5, #552]	@ <variable>.apc_idc, <variable>.apc_idc
	mov	r5, r5, asl #1	@ tmp173, <variable>.apc_idc,
	cmp	r1, #2	@ <variable>.structure,
	movne	r1, r5	@, tmp175, tmp173
	orreq	r1, r5, #1	@,, tmp175, tmp173
	cmp	r1, ip	@ tmp175, i.1934
	bne	.L471	@,
	cmp	r6, r2	@ minrefidx.1926, j.1933
	movcs	r6, r2	@ minrefidx.1926, j.1933
	str	r6, [r8, #0]	@ minrefidx.1926, <variable>.APC.RefIdx
	b	.L471	@
.L510:
	add	r2, r0, #1	@ j.1933, tmp197,
	cmp	r6, r0	@ minrefidx.1926, tmp197
	movcs	r6, r0	@ minrefidx.1926, tmp197
	cmp	r7, r2	@ temp.1928, j.1933
	str	r6, [r8, #0]	@ minrefidx.1926, <variable>.APC.RefIdx
	add	r3, r4, #4	@ ivtmp.1915, tmp198,
	bhi	.L472	@,
.L499:
	cmp	r6, #31	@ minrefidx.1926,
	bls	.L473	@,
.L474:
	mov	r0, #0	@,
	str	r0, [r8, #0]	@, <variable>.APC.RefIdx
.L473:
	add	ip, ip, #1	@ i.1934, i.1934,
	add	r8, r8, #4	@ ivtmp.1923, ivtmp.1923,
	cmp	ip, #32	@ i.1934,
	bne	.L465	@,
	b	.L475	@
.L508:
	mov	r6, #0	@ minrefidx.1926,
	str	r6, [r8, #0]	@ minrefidx.1926, <variable>.APC.RefIdx
	b	.L485	@
.L509:
	cmp	r6, r2	@ minrefidx.1926, j.1933
	movcs	r6, r2	@ minrefidx.1926, j.1933
	str	r6, [r8, #0]	@ minrefidx.1926, <variable>.APC.RefIdx
	b	.L487	@
.L505:
	mov	r1, #0	@ minrefidx,
	str	r1, [r6, #0]	@ minrefidx, <variable>.APC.RefIdx
	str	r1, [r6, #4]	@ minrefidx, <variable>.APC.RefIdx
	b	.L478	@
.L506:
	cmp	r1, r2	@ minrefidx, j
	movcs	r1, r2	@ minrefidx, j
	str	r1, [r6, #0]	@ minrefidx, <variable>.APC.RefIdx
	str	r1, [r6, #4]	@ minrefidx, <variable>.APC.RefIdx
	b	.L480	@
	.fnend
	.size	FindMinRefIdx, .-FindMinRefIdx
	.align	2
	.global	wait_vo
	.type	wait_vo, %function
wait_vo:
	.fnstart
.LFB1674:
	@ args = 0, pretend = 0, frame = 0
	@ frame_needed = 0, uses_anonymous_args = 0
	@ link register save eliminated.
	bx	lr	@
	.fnend
	.size	wait_vo, .-wait_vo
	.align	2
	.global	GetReRangeFlag
	.type	GetReRangeFlag, %function
GetReRangeFlag:
	.fnstart
.LFB1675:
	@ args = 0, pretend = 0, frame = 8
	@ frame_needed = 0, uses_anonymous_args = 0
	stmfd	sp!, {r4, r5, r6, r7, r8, lr}	@,
	.save {r4, r5, r6, r7, r8, lr}
	movw	r3, #13584	@ tmp150,
	mov	r4, r0	@ pH264Ctx, pH264Ctx
	movw	r0, #20692	@ tmp148,
	ldr	r7, [r4, r3]	@ <variable>.PPS, <variable>.PPS
	mov	r5, #2208	@ tmp152,
	ldr	r6, [r4, r0]	@ <variable>.CurrSlice.pic_parameter_set_id, <variable>.CurrSlice.pic_parameter_set_id
	movw	ip, #13580	@ tmp146,
	ldr	r3, [r4, ip]	@ <variable>.SPS, <variable>.SPS
	movw	r2, #13560	@ tmp158,
	ldr	r2, [r4, r2]	@ oldw, <variable>.CurWidthInMb
	.pad #8
	sub	sp, sp, #8	@,,
	mla	r0, r5, r6, r7	@ tmp153, tmp152, <variable>.CurrSlice.pic_parameter_set_id, <variable>.PPS
	mov	r5, #4000	@ tmp156,
	mov	r6, r1	@ p_dpb_changed, p_dpb_changed
	movw	r1, #13564	@ tmp159,
	ldr	r7, [r4, r1]	@ oldh, <variable>.CurHeightInMb
	ldr	ip, [r0, #28]	@ <variable>.seq_parameter_set_id, <variable>.seq_parameter_set_id
	mla	r5, r5, ip, r3	@ pSPS, tmp156, <variable>.seq_parameter_set_id, <variable>.SPS
	ldrb	r1, [r5, #18]	@ zero_extendqisi2	@ <variable>.frame_mbs_only_flag, <variable>.frame_mbs_only_flag
	ldr	r3, [r5, #3960]	@ <variable>.pic_height_in_map_units_minus1, <variable>.pic_height_in_map_units_minus1
	rsb	r0, r1, #2	@ tmp162, <variable>.frame_mbs_only_flag,
	ldr	ip, [r5, #3956]	@ <variable>.pic_width_in_mbs_minus1, <variable>.pic_width_in_mbs_minus1
	mla	r0, r3, r0, r0	@ newh, <variable>.pic_height_in_map_units_minus1, tmp162, tmp162
	add	ip, ip, #1	@ neww, <variable>.pic_width_in_mbs_minus1,
	cmp	ip, r2	@ neww, oldw
	cmpeq	r0, r7	@, newh, oldh
	moveq	r3, #0	@, tmp171
	movne	r3, #1	@, tmp171
	bne	.L514	@,
	mov	r8, #26624	@ tmp172,
	ldr	r1, [r5, #3980]	@ prephitmp.1971, <variable>.dpb_size_plus1
	ldr	r8, [r4, r8]	@ <variable>.DPB.size, <variable>.DPB.size
	add	r8, r8, #1	@ tmp173, <variable>.DPB.size,
	cmp	r1, r8	@ prephitmp.1971, tmp173
	bls	.L518	@,
.L514:
	movw	r1, #:lower16:g_event_report	@ tmp175,
	movt	r1, #:upper16:g_event_report	@ tmp175,
	ldr	r3, [r1, #0]	@ g_event_report.611, g_event_report
	cmp	r3, #0	@ g_event_report.611,
	beq	.L519	@,
	movw	lr, #52840	@ tmp184,
	mov	r1, r2, asl #4	@ tmp177, oldw,
	mov	ip, ip, asl #4	@ tmp181, neww,
	strh	r1, [sp, #0]	@ movhi	@ tmp177, para
	mov	r2, r0, asl #4	@ tmp183, newh,
	strh	ip, [sp, #4]	@ movhi	@ tmp181, para
	strh	r2, [sp, #6]	@ movhi	@ tmp183, para
	mov	r1, #2	@,
	mov	r7, r7, asl #4	@ tmp179, oldh,
	mov	r2, sp	@,
	strh	r7, [sp, #2]	@ movhi	@ tmp179, para
	ldr	r0, [r4, lr]	@, <variable>.ChanID
	blx	r3	@ g_event_report.611
	ldr	r1, [r5, #3980]	@ prephitmp.1971, <variable>.dpb_size_plus1
	mov	r3, #1	@ prephitmp.1983,
.L518:
	mov	r0, r3	@ ReRangeFlg, prephitmp.1983
.L515:
	movw	r2, #14332	@ tmp187,
	ldr	ip, [r5, #744]	@ <variable>.seq_parameter_set_id, <variable>.seq_parameter_set_id
	ldr	r5, [r4, r2]	@ <variable>.CurrSPS.seq_parameter_set_id, <variable>.CurrSPS.seq_parameter_set_id
	movw	r2, #17568	@ tmp192,
	ldr	r2, [r4, r2]	@ <variable>.CurrSPS.dpb_size_plus1, <variable>.CurrSPS.dpb_size_plus1
	cmp	r5, ip	@ <variable>.CurrSPS.seq_parameter_set_id, <variable>.seq_parameter_set_id
	orrne	r3, r3, #1	@,, dpb_changed, prephitmp.1983
	cmp	r2, r1	@ <variable>.CurrSPS.dpb_size_plus1, prephitmp.1971
	moveq	ip, r3	@, tmp196, dpb_changed
	orrne	ip, r3, #1	@,, tmp196, dpb_changed
	str	ip, [r6, #0]	@ tmp196,* p_dpb_changed
	add	sp, sp, #8	@,,
	ldmfd	sp!, {r4, r5, r6, r7, r8, pc}
.L519:
	mov	r3, #1	@ prephitmp.1983,
	ldr	r1, [r5, #3980]	@ prephitmp.1971, <variable>.dpb_size_plus1
	mov	r0, r3	@ ReRangeFlg, prephitmp.1983
	b	.L515	@
	.fnend
	.size	GetReRangeFlag, .-GetReRangeFlag
	.global	__aeabi_uidiv
	.global	__aeabi_uidivmod
	.align	2
	.global	DecPOC
	.type	DecPOC, %function
DecPOC:
	.fnstart
.LFB1676:
	@ args = 0, pretend = 0, frame = 0
	@ frame_needed = 0, uses_anonymous_args = 0
	movw	r2, #20692	@ tmp174,
	stmfd	sp!, {r3, r4, r5, r6, r7, lr}	@,
	.save {r3, r4, r5, r6, r7, lr}
	mov	r4, r0	@ pH264Ctx, pH264Ctx
	ldr	ip, [r0, r2]	@ <variable>.CurrSlice.pic_parameter_set_id, <variable>.CurrSlice.pic_parameter_set_id
	movw	r0, #13584	@ tmp176,
	ldr	r1, [r4, r0]	@ <variable>.PPS, <variable>.PPS
	mov	r5, #2208	@ tmp178,
	movw	r3, #13580	@ tmp172,
	movw	r2, #20683	@ tmp169,
	ldr	r3, [r4, r3]	@ <variable>.SPS, <variable>.SPS
	mla	r0, r5, ip, r1	@ tmp179, tmp178, <variable>.CurrSlice.pic_parameter_set_id, <variable>.PPS
	mov	r5, #4000	@ tmp182,
	ldrb	r1, [r4, r2]	@ zero_extendqisi2	@ <variable>.CurrSlice.nal_unit_type, <variable>.CurrSlice.nal_unit_type
	mov	r2, #1	@ tmp186,
	cmp	r1, #5	@ <variable>.CurrSlice.nal_unit_type,
	movne	r1, #0	@, tmp171
	moveq	r1, #1	@, tmp171
	ldr	ip, [r0, #28]	@ <variable>.seq_parameter_set_id, <variable>.seq_parameter_set_id
	mla	r5, r5, ip, r3	@ sps, tmp182, <variable>.seq_parameter_set_id, <variable>.SPS
	ldr	r3, [r5, #2908]	@ <variable>.pic_order_cnt_type, <variable>.pic_order_cnt_type
	ldr	r0, [r5, #2904]	@ <variable>.log2_max_frame_num_minus4, <variable>.log2_max_frame_num_minus4
	cmp	r3, r2	@ <variable>.pic_order_cnt_type,
	ldr	ip, [r5, #2912]	@ D.36017, <variable>.log2_max_pic_order_cnt_lsb_minus4
	add	r0, r0, #4	@ tmp184, <variable>.log2_max_frame_num_minus4,
	mov	r0, r2, asl r0	@ MaxFrameNum, tmp186,
	beq	.L523	@,
	bcs	.L575	@,
	cmp	r1, #0	@ tmp171,
	add	ip, ip, #4	@ tmp188, D.36017,
	mov	r2, r2, asl ip	@ MaxPicOrderCntLsb, tmp186,
	bne	.L576	@,
	movw	r3, #19820	@ tmp194,
	ldr	ip, [r4, r3]	@ <variable>.CurrPOC.last_has_mmco_5, <variable>.CurrPOC.last_has_mmco_5
	cmp	ip, #0	@ <variable>.CurrPOC.last_has_mmco_5,
	bne	.L527	@,
	movw	r1, #19804	@ tmp197,
	movw	r5, #19808	@ tmp196,
	ldr	ip, [r4, r1]	@ prephitmp.2021, <variable>.CurrPOC.PrevPicOrderCntMsb
	ldr	r1, [r4, r5]	@ prephitmp.2019, <variable>.CurrPOC.PrevPicOrderCntLsb
	mov	r5, ip	@ prephitmp.2023, prephitmp.2021
.L528:
	movw	r3, #19796	@ tmp208,
	ldr	r0, [r4, r3]	@ D.36040, <variable>.CurrPOC.pic_order_cnt_lsb
	cmp	r0, r1	@ D.36040, prephitmp.2019
	bcs	.L530	@,
	rsb	r3, r0, r1	@ tmp209, D.36040, prephitmp.2019
	cmp	r3, r2, lsr #1	@ tmp209, MaxPicOrderCntLsb,
	addcs	r3, r5, r2	@ D.36049, prephitmp.2023, MaxPicOrderCntLsb
	movwcs	r2, #19812	@ tmp212,
	strcs	r3, [r4, r2]	@ D.36049, <variable>.CurrPOC.PicOrderCntMsb
	bcs	.L533	@,
.L530:
	movw	r3, #19804	@ tmp213,
	ldr	r3, [r4, r3]	@ prephitmp.2089, <variable>.CurrPOC.PrevPicOrderCntMsb
.L532:
	cmp	r1, r0	@ prephitmp.2019, D.36040
	bcs	.L534	@,
	rsb	r1, r1, r0	@ tmp214, prephitmp.2019, D.36040
	cmp	r1, r2, lsr #1	@ tmp214, MaxPicOrderCntLsb,
	bhi	.L577	@,
.L534:
	movw	r0, #19812	@ tmp217,
	str	ip, [r4, r0]	@ prephitmp.2021, <variable>.CurrPOC.PicOrderCntMsb
.L533:
	movw	r1, #20681	@ tmp218,
	ldrb	ip, [r4, r1]	@ zero_extendqisi2	@ <variable>.CurrSlice.field_pic_flag, <variable>.CurrSlice.field_pic_flag
	cmp	ip, #0	@ <variable>.CurrSlice.field_pic_flag,
	bne	.L535	@,
	movw	r2, #19796	@ tmp220,
	movw	r0, #19800	@ tmp223,
	ldr	ip, [r4, r2]	@ <variable>.CurrPOC.pic_order_cnt_lsb, <variable>.CurrPOC.pic_order_cnt_lsb
	ldr	r1, [r4, r0]	@ <variable>.CurrPOC.delta_pic_order_cnt_bottom, <variable>.CurrPOC.delta_pic_order_cnt_bottom
	movw	r0, #19828	@ tmp222,
	add	r2, r3, ip	@ D.36063, prephitmp.2089, <variable>.CurrPOC.pic_order_cnt_lsb
	str	r2, [r4, r0]	@ D.36063, <variable>.CurrPOC.toppoc
	add	ip, r2, r1	@ D.36065, D.36063, <variable>.CurrPOC.delta_pic_order_cnt_bottom
	movw	r0, #19836	@ tmp226,
	cmp	ip, r2	@ D.36065, D.36063
	movlt	r3, ip	@ prephitmp.2014, D.36065
	movge	r3, r2	@ prephitmp.2014, D.36063
	movw	r2, #19832	@ tmp225,
	str	ip, [r4, r2]	@ D.36065, <variable>.CurrPOC.bottompoc
	movw	r2, #19840	@ tmp227,
	str	r3, [r4, r0]	@ prephitmp.2014,
	str	r3, [r4, r2]	@ prephitmp.2014, <variable>.CurrPOC.ThisPOC
.L536:
	movw	ip, #19836	@ tmp238,
	movw	r1, #19860	@ tmp239,
	movw	r2, #19856	@ tmp240,
	ldr	r1, [r4, r1]	@ D.36075, <variable>.CurrPOC.frame_num
	str	r3, [r4, ip]	@ prephitmp.2014, <variable>.CurrPOC.framepoc
	movw	ip, #20712	@ tmp243,
	ldr	r0, [r4, r2]	@ <variable>.CurrPOC.PreviousFrameNum, <variable>.CurrPOC.PreviousFrameNum
	ldr	r3, [r4, ip]	@ <variable>.CurrSlice.nal_ref_idc, <variable>.CurrSlice.nal_ref_idc
	cmp	r1, r0	@ D.36075, <variable>.CurrPOC.PreviousFrameNum
	strne	r1, [r4, r2]	@ D.36075, <variable>.CurrPOC.PreviousFrameNum
	cmp	r3, #0	@ <variable>.CurrSlice.nal_ref_idc,
	ldmeqfd	sp!, {r3, r4, r5, r6, r7, pc}	@
	movw	r2, #19796	@ tmp246,
	movw	r1, #19812	@ tmp249,
	ldr	r0, [r4, r2]	@ <variable>.CurrPOC.pic_order_cnt_lsb, <variable>.CurrPOC.pic_order_cnt_lsb
	movw	ip, #19808	@ tmp245,
	ldr	r2, [r4, r1]	@ <variable>.CurrPOC.PicOrderCntMsb, <variable>.CurrPOC.PicOrderCntMsb
	movw	r3, #19804	@ tmp248,
	str	r0, [r4, ip]	@ <variable>.CurrPOC.pic_order_cnt_lsb, <variable>.CurrPOC.PrevPicOrderCntLsb
	str	r2, [r4, r3]	@ <variable>.CurrPOC.PicOrderCntMsb,
	ldmfd	sp!, {r3, r4, r5, r6, r7, pc}	@
.L575:
	cmp	r3, #2	@ <variable>.pic_order_cnt_type,
	ldmnefd	sp!, {r3, r4, r5, r6, r7, pc}	@
	cmp	r1, #0	@ tmp171,
	bne	.L578	@,
	movw	ip, #19820	@ tmp355,
	ldr	r3, [r4, ip]	@ <variable>.CurrPOC.last_has_mmco_5, <variable>.CurrPOC.last_has_mmco_5
	cmp	r3, #0	@ <variable>.CurrPOC.last_has_mmco_5,
	bne	.L559	@,
	movw	r2, #19856	@ tmp358,
	movw	ip, #19860	@ tmp359,
	ldr	r1, [r4, r2]	@ <variable>.CurrPOC.PreviousFrameNum, <variable>.CurrPOC.PreviousFrameNum
	movw	r3, #19868	@ tmp357,
	ldr	r2, [r4, ip]	@ <variable>.CurrPOC.frame_num, <variable>.CurrPOC.frame_num
	ldr	r3, [r4, r3]	@ prephitmp.2009, <variable>.CurrPOC.PrevFrameNumOffset
	cmp	r1, r2	@ <variable>.CurrPOC.PreviousFrameNum, <variable>.CurrPOC.frame_num
	addhi	r3, r3, r0	@ prephitmp.2009, prephitmp.2009, MaxFrameNum
	movwhi	r2, #19864	@ tmp366,
	strhi	r3, [r4, r2]	@ prephitmp.2009, <variable>.CurrPOC.FrameNumOffset
	bls	.L561	@,
.L562:
	movw	r2, #19860	@ tmp368,
	movw	r1, #20712	@ tmp371,
	ldr	ip, [r4, r2]	@ <variable>.CurrPOC.frame_num, <variable>.CurrPOC.frame_num
	movw	r2, #20681	@ tmp376,
	ldr	r0, [r4, r1]	@ <variable>.CurrSlice.nal_ref_idc, <variable>.CurrSlice.nal_ref_idc
	movw	r1, #19852	@ tmp370,
	add	r3, r3, ip	@ temp.2079, prephitmp.2009, <variable>.CurrPOC.frame_num
	ldrb	ip, [r4, r2]	@ zero_extendqisi2	@ <variable>.CurrSlice.field_pic_flag, <variable>.CurrSlice.field_pic_flag
	cmp	r0, #0	@ <variable>.CurrSlice.nal_ref_idc,
	str	r3, [r4, r1]	@ temp.2079, <variable>.CurrPOC.AbsFrameNum
	mov	r3, r3, asl #1	@ tmp373, temp.2079,
	movw	r0, #19840	@ tmp375,
	subeq	r3, r3, #1	@ prephitmp.2081, tmp373,
	cmp	ip, #0	@ <variable>.CurrSlice.field_pic_flag,
	str	r3, [r4, r0]	@ prephitmp.2081, <variable>.CurrPOC.ThisPOC
	bne	.L565	@,
	movw	r2, #19836	@ tmp378,
	movw	r0, #19828	@ tmp380,
	movw	ip, #19832	@ tmp379,
	str	r3, [r4, r2]	@ prephitmp.2081, <variable>.CurrPOC.framepoc
	str	r3, [r4, r0]	@ prephitmp.2081, <variable>.CurrPOC.toppoc
	str	r3, [r4, ip]	@ prephitmp.2081,
.L558:
	movw	r2, #19860	@ tmp388,
	movw	r0, #19864	@ tmp391,
	ldr	r1, [r4, r2]	@ <variable>.CurrPOC.frame_num, <variable>.CurrPOC.frame_num
	movw	ip, #19856	@ tmp387,
	ldr	r2, [r4, r0]	@ <variable>.CurrPOC.FrameNumOffset, <variable>.CurrPOC.FrameNumOffset
	movw	r3, #19868	@ tmp390,
	str	r1, [r4, ip]	@ <variable>.CurrPOC.frame_num, <variable>.CurrPOC.PreviousFrameNum
	str	r2, [r4, r3]	@ <variable>.CurrPOC.FrameNumOffset,
	ldmfd	sp!, {r3, r4, r5, r6, r7, pc}	@
.L523:
	cmp	r1, #0	@ tmp171,
	movwne	r3, #19864	@ tmp251,
	movne	r2, #0	@ tmp252,
	strne	r2, [r4, r3]	@ tmp252, <variable>.CurrPOC.FrameNumOffset
	bne	.L540	@,
	movw	r3, #19820	@ tmp253,
	ldr	r7, [r4, r3]	@ <variable>.CurrPOC.last_has_mmco_5, <variable>.CurrPOC.last_has_mmco_5
	cmp	r7, #0	@ <variable>.CurrPOC.last_has_mmco_5,
	beq	.L541	@,
	movw	ip, #19868	@ tmp255,
	movw	r0, #19856	@ tmp257,
	mov	r3, r1	@ prephitmp.2013, tmp171
	str	r1, [r4, ip]	@ tmp171, <variable>.CurrPOC.PrevFrameNumOffset
	str	r1, [r4, r0]	@ tmp171, <variable>.CurrPOC.PreviousFrameNum
.L542:
	movw	r2, #19864	@ tmp268,
	str	r3, [r4, r2]	@ prephitmp.2013, <variable>.CurrPOC.FrameNumOffset
.L540:
	ldr	ip, [r5, #2924]	@ <variable>.num_ref_frames_in_pic_order_cnt_cycle, <variable>.num_ref_frames_in_pic_order_cnt_cycle
	movw	r0, #20712	@ tmp278,
	ldr	r3, [r4, r0]	@ <variable>.CurrSlice.nal_ref_idc, <variable>.CurrSlice.nal_ref_idc
	cmp	ip, #0	@ <variable>.num_ref_frames_in_pic_order_cnt_cycle,
	movwne	ip, #19860	@ tmp271,
	movweq	r2, #19852	@ tmp276,
	ldrne	r2, [r4, ip]	@ <variable>.CurrPOC.frame_num, <variable>.CurrPOC.frame_num
	movwne	ip, #19864	@ tmp272,
	ldrne	ip, [r4, ip]	@ <variable>.CurrPOC.FrameNumOffset, <variable>.CurrPOC.FrameNumOffset
	streq	ip, [r4, r2]	@ <variable>.num_ref_frames_in_pic_order_cnt_cycle, <variable>.CurrPOC.AbsFrameNum
	addne	r2, r2, ip	@ tmp275, <variable>.CurrPOC.frame_num, <variable>.CurrPOC.FrameNumOffset
	movwne	ip, #19852	@ tmp270,
	strne	r2, [r4, ip]	@ tmp275, <variable>.CurrPOC.AbsFrameNum
	cmp	r3, #0	@ <variable>.CurrSlice.nal_ref_idc,
	beq	.L579	@,
.L546:
	movw	ip, #19884	@ tmp283,
	mov	r3, #0	@ tmp284,
	str	r3, [r4, ip]	@ tmp284, <variable>.CurrPOC.ExpectedDeltaPerPicOrderCntCycle
	ldr	r1, [r5, #2924]	@ temp.2084, <variable>.num_ref_frames_in_pic_order_cnt_cycle
	cmp	r1, r3	@ temp.2084,
	ble	.L547	@,
	add	r0, r5, #2928	@ ivtmp.2043, sps,
	mov	r2, r3	@ i, prephitmp.2010
.L548:
	ldr	r7, [r0], #4	@ tmp285, <variable>.offset_for_ref_frame
	add	r2, r2, #1	@ i, i,
	add	r3, r3, r7	@ prephitmp.2010, prephitmp.2010, tmp285
	str	r3, [r4, ip]	@ prephitmp.2010, <variable>.CurrPOC.ExpectedDeltaPerPicOrderCntCycle
	ldr	r1, [r5, #2924]	@ temp.2084, <variable>.num_ref_frames_in_pic_order_cnt_cycle
	cmp	r1, r2	@ temp.2084, i
	bgt	.L548	@,
.L547:
	movw	r3, #19852	@ tmp287,
	ldr	r7, [r4, r3]	@ temp.2058, <variable>.CurrPOC.AbsFrameNum
	cmp	r7, #0	@ temp.2058,
	movweq	r3, #19880	@ tmp307,
	moveq	r6, r7	@ prephitmp.2062, temp.2058
	streq	r7, [r4, r3]	@ temp.2058, <variable>.CurrPOC.ExpectedPicOrderCnt
	beq	.L550	@,
	sub	r7, r7, #1	@ tmp288, temp.2058,
	mov	r0, r7	@, tmp288
	bl	__aeabi_uidiv	@
	movw	ip, #19876	@ tmp292,
	mov	r6, r0	@ tmp291,
	mov	r0, r7	@, tmp288
	str	r6, [r4, ip]	@ tmp291, <variable>.CurrPOC.PicOrderCntCycleCnt
	ldr	r1, [r5, #2924]	@, <variable>.num_ref_frames_in_pic_order_cnt_cycle
	bl	__aeabi_uidivmod	@
	movw	r2, #19884	@ tmp302,
	ldr	r0, [r4, r2]	@ <variable>.CurrPOC.ExpectedDeltaPerPicOrderCntCycle, <variable>.CurrPOC.ExpectedDeltaPerPicOrderCntCycle
	movw	ip, #19880	@ tmp304,
	movw	r2, #19872	@ tmp301,
	mul	r6, r0, r6	@ prephitmp.2062, <variable>.CurrPOC.ExpectedDeltaPerPicOrderCntCycle, tmp291
	str	r6, [r4, ip]	@ prephitmp.2062, <variable>.CurrPOC.ExpectedPicOrderCnt
	cmp	r1, #0	@ D.36116,
	str	r1, [r4, r2]	@ D.36116, <variable>.CurrPOC.FrameNumInPicOrderCntCycle
	blt	.L550	@,
	add	r2, r5, #2928	@ ivtmp.2038, sps,
	cmp	r1, #1	@ D.36116,
	and	r7, r1, #1	@ tmp399, D.36116,
	mov	r0, #1	@ i.2064,
	ldr	lr, [r2], #4	@ tmp305, <variable>.offset_for_ref_frame
	add	r6, r6, lr	@ prephitmp.2062, prephitmp.2062, tmp305
	str	r6, [r4, ip]	@ prephitmp.2062, <variable>.CurrPOC.ExpectedPicOrderCnt
	blt	.L550	@,
	cmp	r7, #0	@ tmp399,
	beq	.L551	@,
	ldr	lr, [r2], #4	@ tmp411, <variable>.offset_for_ref_frame
	mov	r0, #2	@ i.2064,
	cmp	r1, r0	@ D.36116, i.2064
	add	r6, r6, lr	@ prephitmp.2062, prephitmp.2062, tmp411
	str	r6, [r4, ip]	@ prephitmp.2062, <variable>.CurrPOC.ExpectedPicOrderCnt
	blt	.L550	@,
.L551:
	mov	r3, r2	@ tmp401, ivtmp.2038
	add	r0, r0, #2	@ i.2064, i.2064,
	ldr	r7, [r3], #4	@ tmp404, <variable>.offset_for_ref_frame
	cmp	r1, r0	@ D.36116, i.2064
	add	r6, r6, r7	@ prephitmp.2062, prephitmp.2062, tmp404
	str	r6, [r4, ip]	@ prephitmp.2062, <variable>.CurrPOC.ExpectedPicOrderCnt
	ldr	r7, [r2, #4]	@ tmp409, <variable>.offset_for_ref_frame
	add	r2, r3, #4	@ ivtmp.2038, tmp401,
	add	r6, r6, r7	@ prephitmp.2062, prephitmp.2062, tmp409
	str	r6, [r4, ip]	@ prephitmp.2062, <variable>.CurrPOC.ExpectedPicOrderCnt
	bge	.L551	@,
.L550:
	movw	r3, #20712	@ tmp309,
	movw	r0, #20681	@ tmp314,
	ldr	ip, [r4, r3]	@ <variable>.CurrSlice.nal_ref_idc, <variable>.CurrSlice.nal_ref_idc
	ldrb	r1, [r4, r0]	@ zero_extendqisi2	@ <variable>.CurrSlice.field_pic_flag, <variable>.CurrSlice.field_pic_flag
	cmp	ip, #0	@ <variable>.CurrSlice.nal_ref_idc,
	ldreq	ip, [r5, #2916]	@ <variable>.offset_for_non_ref_pic, <variable>.offset_for_non_ref_pic
	movwne	ip, #19880	@ tmp311,
	ldrne	r6, [r4, ip]	@ prephitmp.2066, <variable>.CurrPOC.ExpectedPicOrderCnt
	addeq	r6, r6, ip	@ prephitmp.2066, prephitmp.2062, <variable>.offset_for_non_ref_pic
	movweq	ip, #19880	@ tmp313,
	streq	r6, [r4, ip]	@ prephitmp.2066, <variable>.CurrPOC.ExpectedPicOrderCnt
	cmp	r1, #0	@ <variable>.CurrSlice.field_pic_flag,
	beq	.L580	@,
	movw	ip, #20682	@ tmp326,
	ldrb	r0, [r4, ip]	@ zero_extendqisi2	@ <variable>.CurrSlice.bottom_field_flag, <variable>.CurrSlice.bottom_field_flag
	cmp	r0, #0	@ <variable>.CurrSlice.bottom_field_flag,
	movwne	r2, #19844	@ tmp332,
	ldrne	r0, [r5, #2920]	@ <variable>.offset_for_top_to_bottom_field, <variable>.offset_for_top_to_bottom_field
	movweq	r0, #19844	@ tmp328,
	ldrne	r2, [r4, r2]	@ <variable>.CurrPOC.delta_pic_order_cnt, <variable>.CurrPOC.delta_pic_order_cnt
	ldreq	r0, [r4, r0]	@ <variable>.CurrPOC.delta_pic_order_cnt, <variable>.CurrPOC.delta_pic_order_cnt
	addne	r0, r2, r0	@ tmp333, <variable>.CurrPOC.delta_pic_order_cnt, <variable>.offset_for_top_to_bottom_field
	movw	r2, #19840	@ tmp337,
	addeq	r6, r6, r0	@ prephitmp.2071, prephitmp.2066, <variable>.CurrPOC.delta_pic_order_cnt
	addne	r6, r0, r6	@ prephitmp.2071, tmp333, prephitmp.2066
	movweq	r0, #19828	@ tmp330,
	movwne	r0, #19832	@ tmp336,
	str	r6, [r4, r0]	@ prephitmp.2071,
	str	r6, [r4, r2]	@ prephitmp.2071, <variable>.CurrPOC.ThisPOC
.L555:
	movw	r2, #19860	@ tmp340,
	movw	r1, #19864	@ tmp343,
	ldr	r0, [r4, r2]	@ <variable>.CurrPOC.frame_num, <variable>.CurrPOC.frame_num
	movw	ip, #19836	@ tmp338,
	ldr	r2, [r4, r1]	@ <variable>.CurrPOC.FrameNumOffset, <variable>.CurrPOC.FrameNumOffset
	movw	r3, #19856	@ tmp339,
	movw	r1, #19868	@ tmp342,
	str	r6, [r4, ip]	@ prephitmp.2071, <variable>.CurrPOC.framepoc
	str	r0, [r4, r3]	@ <variable>.CurrPOC.frame_num, <variable>.CurrPOC.PreviousFrameNum
	str	r2, [r4, r1]	@ <variable>.CurrPOC.FrameNumOffset,
	ldmfd	sp!, {r3, r4, r5, r6, r7, pc}	@
.L580:
	movw	r3, #19844	@ tmp316,
	movw	r1, #19848	@ tmp319,
	ldr	ip, [r4, r3]	@ <variable>.CurrPOC.delta_pic_order_cnt, <variable>.CurrPOC.delta_pic_order_cnt
	movw	r0, #19828	@ tmp318,
	ldr	r2, [r4, r1]	@ <variable>.CurrPOC.delta_pic_order_cnt, <variable>.CurrPOC.delta_pic_order_cnt
	add	r6, r6, ip	@ D.36130, prephitmp.2066, <variable>.CurrPOC.delta_pic_order_cnt
	str	r6, [r4, r0]	@ D.36130, <variable>.CurrPOC.toppoc
	ldr	r1, [r5, #2920]	@ <variable>.offset_for_top_to_bottom_field, <variable>.offset_for_top_to_bottom_field
	movw	ip, #19832	@ tmp323,
	add	r3, r2, r1	@ tmp320, <variable>.CurrPOC.delta_pic_order_cnt, <variable>.offset_for_top_to_bottom_field
	movw	r1, #19836	@ tmp324,
	add	r0, r3, r6	@ D.36134, tmp320, D.36130
	movw	r2, #19840	@ tmp325,
	cmp	r0, r6	@ D.36134, D.36130
	movlt	r6, r0	@ prephitmp.2071, D.36134
	movge	r6, r6	@ prephitmp.2071, D.36130
	str	r0, [r4, ip]	@ D.36134, <variable>.CurrPOC.bottompoc
	str	r6, [r4, r1]	@ prephitmp.2071,
	str	r6, [r4, r2]	@ prephitmp.2071, <variable>.CurrPOC.ThisPOC
	b	.L555	@
.L579:
	movw	r1, #19852	@ tmp280,
	ldr	r2, [r4, r1]	@ D.36101, <variable>.CurrPOC.AbsFrameNum
	cmp	r2, #0	@ D.36101,
	subne	r2, r2, #1	@ tmp282, D.36101,
	strne	r2, [r4, r1]	@ tmp282, <variable>.CurrPOC.AbsFrameNum
	b	.L546	@
.L578:
	movw	r0, #19840	@ tmp353,
	mov	r3, #0	@ tmp346,
	movw	r2, #19864	@ tmp345,
	str	r3, [r4, r0]	@ tmp346, <variable>.CurrPOC.ThisPOC
	movw	r1, #19832	@ tmp347,
	movw	ip, #19828	@ tmp349,
	movw	r0, #19836	@ tmp351,
	str	r3, [r4, r2]	@ tmp346, <variable>.CurrPOC.FrameNumOffset
	str	r3, [r4, r1]	@ tmp346, <variable>.CurrPOC.bottompoc
	str	r3, [r4, ip]	@ tmp346,
	str	r3, [r4, r0]	@ tmp346,
	b	.L558	@
.L576:
	movw	r0, #19808	@ tmp192,
	movw	r1, #19804	@ tmp190,
	mov	r3, #0	@ tmp191,
	str	r3, [r4, r0]	@ tmp191, <variable>.CurrPOC.PrevPicOrderCntLsb
	str	r3, [r4, r1]	@ tmp191, <variable>.CurrPOC.PrevPicOrderCntMsb
.L526:
	movw	ip, #19796	@ tmp393,
	movw	r1, #19804	@ tmp394,
	mov	r3, #0	@ prephitmp.2089,
	ldr	r0, [r4, ip]	@ D.36040, <variable>.CurrPOC.pic_order_cnt_lsb
	ldr	ip, [r4, r1]	@ prephitmp.2021, <variable>.CurrPOC.PrevPicOrderCntMsb
	mov	r1, r3	@ prephitmp.2019, prephitmp.2089
	b	.L532	@
.L535:
	movw	r1, #20682	@ tmp228,
	movw	r0, #19796	@ tmp230,
	ldrb	r2, [r4, r1]	@ zero_extendqisi2	@ <variable>.CurrSlice.bottom_field_flag, <variable>.CurrSlice.bottom_field_flag
	movw	r1, #19840	@ tmp237,
	ldr	ip, [r4, r0]	@ <variable>.CurrPOC.pic_order_cnt_lsb, <variable>.CurrPOC.pic_order_cnt_lsb
	cmp	r2, #0	@ <variable>.CurrSlice.bottom_field_flag,
	add	r3, r3, ip	@ prephitmp.2014, prephitmp.2089, <variable>.CurrPOC.pic_order_cnt_lsb
	movweq	ip, #19828	@ tmp232,
	movwne	ip, #19832	@ tmp236,
	str	r3, [r4, ip]	@ prephitmp.2014,
	str	r3, [r4, r1]	@ prephitmp.2014, <variable>.CurrPOC.ThisPOC
	b	.L536	@
.L527:
	movw	r0, #19824	@ tmp198,
	ldr	r3, [r4, r0]	@ <variable>.CurrPOC.last_pic_bottom_field, <variable>.CurrPOC.last_pic_bottom_field
	cmp	r3, #0	@ <variable>.CurrPOC.last_pic_bottom_field,
	beq	.L529	@,
	movw	r3, #19808	@ tmp202,
	movw	ip, #19804	@ tmp200,
	str	r1, [r4, r3]	@ tmp171, <variable>.CurrPOC.PrevPicOrderCntLsb
	str	r1, [r4, ip]	@ tmp171, <variable>.CurrPOC.PrevPicOrderCntMsb
	b	.L526	@
.L559:
	movw	r3, #19856	@ tmp362,
	movw	r0, #19868	@ tmp364,
	str	r1, [r4, r3]	@ tmp171, <variable>.CurrPOC.PreviousFrameNum
	mov	r3, r1	@ prephitmp.2009, tmp171
	str	r1, [r4, r0]	@ tmp171, <variable>.CurrPOC.PrevFrameNumOffset
.L561:
	movw	r1, #19864	@ tmp367,
	str	r3, [r4, r1]	@ prephitmp.2009, <variable>.CurrPOC.FrameNumOffset
	b	.L562	@
.L565:
	movw	r0, #20682	@ tmp381,
	movw	r1, #19836	@ tmp385,
	ldrb	ip, [r4, r0]	@ zero_extendqisi2	@ <variable>.CurrSlice.bottom_field_flag, <variable>.CurrSlice.bottom_field_flag
	cmp	ip, #0	@ <variable>.CurrSlice.bottom_field_flag,
	movweq	ip, #19828	@ tmp384,
	movwne	ip, #19832	@ tmp386,
	str	r3, [r4, ip]	@ prephitmp.2081,
	str	r3, [r4, r1]	@ prephitmp.2081,
	b	.L558	@
.L541:
	movw	r3, #19860	@ tmp259,
	movw	r7, #19856	@ tmp260,
	ldr	r2, [r4, r3]	@ <variable>.CurrPOC.frame_num, <variable>.CurrPOC.frame_num
	ldr	r1, [r4, r7]	@ <variable>.CurrPOC.PreviousFrameNum, <variable>.CurrPOC.PreviousFrameNum
	cmp	r2, r1	@ <variable>.CurrPOC.frame_num, <variable>.CurrPOC.PreviousFrameNum
	bcs	.L543	@,
	movw	r7, #19868	@ tmp264,
	movw	ip, #19864	@ tmp263,
	ldr	r1, [r4, r7]	@ <variable>.CurrPOC.PrevFrameNumOffset, <variable>.CurrPOC.PrevFrameNumOffset
	add	r0, r0, r1	@ tmp266, MaxFrameNum, <variable>.CurrPOC.PrevFrameNumOffset
	str	r0, [r4, ip]	@ tmp266, <variable>.CurrPOC.FrameNumOffset
	b	.L540	@
.L577:
	rsb	r3, r2, r3	@ D.36056, MaxPicOrderCntLsb, prephitmp.2089
	movw	r2, #19812	@ tmp216,
	str	r3, [r4, r2]	@ D.36056, <variable>.CurrPOC.PicOrderCntMsb
	b	.L533	@
.L529:
	movw	r1, #19828	@ tmp206,
	movw	r0, #19804	@ tmp204,
	ldr	r1, [r4, r1]	@ prephitmp.2019, <variable>.CurrPOC.toppoc
	mov	r5, r3	@ prephitmp.2023, <variable>.CurrPOC.last_pic_bottom_field
	str	r3, [r4, r0]	@ <variable>.CurrPOC.last_pic_bottom_field, <variable>.CurrPOC.PrevPicOrderCntMsb
	movw	r0, #19808	@ tmp207,
	mov	ip, r3	@ prephitmp.2021, prephitmp.2023
	str	r1, [r4, r0]	@ prephitmp.2019, <variable>.CurrPOC.PrevPicOrderCntLsb
	b	.L528	@
.L543:
	movw	r2, #19868	@ tmp267,
	ldr	r3, [r4, r2]	@ prephitmp.2013, <variable>.CurrPOC.PrevFrameNumOffset
	b	.L542	@
	.fnend
	.size	DecPOC, .-DecPOC
	.align	2
	.global	CalcPicNum
	.type	CalcPicNum, %function
CalcPicNum:
	.fnstart
.LFB1677:
	@ args = 0, pretend = 0, frame = 0
	@ frame_needed = 0, uses_anonymous_args = 0
	@ link register save eliminated.
	movw	r3, #20692	@ tmp158,
	movw	r2, #13584	@ tmp160,
	stmfd	sp!, {r4, r5, r6, r7, r8, sl}	@,
	.save {r4, r5, r6, r7, r8, sl}
	ldr	r6, [r0, r2]	@ <variable>.PPS, <variable>.PPS
	ldr	r4, [r0, r3]	@ <variable>.CurrSlice.pic_parameter_set_id, <variable>.CurrSlice.pic_parameter_set_id
	mov	ip, #2208	@ tmp162,
	movw	r1, #13580	@ tmp166,
	movw	r2, #49707	@ tmp173,
	ldr	r1, [r0, r1]	@ <variable>.SPS, <variable>.SPS
	mla	r3, ip, r4, r6	@ tmp163, tmp162, <variable>.CurrSlice.pic_parameter_set_id, <variable>.PPS
	mov	ip, #4000	@ tmp168,
	ldrb	r2, [r0, r2]	@ zero_extendqisi2	@ D.36194, <variable>.CurrPic.structure
	cmp	r2, #0	@ D.36194,
	ldr	r6, [r3, #28]	@ <variable>.seq_parameter_set_id, <variable>.seq_parameter_set_id
	mov	r3, #1	@ tmp172,
	mla	r4, ip, r6, r1	@ tmp169, tmp168, <variable>.seq_parameter_set_id, <variable>.SPS
	ldr	r1, [r4, #2904]	@ <variable>.log2_max_frame_num_minus4, <variable>.log2_max_frame_num_minus4
	add	r6, r1, #4	@ tmp170, <variable>.log2_max_frame_num_minus4,
	mov	r6, r3, asl r6	@ MaxFrameNum, tmp172,
	beq	.L582	@,
	movw	r7, #26632	@ tmp176,
	cmp	r2, #2	@ D.36194,
	movne	r4, #0	@, add_bottom
	moveq	r4, #1	@, add_bottom
	ldr	ip, [r0, r7]	@ <variable>.DPB.ref_frames_in_buffer, <variable>.DPB.ref_frames_in_buffer
	cmp	r2, #1	@ D.36194,
	movne	r5, #0	@, add_top
	moveq	r5, #1	@, add_top
	cmp	ip, #0	@ <variable>.DPB.ref_frames_in_buffer,
	beq	.L584	@,
	add	r8, r0, #26368	@ ivtmp.2157, pH264Ctx,
	mov	r2, #0	@ i,
	add	r3, r8, #128	@ ivtmp.2157, ivtmp.2157,
	movw	r8, #50120	@ tmp245,
.L597:
	ldr	r1, [r3, #0]	@ temp.2165, <variable>.DPB.fs_ref
	ldrb	ip, [r1, #2]	@ zero_extendqisi2	@ <variable>.is_reference, <variable>.is_reference
	cmp	ip, #0	@ <variable>.is_reference,
	beq	.L593	@,
	ldr	ip, [r1, #512]	@ temp.2167, <variable>.frame_num
	ldr	sl, [r0, r8]	@ <variable>.CurrPic.frame_num, <variable>.CurrPic.frame_num
	cmp	ip, sl	@ temp.2167, <variable>.CurrPic.frame_num
	rsbhi	ip, r6, ip	@ tmp205, MaxFrameNum, temp.2167
	str	ip, [r1, #516]	@ temp.2167, <variable>.frame_num_wrap
	ldr	r1, [r3, #0]	@ prephitmp.2125, <variable>.DPB.fs_ref
	ldrb	ip, [r1, #2]	@ zero_extendqisi2	@ prephitmp.2129, <variable>.is_reference
	tst	ip, #1	@ prephitmp.2129,
	beq	.L596	@,
	ldr	sl, [r1, #436]	@ tmp209,
	bic	sl, sl, #-16777216	@ tmp207, tmp209,
	bic	sl, sl, #255	@ tmp207, tmp207,
	cmp	sl, #65536	@ tmp207,
	ldreq	ip, [r1, #516]	@ <variable>.frame_num_wrap, <variable>.frame_num_wrap
	addeq	ip, r5, ip, asl #1	@, tmp212, add_top, <variable>.frame_num_wrap,
	streq	ip, [r1, #448]	@ tmp212, <variable>.top_field.pic_num
	ldreq	r1, [r3, #0]	@ prephitmp.2125, <variable>.DPB.fs_ref
	ldreqb	ip, [r1, #2]	@ zero_extendqisi2	@ prephitmp.2129, <variable>.is_reference
.L596:
	tst	ip, #2	@ prephitmp.2129,
	beq	.L593	@,
	ldr	ip, [r1, #472]	@ tmp216,
	bic	ip, ip, #-16777216	@ tmp214, tmp216,
	bic	ip, ip, #255	@ tmp214, tmp214,
	cmp	ip, #65536	@ tmp214,
	ldreq	ip, [r1, #516]	@ <variable>.frame_num_wrap, <variable>.frame_num_wrap
	addeq	ip, r4, ip, asl #1	@, tmp219, add_bottom, <variable>.frame_num_wrap,
	streq	ip, [r1, #484]	@ tmp219, <variable>.bottom_field.pic_num
.L593:
	ldr	r1, [r0, r7]	@ <variable>.DPB.ref_frames_in_buffer, <variable>.DPB.ref_frames_in_buffer
	add	r2, r2, #1	@ i, i,
	add	r3, r3, #4	@ ivtmp.2157, ivtmp.2157,
	cmp	r1, r2	@ <variable>.DPB.ref_frames_in_buffer, i
	bhi	.L597	@,
.L584:
	movw	r6, #26636	@ tmp222,
	ldr	r2, [r0, r6]	@ <variable>.DPB.ltref_frames_in_buffer, <variable>.DPB.ltref_frames_in_buffer
	cmp	r2, #0	@ <variable>.DPB.ltref_frames_in_buffer,
	beq	.L601	@,
	add	r3, r0, #26368	@ ivtmp.2152, pH264Ctx,
	mov	r2, #0	@ i.2169,
	add	r3, r3, #192	@ ivtmp.2152, ivtmp.2152,
.L600:
	ldr	ip, [r3, #0]	@ prephitmp.2118, <variable>.DPB.fs_ltref
	add	r2, r2, #1	@ i.2169, i.2169,
	ldrb	r1, [ip, #2]	@ zero_extendqisi2	@ temp.2179, <variable>.is_reference
	cmp	r1, #0	@ temp.2179,
	beq	.L598	@,
	tst	r1, #1	@ prephitmp.2122,
	beq	.L599	@,
	ldr	r7, [ip, #436]	@ tmp228,
	bic	r7, r7, #-16777216	@ tmp226, tmp228,
	bic	r7, r7, #255	@ tmp226, tmp226,
	cmp	r7, #256	@ tmp226,
	ldreq	r1, [ip, #520]	@ <variable>.long_term_frame_idx, <variable>.long_term_frame_idx
	addeq	r1, r5, r1, asl #1	@, tmp231, add_top, <variable>.long_term_frame_idx,
	streq	r1, [ip, #444]	@ tmp231, <variable>.top_field.long_term_pic_num
	ldreq	ip, [r3, #0]	@ prephitmp.2118, <variable>.DPB.fs_ltref
	ldreqb	r1, [ip, #2]	@ zero_extendqisi2	@ prephitmp.2122, <variable>.is_reference
.L599:
	tst	r1, #2	@ prephitmp.2122,
	beq	.L598	@,
	ldr	r1, [ip, #472]	@ tmp235,
	bic	r1, r1, #-16777216	@ tmp233, tmp235,
	bic	r1, r1, #255	@ tmp233, tmp233,
	cmp	r1, #256	@ tmp233,
	ldreq	r1, [ip, #520]	@ <variable>.long_term_frame_idx, <variable>.long_term_frame_idx
	addeq	r1, r4, r1, asl #1	@, tmp238, add_bottom, <variable>.long_term_frame_idx,
	streq	r1, [ip, #480]	@ tmp238, <variable>.bottom_field.long_term_pic_num
.L598:
	ldr	ip, [r0, r6]	@ <variable>.DPB.ltref_frames_in_buffer, <variable>.DPB.ltref_frames_in_buffer
	add	r3, r3, #4	@ ivtmp.2152, ivtmp.2152,
	cmp	ip, r2	@ <variable>.DPB.ltref_frames_in_buffer, i.2169
	bhi	.L600	@,
.L601:
	ldmfd	sp!, {r4, r5, r6, r7, r8, sl}
	bx	lr
.L582:
	movw	r4, #26632	@ tmp178,
	ldr	r1, [r0, r4]	@ <variable>.DPB.ref_frames_in_buffer, <variable>.DPB.ref_frames_in_buffer
	cmp	r1, #0	@ <variable>.DPB.ref_frames_in_buffer,
	beq	.L585	@,
	add	r5, r0, #26368	@ ivtmp.2147, pH264Ctx,
	add	r3, r5, #128	@ ivtmp.2147, ivtmp.2147,
	movw	r5, #50120	@ tmp242,
	b	.L589	@
.L586:
	ldr	r1, [r0, r4]	@ <variable>.DPB.ref_frames_in_buffer, <variable>.DPB.ref_frames_in_buffer
	add	r2, r2, #1	@ i.2162, i.2162,
	add	r3, r3, #4	@ ivtmp.2147, ivtmp.2147,
	cmp	r1, r2	@ <variable>.DPB.ref_frames_in_buffer, i.2162
	bls	.L585	@,
.L589:
	ldr	r1, [r3, #0]	@ D.36198, <variable>.DPB.fs_ref
	ldrb	ip, [r1, #2]	@ zero_extendqisi2	@ <variable>.is_reference, <variable>.is_reference
	cmp	ip, #3	@ <variable>.is_reference,
	bne	.L586	@,
	ldr	ip, [r1, #400]	@ tmp184,
	bic	ip, ip, #-16777216	@ tmp182, tmp184,
	bic	ip, ip, #255	@ tmp182, tmp182,
	cmp	ip, #65536	@ tmp182,
	bne	.L586	@,
	ldr	ip, [r1, #512]	@ D.36206, <variable>.frame_num
	add	r2, r2, #1	@ i.2162, i.2162,
	ldr	r7, [r0, r5]	@ <variable>.CurrPic.frame_num, <variable>.CurrPic.frame_num
	cmp	ip, r7	@ D.36206, <variable>.CurrPic.frame_num
	rsb	r7, r6, ip	@ tmp187, MaxFrameNum, D.36206
	strls	ip, [r1, #516]	@ D.36206, <variable>.frame_num_wrap
	strhi	r7, [r1, #516]	@ tmp187, <variable>.frame_num_wrap
	ldr	r1, [r3, #0]	@ temp.2161, <variable>.DPB.fs_ref
	add	r3, r3, #4	@ ivtmp.2147, ivtmp.2147,
	ldr	ip, [r1, #516]	@ <variable>.frame_num_wrap, <variable>.frame_num_wrap
	str	ip, [r1, #412]	@ <variable>.frame_num_wrap, <variable>.frame.pic_num
	ldr	r1, [r0, r4]	@ <variable>.DPB.ref_frames_in_buffer, <variable>.DPB.ref_frames_in_buffer
	cmp	r1, r2	@ <variable>.DPB.ref_frames_in_buffer, i.2162
	bhi	.L589	@,
.L585:
	movw	r4, #26636	@ tmp191,
	ldr	r2, [r0, r4]	@ <variable>.DPB.ltref_frames_in_buffer, <variable>.DPB.ltref_frames_in_buffer
	cmp	r2, #0	@ <variable>.DPB.ltref_frames_in_buffer,
	beq	.L601	@,
	add	r3, r0, #26368	@ ivtmp.2142, pH264Ctx,
	mov	r2, #0	@ i.2163,
	add	r3, r3, #192	@ ivtmp.2142, ivtmp.2142,
	b	.L592	@
.L591:
	ldr	r1, [r0, r4]	@ <variable>.DPB.ltref_frames_in_buffer, <variable>.DPB.ltref_frames_in_buffer
	cmp	r1, r2	@ <variable>.DPB.ltref_frames_in_buffer, i.2163
	bls	.L601	@,
.L592:
	ldr	r1, [r3, #0]	@ D.36216, <variable>.DPB.fs_ltref
	add	r2, r2, #1	@ i.2163, i.2163,
	add	r3, r3, #4	@ ivtmp.2142, ivtmp.2142,
	ldrb	ip, [r1, #2]	@ zero_extendqisi2	@ <variable>.is_reference, <variable>.is_reference
	cmp	ip, #3	@ <variable>.is_reference,
	bne	.L591	@,
	ldr	ip, [r1, #400]	@ tmp197,
	bic	ip, ip, #-16777216	@ tmp195, tmp197,
	bic	ip, ip, #255	@ tmp195, tmp195,
	cmp	ip, #256	@ tmp195,
	ldreq	ip, [r1, #520]	@ <variable>.long_term_frame_idx, <variable>.long_term_frame_idx
	streq	ip, [r1, #408]	@ <variable>.long_term_frame_idx, <variable>.frame.long_term_pic_num
	b	.L591	@
	.fnend
	.size	CalcPicNum, .-CalcPicNum
	.align	2
	.global	IsOutDPB
	.type	IsOutDPB, %function
IsOutDPB:
	.fnstart
.LFB1678:
	@ args = 0, pretend = 0, frame = 0
	@ frame_needed = 0, uses_anonymous_args = 0
	@ link register save eliminated.
	cmp	r1, #0	@ pFrameStore
	str	r4, [sp, #-4]!	@,
	.save {r4}
	beq	.L607	@,
	movw	r3, #26628	@ tmp141,
	ldr	r4, [r0, r3]	@ D.36292, <variable>.DPB.used_size
	cmp	r4, #0	@ D.36292,
	beq	.L607	@,
	movw	ip, #26432	@ tmp142,
	ldr	r2, [r0, ip]	@ <variable>.DPB.fs, <variable>.DPB.fs
	cmp	r2, r1	@ <variable>.DPB.fs, pFrameStore
	beq	.L608	@,
	tst	r4, #1	@ D.36292,
	add	r3, r0, #26368	@ tmp144, pH264Ctx,
	add	r2, r3, #68	@ ivtmp.2211, tmp144,
	mov	r0, #0	@ i,
	bne	.L609	@,
	ldr	ip, [r2, #0]	@ D.36289, <variable>.DPB.fs
	mov	r0, #1	@ i,
	add	r2, r3, #72	@ ivtmp.2211, tmp144,
	cmp	ip, r1	@ D.36289, pFrameStore
	bne	.L609	@,
.L608:
	mov	r0, #0	@ D.36287,
	b	.L611	@
.L610:
	ldr	ip, [r3], #4	@ D.36289, <variable>.DPB.fs
	cmp	ip, r1	@ D.36289, pFrameStore
	beq	.L608	@,
	ldr	ip, [r2, #4]	@ D.36289, <variable>.DPB.fs
	add	r2, r3, #4	@ ivtmp.2211, tmp150,
	cmp	ip, r1	@ D.36289, pFrameStore
	beq	.L608	@,
.L609:
	add	r0, r0, #1	@ tmp149, i,
	mov	r3, r2	@ tmp150, ivtmp.2211
	cmp	r0, r4	@ tmp149, D.36292
	add	r0, r0, #1	@ i, tmp149,
	bcc	.L610	@,
.L607:
	mov	r0, #1	@ D.36287,
.L611:
	ldmfd	sp!, {r4}
	bx	lr
	.fnend
	.size	IsOutDPB, .-IsOutDPB
	.align	2
	.global	UpdatePicQpInf
	.type	UpdatePicQpInf, %function
UpdatePicQpInf:
	.fnstart
.LFB1683:
	@ args = 0, pretend = 0, frame = 0
	@ frame_needed = 0, uses_anonymous_args = 0
	@ link register save eliminated.
	ldr	r2, [r1, #28]	@ <variable>.MaxQp, <variable>.MaxQp
	ldr	r3, [r1, #32]	@ <variable>.MinQp, <variable>.MinQp
	cmp	r2, r0	@ <variable>.MaxQp, SlcQp
	strge	r2, [r1, #28]	@, <variable>.MaxQp, <variable>.MaxQp
	strlt	r0, [r1, #28]	@, SlcQp, <variable>.MaxQp
	cmp	r3, r0	@ <variable>.MinQp, SlcQp
	strle	r3, [r1, #32]	@, <variable>.MinQp, <variable>.MinQp
	strgt	r0, [r1, #32]	@, SlcQp, <variable>.MinQp
	bx	lr	@
	.fnend
	.size	UpdatePicQpInf, .-UpdatePicQpInf
	.align	2
	.global	H264_GetPicStreamSize
	.type	H264_GetPicStreamSize, %function
H264_GetPicStreamSize:
	.fnstart
.LFB1686:
	@ args = 0, pretend = 0, frame = 0
	@ frame_needed = 0, uses_anonymous_args = 0
	@ link register save eliminated.
	movw	r3, #52492	@ tmp138,
	ldr	r3, [r0, r3]	@ pH264SliceParam, <variable>.DecPicPara.pFirstSlice
	cmp	r3, #0	@ pH264SliceParam,
	moveq	r0, r3	@ TotalSize, pH264SliceParam
	bxeq	lr	@
	mov	r0, #0	@ TotalSize,
.L623:
	ldr	r2, [r3, #12]	@ <variable>.valid_bitlen, <variable>.valid_bitlen
	ldr	r1, [r3, #8]	@ <variable>.valid_bitlen, <variable>.valid_bitlen
	ldr	r3, [r3, #4056]	@ pH264SliceParam, <variable>.pNextSlice
	add	ip, r1, r2	@ tmp139, <variable>.valid_bitlen, <variable>.valid_bitlen
	add	r2, ip, #7	@ tmp142, tmp139,
	cmp	r3, #0	@ pH264SliceParam,
	add	r0, r0, r2, lsr #3	@, TotalSize, TotalSize, tmp142,
	bne	.L623	@,
	bx	lr	@
	.fnend
	.size	H264_GetPicStreamSize, .-H264_GetPicStreamSize
	.align	2
	.global	ExitSlice
	.type	ExitSlice, %function
ExitSlice:
	.fnstart
.LFB1697:
	@ args = 0, pretend = 0, frame = 0
	@ frame_needed = 0, uses_anonymous_args = 0
	@ link register save eliminated.
	stmfd	sp!, {r4, r5, r6}	@,
	.save {r4, r5, r6}
	movw	ip, #13584	@ tmp140,
	movw	r4, #20692	@ tmp137,
	ldr	r3, [r0, ip]	@ <variable>.PPS, <variable>.PPS
	ldr	r1, [r0, r4]	@ D.38124, <variable>.CurrSlice.pic_parameter_set_id
	movw	r6, #13580	@ tmp138,
	mov	r2, #2208	@ tmp142,
	ldr	ip, [r0, r6]	@ <variable>.SPS, <variable>.SPS
	movw	r5, #20681	@ tmp158,
	movw	r4, #20732	@ tmp152,
	mla	r6, r2, r1, r3	@ tmp143, tmp142, D.38124, <variable>.PPS
	ldrb	r3, [r0, r5]	@ zero_extendqisi2	@ <variable>.CurrSlice.field_pic_flag, <variable>.CurrSlice.field_pic_flag
	ldr	r5, [r0, r4]	@ <variable>.CurrSlice.first_mb_in_slice, <variable>.CurrSlice.first_mb_in_slice
	movw	r4, #20700	@ tmp155,
	ldr	r4, [r0, r4]	@ <variable>.CurrSlice.frame_num, <variable>.CurrSlice.frame_num
	cmp	r3, #0	@ <variable>.CurrSlice.field_pic_flag,
	ldr	r2, [r6, #28]	@ <variable>.seq_parameter_set_id, <variable>.seq_parameter_set_id
	movw	r6, #22336	@ tmp148,
	str	r1, [r0, r6]	@ D.38124, <variable>.PrevSlice.pic_parameter_set_id
	mov	r1, #4000	@ tmp146,
	mla	r2, r1, r2, ip	@ sps, tmp146, <variable>.seq_parameter_set_id, <variable>.SPS
	movw	r1, #22368	@ tmp151,
	ldr	ip, [r2, #744]	@ <variable>.seq_parameter_set_id, <variable>.seq_parameter_set_id
	str	r5, [r0, r1]	@ <variable>.CurrSlice.first_mb_in_slice, <variable>.PrevSlice.first_mb_in_slice
	movw	r1, #22344	@ tmp154,
	str	r4, [r0, r1]	@ <variable>.CurrSlice.frame_num, <variable>.PrevSlice.frame_num
	movw	r1, #22332	@ tmp149,
	str	ip, [r0, r1]	@ <variable>.seq_parameter_set_id, <variable>.PrevSlice.seq_parameter_set_id
	movw	ip, #22328	@ tmp157,
	strb	r3, [r0, ip]	@ <variable>.CurrSlice.field_pic_flag, <variable>.PrevSlice.field_pic_flag
	movwne	r3, #20682	@ tmp164,
	ldrneb	ip, [r0, r3]	@ zero_extendqisi2	@ <variable>.CurrSlice.bottom_field_flag, <variable>.CurrSlice.bottom_field_flag
	movwne	r3, #22329	@ tmp163,
	movw	r1, #20712	@ tmp168,
	ldr	r1, [r0, r1]	@ <variable>.CurrSlice.nal_ref_idc, <variable>.CurrSlice.nal_ref_idc
	strneb	ip, [r0, r3]	@ <variable>.CurrSlice.bottom_field_flag, <variable>.PrevSlice.bottom_field_flag
	movw	r3, #20683	@ tmp171,
	ldrb	r3, [r0, r3]	@ zero_extendqisi2	@ <variable>.CurrSlice.nal_unit_type, <variable>.CurrSlice.nal_unit_type
	movw	ip, #22330	@ tmp170,
	cmp	r3, #5	@ <variable>.CurrSlice.nal_unit_type,
	strb	r3, [r0, ip]	@ <variable>.CurrSlice.nal_unit_type, <variable>.PrevSlice.nal_unit_type
	movw	r3, #22340	@ tmp167,
	str	r1, [r0, r3]	@ <variable>.CurrSlice.nal_ref_idc, <variable>.PrevSlice.nal_ref_idc
	movweq	r3, #20720	@ tmp177,
	ldreq	r1, [r0, r3]	@ <variable>.CurrSlice.idr_pic_id, <variable>.CurrSlice.idr_pic_id
	movweq	r3, #22348	@ tmp176,
	streq	r1, [r0, r3]	@ <variable>.CurrSlice.idr_pic_id, <variable>.PrevSlice.idr_pic_id
	ldr	r3, [r2, #2908]	@ prephitmp.2279, <variable>.pic_order_cnt_type
	cmp	r3, #0	@ prephitmp.2279,
	bne	.L629	@,
	movw	r1, #19796	@ tmp180,
	movw	r3, #19800	@ tmp183,
	ldr	ip, [r0, r1]	@ <variable>.CurrPOC.pic_order_cnt_lsb, <variable>.CurrPOC.pic_order_cnt_lsb
	ldr	r1, [r0, r3]	@ <variable>.CurrPOC.delta_pic_order_cnt_bottom, <variable>.CurrPOC.delta_pic_order_cnt_bottom
	movw	r3, #22352	@ tmp179,
	str	ip, [r0, r3]	@ <variable>.CurrPOC.pic_order_cnt_lsb, <variable>.PrevSlice.pic_oder_cnt_lsb
	movw	r3, #22356	@ tmp182,
	str	r1, [r0, r3]	@ <variable>.CurrPOC.delta_pic_order_cnt_bottom, <variable>.PrevSlice.delta_pic_oder_cnt_bottom
	ldr	r3, [r2, #2908]	@ prephitmp.2279, <variable>.pic_order_cnt_type
.L629:
	cmp	r3, #1	@ prephitmp.2279,
	bne	.L630	@,
	movw	r2, #19844	@ tmp186,
	movw	ip, #19848	@ tmp189,
	ldr	r1, [r0, r2]	@ <variable>.CurrPOC.delta_pic_order_cnt, <variable>.CurrPOC.delta_pic_order_cnt
	movw	r3, #22360	@ tmp185,
	ldr	r2, [r0, ip]	@ <variable>.CurrPOC.delta_pic_order_cnt, <variable>.CurrPOC.delta_pic_order_cnt
	movw	ip, #22364	@ tmp188,
	str	r1, [r0, r3]	@ <variable>.CurrPOC.delta_pic_order_cnt, <variable>.PrevSlice.delta_pic_order_cnt
	str	r2, [r0, ip]	@ <variable>.CurrPOC.delta_pic_order_cnt, <variable>.PrevSlice.delta_pic_order_cnt
.L630:
	movw	r3, #52796	@ tmp191,
	ldr	ip, [r0, r3]	@ <variable>.TotalSlice, <variable>.TotalSlice
	add	r1, ip, #1	@ tmp194, <variable>.TotalSlice,
	str	r1, [r0, r3]	@ tmp194, <variable>.TotalSlice
	ldmfd	sp!, {r4, r5, r6}
	bx	lr
	.fnend
	.size	ExitSlice, .-ExitSlice
	.align	2
	.global	PicTypeStatistic
	.type	PicTypeStatistic, %function
PicTypeStatistic:
	.fnstart
.LFB1698:
	@ args = 0, pretend = 0, frame = 0
	@ frame_needed = 0, uses_anonymous_args = 0
	@ link register save eliminated.
	movw	r3, #20680	@ tmp134,
	ldrb	r3, [r0, r3]	@ zero_extendqisi2	@ <variable>.CurrSlice.slice_type, <variable>.CurrSlice.slice_type
	cmp	r3, #1	@ <variable>.CurrSlice.slice_type,
	beq	.L635	@,
	bcs	.L640	@,
	movw	r1, #50148	@ tmp140,
	ldr	r2, [r0, r1]	@ <variable>.CurrPic.pic_type, <variable>.CurrPic.pic_type
	cmp	r2, #2	@ <variable>.CurrPic.pic_type,
	movne	r2, #1	@ tmp143,
	strne	r2, [r0, r1]	@ tmp143, <variable>.CurrPic.pic_type
	movw	r1, #50152	@ tmp150,
	mov	r2, #0	@ tmp151,
	str	r2, [r0, r1]	@ tmp151, <variable>.CurrPic.is_idr_pic
	bx	lr	@
.L640:
	cmp	r3, #2	@ <variable>.CurrSlice.slice_type,
	bxne	lr	@
	movw	r3, #20683	@ tmp146,
	ldrb	ip, [r0, r3]	@ zero_extendqisi2	@ <variable>.CurrSlice.nal_unit_type, <variable>.CurrSlice.nal_unit_type
	cmp	ip, #5	@ <variable>.CurrSlice.nal_unit_type,
	movweq	ip, #50152	@ tmp148,
	moveq	r2, #1	@ tmp149,
	streq	r2, [r0, ip]	@ tmp149, <variable>.CurrPic.is_idr_pic
	movwne	r1, #50152	@ tmp150,
	movne	r2, #0	@ tmp151,
	strne	r2, [r0, r1]	@ tmp151, <variable>.CurrPic.is_idr_pic
	bx	lr	@
.L635:
	movw	r3, #50148	@ tmp136,
	movw	r1, #50152	@ tmp138,
	mov	ip, #2	@ tmp137,
	mov	r2, #0	@ tmp139,
	str	ip, [r0, r3]	@ tmp137, <variable>.CurrPic.pic_type
	str	r2, [r0, r1]	@ tmp139, <variable>.CurrPic.is_idr_pic
	bx	lr	@
	.fnend
	.size	PicTypeStatistic, .-PicTypeStatistic
	.align	2
	.global	PassBytes
	.type	PassBytes, %function
PassBytes:
	.fnstart
.LFB1710:
	@ args = 0, pretend = 0, frame = 0
	@ frame_needed = 0, uses_anonymous_args = 0
	@ link register save eliminated.
	stmfd	sp!, {r4, r5, r6}	@,
	.save {r4, r5, r6}
	ldr	r3, [r0, #368]	@ D.39574, <variable>.pCurrNal
	cmp	r3, #0	@ D.39574,
	cmpne	r1, #0	@, len,
	bne	.L648	@,
.L642:
	mvn	r0, #0	@ D.39580,
.L644:
	ldmfd	sp!, {r4, r5, r6}
	bx	lr
.L648:
	ldrb	r2, [r3, #0]	@ zero_extendqisi2	@ D.39581, <variable>.nal_used_segment
	rsb	ip, r2, r2, asl #3	@, tmp155, D.39581, D.39581,
	add	ip, r3, ip, asl #2	@, tmp157, D.39574, tmp155,
	ldr	ip, [ip, #8]	@ <variable>.streamBuffer, <variable>.streamBuffer
	cmp	ip, #0	@ <variable>.streamBuffer,
	beq	.L642	@,
	ldr	ip, [r3, #68]	@ D.39588, <variable>.nal_segment
	cmp	ip, #2	@ D.39588,
	bhi	.L642	@,
	cmp	r2, #1	@ D.39581,
	bhi	.L642	@,
	cmp	ip, r2	@ D.39588, segment_idx
	bls	.L642	@,
	mov	r4, r1, asl #3	@ len.2346, len,
	mov	r6, #28	@ tmp188,
.L646:
	mla	r3, r6, r2, r3	@ tmp163, tmp188, segment_idx, D.39574
	add	r2, r2, #1	@ segment_idx, segment_idx,
	add	r5, r3, #24	@ tmp164, tmp163,
	ldr	r1, [r3, #12]	@ <variable>.bitstream_length, <variable>.bitstream_length
	ldr	ip, [r3, #24]	@ <variable>.bitsoffset, <variable>.bitsoffset
	mov	r1, r1, asl #3	@ D.39596, <variable>.bitstream_length,
	add	ip, r4, ip	@ D.39594, len.2346, <variable>.bitsoffset
	cmp	ip, r1	@ D.39594, D.39596
	rsb	r4, r1, ip	@ len.2346, D.39596, D.39594
	bls	.L649	@,
	str	r1, [r3, #24]	@ D.39596, <variable>.bitsoffset
	ldr	r3, [r0, #368]	@ temp.2347, <variable>.pCurrNal
	ldrb	r1, [r3, #0]	@ zero_extendqisi2	@ <variable>.nal_used_segment, <variable>.nal_used_segment
	add	ip, r1, #1	@ tmp184, <variable>.nal_used_segment,
	strb	ip, [r3, #0]	@ tmp184, <variable>.nal_used_segment
	ldr	r3, [r0, #368]	@ D.39574, <variable>.pCurrNal
	ldr	r1, [r3, #68]	@ <variable>.nal_segment, <variable>.nal_segment
	cmp	r1, r2	@ <variable>.nal_segment, segment_idx
	bhi	.L646	@,
	mov	r0, #0	@ D.39580,
	b	.L644	@
.L649:
	str	ip, [r5, #0]	@ D.39594, <variable>.bitsoffset
	mov	r0, #1	@ D.39580,
	b	.L644	@
	.fnend
	.size	PassBytes, .-PassBytes
	.align	2
	.global	GetBytes
	.type	GetBytes, %function
GetBytes:
	.fnstart
.LFB1711:
	@ args = 0, pretend = 0, frame = 0
	@ frame_needed = 0, uses_anonymous_args = 0
	@ link register save eliminated.
	cmp	r1, #0	@ pdes
	mov	r3, r0	@ pH264Ctx, pH264Ctx
	stmfd	sp!, {r4, r5, r6, r7, r8, r9, sl}	@,
	.save {r4, r5, r6, r7, r8, r9, sl}
	bne	.L658	@,
.L651:
	mvn	r2, #0	@ len,
.L653:
	mov	r0, r2	@, len
	ldmfd	sp!, {r4, r5, r6, r7, r8, r9, sl}
	bx	lr
.L658:
	ldr	r0, [r0, #368]	@ D.39618, <variable>.pCurrNal
	cmp	r0, #0	@ D.39618,
	cmpne	r2, #0	@, len,
	movgt	ip, #0	@, tmp184
	movle	ip, #1	@, tmp184
	ble	.L651	@,
	ldrb	r4, [r0, #0]	@ zero_extendqisi2	@ D.39623, <variable>.nal_used_segment
	rsb	r5, r4, r4, asl #3	@, tmp188, D.39623, D.39623,
	add	r5, r0, r5, asl #2	@, tmp190, D.39618, tmp188,
	ldr	r5, [r5, #8]	@ <variable>.streamBuffer, <variable>.streamBuffer
	cmp	r5, #0	@ <variable>.streamBuffer,
	beq	.L651	@,
	ldr	r5, [r0, #68]	@ D.39630, <variable>.nal_segment
	cmp	r5, #2	@ D.39630,
	bhi	.L651	@,
	cmp	r4, #1	@ D.39623,
	bhi	.L651	@,
	cmp	r5, r4	@ D.39630, segment_idx
	bls	.L651	@,
	mov	r6, #28	@ tmp234,
.L656:
	mul	r7, r6, r4	@ tmp194, tmp234, segment_idx
	mov	r5, #0	@ ivtmp.2377,
	add	r0, r7, r0	@ tmp196, tmp194, D.39618
	ldr	r9, [r0, #24]	@, <variable>.bitsoffset
	mov	r8, r7	@ tmp233, tmp194
	ldr	sl, [r0, #12]	@ <variable>.bitstream_length, <variable>.bitstream_length
	add	r7, r9, #7	@ tmp203,,
	ldr	r0, [r0, #8]	@ D.39635, <variable>.streamBuffer
	add	sl, r0, sl	@ end_byte, D.39635, <variable>.bitstream_length
	add	r0, r0, r7, lsr #3	@, byte_pos, D.39635, tmp203,
.L652:
	add	r9, r5, r0	@ D.42869, ivtmp.2377, byte_pos
	add	r7, r5, r1	@ D.42867, ivtmp.2377, pdes
	cmp	sl, r9	@ end_byte, D.42869
	bls	.L659	@,
	ldrb	r9, [r0, r5]	@ zero_extendqisi2	@ tmp212,* ivtmp.2377
	add	ip, ip, #1	@ cnt, cnt,
	cmp	ip, r2	@ cnt, len
	strb	r9, [r1, r5]	@ tmp212,* ivtmp.2377
	add	r5, r5, #1	@ ivtmp.2377, ivtmp.2377,
	ldr	r7, [r3, #368]	@ temp.2395, <variable>.pCurrNal
	add	r7, r8, r7	@ tmp217, tmp233, temp.2395
	ldr	r9, [r7, #24]	@ <variable>.bitsoffset, <variable>.bitsoffset
	add	r9, r9, #8	@ tmp225, <variable>.bitsoffset,
	str	r9, [r7, #24]	@ tmp225, <variable>.bitsoffset
	bcc	.L652	@,
	b	.L653	@
.L659:
	ldr	r1, [r3, #368]	@ temp.2397, <variable>.pCurrNal
	add	r4, r4, #1	@ segment_idx, segment_idx,
	ldrb	r0, [r1, #0]	@ zero_extendqisi2	@ <variable>.nal_used_segment, <variable>.nal_used_segment
	add	r0, r0, #1	@ tmp228, <variable>.nal_used_segment,
	strb	r0, [r1, #0]	@ tmp228, <variable>.nal_used_segment
	ldr	r0, [r3, #368]	@ D.39618, <variable>.pCurrNal
	ldr	r1, [r0, #68]	@ <variable>.nal_segment, <variable>.nal_segment
	cmp	r1, r4	@ <variable>.nal_segment, segment_idx
	movhi	r1, r7	@ pdes, D.42867
	bhi	.L656	@
.L655:
	mov	r2, ip	@ len, cnt
	b	.L653	@
	.fnend
	.size	GetBytes, .-GetBytes
	.align	2
	.global	InitOldSlice
	.type	InitOldSlice, %function
InitOldSlice:
	.fnstart
.LFB1715:
	@ args = 0, pretend = 0, frame = 0
	@ frame_needed = 0, uses_anonymous_args = 0
	@ link register save eliminated.
	movw	r1, #13576	@ tmp135,
	movw	r3, #22336	@ tmp134,
	ldr	r2, [r0, r1]	@ <variable>.MaxPpsNum, <variable>.MaxPpsNum
	movw	ip, #22364	@ tmp156,
	movw	r1, #22328	@ tmp139,
	str	r2, [r0, r3]	@ <variable>.MaxPpsNum, <variable>.PrevSlice.pic_parameter_set_id
	mov	r3, #0	@ tmp140,
	str	r3, [r0, ip]	@ tmp140, <variable>.PrevSlice.delta_pic_order_cnt
	movw	ip, #22344	@ tmp137,
	movw	r2, #:lower16:88888	@ tmp160,
	movt	r2, #:upper16:88888	@ tmp160,
	str	r2, [r0, ip]	@ tmp160, <variable>.PrevSlice.frame_num
	movw	r2, #22329	@ tmp142,
	movw	ip, #22340	@ tmp145,
	strb	r3, [r0, r1]	@ tmp140, <variable>.PrevSlice.field_pic_flag
	mov	r1, #2	@ tmp143,
	strb	r1, [r0, r2]	@ tmp143, <variable>.PrevSlice.bottom_field_flag
	movw	r2, #22330	@ tmp147,
	mov	r1, #7	@ tmp146,
	str	r1, [r0, ip]	@ tmp146, <variable>.PrevSlice.nal_ref_idc
	mov	ip, #32	@ tmp148,
	movw	r1, #22352	@ tmp150,
	strb	ip, [r0, r2]	@ tmp148, <variable>.PrevSlice.nal_unit_type
	movw	r2, #22356	@ tmp152,
	mov	ip, #3	@ tmp151,
	str	ip, [r0, r1]	@ tmp151, <variable>.PrevSlice.pic_oder_cnt_lsb
	mvn	r1, #0	@ tmp153,
	movw	ip, #22368	@ tmp158,
	str	r1, [r0, r2]	@ tmp153, <variable>.PrevSlice.delta_pic_oder_cnt_bottom
	movw	r2, #22360	@ tmp154,
	mov	r1, #262144	@ tmp159,
	str	r3, [r0, r2]	@ tmp140, <variable>.PrevSlice.delta_pic_order_cnt
	str	r1, [r0, ip]	@ tmp159, <variable>.PrevSlice.first_mb_in_slice
	bx	lr	@
	.fnend
	.size	InitOldSlice, .-InitOldSlice
	.align	2
	.global	FindNaluArraySlot
	.type	FindNaluArraySlot, %function
FindNaluArraySlot:
	.fnstart
.LFB1722:
	@ args = 0, pretend = 0, frame = 0
	@ frame_needed = 0, uses_anonymous_args = 0
	@ link register save eliminated.
	ldrb	r2, [r0, #377]	@ zero_extendqisi2	@ <variable>.is_valid, <variable>.is_valid
	mov	r3, #0	@ Pos,
	cmp	r2, r3	@ <variable>.is_valid,
	addne	r2, r0, #96	@ ivtmp.2455, pH264Ctx,
	movne	r3, #1	@ Pos,
	bne	.L664	@,
	b	.L663	@
.L673:
	ldrb	ip, [r2, #473]	@ zero_extendqisi2	@ <variable>.is_valid, <variable>.is_valid
	add	r3, r3, #1	@ Pos, Pos,
	add	r2, r2, #192	@ ivtmp.2455, ivtmp.2455,
	cmp	ip, #0	@ <variable>.is_valid,
	beq	.L663	@,
	add	r3, r3, #1	@ Pos, Pos,
	cmp	r3, #137	@ Pos,
	beq	.L665	@,
.L664:
	ldrb	r1, [r2, #377]	@ zero_extendqisi2	@ <variable>.is_valid, <variable>.is_valid
	cmp	r1, #0	@ <variable>.is_valid,
	bne	.L673	@,
.L663:
	cmp	r3, #136	@ Pos,
	bhi	.L665	@,
	add	r1, r3, r3, asl #1	@, tmp155, Pos, Pos,
	mov	r2, #1	@ tmp159,
	add	r0, r0, r1, asl #5	@, tmp157, pH264Ctx, tmp155,
	strb	r2, [r0, #377]	@ tmp159, <variable>.is_valid
	mov	r0, r3	@, D.40548
	bx	lr	@
.L665:
	mvn	r3, #0	@ D.40548,
	mov	r0, r3	@, D.40548
	bx	lr	@
	.fnend
	.size	FindNaluArraySlot, .-FindNaluArraySlot
	.align	2
	.global	HaveSliceToDec
	.type	HaveSliceToDec, %function
HaveSliceToDec:
	.fnstart
.LFB1724:
	@ args = 0, pretend = 0, frame = 0
	@ frame_needed = 0, uses_anonymous_args = 0
	@ link register save eliminated.
	movw	r1, #52764	@ tmp136,
	ldr	r3, [r0, r1]	@ <variable>.SliceParaNum, <variable>.SliceParaNum
	cmp	r3, #0	@ <variable>.SliceParaNum,
	mvneq	r0, #0	@,,
	movne	r0, #0	@,,
	bx	lr	@
	.fnend
	.size	HaveSliceToDec, .-HaveSliceToDec
	.global	__aeabi_idiv
	.align	2
	.global	H264GetDar
	.type	H264GetDar, %function
H264GetDar:
	.fnstart
.LFB1707:
	@ args = 4, pretend = 0, frame = 0
	@ frame_needed = 0, uses_anonymous_args = 0
	cmp	r0, #0	@ ar_idc
	mov	ip, r1	@ sar_width, sar_width
	stmfd	sp!, {r3, r4, r5, lr}	@,
	.save {r3, r4, r5, lr}
	mov	r4, r3	@ img_width, img_width
	beq	.L679	@,
	subs	r3, r0, #255	@ D.39061, ar_idc,
	movne	r3, #1	@ D.39061
	cmp	r0, #255	@ ar_idc,
	cmpne	r0, #16	@, ar_idc,
	bgt	.L679	@,
	cmp	r1, #0	@ sar_width,
	cmpne	r2, #0	@, sar_height,
	beq	.L696	@,
.L680:
	cmp	r0, #1	@ ar_idc,
	moveq	r4, #5	@ final_dar,
	moveq	r2, #0	@ dar,
	beq	.L682	@,
	cmp	r3, #0	@ D.39061,
	movwne	r3, #:lower16:.LANCHOR0	@ tmp162,
	movtne	r3, #:upper16:.LANCHOR0	@ tmp162,
	addne	r2, r3, r0, asl #3	@, tmp165, tmp162, ar_idc,
	ldrne	ip, [r3, r0, asl #3]	@ sar_width, SarTable
	ldrne	r2, [r2, #4]	@ sar_height, SarTable
	mov	r0, ip, asl #10	@, sar_width,
	mov	r1, r2	@, sar_height
	bl	__aeabi_idiv	@
	ldr	r1, [sp, #16]	@, img_height
	mov	r5, r0	@ tmp170,
	mov	r0, r4, asl #10	@, img_width,
	bl	__aeabi_idiv	@
	mul	r5, r0, r5	@ tmp176,, tmp170
	add	r1, r5, #1020	@ tmp178, tmp176,
	cmp	r5, #0	@ tmp176,
	add	r2, r1, #3	@ tmp178, tmp178,
	movlt	r5, r2	@ tmp177, tmp178
	mov	r2, r5, asr #10	@ dar, tmp177,
	sub	ip, r2, #2400	@ iftmp.724, dar,
	sub	r3, r2, #2256	@ iftmp.2506, dar,
	sub	r1, ip, #6	@ iftmp.724, iftmp.724,
	sub	r3, r3, #7	@ iftmp.2506, iftmp.2506,
	cmp	r1, #0	@ iftmp.724,
	rsblt	r1, r2, #2400	@ tmp182, dar,
	addlt	r1, r1, #6	@ iftmp.724, tmp182,
	cmp	r3, #0	@ iftmp.2506,
	rsblt	r0, r2, #2256	@ tmp184, dar,
	addlt	r0, r0, #7	@ iftmp.725, tmp184,
	movge	r0, r3	@ iftmp.725, iftmp.2506
	cmp	r1, r0	@ iftmp.724, iftmp.725
	movlt	r4, #4	@ final_dar,
	blt	.L682	@,
	cmp	r3, #0	@ iftmp.2506,
	sub	lr, r2, #1808	@ iftmp.727, dar,
	rsblt	r3, r2, #2256	@ tmp185, dar,
	sub	r1, lr, #12	@ iftmp.727, iftmp.727,
	addlt	r3, r3, #7	@ iftmp.2506, tmp185,
	cmp	r1, #0	@ iftmp.727,
	rsblt	r0, r2, #1808	@ tmp187, dar,
	addlt	r0, r0, #12	@ iftmp.2507, tmp187,
	movge	r0, r1	@ iftmp.2507, iftmp.727
	cmp	r3, r0	@ iftmp.2506, iftmp.2507
	movlt	r4, #3	@ final_dar,
	blt	.L682	@,
	cmp	r1, #0	@ iftmp.727,
	sub	r4, r2, #1360	@ iftmp.729, dar,
	sub	r4, r4, #5	@ iftmp.729, iftmp.729,
	rsblt	r1, r2, #1808	@ tmp188, dar,
	addlt	r1, r1, #12	@ iftmp.727, tmp188,
	cmp	r4, #0	@ iftmp.729,
	rsblt	r4, r2, #1360	@ tmp190, dar,
	addlt	r4, r4, #5	@ iftmp.729, tmp190,
	cmp	r1, r4	@ iftmp.727, iftmp.729
	movlt	r4, #2	@ final_dar,
	movge	r4, #1	@ final_dar,
	b	.L682	@
.L696:
	cmp	r0, #255	@ ar_idc,
	bne	.L680	@,
.L679:
	mov	r4, #0	@ final_dar,
	mov	r2, r4	@ dar, final_dar
.L682:
	mov	r3, r4	@, final_dar
	mov	r0, #22	@,
	movw	r1, #:lower16:.LC0	@,
	movt	r1, #:upper16:.LC0	@,
	bl	dprint_vfmw	@
	mov	r0, r4	@, final_dar
	ldmfd	sp!, {r3, r4, r5, pc}	@
	.fnend
	.size	H264GetDar, .-H264GetDar
	.align	2
	.global	SPSEqual
	.type	SPSEqual, %function
SPSEqual:
	.fnstart
.LFB1706:
	@ args = 0, pretend = 0, frame = 8
	@ frame_needed = 0, uses_anonymous_args = 0
	subs	r3, r0, #0	@ pSPS1, pSPS1
	stmfd	sp!, {r4, r5, r6, r7, r8, r9, sl, fp, lr}	@,
	.save {r4, r5, r6, r7, r8, r9, sl, fp, lr}
	.pad #12
	sub	sp, sp, #12	@,,
	beq	.L729	@,
	cmp	r1, #0	@ pSPS2,
	beq	.L730	@,
	ldr	r6, [r3, #736]	@ <variable>.profile_idc, <variable>.profile_idc
	ldr	r4, [r1, #736]	@ <variable>.profile_idc, <variable>.profile_idc
	ldrb	r7, [r3, #0]	@ zero_extendqisi2	@ <variable>.constrained_set0_flag, <variable>.constrained_set0_flag
	ldrb	r2, [r1, #0]	@ zero_extendqisi2	@ <variable>.constrained_set0_flag, <variable>.constrained_set0_flag
	ldrb	r5, [r3, #1]	@ zero_extendqisi2	@ <variable>.constrained_set1_flag, <variable>.constrained_set1_flag
	cmp	r6, r4	@ <variable>.profile_idc, <variable>.profile_idc
	cmpeq	r7, r2	@, <variable>.constrained_set0_flag, <variable>.constrained_set0_flag
	ldrb	r0, [r1, #1]	@ zero_extendqisi2	@ <variable>.constrained_set1_flag, <variable>.constrained_set1_flag
	ldrb	r4, [r3, #2]	@ zero_extendqisi2	@ <variable>.constrained_set2_flag, <variable>.constrained_set2_flag
	ldrb	r7, [r1, #2]	@ zero_extendqisi2	@ <variable>.constrained_set2_flag, <variable>.constrained_set2_flag
	movne	ip, #0	@, equal.2605
	moveq	ip, #1	@, equal.2605
	ldr	r6, [r1, #740]	@ <variable>.level_idc, <variable>.level_idc
	cmp	r5, r0	@ <variable>.constrained_set1_flag, <variable>.constrained_set1_flag
	movne	r0, #0	@, equal.2606
	andeq	r0, ip, #1	@,, equal.2606, equal.2605
	ldr	r5, [r3, #740]	@ <variable>.level_idc, <variable>.level_idc
	cmp	r4, r7	@ <variable>.constrained_set2_flag, <variable>.constrained_set2_flag
	movne	r2, #0	@, equal.2607
	andeq	r2, r0, #1	@,, equal.2607, equal.2606
	ldr	r4, [r3, #744]	@ <variable>.seq_parameter_set_id, <variable>.seq_parameter_set_id
	ldr	r7, [r1, #744]	@ <variable>.seq_parameter_set_id, <variable>.seq_parameter_set_id
	cmp	r5, r6	@ <variable>.level_idc, <variable>.level_idc
	movne	ip, #0	@, equal.2608
	andeq	ip, r2, #1	@,, equal.2608, equal.2607
	ldrb	r2, [r3, #25]	@ zero_extendqisi2	@ D.38953, <variable>.seq_scaling_matrix_present_flag
	ldrb	r6, [r1, #25]	@ zero_extendqisi2	@ <variable>.seq_scaling_matrix_present_flag, <variable>.seq_scaling_matrix_present_flag
	cmp	r4, r7	@ <variable>.seq_parameter_set_id, <variable>.seq_parameter_set_id
	movne	r0, #0	@, equal.2609
	andeq	r0, ip, #1	@,, equal.2609, equal.2608
	cmp	r6, r2	@ <variable>.seq_scaling_matrix_present_flag, D.38953
	movne	r6, #0	@, equal
	andeq	r6, r0, #1	@,, equal, equal.2609
	cmp	r2, #0	@ D.38953,
	beq	.L701	@,
	mov	r9, r3	@ ivtmp.2568, pSPS1
	mov	fp, r1	@ ivtmp.2570, pSPS2
	mov	r8, #0	@ i,
	str	r3, [sp, #0]	@ pSPS1, %sfp
	mov	sl, r1	@ pSPS2, pSPS2
	b	.L705	@
.L732:
	mov	r3, r8, asl #6	@ tmp291, i,
	ldr	r7, [r9, #768]	@ tmp235, <variable>.ScalingList4x4
	ldr	ip, [fp, #768]	@ tmp236, <variable>.ScalingList4x4
	add	r2, r3, sl	@, tmp291, pSPS2
	str	r2, [sp, #4]	@, %sfp
	add	r3, r3, r1	@ tmp292, tmp291,
	ldr	r0, [r9, #764]	@ tmp239, <variable>.ScalingList4x4
	ldr	r1, [fp, #764]	@ tmp240, <variable>.ScalingList4x4
	ldr	r5, [fp, #772]	@ tmp244, <variable>.ScalingList4x4
	cmp	r7, ip	@ tmp235, tmp236
	cmpeq	r0, r1	@, tmp239, tmp240
	ldr	r2, [r9, #772]	@ tmp243, <variable>.ScalingList4x4
	ldr	ip, [r9, #776]	@ tmp247, <variable>.ScalingList4x4
	ldr	r7, [fp, #776]	@ tmp248, <variable>.ScalingList4x4
	movne	r4, #0	@, equal.2626
	moveq	r4, #1	@, equal.2626
	ldr	r1, [fp, #780]	@ tmp252, <variable>.ScalingList4x4
	cmp	r2, r5	@ tmp243, tmp244
	movne	r2, #0	@, equal.2630
	andeq	r2, r4, #1	@,, equal.2630, equal.2626
	ldr	r4, [r9, #780]	@ tmp251, <variable>.ScalingList4x4
	cmp	ip, r7	@ tmp247, tmp248
	movne	r0, #0	@, equal.2634
	andeq	r0, r2, #1	@,, equal.2634, equal.2630
	ldr	r5, [r9, #784]	@ tmp255, <variable>.ScalingList4x4
	ldr	r2, [fp, #784]	@ tmp256, <variable>.ScalingList4x4
	cmp	r4, r1	@ tmp251, tmp252
	movne	ip, #0	@, equal.2638
	andeq	ip, r0, #1	@,, equal.2638, equal.2634
	ldr	r7, [r9, #788]	@ tmp259, <variable>.ScalingList4x4
	ldr	r1, [fp, #788]	@ tmp260, <variable>.ScalingList4x4
	cmp	r5, r2	@ tmp255, tmp256
	movne	r4, #0	@, equal.2642
	andeq	r4, ip, #1	@,, equal.2642, equal.2638
	ldr	r5, [r9, #792]	@ tmp263, <variable>.ScalingList4x4
	ldr	r2, [fp, #792]	@ tmp264, <variable>.ScalingList4x4
	cmp	r7, r1	@ tmp259, tmp260
	movne	r0, #0	@, equal.2646
	andeq	r0, r4, #1	@,, equal.2646, equal.2642
	ldr	r7, [r9, #796]	@ tmp267, <variable>.ScalingList4x4
	ldr	r1, [fp, #796]	@ tmp268, <variable>.ScalingList4x4
	cmp	r5, r2	@ tmp263, tmp264
	movne	ip, #0	@, equal.2650
	andeq	ip, r0, #1	@,, equal.2650, equal.2646
	ldr	r5, [r9, #800]	@ tmp271, <variable>.ScalingList4x4
	ldr	r2, [fp, #800]	@ tmp272, <variable>.ScalingList4x4
	cmp	r7, r1	@ tmp267, tmp268
	movne	r4, #0	@, equal.2654
	andeq	r4, ip, #1	@,, equal.2654, equal.2650
	ldr	r7, [r9, #804]	@ tmp275, <variable>.ScalingList4x4
	ldr	r1, [fp, #804]	@ tmp276, <variable>.ScalingList4x4
	cmp	r5, r2	@ tmp271, tmp272
	movne	r0, #0	@, equal.2658
	andeq	r0, r4, #1	@,, equal.2658, equal.2654
	ldr	r5, [r9, #808]	@ tmp279, <variable>.ScalingList4x4
	ldr	r2, [fp, #808]	@ tmp280, <variable>.ScalingList4x4
	cmp	r7, r1	@ tmp275, tmp276
	movne	ip, #0	@, equal.2662
	andeq	ip, r0, #1	@,, equal.2662, equal.2658
	ldr	r0, [r9, #812]	@ tmp283, <variable>.ScalingList4x4
	cmp	r5, r2	@ tmp279, tmp280
	movne	r4, #0	@, equal.2666
	andeq	r4, ip, #1	@,, equal.2666, equal.2662
	ldr	r7, [fp, #812]	@ tmp284, <variable>.ScalingList4x4
	ldr	r5, [sp, #4]	@, %sfp
	ldr	r2, [fp, #816]	@ tmp288, <variable>.ScalingList4x4
	cmp	r0, r7	@ tmp283, tmp284
	movne	r1, #0	@, equal.2670
	andeq	r1, r4, #1	@,, equal.2670, equal.2666
	ldr	ip, [r9, #816]	@ tmp287, <variable>.ScalingList4x4
	ldr	r0, [r3, #760]	@ tmp299, <variable>.ScalingList4x4
	ldr	r4, [r5, #760]	@ tmp300, <variable>.ScalingList4x4
	cmp	ip, r2	@ tmp287, tmp288
	movne	r3, #0	@, equal.2674
	andeq	r3, r1, #1	@,, equal.2674, equal.2670
	and	r6, r6, r3	@ equal.2678, equal, equal.2674
	ldr	r1, [r9, #820]	@ tmp303, <variable>.ScalingList4x4
	ldr	r2, [fp, #820]	@ tmp304, <variable>.ScalingList4x4
	cmp	r0, r4	@ tmp299, tmp300
	movne	r7, #0	@, equal.2682
	andeq	r7, r6, #1	@,, equal.2682, equal.2678
	cmp	r1, r2	@ tmp303, tmp304
	movne	r6, #0	@, equal
	andeq	r6, r7, #1	@,, equal, equal.2682
.L702:
	add	r8, r8, #1	@ i, i,
	add	r9, r9, #64	@ ivtmp.2568, ivtmp.2568,
	cmp	r8, #8	@ i,
	add	fp, fp, #64	@ ivtmp.2570, ivtmp.2570,
	beq	.L731	@,
.L705:
	ldr	r1, [sp, #0]	@, %sfp
	add	r5, sl, r8	@ tmp229, pSPS2, i
	add	ip, r1, r8	@ tmp228,, i
	ldrb	r0, [r5, #4]	@ zero_extendqisi2	@ D.38959, <variable>.seq_scaling_list_present_flag
	ldrb	r3, [ip, #4]	@ zero_extendqisi2	@ D.38959, <variable>.seq_scaling_list_present_flag
	cmp	r3, r0	@ D.38959, D.38959
	movne	r6, #0	@, equal
	andeq	r6, r6, #1	@,, equal, equal
	cmp	r3, #0	@ D.38959,
	beq	.L702	@,
	cmp	r8, #5	@ i,
	bls	.L732	@,
	mov	r4, r8, asl #8	@ tmp306, i,
	ldr	r0, [sp, #0]	@, %sfp
	ldr	r7, [sp, #0]	@, %sfp
	sub	r1, r4, #392	@ tmp307, tmp306,
	add	r2, r0, r1	@ ivtmp.2552,, tmp307
	add	r3, sl, r1	@ ivtmp.2555, pSPS2, tmp307
	ldr	r5, [sl, r1]	@ tmp314, <variable>.ScalingList8x8
	add	r0, r2, #8	@ ivtmp.2552, ivtmp.2552,
	ldr	r4, [r7, r1]	@ tmp313, <variable>.ScalingList8x8
	add	r1, r3, #8	@ ivtmp.2555, ivtmp.2555,
	ldr	r7, [r2, #4]	@ tmp442, <variable>.ScalingList8x8
	mov	ip, #2	@ j,
	ldr	r3, [r3, #4]	@ tmp443, <variable>.ScalingList8x8
	cmp	r4, r5	@ tmp313, tmp314
	movne	r6, #0	@, equal
	andeq	r6, r6, #1	@,, equal, equal
	cmp	r7, r3	@ tmp442, tmp443
	movne	r6, #0	@, equal
	andeq	r6, r6, #1	@,, equal, equal
.L704:
	mov	r2, r0	@ tmp409, ivtmp.2552
	mov	r3, r1	@ tmp410, ivtmp.2555
	ldr	r7, [r2], #4	@ tmp414, <variable>.ScalingList8x8
	add	ip, ip, #2	@ j, j,
	ldr	r5, [r3], #4	@ tmp415, <variable>.ScalingList8x8
	ldr	r4, [r0, #4]	@ tmp421, <variable>.ScalingList8x8
	add	r0, r2, #4	@ ivtmp.2552, tmp409,
	ldr	r2, [r1, #4]	@ tmp422, <variable>.ScalingList8x8
	cmp	r7, r5	@ tmp414, tmp415
	movne	r6, #0	@, equal
	andeq	r6, r6, #1	@,, equal, equal
	add	r1, r3, #4	@ ivtmp.2555, tmp410,
	cmp	r4, r2	@ tmp421, tmp422
	movne	r6, #0	@, equal
	andeq	r6, r6, #1	@,, equal, equal
	cmp	ip, #64	@ j,
	bne	.L704	@,
	add	r8, r8, #1	@ i, i,
	add	r9, r9, #64	@ ivtmp.2568, ivtmp.2568,
	cmp	r8, #8	@ i,
	add	fp, fp, #64	@ ivtmp.2570, ivtmp.2570,
	bne	.L705	@,
.L731:
	ldr	r3, [sp, #0]	@ pSPS1, %sfp
	mov	r1, sl	@ pSPS2, pSPS2
.L701:
	ldr	r2, [r3, #2908]	@ D.38978, <variable>.pic_order_cnt_type
	ldr	r4, [r1, #2908]	@ <variable>.pic_order_cnt_type, <variable>.pic_order_cnt_type
	ldr	r0, [r3, #2904]	@ <variable>.log2_max_frame_num_minus4, <variable>.log2_max_frame_num_minus4
	ldr	r5, [r1, #2904]	@ <variable>.log2_max_frame_num_minus4, <variable>.log2_max_frame_num_minus4
	cmp	r2, r4	@ D.38978, <variable>.pic_order_cnt_type
	cmpeq	r0, r5	@, <variable>.log2_max_frame_num_minus4, <variable>.log2_max_frame_num_minus4
	movne	ip, #0	@, equal.2610
	moveq	ip, #1	@, equal.2610
	cmp	r2, #0	@ D.38978,
	and	r6, ip, r6	@ equal.2600, equal.2610, equal
	bne	.L733	@,
	ldr	r7, [r3, #2912]	@ <variable>.log2_max_pic_order_cnt_lsb_minus4, <variable>.log2_max_pic_order_cnt_lsb_minus4
	ldr	r2, [r1, #2912]	@ <variable>.log2_max_pic_order_cnt_lsb_minus4, <variable>.log2_max_pic_order_cnt_lsb_minus4
	cmp	r7, r2	@ <variable>.log2_max_pic_order_cnt_lsb_minus4, <variable>.log2_max_pic_order_cnt_lsb_minus4
	movne	r6, #0	@, equal.2600
	andeq	r6, r6, #1	@,, equal.2600, equal.2600
.L706:
	ldrb	r2, [r1, #17]	@ zero_extendqisi2	@ <variable>.gaps_in_frame_num_value_allowed_flag, <variable>.gaps_in_frame_num_value_allowed_flag
	ldr	r5, [r3, #3952]	@ <variable>.num_ref_frames, <variable>.num_ref_frames
	ldr	r0, [r1, #3952]	@ <variable>.num_ref_frames, <variable>.num_ref_frames
	ldrb	r7, [r3, #17]	@ zero_extendqisi2	@ <variable>.gaps_in_frame_num_value_allowed_flag, <variable>.gaps_in_frame_num_value_allowed_flag
	ldr	ip, [r1, #3956]	@ <variable>.pic_width_in_mbs_minus1, <variable>.pic_width_in_mbs_minus1
	cmp	r7, r2	@ <variable>.gaps_in_frame_num_value_allowed_flag, <variable>.gaps_in_frame_num_value_allowed_flag
	cmpeq	r5, r0	@, <variable>.num_ref_frames, <variable>.num_ref_frames
	ldr	r4, [r3, #3956]	@ <variable>.pic_width_in_mbs_minus1, <variable>.pic_width_in_mbs_minus1
	ldr	r5, [r3, #3960]	@ <variable>.pic_height_in_map_units_minus1, <variable>.pic_height_in_map_units_minus1
	ldr	r0, [r1, #3960]	@ <variable>.pic_height_in_map_units_minus1, <variable>.pic_height_in_map_units_minus1
	movne	r2, #0	@, equal.2614
	moveq	r2, #1	@, equal.2614
	cmp	r4, ip	@ <variable>.pic_width_in_mbs_minus1, <variable>.pic_width_in_mbs_minus1
	movne	r4, #0	@, equal.2615
	andeq	r4, r2, #1	@,, equal.2615, equal.2614
	ldrb	r2, [r3, #18]	@ zero_extendqisi2	@ D.39011, <variable>.frame_mbs_only_flag
	ldrb	ip, [r1, #18]	@ zero_extendqisi2	@ <variable>.frame_mbs_only_flag, <variable>.frame_mbs_only_flag
	cmp	r5, r0	@ <variable>.pic_height_in_map_units_minus1, <variable>.pic_height_in_map_units_minus1
	movne	r0, #0	@, equal.2616
	andeq	r0, r4, #1	@,, equal.2616, equal.2615
	cmp	ip, r2	@ <variable>.frame_mbs_only_flag, D.39011
	movne	r0, #0	@, equal.2617
	andeq	r0, r0, #1	@,, equal.2617, equal.2616
	cmp	r2, #0	@ D.39011,
	and	r6, r0, r6	@ equal.2601, equal.2617, equal.2600
	bne	.L710	@,
	ldrb	r4, [r3, #19]	@ zero_extendqisi2	@ <variable>.mb_adaptive_frame_field_flag, <variable>.mb_adaptive_frame_field_flag
	ldrb	ip, [r1, #19]	@ zero_extendqisi2	@ <variable>.mb_adaptive_frame_field_flag, <variable>.mb_adaptive_frame_field_flag
	cmp	r4, ip	@ <variable>.mb_adaptive_frame_field_flag, <variable>.mb_adaptive_frame_field_flag
	movne	r6, #0	@, equal.2601
	andeq	r6, r6, #1	@,, equal.2601, equal.2601
.L710:
	ldrb	r2, [r3, #21]	@ zero_extendqisi2	@ D.39022, <variable>.frame_cropping_flag
	ldrb	r0, [r3, #20]	@ zero_extendqisi2	@ <variable>.direct_8x8_inference_flag, <variable>.direct_8x8_inference_flag
	ldrb	r4, [r1, #21]	@ zero_extendqisi2	@ <variable>.frame_cropping_flag, <variable>.frame_cropping_flag
	ldrb	ip, [r1, #20]	@ zero_extendqisi2	@ <variable>.direct_8x8_inference_flag, <variable>.direct_8x8_inference_flag
	cmp	r4, r2	@ <variable>.frame_cropping_flag, D.39022
	cmpeq	r0, ip	@, <variable>.direct_8x8_inference_flag, <variable>.direct_8x8_inference_flag
	movne	r0, #0	@, equal.2618
	moveq	r0, #1	@, equal.2618
	cmp	r2, #0	@ D.39022,
	and	r2, r0, r6	@ equal.2602, equal.2618, equal.2601
	beq	.L711	@,
	ldr	r5, [r1, #3968]	@ <variable>.frame_crop_right_offset, <variable>.frame_crop_right_offset
	ldr	r4, [r3, #3964]	@ <variable>.frame_crop_left_offset, <variable>.frame_crop_left_offset
	ldr	r0, [r1, #3964]	@ <variable>.frame_crop_left_offset, <variable>.frame_crop_left_offset
	ldr	r7, [r3, #3968]	@ <variable>.frame_crop_right_offset, <variable>.frame_crop_right_offset
	ldr	r6, [r3, #3972]	@ <variable>.frame_crop_top_offset, <variable>.frame_crop_top_offset
	cmp	r7, r5	@ <variable>.frame_crop_right_offset, <variable>.frame_crop_right_offset
	cmpeq	r4, r0	@, <variable>.frame_crop_left_offset, <variable>.frame_crop_left_offset
	ldr	ip, [r1, #3972]	@ <variable>.frame_crop_top_offset, <variable>.frame_crop_top_offset
	ldr	r4, [r3, #3976]	@ <variable>.frame_crop_bottom_offset, <variable>.frame_crop_bottom_offset
	ldr	r0, [r1, #3976]	@ <variable>.frame_crop_bottom_offset, <variable>.frame_crop_bottom_offset
	movne	r5, #0	@, equal.2619
	moveq	r5, #1	@, equal.2619
	cmp	r6, ip	@ <variable>.frame_crop_top_offset, <variable>.frame_crop_top_offset
	movne	ip, #0	@, equal.2620
	andeq	ip, r5, #1	@,, equal.2620, equal.2619
	cmp	r4, r0	@ <variable>.frame_crop_bottom_offset, <variable>.frame_crop_bottom_offset
	movne	r0, #0	@, equal.2621
	andeq	r0, ip, #1	@,, equal.2621, equal.2620
	and	r2, r2, r0	@ equal.2602, equal.2602, equal.2621
.L711:
	ldrb	ip, [r3, #22]	@ zero_extendqisi2	@ <variable>.vui_parameters_present_flag, <variable>.vui_parameters_present_flag
	ldrb	r3, [r1, #22]	@ zero_extendqisi2	@ <variable>.vui_parameters_present_flag, <variable>.vui_parameters_present_flag
	cmp	ip, r3	@ <variable>.vui_parameters_present_flag, <variable>.vui_parameters_present_flag
	movne	r2, #0	@, tmp398
	andeq	r2, r2, #1	@,, tmp398, equal.2602
	cmp	r2, #0	@ tmp398,
	movne	r0, #0	@, ret,
	mvneq	r0, #0	@, ret,
.L699:
	add	sp, sp, #12	@,,
	ldmfd	sp!, {r4, r5, r6, r7, r8, r9, sl, fp, pc}
.L733:
	cmp	r2, #1	@ D.38978,
	bne	.L706	@,
	ldr	r0, [r1, #2916]	@ <variable>.offset_for_non_ref_pic, <variable>.offset_for_non_ref_pic
	ldrb	r5, [r3, #16]	@ zero_extendqisi2	@ <variable>.delta_pic_order_always_zero_flag, <variable>.delta_pic_order_always_zero_flag
	ldrb	r8, [r1, #16]	@ zero_extendqisi2	@ <variable>.delta_pic_order_always_zero_flag, <variable>.delta_pic_order_always_zero_flag
	ldr	r7, [r3, #2916]	@ <variable>.offset_for_non_ref_pic, <variable>.offset_for_non_ref_pic
	ldr	r4, [r3, #2920]	@ <variable>.offset_for_top_to_bottom_field, <variable>.offset_for_top_to_bottom_field
	cmp	r7, r0	@ <variable>.offset_for_non_ref_pic, <variable>.offset_for_non_ref_pic
	cmpeq	r5, r8	@, <variable>.delta_pic_order_always_zero_flag, <variable>.delta_pic_order_always_zero_flag
	ldr	r2, [r1, #2920]	@ <variable>.offset_for_top_to_bottom_field, <variable>.offset_for_top_to_bottom_field
	ldr	r8, [r3, #2924]	@ D.38993, <variable>.num_ref_frames_in_pic_order_cnt_cycle
	ldr	r0, [r1, #2924]	@ <variable>.num_ref_frames_in_pic_order_cnt_cycle, <variable>.num_ref_frames_in_pic_order_cnt_cycle
	movne	ip, #0	@, equal.2611
	moveq	ip, #1	@, equal.2611
	cmp	r4, r2	@ <variable>.offset_for_top_to_bottom_field, <variable>.offset_for_top_to_bottom_field
	movne	r5, #0	@, equal.2612
	andeq	r5, ip, #1	@,, equal.2612, equal.2611
	cmp	r8, r0	@ D.38993, <variable>.num_ref_frames_in_pic_order_cnt_cycle
	movne	r5, #0	@, equal.2613
	andeq	r5, r5, #1	@,, equal.2613, equal.2612
	cmp	r8, #0	@ D.38993,
	and	r6, r6, r5	@ equal.2600, equal.2600, equal.2613
	beq	.L706	@,
	ldr	r4, [r3, #2928]	@ tmp345, <variable>.offset_for_ref_frame
	mov	r8, r8, asl #2	@ D.43029, D.38993,
	ldr	ip, [r1, #2928]	@ tmp346, <variable>.offset_for_ref_frame
	mov	r2, #4	@ ivtmp.2543,
	sub	r5, r8, #4	@ tmp403, D.43029,
	cmp	r4, ip	@ tmp345, tmp346
	movne	r6, #0	@, equal.2600
	andeq	r6, r6, #1	@,, equal.2600, equal.2600
	cmp	r2, r8	@ ivtmp.2543, D.43029
	ubfx	r0, r5, #2, #1	@ tmp404, tmp403,,
	beq	.L706	@,
	cmp	r0, #0	@ tmp404,
	beq	.L709	@,
	ldr	r0, [r3, #2932]	@ tmp439, <variable>.offset_for_ref_frame
	mov	r2, #8	@ ivtmp.2543,
	ldr	r7, [r1, #2932]	@ tmp440, <variable>.offset_for_ref_frame
	cmp	r0, r7	@ tmp439, tmp440
	movne	r6, #0	@, equal.2600
	andeq	r6, r6, #1	@,, equal.2600, equal.2600
	cmp	r2, r8	@ ivtmp.2543, D.43029
	beq	.L706	@,
.L709:
	add	r0, r2, #4	@ tmp405, ivtmp.2543,
	add	r4, r3, r2	@ tmp425, pSPS1, ivtmp.2543
	add	r2, r1, r2	@ tmp426, pSPS2, ivtmp.2543
	add	ip, r3, r0	@ tmp432, pSPS1, tmp405
	add	r7, r1, r0	@ tmp433, pSPS2, tmp405
	ldr	r5, [r4, #2928]	@ tmp427, <variable>.offset_for_ref_frame
	ldr	r4, [r2, #2928]	@ tmp428, <variable>.offset_for_ref_frame
	add	r2, r0, #4	@ ivtmp.2543, tmp405,
	ldr	ip, [ip, #2928]	@ tmp434, <variable>.offset_for_ref_frame
	ldr	r0, [r7, #2928]	@ tmp435, <variable>.offset_for_ref_frame
	cmp	r5, r4	@ tmp427, tmp428
	movne	r6, #0	@, equal.2600
	andeq	r6, r6, #1	@,, equal.2600, equal.2600
	cmp	ip, r0	@ tmp434, tmp435
	movne	r6, #0	@, equal.2600
	andeq	r6, r6, #1	@,, equal.2600, equal.2600
	cmp	r2, r8	@ ivtmp.2543, D.43029
	bne	.L709	@,
	b	.L706	@
.L730:
	mov	r0, r1	@, pSPS2
	movw	r2, #:lower16:.LC2	@,
	movw	r1, #:lower16:.LC1	@,
	movt	r2, #:upper16:.LC2	@,
	movt	r1, #:upper16:.LC1	@,
	movw	r3, #9506	@,
	bl	dprint_vfmw	@
	mvn	r0, #0	@ ret,
	b	.L699	@
.L729:
	movw	r1, #:lower16:.LC1	@,
	movw	r2, #:lower16:.LC2	@,
	movt	r1, #:upper16:.LC1	@,
	movt	r2, #:upper16:.LC2	@,
	movw	r3, #9505	@,
	bl	dprint_vfmw	@
	mvn	r0, #0	@ ret,
	b	.L699	@
	.fnend
	.size	SPSEqual, .-SPSEqual
	.align	2
	.global	PPSEqual
	.type	PPSEqual, %function
PPSEqual:
	.fnstart
.LFB1704:
	@ args = 0, pretend = 0, frame = 8
	@ frame_needed = 0, uses_anonymous_args = 0
	stmfd	sp!, {r4, r5, r6, r7, r8, r9, sl, fp, lr}	@,
	.save {r4, r5, r6, r7, r8, r9, sl, fp, lr}
	subs	fp, r0, #0	@ pPPS1, pPPS1
	.pad #12
	sub	sp, sp, #12	@,,
	beq	.L755	@,
	cmp	r1, #0	@ pPPS2,
	beq	.L756	@,
	ldr	r5, [fp, #24]	@ <variable>.pic_parameter_set_id, <variable>.pic_parameter_set_id
	ldr	r3, [r1, #24]	@ <variable>.pic_parameter_set_id, <variable>.pic_parameter_set_id
	ldr	r4, [fp, #28]	@ <variable>.seq_parameter_set_id, <variable>.seq_parameter_set_id
	ldr	r2, [r1, #28]	@ <variable>.seq_parameter_set_id, <variable>.seq_parameter_set_id
	ldrb	ip, [r1, #0]	@ zero_extendqisi2	@ <variable>.entropy_coding_mode_flag, <variable>.entropy_coding_mode_flag
	cmp	r5, r3	@ <variable>.pic_parameter_set_id, <variable>.pic_parameter_set_id
	cmpeq	r4, r2	@, <variable>.seq_parameter_set_id, <variable>.seq_parameter_set_id
	ldrb	r0, [fp, #0]	@ zero_extendqisi2	@ <variable>.entropy_coding_mode_flag, <variable>.entropy_coding_mode_flag
	ldrb	r5, [fp, #1]	@ zero_extendqisi2	@ <variable>.pic_order_present_flag, <variable>.pic_order_present_flag
	ldrb	r4, [r1, #1]	@ zero_extendqisi2	@ <variable>.pic_order_present_flag, <variable>.pic_order_present_flag
	movne	r3, #0	@, equal.2766
	moveq	r3, #1	@, equal.2766
	cmp	r0, ip	@ <variable>.entropy_coding_mode_flag, <variable>.entropy_coding_mode_flag
	movne	r0, #0	@, equal.2767
	andeq	r0, r3, #1	@,, equal.2767, equal.2766
	ldr	ip, [r1, #36]	@ <variable>.num_ref_idx_l0_active_minus1, <variable>.num_ref_idx_l0_active_minus1
	ldr	r3, [fp, #36]	@ <variable>.num_ref_idx_l0_active_minus1, <variable>.num_ref_idx_l0_active_minus1
	cmp	r5, r4	@ <variable>.pic_order_present_flag, <variable>.pic_order_present_flag
	movne	r2, #0	@, equal.2768
	andeq	r2, r0, #1	@,, equal.2768, equal.2767
	ldr	r5, [fp, #40]	@ <variable>.num_ref_idx_l1_active_minus1, <variable>.num_ref_idx_l1_active_minus1
	ldr	r4, [r1, #40]	@ <variable>.num_ref_idx_l1_active_minus1, <variable>.num_ref_idx_l1_active_minus1
	cmp	r3, ip	@ <variable>.num_ref_idx_l0_active_minus1, <variable>.num_ref_idx_l0_active_minus1
	movne	r3, #0	@, equal.2769
	andeq	r3, r2, #1	@,, equal.2769, equal.2768
	ldrb	ip, [r1, #2]	@ zero_extendqisi2	@ <variable>.weighted_pred_flag, <variable>.weighted_pred_flag
	ldrb	r2, [fp, #2]	@ zero_extendqisi2	@ <variable>.weighted_pred_flag, <variable>.weighted_pred_flag
	cmp	r5, r4	@ <variable>.num_ref_idx_l1_active_minus1, <variable>.num_ref_idx_l1_active_minus1
	movne	r0, #0	@, equal.2770
	andeq	r0, r3, #1	@,, equal.2770, equal.2769
	ldr	r5, [fp, #44]	@ <variable>.weighted_bipred_idc, <variable>.weighted_bipred_idc
	ldr	r4, [r1, #44]	@ <variable>.weighted_bipred_idc, <variable>.weighted_bipred_idc
	cmp	r2, ip	@ <variable>.weighted_pred_flag, <variable>.weighted_pred_flag
	movne	r2, #0	@, equal.2771
	andeq	r2, r0, #1	@,, equal.2771, equal.2770
	ldr	ip, [r1, #48]	@ <variable>.pic_init_qp_minus26, <variable>.pic_init_qp_minus26
	ldr	r0, [fp, #48]	@ <variable>.pic_init_qp_minus26, <variable>.pic_init_qp_minus26
	cmp	r5, r4	@ <variable>.weighted_bipred_idc, <variable>.weighted_bipred_idc
	movne	r3, #0	@, equal.2772
	andeq	r3, r2, #1	@,, equal.2772, equal.2771
	ldr	r5, [fp, #52]	@ <variable>.chroma_qp_index_offset, <variable>.chroma_qp_index_offset
	ldr	r4, [r1, #52]	@ <variable>.chroma_qp_index_offset, <variable>.chroma_qp_index_offset
	cmp	r0, ip	@ <variable>.pic_init_qp_minus26, <variable>.pic_init_qp_minus26
	movne	r0, #0	@, equal.2773
	andeq	r0, r3, #1	@,, equal.2773, equal.2772
	ldrb	ip, [r1, #3]	@ zero_extendqisi2	@ <variable>.deblocking_filter_control_present_flag, <variable>.deblocking_filter_control_present_flag
	ldrb	r3, [fp, #3]	@ zero_extendqisi2	@ <variable>.deblocking_filter_control_present_flag, <variable>.deblocking_filter_control_present_flag
	cmp	r5, r4	@ <variable>.chroma_qp_index_offset, <variable>.chroma_qp_index_offset
	movne	r2, #0	@, equal.2774
	andeq	r2, r0, #1	@,, equal.2774, equal.2773
	ldrb	r5, [fp, #4]	@ zero_extendqisi2	@ <variable>.constrained_intra_pred_flag, <variable>.constrained_intra_pred_flag
	ldrb	r4, [r1, #4]	@ zero_extendqisi2	@ <variable>.constrained_intra_pred_flag, <variable>.constrained_intra_pred_flag
	cmp	r3, ip	@ <variable>.deblocking_filter_control_present_flag, <variable>.deblocking_filter_control_present_flag
	movne	r3, #0	@, equal.2775
	andeq	r3, r2, #1	@,, equal.2775, equal.2774
	ldr	r2, [fp, #60]	@ D.38706, <variable>.transform_8x8_mode_flag
	ldr	ip, [r1, #60]	@ <variable>.transform_8x8_mode_flag, <variable>.transform_8x8_mode_flag
	cmp	r5, r4	@ <variable>.constrained_intra_pred_flag, <variable>.constrained_intra_pred_flag
	movne	r0, #0	@, equal.2776
	andeq	r0, r3, #1	@,, equal.2776, equal.2775
	ldrb	r3, [fp, #18]	@ zero_extendqisi2	@ D.38709, <variable>.pic_scaling_matrix_present_flag
	ldrb	r5, [r1, #18]	@ zero_extendqisi2	@ <variable>.pic_scaling_matrix_present_flag, <variable>.pic_scaling_matrix_present_flag
	cmp	r2, ip	@ D.38706, <variable>.transform_8x8_mode_flag
	movne	r0, #0	@, equal.2777
	andeq	r0, r0, #1	@,, equal.2777, equal.2776
	cmp	r5, r3	@ <variable>.pic_scaling_matrix_present_flag, D.38709
	movne	r5, #0	@, equal
	andeq	r5, r0, #1	@,, equal, equal.2777
	cmp	r3, #0	@ D.38709,
	beq	.L738	@,
	mov	ip, r2, asl #1	@ tmp237, D.38706,
	adds	r0, ip, #6	@, tmp237,
	str	r0, [sp, #4]	@, %sfp
	beq	.L738	@,
	mov	r9, fp	@ ivtmp.2732, pPPS1
	str	fp, [sp, #0]	@ pPPS1, %sfp
	mov	sl, r1	@ ivtmp.2734, pPPS2
	mov	r8, #0	@ i,
	mov	fp, r1	@ pPPS2, pPPS2
	b	.L742	@
.L753:
	cmp	r8, #5	@ i,
	bhi	.L740	@,
	ldr	r0, [r9, #72]	@ tmp245, <variable>.ScalingList4x4
	add	r8, r8, #1	@ i, i,
	ldr	ip, [sl, #72]	@ tmp246, <variable>.ScalingList4x4
	ldr	r6, [r9, #68]	@ tmp249, <variable>.ScalingList4x4
	ldr	r2, [sl, #68]	@ tmp250, <variable>.ScalingList4x4
	ldr	r3, [r9, #76]	@ tmp253, <variable>.ScalingList4x4
	cmp	r0, ip	@ tmp245, tmp246
	cmpeq	r6, r2	@, tmp249, tmp250
	ldr	r4, [sl, #76]	@ tmp254, <variable>.ScalingList4x4
	ldr	r7, [r9, #80]	@ tmp257, <variable>.ScalingList4x4
	ldr	r6, [sl, #80]	@ tmp258, <variable>.ScalingList4x4
	movne	r1, #0	@, equal.2782
	moveq	r1, #1	@, equal.2782
	ldr	r0, [r9, #84]	@ tmp261, <variable>.ScalingList4x4
	cmp	r3, r4	@ tmp253, tmp254
	movne	ip, #0	@, equal.2786
	andeq	ip, r1, #1	@,, equal.2786, equal.2782
	ldr	r2, [sl, #84]	@ tmp262, <variable>.ScalingList4x4
	cmp	r7, r6	@ tmp257, tmp258
	movne	r6, #0	@, equal.2790
	andeq	r6, ip, #1	@,, equal.2790, equal.2786
	ldr	r3, [sl, #88]	@ tmp266, <variable>.ScalingList4x4
	ldr	ip, [r9, #88]	@ tmp265, <variable>.ScalingList4x4
	cmp	r0, r2	@ tmp261, tmp262
	movne	r1, #0	@, equal.2794
	andeq	r1, r6, #1	@,, equal.2794, equal.2790
	ldr	r7, [r9, #92]	@ tmp269, <variable>.ScalingList4x4
	ldr	r2, [sl, #92]	@ tmp270, <variable>.ScalingList4x4
	cmp	ip, r3	@ tmp265, tmp266
	movne	r0, #0	@, equal.2798
	andeq	r0, r1, #1	@,, equal.2798, equal.2794
	ldr	r3, [sl, #96]	@ tmp274, <variable>.ScalingList4x4
	ldr	r1, [r9, #96]	@ tmp273, <variable>.ScalingList4x4
	cmp	r7, r2	@ tmp269, tmp270
	movne	ip, #0	@, equal.2802
	andeq	ip, r0, #1	@,, equal.2802, equal.2798
	ldr	r7, [r9, #100]	@ tmp277, <variable>.ScalingList4x4
	ldr	r2, [sl, #100]	@ tmp278, <variable>.ScalingList4x4
	cmp	r1, r3	@ tmp273, tmp274
	movne	r1, #0	@, equal.2806
	andeq	r1, ip, #1	@,, equal.2806, equal.2802
	ldr	r3, [sl, #104]	@ tmp282, <variable>.ScalingList4x4
	ldr	ip, [r9, #104]	@ tmp281, <variable>.ScalingList4x4
	cmp	r7, r2	@ tmp277, tmp278
	movne	r0, #0	@, equal.2810
	andeq	r0, r1, #1	@,, equal.2810, equal.2806
	ldr	r1, [r9, #108]	@ tmp285, <variable>.ScalingList4x4
	ldr	r7, [sl, #108]	@ tmp286, <variable>.ScalingList4x4
	cmp	ip, r3	@ tmp281, tmp282
	movne	ip, #0	@, equal.2814
	andeq	ip, r0, #1	@,, equal.2814, equal.2810
	ldr	r3, [sl, #112]	@ tmp290, <variable>.ScalingList4x4
	ldr	r0, [r9, #112]	@ tmp289, <variable>.ScalingList4x4
	cmp	r1, r7	@ tmp285, tmp286
	movne	r2, #0	@, equal.2818
	andeq	r2, ip, #1	@,, equal.2818, equal.2814
	ldr	ip, [r9, #116]	@ tmp293, <variable>.ScalingList4x4
	ldr	r7, [sl, #116]	@ tmp294, <variable>.ScalingList4x4
	cmp	r0, r3	@ tmp289, tmp290
	movne	r0, #0	@, equal.2822
	andeq	r0, r2, #1	@,, equal.2822, equal.2818
	ldr	r3, [sl, #120]	@ tmp298, <variable>.ScalingList4x4
	cmp	ip, r7	@ tmp293, tmp294
	movne	r1, #0	@, equal.2826
	andeq	r1, r0, #1	@,, equal.2826, equal.2822
	ldr	r7, [sp, #0]	@, %sfp
	ldr	r2, [r9, #120]	@ tmp297, <variable>.ScalingList4x4
	ldr	ip, [fp, r8, asl #6]	@ tmp304, <variable>.ScalingList4x4
	cmp	r2, r3	@ tmp297, tmp298
	movne	r2, #0	@, equal.2830
	andeq	r2, r1, #1	@,, equal.2830, equal.2826
	ldr	r0, [r7, r8, asl #6]	@ tmp303, <variable>.ScalingList4x4
	and	r5, r5, r2	@ equal.2834, equal, equal.2830
	ldr	r1, [r9, #124]	@ tmp307, <variable>.ScalingList4x4
	cmp	r0, ip	@ tmp303, tmp304
	movne	r3, #0	@, equal.2838
	andeq	r3, r5, #1	@,, equal.2838, equal.2834
	ldr	r2, [sl, #124]	@ tmp308, <variable>.ScalingList4x4
	ldr	ip, [sp, #4]	@, %sfp
	add	r9, r9, #64	@ ivtmp.2732, ivtmp.2732,
	cmp	r1, r2	@ tmp307, tmp308
	movne	r5, #0	@, equal
	andeq	r5, r3, #1	@,, equal, equal.2838
	add	sl, sl, #64	@ ivtmp.2734, ivtmp.2734,
	cmp	ip, r8	@, i
	bls	.L757	@,
.L742:
	ldr	ip, [sp, #0]	@, %sfp
	add	r0, fp, r8	@ tmp239, pPPS2, i
	add	r3, ip, r8	@ tmp238,, i
	ldrb	r2, [r0, #5]	@ zero_extendqisi2	@ D.38715, <variable>.pic_scaling_list_present_flag
	ldrb	r1, [r3, #5]	@ zero_extendqisi2	@ D.38715, <variable>.pic_scaling_list_present_flag
	cmp	r1, r2	@ D.38715, D.38715
	movne	r5, #0	@, equal
	andeq	r5, r5, #1	@,, equal, equal
	cmp	r1, #0	@ D.38715,
	bne	.L753	@,
	add	r8, r8, #1	@ i, i,
.L758:
	ldr	ip, [sp, #4]	@, %sfp
	add	r9, r9, #64	@ ivtmp.2732, ivtmp.2732,
	add	sl, sl, #64	@ ivtmp.2734, ivtmp.2734,
	cmp	ip, r8	@, i
	bhi	.L742	@,
.L757:
	mov	r1, fp	@ pPPS2, pPPS2
	ldr	fp, [sp, #0]	@ pPPS1, %sfp
.L738:
	ldr	r0, [fp, #56]	@ <variable>.second_chroma_qp_index_offset, <variable>.second_chroma_qp_index_offset
	ldr	r3, [r1, #56]	@ <variable>.second_chroma_qp_index_offset, <variable>.second_chroma_qp_index_offset
	cmp	r0, r3	@ <variable>.second_chroma_qp_index_offset, <variable>.second_chroma_qp_index_offset
	movne	r5, #0	@, tmp322
	andeq	r5, r5, #1	@,, tmp322, equal
	cmp	r5, #0	@ tmp322,
	movne	r0, #0	@, ret,
	mvneq	r0, #0	@, ret,
.L736:
	add	sp, sp, #12	@,,
	ldmfd	sp!, {r4, r5, r6, r7, r8, r9, sl, fp, pc}
.L740:
	mov	r4, r8, asl #8	@ tmp310, i,
	ldr	r0, [sp, #0]	@, %sfp
	ldr	r7, [sp, #0]	@, %sfp
	sub	r1, r4, #1088	@ tmp311, tmp310,
	add	r2, r0, r1	@ ivtmp.2719,, tmp311
	add	r3, fp, r1	@ ivtmp.2722, pPPS2, tmp311
	ldr	r6, [fp, r1]	@ tmp316, <variable>.ScalingList8x8
	add	r0, r2, #8	@ ivtmp.2719, ivtmp.2719,
	ldr	r4, [r7, r1]	@ tmp315, <variable>.ScalingList8x8
	add	r1, r3, #8	@ ivtmp.2722, ivtmp.2722,
	ldr	r7, [r2, #4]	@ tmp344, <variable>.ScalingList8x8
	mov	ip, #2	@ j,
	ldr	r3, [r3, #4]	@ tmp345, <variable>.ScalingList8x8
	cmp	r4, r6	@ tmp315, tmp316
	movne	r5, #0	@, equal
	andeq	r5, r5, #1	@,, equal, equal
	cmp	r7, r3	@ tmp344, tmp345
	movne	r5, #0	@, equal
	andeq	r5, r5, #1	@,, equal, equal
.L741:
	mov	r2, r0	@ tmp329, ivtmp.2719
	mov	r3, r1	@ tmp330, ivtmp.2722
	ldr	r7, [r2], #4	@ tmp334, <variable>.ScalingList8x8
	add	ip, ip, #2	@ j, j,
	ldr	r6, [r3], #4	@ tmp335, <variable>.ScalingList8x8
	ldr	r4, [r0, #4]	@ tmp341, <variable>.ScalingList8x8
	add	r0, r2, #4	@ ivtmp.2719, tmp329,
	ldr	r2, [r1, #4]	@ tmp342, <variable>.ScalingList8x8
	cmp	r7, r6	@ tmp334, tmp335
	movne	r5, #0	@, equal
	andeq	r5, r5, #1	@,, equal, equal
	add	r1, r3, #4	@ ivtmp.2722, tmp330,
	cmp	r4, r2	@ tmp341, tmp342
	movne	r5, #0	@, equal
	andeq	r5, r5, #1	@,, equal, equal
	cmp	ip, #64	@ j,
	bne	.L741	@,
	add	r8, r8, #1	@ i, i,
	b	.L758	@
.L756:
	mov	r0, r1	@, pPPS2
	movw	r2, #:lower16:.LC2	@,
	movw	r1, #:lower16:.LC1	@,
	movt	r2, #:upper16:.LC2	@,
	movt	r1, #:upper16:.LC1	@,
	movw	r3, #9273	@,
	bl	dprint_vfmw	@
	mvn	r0, #0	@ ret,
	b	.L736	@
.L755:
	movw	r1, #:lower16:.LC1	@,
	movw	r2, #:lower16:.LC2	@,
	movt	r1, #:upper16:.LC1	@,
	movt	r2, #:upper16:.LC2	@,
	movw	r3, #9272	@,
	bl	dprint_vfmw	@
	mvn	r0, #0	@ ret,
	b	.L736	@
	.fnend
	.size	PPSEqual, .-PPSEqual
	.align	2
	.global	CalcStreamBits
	.type	CalcStreamBits, %function
CalcStreamBits:
	.fnstart
.LFB1699:
	@ args = 0, pretend = 0, frame = 0
	@ frame_needed = 0, uses_anonymous_args = 0
	stmfd	sp!, {r4, r5, r6, r7, lr}	@,
	.save {r4, r5, r6, r7, lr}
	mov	r4, r0	@ pH264Ctx, pH264Ctx
	movw	r0, #17588	@ tmp170,
	.pad #12
	sub	sp, sp, #12	@,,
	ldrb	r3, [r4, r0]	@ zero_extendqisi2	@ <variable>.CurrPPS.entropy_coding_mode_flag, <variable>.CurrPPS.entropy_coding_mode_flag
	cmp	r3, #0	@ <variable>.CurrPPS.entropy_coding_mode_flag,
	beq	.L760	@,
	ldr	lr, [r4, #368]	@ D.38192, <variable>.pCurrNal
	ldr	r0, [lr, #64]	@ <variable>.nal_bitoffset, <variable>.nal_bitoffset
	add	r3, r0, #7	@ tmp172, <variable>.nal_bitoffset,
	bic	ip, r3, #7	@ tmp174, tmp172,
	str	ip, [lr, #64]	@ tmp174, <variable>.nal_bitoffset
	ldr	r1, [r4, #368]	@ temp.2885, <variable>.pCurrNal
	ldr	r5, [r1, #72]	@ <variable>.nal_trail_zero_bit_num, <variable>.nal_trail_zero_bit_num
	sub	r2, r5, #1	@ tmp176, <variable>.nal_trail_zero_bit_num,
	str	r2, [r1, #72]	@ tmp176, <variable>.nal_trail_zero_bit_num
.L760:
	ldr	ip, [r4, #368]	@ temp.2933, <variable>.pCurrNal
	ldrb	r5, [ip, #0]	@ zero_extendqisi2	@ temp.2934, <variable>.nal_used_segment
	cmp	r5, #0	@ temp.2934,
	moveq	r6, r5	@ code_len_byte, temp.2934
	moveq	r7, r5	@ temp.2934, temp.2934
	beq	.L762	@,
	mov	r7, r5, asl #3	@ temp.2934, temp.2934,
	mov	r3, #28	@ ivtmp.2883,
	rsb	r1, r5, r7	@ tmp179, temp.2934, temp.2934
	ldr	r6, [ip, #12]	@ code_len_byte, <variable>.bitstream_length
	add	r2, ip, r3	@ ivtmp.2884, temp.2933,
	mov	r1, r1, asl #2	@ D.43378, tmp179,
	cmp	r3, r1	@ ivtmp.2883, D.43378
	sub	lr, r1, #28	@ tmp455, D.43378,
	ubfx	r0, lr, #2, #1	@ tmp459, tmp455,,
	beq	.L762	@,
	cmp	r0, #0	@ tmp459,
	beq	.L763	@,
	ldr	lr, [r2, #12]	@ <variable>.bitstream_length, <variable>.bitstream_length
	mov	r3, #56	@ ivtmp.2883,
	cmp	r3, r1	@ ivtmp.2883, D.43378
	add	r2, ip, r3	@ ivtmp.2884, temp.2933,
	add	r6, r6, lr	@ code_len_byte, code_len_byte, <variable>.bitstream_length
	beq	.L762	@,
.L763:
	ldr	lr, [r2, #12]	@ <variable>.bitstream_length, <variable>.bitstream_length
	add	r3, r3, #56	@ ivtmp.2883, ivtmp.2883,
	ldr	r0, [r2, #40]	@ <variable>.bitstream_length, <variable>.bitstream_length
	cmp	r3, r1	@ ivtmp.2883, D.43378
	add	r6, r6, lr	@ code_len_byte, code_len_byte, <variable>.bitstream_length
	add	r2, r2, #56	@ ivtmp.2884, ivtmp.2884,
	add	r6, r6, r0	@ code_len_byte, code_len_byte, <variable>.bitstream_length
	bne	.L763	@,
.L762:
	rsb	r3, r5, r7	@ tmp187, temp.2934, temp.2934
	ldr	r2, [ip, #64]	@ <variable>.nal_bitoffset, <variable>.nal_bitoffset
	mov	r0, #7	@,
	movw	r1, #:lower16:.LC3	@,
	add	lr, ip, r3, asl #2	@, tmp189, temp.2933, tmp187,
	movt	r1, #:upper16:.LC3	@,
	mov	r3, r6	@, code_len_byte
	ldr	lr, [lr, #12]	@ <variable>.bitstream_length, <variable>.bitstream_length
	str	lr, [sp, #0]	@ <variable>.bitstream_length,
	ldr	lr, [ip, #72]	@ <variable>.nal_trail_zero_bit_num, <variable>.nal_trail_zero_bit_num
	str	lr, [sp, #4]	@ <variable>.nal_trail_zero_bit_num,
	bl	dprint_vfmw	@
	ldr	r3, [r4, #368]	@ temp.2888, <variable>.pCurrNal
	ldrb	r0, [r3, #0]	@ zero_extendqisi2	@ <variable>.nal_used_segment, <variable>.nal_used_segment
	ldr	r1, [r3, #64]	@ <variable>.nal_bitoffset, <variable>.nal_bitoffset
	rsb	r2, r0, r0, asl #3	@, tmp197, <variable>.nal_used_segment, <variable>.nal_used_segment,
	and	r0, r1, #7	@ tmp202, <variable>.nal_bitoffset,
	add	ip, r3, r2, asl #2	@, tmp199, temp.2888, tmp197,
	str	r0, [ip, #24]	@ tmp202, <variable>.bitsoffset
	ldr	r1, [r4, #368]	@ temp.2891, <variable>.pCurrNal
	ldrb	r3, [r1, #0]	@ zero_extendqisi2	@ temp.2894, <variable>.nal_used_segment
	ldr	ip, [r1, #64]	@ <variable>.nal_bitoffset, <variable>.nal_bitoffset
	rsb	r2, r3, r3, asl #3	@, tmp206, temp.2894, temp.2894,
	add	r3, r1, r2, asl #2	@, tmp208, temp.2891, tmp206,
	ldr	r0, [r3, #16]	@ <variable>.stream_phy_addr, <variable>.stream_phy_addr
	add	r2, r0, ip, lsr #3	@, tmp219, <variable>.stream_phy_addr, <variable>.nal_bitoffset,
	rsb	r1, r6, r2	@ tmp221, code_len_byte, tmp219
	str	r1, [r3, #28]	@ tmp221, <variable>.bytespos
	ldr	r3, [r4, #368]	@ temp.2895, <variable>.pCurrNal
	ldrb	ip, [r3, #0]	@ zero_extendqisi2	@ temp.2897, <variable>.nal_used_segment
	ldr	r1, [r3, #64]	@ <variable>.nal_bitoffset, <variable>.nal_bitoffset
	rsb	r0, ip, ip, asl #3	@, tmp225, temp.2897, temp.2897,
	add	ip, r3, r0, asl #2	@, tmp227, temp.2895, tmp225,
	ldr	r2, [ip, #12]	@ <variable>.bitstream_length, <variable>.bitstream_length
	add	r6, r6, r2	@ tmp236, code_len_byte, <variable>.bitstream_length
	rsb	r6, r1, r6, asl #3	@, tmp240, <variable>.nal_bitoffset, tmp236,
	str	r6, [ip, #20]	@ tmp240, <variable>.valid_bitlen
	b	.L788	@
.L790:
	rsb	r0, r2, r1	@ tmp252, temp.2931, tmp445
	add	lr, r3, r0, asl #2	@, tmp254, temp.2912, tmp252,
	ldr	ip, [lr, #24]	@ <variable>.bitsoffset, <variable>.bitsoffset
	add	r1, ip, #8	@ tmp264, <variable>.bitsoffset,
	str	r1, [lr, #24]	@ tmp264, <variable>.bitsoffset
	ldr	r0, [r4, #368]	@ temp.2901, <variable>.pCurrNal
	ldrb	r2, [r0, #0]	@ zero_extendqisi2	@ temp.2903, <variable>.nal_used_segment
	rsb	ip, r2, r2, asl #3	@, tmp268, temp.2903, temp.2903,
	add	r3, r0, ip, asl #2	@, tmp270, temp.2901, tmp268,
	add	r1, r3, #24	@ tmp271, tmp270,
	ldr	lr, [r1, #4]	@ <variable>.bytespos, <variable>.bytespos
	sub	r2, lr, #1	@ tmp280, <variable>.bytespos,
	str	r2, [r1, #4]	@ tmp280, <variable>.bytespos
.L788:
	ldr	r3, [r4, #368]	@ temp.2912, <variable>.pCurrNal
	ldrb	r2, [r3, #0]	@ zero_extendqisi2	@ temp.2931, <variable>.nal_used_segment
	mov	r1, r2, asl #3	@ tmp445, temp.2931,
	rsb	r0, r2, r1	@ tmp244, temp.2931, tmp445
	add	ip, r3, r0, asl #2	@, tmp246, temp.2912, tmp244,
	ldr	lr, [ip, #28]	@ temp.2907, <variable>.bytespos
	tst	lr, #3	@ temp.2907,
	bne	.L790	@,
	rsb	r7, r5, r7	@ tmp293, temp.2934, temp.2934
	mov	r2, r5	@, temp.2934
	mov	r0, #7	@,
	movw	r1, #:lower16:.LC4	@,
	add	r7, r3, r7, asl #2	@, tmp295, temp.2912, tmp293,
	movt	r1, #:upper16:.LC4	@,
	ldr	ip, [r7, #20]	@ <variable>.valid_bitlen, <variable>.valid_bitlen
	ldr	r3, [r7, #24]	@ <variable>.bitsoffset, <variable>.bitsoffset
	stmia	sp, {ip, lr}	@ phole stm
	bl	dprint_vfmw	@
	ldr	r1, [r4, #368]	@ temp.2905, <variable>.pCurrNal
	ldr	r2, [r1, #68]	@ temp.2906, <variable>.nal_segment
	sub	r3, r2, #1	@ prephitmp.2860, temp.2906,
	cmp	r3, #1	@ prephitmp.2860,
	bhi	.L791	@,
	ldrb	r0, [r1, #0]	@ zero_extendqisi2	@ <variable>.nal_used_segment, <variable>.nal_used_segment
	add	lr, r0, #1	@ tmp308, <variable>.nal_used_segment,
	cmp	r2, lr	@ temp.2906, tmp308
	bls	.L767	@,
	mov	r5, #1	@ i.2923,
	mov	r6, #0	@ tmp450,
.L770:
	mov	ip, r5, asl #3	@ tmp446, i.2923,
	rsb	r2, r5, ip	@ tmp312, i.2923, tmp446
	mov	r2, r2, asl #2	@ tmp313, tmp312,
	add	r0, r2, r1	@ tmp314, tmp313, temp.2905
	str	r6, [r0, #24]	@ tmp450, <variable>.bitsoffset
	ldr	lr, [r4, #368]	@ temp.2913, <variable>.pCurrNal
	add	r3, r2, lr	@ tmp322, tmp313, temp.2913
	ldr	r1, [r3, #16]	@ <variable>.stream_phy_addr, <variable>.stream_phy_addr
	str	r1, [r3, #28]	@ <variable>.stream_phy_addr, <variable>.bytespos
	ldr	r0, [r4, #368]	@ temp.2914, <variable>.pCurrNal
	add	r3, r2, r0	@ tmp337, tmp313, temp.2914
	ldr	lr, [r3, #12]	@ <variable>.bitstream_length, <variable>.bitstream_length
	mov	r1, lr, asl #3	@ tmp347, <variable>.bitstream_length,
	str	r1, [r3, #20]	@ tmp347, <variable>.valid_bitlen
	b	.L789	@
.L792:
	add	r0, r2, r3	@ tmp362, tmp449, temp.2904
	ldr	lr, [r0, #24]	@ <variable>.bitsoffset, <variable>.bitsoffset
	add	r1, lr, #8	@ tmp372, <variable>.bitsoffset,
	str	r1, [r0, #24]	@ tmp372, <variable>.bitsoffset
	ldr	r3, [r4, #368]	@ temp.2919, <variable>.pCurrNal
	add	lr, r2, r3	@ tmp378, tmp449, temp.2919
	add	r1, lr, #24	@ tmp379, tmp378,
	ldr	r0, [r1, #4]	@ <variable>.bytespos, <variable>.bytespos
	sub	r3, r0, #1	@ tmp388, <variable>.bytespos,
	str	r3, [r1, #4]	@ tmp388, <variable>.bytespos
.L789:
	ldr	r3, [r4, #368]	@ temp.2904, <variable>.pCurrNal
	add	lr, r2, r3	@ tmp353, tmp313, temp.2904
	ldr	r1, [lr, #28]	@ <variable>.bytespos, <variable>.bytespos
	tst	r1, #3	@ <variable>.bytespos,
	bne	.L792	@,
	rsb	ip, r5, ip	@ tmp401, i.2923, tmp446
	mov	r2, r5	@, i.2923
	mov	r0, #7	@,
	movw	r1, #:lower16:.LC6	@,
	add	lr, r3, ip, asl #2	@, tmp403, temp.2904, tmp401,
	movt	r1, #:upper16:.LC6	@,
	add	r5, r5, #1	@ i.2923, i.2923,
	ldr	ip, [lr, #20]	@ <variable>.valid_bitlen, <variable>.valid_bitlen
	ldr	r3, [lr, #24]	@ <variable>.bitsoffset, <variable>.bitsoffset
	str	ip, [sp, #0]	@ <variable>.valid_bitlen,
	bl	dprint_vfmw	@
	ldr	r1, [r4, #368]	@ temp.2905, <variable>.pCurrNal
	ldr	r3, [r1, #68]	@ temp.2911, <variable>.nal_segment
	cmp	r3, r5	@ temp.2911, i.2923
	bhi	.L770	@,
	sub	r3, r3, #1	@ prephitmp.2860, temp.2911,
.L767:
	rsb	ip, r3, r3, asl #3	@, tmp417, prephitmp.2860, prephitmp.2860,
	ldr	r2, [r1, #72]	@ <variable>.nal_trail_zero_bit_num, <variable>.nal_trail_zero_bit_num
	add	lr, r1, ip, asl #2	@, tmp419, temp.2905, tmp417,
	add	r1, lr, #16	@ tmp420, tmp419,
	ldr	r0, [r1, #4]	@ <variable>.valid_bitlen, <variable>.valid_bitlen
	rsb	r3, r2, r0	@ tmp430, <variable>.nal_trail_zero_bit_num, <variable>.valid_bitlen
	str	r3, [r1, #4]	@ tmp430, <variable>.valid_bitlen
	ldr	r2, [r4, #368]	@ temp.2925, <variable>.pCurrNal
	ldrb	r3, [r2, #0]	@ zero_extendqisi2	@ i, <variable>.nal_used_segment
	ldr	r1, [r2, #68]	@ <variable>.nal_segment, <variable>.nal_segment
	cmp	r1, r3	@ <variable>.nal_segment, i
	bls	.L774	@,
	mov	r5, #50176	@ tmp447,
.L775:
	rsb	r0, r3, r3, asl #3	@, tmp435, i, i,
	ldr	lr, [r4, r5]	@ <variable>.CurrPic.stream_base_addr, <variable>.CurrPic.stream_base_addr
	add	r3, r3, #1	@ i, i,
	add	ip, r2, r0, asl #2	@, tmp437, temp.2925, tmp435,
	ldr	r0, [ip, #28]	@ temp.2928, <variable>.bytespos
	cmp	r0, lr	@ temp.2928, <variable>.CurrPic.stream_base_addr
	strcc	r0, [r4, r5]	@ temp.2928, <variable>.CurrPic.stream_base_addr
	ldrcc	r1, [r2, #68]	@ <variable>.nal_segment, <variable>.nal_segment
	cmp	r1, r3	@ <variable>.nal_segment, i
	bhi	.L775	@,
.L774:
	add	sp, sp, #12	@,,
	ldmfd	sp!, {r4, r5, r6, r7, pc}
.L791:
	movw	r1, #:lower16:.LC5	@,
	mov	r0, #0	@,
	movt	r1, #:upper16:.LC5	@,
	add	sp, sp, #12	@,,
	ldmfd	sp!, {r4, r5, r6, r7, lr}
	b	dprint_vfmw	@
	.fnend
	.size	CalcStreamBits, .-CalcStreamBits
	.align	2
	.global	IsNewPic
	.type	IsNewPic, %function
IsNewPic:
	.fnstart
.LFB1690:
	@ args = 0, pretend = 0, frame = 0
	@ frame_needed = 0, uses_anonymous_args = 0
	movw	ip, #22332	@ tmp151,
	mov	r3, r0	@ pH264Ctx, pH264Ctx
	stmfd	sp!, {r4, lr}	@,
	.save {r4, lr}
	movw	r2, #20692	@ tmp158,
	ldr	r4, [r0, ip]	@ <variable>.PrevSlice.seq_parameter_set_id, <variable>.PrevSlice.seq_parameter_set_id
	movw	lr, #22336	@ tmp157,
	movw	r0, #14332	@ tmp152,
	ldr	r2, [r3, r2]	@ <variable>.CurrSlice.pic_parameter_set_id, <variable>.CurrSlice.pic_parameter_set_id
	ldr	ip, [r3, r0]	@ <variable>.CurrSPS.seq_parameter_set_id, <variable>.CurrSPS.seq_parameter_set_id
	movw	r1, #22344	@ tmp163,
	ldr	r0, [r3, lr]	@ <variable>.PrevSlice.pic_parameter_set_id, <variable>.PrevSlice.pic_parameter_set_id
	movw	lr, #20700	@ tmp164,
	ldr	r1, [r3, r1]	@ <variable>.PrevSlice.frame_num, <variable>.PrevSlice.frame_num
	cmp	r0, r2	@ <variable>.PrevSlice.pic_parameter_set_id, <variable>.CurrSlice.pic_parameter_set_id
	cmpeq	r4, ip	@, <variable>.PrevSlice.seq_parameter_set_id, <variable>.CurrSPS.seq_parameter_set_id
	ldr	lr, [r3, lr]	@ <variable>.CurrSlice.frame_num, <variable>.CurrSlice.frame_num
	movw	r4, #22328	@ tmp169,
	movw	r0, #20681	@ tmp170,
	ldrb	r2, [r3, r4]	@ zero_extendqisi2	@ D.37454, <variable>.PrevSlice.field_pic_flag
	moveq	ip, #0	@, result.2960
	movne	ip, #1	@, result.2960
	ldrb	r0, [r3, r0]	@ zero_extendqisi2	@ D.37455, <variable>.CurrSlice.field_pic_flag
	cmp	r1, lr	@ <variable>.PrevSlice.frame_num, <variable>.CurrSlice.frame_num
	moveq	r1, ip	@, result.2961, result.2960
	orrne	r1, ip, #1	@,, result.2961, result.2960
	cmp	r2, r0	@ D.37454, D.37455
	orrne	r1, r1, #1	@,, result, result.2961
	cmp	r2, #0	@ D.37454,
	beq	.L794	@,
	cmp	r0, #0	@ D.37455,
	bne	.L802	@,
.L794:
	movw	r4, #22340	@ tmp179,
	movw	ip, #20712	@ tmp180,
	ldr	r2, [r3, r4]	@ D.37468, <variable>.PrevSlice.nal_ref_idc
	ldr	r4, [r3, ip]	@ D.37469, <variable>.CurrSlice.nal_ref_idc
	cmp	r2, r4	@ D.37468, D.37469
	moveq	r4, #0	@ prephitmp.2948,
	beq	.L796	@,
	cmp	r2, #0	@ D.37468,
	moveq	r4, #1	@ prephitmp.2948,
	bne	.L803	@,
.L796:
	movw	r0, #20683	@ tmp184,
	movw	lr, #22330	@ tmp183,
	ldrb	r2, [r3, r0]	@ zero_extendqisi2	@ D.37474, <variable>.CurrSlice.nal_unit_type
	ldrb	r0, [r3, lr]	@ zero_extendqisi2	@ D.37473, <variable>.PrevSlice.nal_unit_type
	cmp	r0, r2	@ D.37473, D.37474
	orrne	r1, r1, #1	@,, result.2962, result
	cmp	r2, #5	@ D.37474,
	orr	r4, r1, r4	@ result.2959, result.2962, prephitmp.2948
	beq	.L804	@,
.L798:
	movw	r0, #16496	@ tmp193,
	ldr	r2, [r3, r0]	@ D.37483, <variable>.CurrSPS.pic_order_cnt_type
	cmp	r2, #0	@ D.37483,
	bne	.L799	@,
	movw	r2, #22356	@ tmp194,
	movw	lr, #19800	@ tmp195,
	movw	r0, #22352	@ tmp200,
	movw	r1, #19796	@ tmp201,
	ldr	ip, [r3, r2]	@ <variable>.PrevSlice.delta_pic_oder_cnt_bottom, <variable>.PrevSlice.delta_pic_oder_cnt_bottom
	ldr	r2, [r3, lr]	@ <variable>.CurrPOC.delta_pic_order_cnt_bottom, <variable>.CurrPOC.delta_pic_order_cnt_bottom
	ldr	lr, [r3, r0]	@ <variable>.PrevSlice.pic_oder_cnt_lsb, <variable>.PrevSlice.pic_oder_cnt_lsb
	ldr	r0, [r3, r1]	@ <variable>.CurrPOC.pic_order_cnt_lsb,
	cmp	lr, r0	@ <variable>.PrevSlice.pic_oder_cnt_lsb, <variable>.CurrPOC.pic_order_cnt_lsb
	cmpeq	ip, r2	@, <variable>.PrevSlice.delta_pic_oder_cnt_bottom, <variable>.CurrPOC.delta_pic_order_cnt_bottom
	moveq	r1, #0	@, result.2963
	movne	r1, #1	@, result.2963
	orr	r4, r4, r1	@ result.2959, result.2959, result.2963
.L800:
	movw	lr, #20732	@ tmp218,
	mov	r0, #19	@,
	ldr	r3, [r3, lr]	@ <variable>.CurrSlice.first_mb_in_slice, <variable>.CurrSlice.first_mb_in_slice
	movw	r1, #:lower16:.LC7	@,
	movt	r1, #:upper16:.LC7	@,
	cmp	r3, #0	@ <variable>.CurrSlice.first_mb_in_slice,
	orreq	r4, r4, #1	@,, result.2965, result.2959
	mov	r2, r4	@, result.2965
	bl	dprint_vfmw	@
	mov	r0, r4	@, result.2965
	ldmfd	sp!, {r4, pc}	@
.L799:
	cmp	r2, #1	@ D.37483,
	bne	.L800	@,
	movw	r0, #22364	@ tmp206,
	movw	r1, #22360	@ tmp212,
	ldr	ip, [r3, r0]	@ <variable>.PrevSlice.delta_pic_order_cnt, <variable>.PrevSlice.delta_pic_order_cnt
	movw	r2, #19848	@ tmp207,
	ldr	r0, [r3, r1]	@ <variable>.PrevSlice.delta_pic_order_cnt, <variable>.PrevSlice.delta_pic_order_cnt
	movw	r1, #19844	@ tmp213,
	ldr	lr, [r3, r2]	@ <variable>.CurrPOC.delta_pic_order_cnt, <variable>.CurrPOC.delta_pic_order_cnt
	ldr	r1, [r3, r1]	@ <variable>.CurrPOC.delta_pic_order_cnt,
	cmp	r0, r1	@ <variable>.PrevSlice.delta_pic_order_cnt, <variable>.CurrPOC.delta_pic_order_cnt
	cmpeq	ip, lr	@, <variable>.PrevSlice.delta_pic_order_cnt, <variable>.CurrPOC.delta_pic_order_cnt
	moveq	ip, #0	@, result.2964
	movne	ip, #1	@, result.2964
	orr	r4, r4, ip	@ result.2959, result.2959, result.2964
	b	.L800	@
.L803:
	rsbs	r4, r4, #1	@ prephitmp.2948, D.37469
	movcc	r4, #0	@ prephitmp.2948
	b	.L796	@
.L802:
	movw	r0, #22329	@ tmp173,
	movw	lr, #20682	@ tmp174,
	ldrb	r4, [r3, r0]	@ zero_extendqisi2	@ <variable>.PrevSlice.bottom_field_flag, <variable>.PrevSlice.bottom_field_flag
	ldrb	r2, [r3, lr]	@ zero_extendqisi2	@ <variable>.CurrSlice.bottom_field_flag, <variable>.CurrSlice.bottom_field_flag
	cmp	r4, r2	@ <variable>.PrevSlice.bottom_field_flag, <variable>.CurrSlice.bottom_field_flag
	orrne	r1, r1, #1	@,, result, result
	b	.L794	@
.L804:
	cmp	r0, #5	@ D.37473,
	bne	.L798	@,
	movw	lr, #22348	@ tmp187,
	movw	r2, #20720	@ tmp188,
	ldr	r1, [r3, lr]	@ <variable>.PrevSlice.idr_pic_id, <variable>.PrevSlice.idr_pic_id
	ldr	ip, [r3, r2]	@ <variable>.CurrSlice.idr_pic_id, <variable>.CurrSlice.idr_pic_id
	cmp	r1, ip	@ <variable>.PrevSlice.idr_pic_id, <variable>.CurrSlice.idr_pic_id
	orrne	r4, r4, #1	@,, result.2959, result.2959
	b	.L798	@
	.fnend
	.size	IsNewPic, .-IsNewPic
	.align	2
	.global	PPSSPSCheckTmpId
	.type	PPSSPSCheckTmpId, %function
PPSSPSCheckTmpId:
	.fnstart
.LFB1689:
	@ args = 0, pretend = 0, frame = 0
	@ frame_needed = 0, uses_anonymous_args = 0
	stmfd	sp!, {r3, r4, r5, lr}	@,
	.save {r3, r4, r5, lr}
	mov	r5, r1	@ tmp_pic_parameter_set_id, tmp_pic_parameter_set_id
	mov	r4, r0	@ pH264Ctx, pH264Ctx
	mov	r2, r5	@, tmp_pic_parameter_set_id
	movw	r1, #:lower16:.LC8	@,
	mov	r0, #19	@,
	movt	r1, #:upper16:.LC8	@,
	bl	dprint_vfmw	@
	movw	ip, #13584	@ tmp140,
	ldr	r3, [r4, ip]	@ <variable>.PPS, <variable>.PPS
	mov	r1, #2208	@ tmp142,
	mla	r3, r1, r5, r3	@ pPPS, tmp142, tmp_pic_parameter_set_id, <variable>.PPS
	ldrb	r2, [r3, #19]	@ zero_extendqisi2	@ <variable>.is_valid, <variable>.is_valid
	cmp	r2, #0	@ <variable>.is_valid,
	beq	.L811	@,
	movw	r1, #13572	@ tmp146,
	ldr	r2, [r3, #28]	@ D.37428, <variable>.seq_parameter_set_id
	ldr	r3, [r4, r1]	@ <variable>.MaxSpsNum, <variable>.MaxSpsNum
	sub	lr, r3, #1	@ tmp147, <variable>.MaxSpsNum,
	cmp	r2, lr	@ D.37428, tmp147
	bhi	.L812	@,
	movw	ip, #13580	@ tmp151,
	mov	r1, #4000	@ tmp153,
	ldr	r3, [r4, ip]	@ <variable>.SPS, <variable>.SPS
	mla	lr, r1, r2, r3	@ tmp154, tmp153, D.37428, <variable>.SPS
	ldrb	ip, [lr, #23]	@ zero_extendqisi2	@ <variable>.is_valid, <variable>.is_valid
	cmp	ip, #0	@ <variable>.is_valid,
	movne	r0, #0	@ D.37427,
	ldmnefd	sp!, {r3, r4, r5, pc}	@
	mov	r0, #1	@,
	movw	r1, #:lower16:.LC11	@,
	movt	r1, #:upper16:.LC11	@,
	bl	dprint_vfmw	@
	mvn	r0, #0	@ D.37427,
	ldmfd	sp!, {r3, r4, r5, pc}	@
.L811:
	mov	r2, r5	@, tmp_pic_parameter_set_id
	mov	r0, #1	@,
	movw	r1, #:lower16:.LC9	@,
	movt	r1, #:upper16:.LC9	@,
	bl	dprint_vfmw	@
	mvn	r0, #0	@ D.37427,
	ldmfd	sp!, {r3, r4, r5, pc}	@
.L812:
	mov	r0, #1	@,
	movw	r1, #:lower16:.LC10	@,
	movt	r1, #:upper16:.LC10	@,
	bl	dprint_vfmw	@
	mvn	r0, #0	@ D.37427,
	ldmfd	sp!, {r3, r4, r5, pc}	@
	.fnend
	.size	PPSSPSCheckTmpId, .-PPSSPSCheckTmpId
	.align	2
	.global	PPSSPSCheck
	.type	PPSSPSCheck, %function
PPSSPSCheck:
	.fnstart
.LFB1688:
	@ args = 0, pretend = 0, frame = 0
	@ frame_needed = 0, uses_anonymous_args = 0
	stmfd	sp!, {r3, r4, r5, lr}	@,
	.save {r3, r4, r5, lr}
	mov	r4, r0	@ pH264Ctx, pH264Ctx
	movw	r5, #20692	@ tmp140,
	mov	r0, #19	@,
	ldr	r2, [r4, r5]	@, <variable>.CurrSlice.pic_parameter_set_id
	movw	r1, #:lower16:.LC12	@,
	movt	r1, #:upper16:.LC12	@,
	bl	dprint_vfmw	@
	movw	r1, #13584	@ tmp143,
	ldr	r3, [r4, r1]	@ <variable>.PPS, <variable>.PPS
	mov	ip, #2208	@ tmp145,
	ldr	r2, [r4, r5]	@ temp.3012, <variable>.CurrSlice.pic_parameter_set_id
	mla	r3, ip, r2, r3	@ pPPS, tmp145, temp.3012, <variable>.PPS
	ldrb	r1, [r3, #19]	@ zero_extendqisi2	@ <variable>.is_valid, <variable>.is_valid
	cmp	r1, #0	@ <variable>.is_valid,
	beq	.L818	@,
	movw	lr, #13580	@ tmp150,
	ldr	r2, [r3, #28]	@ D.37408, <variable>.seq_parameter_set_id
	ldr	ip, [r4, lr]	@ <variable>.SPS, <variable>.SPS
	mov	r1, #4000	@ tmp152,
	mla	r3, r1, r2, ip	@ tmp153, tmp152, D.37408, <variable>.SPS
	ldrb	lr, [r3, #23]	@ zero_extendqisi2	@ <variable>.is_valid, <variable>.is_valid
	cmp	lr, #0	@ <variable>.is_valid,
	movne	r0, #0	@ D.37406,
	ldmnefd	sp!, {r3, r4, r5, pc}	@
	mov	r0, #1	@,
	movw	r1, #:lower16:.LC14	@,
	movt	r1, #:upper16:.LC14	@,
	bl	dprint_vfmw	@
	mvn	r0, #0	@ D.37406,
	ldmfd	sp!, {r3, r4, r5, pc}	@
.L818:
	mov	r0, #1	@,
	movw	r1, #:lower16:.LC13	@,
	movt	r1, #:upper16:.LC13	@,
	bl	dprint_vfmw	@
	mvn	r0, #0	@ D.37406,
	ldmfd	sp!, {r3, r4, r5, pc}	@
	.fnend
	.size	PPSSPSCheck, .-PPSSPSCheck
	.align	2
	.global	DumpList
	.type	DumpList, %function
DumpList:
	.fnstart
.LFB1668:
	@ args = 0, pretend = 0, frame = 0
	@ frame_needed = 0, uses_anonymous_args = 0
	movw	r1, #:lower16:g_PrintEnable	@ tmp146,
	movt	r1, #:upper16:g_PrintEnable	@ tmp146,
	stmfd	sp!, {r4, r5, r6, r7, r8, lr}	@,
	.save {r4, r5, r6, r7, r8, lr}
	ldr	r3, [r1, #0]	@ g_PrintEnable, g_PrintEnable
	.pad #8
	sub	sp, sp, #8	@,,
	mov	r8, r0	@ pH264Ctx, pH264Ctx
	tst	r3, #8192	@ g_PrintEnable,
	addne	r7, r0, #20480	@ ivtmp.3065, pH264Ctx,
	movne	r6, #0	@ j,
	addne	r7, r7, #244	@ ivtmp.3065, ivtmp.3065,
	beq	.L838	@,
.L821:
	ldr	r2, [r7, #0]	@ tmp154, <variable>.CurrSlice.listXsize
	cmp	r2, #0	@ tmp154,
	beq	.L824	@,
	add	r1, r6, r6, asl #5	@, tmp157, j, j,
	mov	r4, #0	@ i,
	add	r3, r8, r1, asl #2	@, tmp161, pH264Ctx, tmp157,
	add	r5, r3, #26880	@ ivtmp.3057, tmp161,
	add	r5, r5, #156	@ ivtmp.3057, ivtmp.3057,
.L822:
	ldr	ip, [r5], #4	@ tmp150, <variable>.pListX
	mov	r3, r4	@, i
	mov	r0, #13	@,
	movw	r1, #:lower16:.LC15	@,
	mov	r2, r6	@, j
	movt	r1, #:upper16:.LC15	@,
	ldr	ip, [ip, #4]	@ D.35716, <variable>.frame_store
	add	r4, r4, #1	@ i, i,
	ldr	lr, [ip, #512]	@ <variable>.frame_num, <variable>.frame_num
	str	lr, [sp, #0]	@ <variable>.frame_num,
	ldr	ip, [ip, #524]	@ <variable>.poc, <variable>.poc
	str	ip, [sp, #4]	@ <variable>.poc,
	bl	dprint_vfmw	@
	ldr	r0, [r7, #0]	@ tmp153, <variable>.CurrSlice.listXsize
	cmp	r0, r4	@ tmp153, i
	bhi	.L822	@,
.L824:
	add	r6, r6, #1	@ j, j,
	add	r7, r7, #4	@ ivtmp.3065, ivtmp.3065,
	cmp	r6, #2	@ j,
	bne	.L821	@,
	movw	r6, #20724	@ tmp162,
	ldr	r0, [r8, r6]	@ <variable>.CurrSlice.listXsize, <variable>.CurrSlice.listXsize
	cmp	r0, #0	@ <variable>.CurrSlice.listXsize,
	bne	.L842	@,
	movw	r6, #20728	@ tmp181,
	ldr	r1, [r8, r6]	@ <variable>.CurrSlice.listXsize, <variable>.CurrSlice.listXsize
	cmp	r1, #0	@ <variable>.CurrSlice.listXsize,
	bne	.L843	@,
.L838:
	add	sp, sp, #8	@,,
	ldmfd	sp!, {r4, r5, r6, r7, r8, pc}
.L843:
	mov	r0, #13	@,
	movw	r1, #:lower16:.LC21	@,
	movt	r1, #:upper16:.LC21	@,
	bl	dprint_vfmw	@
	ldr	r0, [r8, r6]	@ <variable>.CurrSlice.listXsize, <variable>.CurrSlice.listXsize
	cmp	r0, #0	@ <variable>.CurrSlice.listXsize,
	beq	.L832	@,
	add	r5, r8, #27136	@ ivtmp.3047, pH264Ctx,
	add	r4, r5, #32	@ ivtmp.3047, ivtmp.3047,
	mov	r5, #0	@ i.3069,
	b	.L837	@
.L834:
	ldr	lr, [r3, #4]	@ <variable>.frame_store, <variable>.frame_store
	ldr	r2, [lr, #524]	@, <variable>.poc
	bl	dprint_vfmw	@
.L833:
	ldr	r2, [r8, r6]	@ <variable>.CurrSlice.listXsize, <variable>.CurrSlice.listXsize
	add	r5, r5, #1	@ i.3069, i.3069,
	add	r4, r4, #4	@ ivtmp.3047, ivtmp.3047,
	cmp	r2, r5	@ <variable>.CurrSlice.listXsize, i.3069
	bls	.L832	@,
.L837:
	ldr	r3, [r4, #0]	@ D.35737, <variable>.pListX
	ldrb	r2, [r3, #0]	@ zero_extendqisi2	@ <variable>.structure, <variable>.structure
	cmp	r2, #1	@ <variable>.structure,
	beq	.L835	@,
	movw	r1, #:lower16:.LC17	@,
	mov	r0, #13	@,
	movt	r1, #:upper16:.LC17	@,
	bcc	.L834	@,
	cmp	r2, #2	@ <variable>.structure,
	bne	.L833	@,
	ldr	ip, [r3, #4]	@ <variable>.frame_store, <variable>.frame_store
	movw	r1, #:lower16:.LC19	@,
	mov	r0, #13	@,
	movt	r1, #:upper16:.LC19	@,
	add	r5, r5, #1	@ i.3069, i.3069,
	add	r4, r4, #4	@ ivtmp.3047, ivtmp.3047,
	ldr	r2, [ip, #524]	@, <variable>.poc
	bl	dprint_vfmw	@
	ldr	r2, [r8, r6]	@ <variable>.CurrSlice.listXsize, <variable>.CurrSlice.listXsize
	cmp	r2, r5	@ <variable>.CurrSlice.listXsize, i.3069
	bhi	.L837	@,
.L832:
	movw	r1, #:lower16:.LC20	@,
	mov	r0, #13	@,
	movt	r1, #:upper16:.LC20	@,
	add	sp, sp, #8	@,,
	ldmfd	sp!, {r4, r5, r6, r7, r8, lr}
	b	dprint_vfmw	@
.L835:
	ldr	r3, [r3, #4]	@ <variable>.frame_store, <variable>.frame_store
	movw	r1, #:lower16:.LC18	@,
	mov	r0, #13	@,
	movt	r1, #:upper16:.LC18	@,
	ldr	r2, [r3, #524]	@, <variable>.poc
	bl	dprint_vfmw	@
	b	.L833	@
.L842:
	mov	r0, #13	@,
	movw	r1, #:lower16:.LC16	@,
	movt	r1, #:upper16:.LC16	@,
	bl	dprint_vfmw	@
	ldr	ip, [r8, r6]	@ <variable>.CurrSlice.listXsize, <variable>.CurrSlice.listXsize
	cmp	ip, #0	@ <variable>.CurrSlice.listXsize,
	beq	.L826	@,
	add	r4, r8, #26880	@ ivtmp.3052, pH264Ctx,
	mov	r5, #0	@ i.3074,
	add	r4, r4, #156	@ ivtmp.3052, ivtmp.3052,
	b	.L831	@
.L828:
	ldr	lr, [r3, #4]	@ <variable>.frame_store, <variable>.frame_store
	ldr	r2, [lr, #524]	@, <variable>.poc
	bl	dprint_vfmw	@
.L827:
	ldr	r2, [r8, r6]	@ <variable>.CurrSlice.listXsize, <variable>.CurrSlice.listXsize
	add	r5, r5, #1	@ i.3074, i.3074,
	add	r4, r4, #4	@ ivtmp.3052, ivtmp.3052,
	cmp	r2, r5	@ <variable>.CurrSlice.listXsize, i.3074
	bls	.L826	@,
.L831:
	ldr	r3, [r4, #0]	@ D.35724, <variable>.pListX
	ldrb	r2, [r3, #0]	@ zero_extendqisi2	@ <variable>.structure, <variable>.structure
	cmp	r2, #1	@ <variable>.structure,
	beq	.L829	@,
	movw	r1, #:lower16:.LC17	@,
	mov	r0, #13	@,
	movt	r1, #:upper16:.LC17	@,
	bcc	.L828	@,
	cmp	r2, #2	@ <variable>.structure,
	bne	.L827	@,
	ldr	ip, [r3, #4]	@ <variable>.frame_store, <variable>.frame_store
	movw	r1, #:lower16:.LC19	@,
	mov	r0, #13	@,
	movt	r1, #:upper16:.LC19	@,
	add	r5, r5, #1	@ i.3074, i.3074,
	add	r4, r4, #4	@ ivtmp.3052, ivtmp.3052,
	ldr	r2, [ip, #524]	@, <variable>.poc
	bl	dprint_vfmw	@
	ldr	r2, [r8, r6]	@ <variable>.CurrSlice.listXsize, <variable>.CurrSlice.listXsize
	cmp	r2, r5	@ <variable>.CurrSlice.listXsize, i.3074
	bhi	.L831	@,
.L826:
	movw	r1, #:lower16:.LC20	@,
	mov	r0, #13	@,
	movt	r1, #:upper16:.LC20	@,
	movw	r6, #20728	@ tmp181,
	bl	dprint_vfmw	@
	ldr	r1, [r8, r6]	@ <variable>.CurrSlice.listXsize, <variable>.CurrSlice.listXsize
	cmp	r1, #0	@ <variable>.CurrSlice.listXsize,
	beq	.L838	@,
	b	.L843	@
.L829:
	ldr	r3, [r3, #4]	@ <variable>.frame_store, <variable>.frame_store
	movw	r1, #:lower16:.LC18	@,
	mov	r0, #13	@,
	movt	r1, #:upper16:.LC18	@,
	ldr	r2, [r3, #524]	@, <variable>.poc
	bl	dprint_vfmw	@
	b	.L827	@
	.fnend
	.size	DumpList, .-DumpList
	.align	2
	.global	IsRefListWrong
	.type	IsRefListWrong, %function
IsRefListWrong:
	.fnstart
.LFB1725:
	@ args = 0, pretend = 0, frame = 0
	@ frame_needed = 0, uses_anonymous_args = 0
	stmfd	sp!, {r4, r5, r6, r7, r8, lr}	@,
	.save {r4, r5, r6, r7, r8, lr}
	movw	r8, #20724	@ tmp143,
	ldr	r3, [r0, r8]	@ <variable>.CurrSlice.listXsize, <variable>.CurrSlice.listXsize
	mov	r4, r0	@ pH264Ctx, pH264Ctx
	cmp	r3, #0	@ <variable>.CurrSlice.listXsize,
	beq	.L845	@,
	add	r5, r0, #26880	@ ivtmp.3125, pH264Ctx,
	mov	r6, #0	@ i.3129,
	add	r5, r5, #156	@ ivtmp.3125, ivtmp.3125,
	movw	r7, #52840	@ tmp167,
	b	.L847	@
.L854:
	ldr	ip, [r0, #408]	@ <variable>.pstDecodeFs, <variable>.pstDecodeFs
	cmp	ip, #0	@ <variable>.pstDecodeFs,
	beq	.L846	@,
	ldr	r3, [r4, r8]	@ D.40626, <variable>.CurrSlice.listXsize
	cmp	r3, r6	@ D.40626, i.3129
	bls	.L853	@,
.L847:
	ldr	r1, [r5, #0]	@ tmp148, <variable>.pListX
	add	r6, r6, #1	@ i.3129, i.3129,
	ldr	r0, [r4, r7]	@, <variable>.ChanID
	add	r5, r5, #4	@ ivtmp.3125, ivtmp.3125,
	ldr	r2, [r1, #4]	@ <variable>.frame_store, <variable>.frame_store
	ldr	r1, [r2, #508]	@, <variable>.logic_fs_id
	bl	FSP_GetLogicFs	@
	cmp	r0, #0	@ pstLogicFs
	bne	.L854	@,
.L846:
	mvn	r0, #0	@ ret,
	ldmfd	sp!, {r4, r5, r6, r7, r8, pc}	@
.L845:
	mov	r0, #0	@ ret,
	ldmfd	sp!, {r4, r5, r6, r7, r8, pc}	@
.L853:
	cmp	r3, #0	@ D.40626,
	beq	.L845	@,
	movw	r8, #20728	@ tmp153,
	ldr	r0, [r4, r8]	@ <variable>.CurrSlice.listXsize, <variable>.CurrSlice.listXsize
	cmp	r0, #0	@ <variable>.CurrSlice.listXsize,
	beq	.L845	@,
	add	r6, r4, #27136	@ ivtmp.3120, pH264Ctx,
	movw	r7, #52840	@ tmp165,
	add	r5, r6, #32	@ ivtmp.3120, ivtmp.3120,
	mov	r6, #0	@ i,
	b	.L848	@
.L855:
	ldr	r2, [r0, #408]	@ <variable>.pstDecodeFs, <variable>.pstDecodeFs
	cmp	r2, #0	@ <variable>.pstDecodeFs,
	beq	.L846	@,
	ldr	r1, [r4, r8]	@ <variable>.CurrSlice.listXsize, <variable>.CurrSlice.listXsize
	cmp	r1, r6	@ <variable>.CurrSlice.listXsize, i
	bls	.L845	@,
.L848:
	ldr	r3, [r5, #0]	@ tmp158, <variable>.pListX
	add	r6, r6, #1	@ i, i,
	ldr	r0, [r4, r7]	@, <variable>.ChanID
	add	r5, r5, #4	@ ivtmp.3120, ivtmp.3120,
	ldr	lr, [r3, #4]	@ <variable>.frame_store, <variable>.frame_store
	ldr	r1, [lr, #508]	@, <variable>.logic_fs_id
	bl	FSP_GetLogicFs	@
	cmp	r0, #0	@ pstLogicFs.3132
	bne	.L855	@,
	b	.L846	@
	.fnend
	.size	IsRefListWrong, .-IsRefListWrong
	.align	2
	.global	WriteSliceMsg
	.type	WriteSliceMsg, %function
WriteSliceMsg:
	.fnstart
.LFB1684:
	@ args = 0, pretend = 0, frame = 16
	@ frame_needed = 0, uses_anonymous_args = 0
	movw	r3, #52764	@ tmp196,
	movw	r1, #4060	@ tmp200,
	stmfd	sp!, {r4, r5, r6, r7, r8, r9, sl, fp, lr}	@,
	.save {r4, r5, r6, r7, r8, r9, sl, fp, lr}
	ldr	r2, [r0, r3]	@, <variable>.SliceParaNum
	.pad #20
	sub	sp, sp, #20	@,,
	mov	r4, #13568	@ tmp201,
	mov	r5, r0	@ pH264Ctx, pH264Ctx
	str	r2, [sp, #8]	@, %sfp
	ldr	ip, [sp, #8]	@, %sfp
	ldr	r0, [r0, r4]	@ <variable>.MaxSliceNum, <variable>.MaxSliceNum
	add	r2, ip, #1	@ D.37015,,
	str	r2, [r5, r3]	@ D.37015, <variable>.SliceParaNum
	sub	r7, r0, #1	@ tmp202, <variable>.MaxSliceNum,
	movw	r0, #52760	@ tmp198,
	cmp	ip, r7	@, tmp202
	mul	r4, r1, ip	@ tmp199, tmp200,
	ldr	ip, [r5, r0]	@ D.37016, <variable>.DecSlicePara
	movcs	r3, #0	@ tmp207,
	mlacc	r2, r1, r2, ip	@ tmp206, tmp200, D.37015, D.37016
	add	r7, ip, r4	@ pCurrSlicePara, D.37016, tmp199
	strcs	r3, [r7, #4056]	@ tmp207, <variable>.pNextSlice
	strcc	r2, [r7, #4056]	@ tmp206, <variable>.pNextSlice
	ldr	r1, [r5, #368]	@ D.37027, <variable>.pCurrNal
	ldrb	r3, [r1, #0]	@ zero_extendqisi2	@ i.3336, <variable>.nal_used_segment
	ldr	r0, [r1, #68]	@ i.3483, <variable>.nal_segment
	cmp	r3, #1	@ i.3336,
	cmpls	r3, r0	@, i.3336, i.3483
	bcs	.L859	@,
	add	r6, r3, #4	@ tmp215, i.3336,
	add	r2, r7, r6, asl #2	@, ivtmp.3328, pCurrSlicePara, tmp215,
.L860:
	rsb	r0, r3, r3, asl #3	@, tmp220, i.3336, i.3336,
	add	r3, r3, #1	@ i.3336, i.3336,
	mov	r6, r0, asl #2	@ tmp221, tmp220,
	add	r1, r6, r1	@ tmp222, tmp221, D.37027
	ldr	r1, [r1, #24]	@ <variable>.bitsoffset, <variable>.bitsoffset
	str	r1, [r2, #0]	@ <variable>.bitsoffset, <variable>.bitsoffset
	ldr	r1, [r5, #368]	@ <variable>.pCurrNal, <variable>.pCurrNal
	add	r1, r6, r1	@ tmp231, tmp221, <variable>.pCurrNal
	ldr	r1, [r1, #20]	@ <variable>.valid_bitlen, <variable>.valid_bitlen
	str	r1, [r2, #-8]	@ <variable>.valid_bitlen, <variable>.valid_bitlen
	ldr	r1, [r5, #368]	@ <variable>.pCurrNal, <variable>.pCurrNal
	add	r0, r6, r1	@ tmp240, tmp221, <variable>.pCurrNal
	cmp	r3, #1	@ i.3336,
	movhi	r6, #0	@, tmp249
	movls	r6, #1	@, tmp249
	ldr	r1, [r0, #28]	@ <variable>.bytespos, <variable>.bytespos
	str	r1, [r2, #8]	@ <variable>.bytespos, <variable>.bytespos
	add	r2, r2, #4	@ ivtmp.3328, ivtmp.3328,
	ldr	r1, [r5, #368]	@ D.37027, <variable>.pCurrNal
	ldr	r0, [r1, #68]	@ i.3483, <variable>.nal_segment
	cmp	r0, r3	@ i.3483, i.3336
	movls	r6, #0	@, tmp249,
	cmp	r6, #0	@ tmp249,
	bne	.L860	@,
.L859:
	cmp	r0, #1	@ i.3483,
	bhi	.L861	@,
	add	r3, r0, #4	@ tmp250, i.3483,
	add	r1, r7, #24	@ D.43845, pCurrSlicePara,
	mov	r2, #0	@ tmp593,
	add	r0, r7, r3, asl #2	@, ivtmp.3321, pCurrSlicePara, tmp250,
	add	r3, r0, #4	@ ivtmp.3321, ivtmp.3321,
	rsb	r6, r0, r1	@ tmp606, ivtmp.3321, D.43845
	cmp	r3, r1	@ ivtmp.3321, D.43845
	sub	r6, r6, #4	@ tmp607, tmp606,
	ubfx	r6, r6, #2, #1	@ tmp608, tmp607,,
	str	r2, [r0, #0]	@ tmp593, <variable>.bitsoffset
	str	r2, [r0, #-8]	@ tmp593, <variable>.valid_bitlen
	str	r2, [r0, #8]	@ tmp593, <variable>.bytespos
	beq	.L861	@,
	cmp	r6, #0	@ tmp608,
	beq	.L862	@,
	str	r2, [r3, #0]	@ tmp593, <variable>.bitsoffset
	str	r2, [r3, #-8]	@ tmp593, <variable>.valid_bitlen
	str	r2, [r3, #8]	@ tmp593, <variable>.bytespos
	add	r3, r3, #4	@ ivtmp.3321, ivtmp.3321,
	cmp	r3, r1	@ ivtmp.3321, D.43845
	beq	.L861	@,
.L862:
	add	r0, r3, #4	@ tmp609, ivtmp.3321,
	str	r2, [r3, #-8]	@ tmp593, <variable>.valid_bitlen
	str	r2, [r3, #8]	@ tmp593, <variable>.bytespos
	str	r2, [r3, #4]	@ tmp593, <variable>.bitsoffset
	str	r2, [r3, #0]	@ tmp593, <variable>.bitsoffset
	add	r3, r0, #4	@ ivtmp.3321, tmp609,
	cmp	r3, r1	@ ivtmp.3321, D.43845
	str	r2, [r0, #-8]	@ tmp593, <variable>.valid_bitlen
	str	r2, [r0, #8]	@ tmp593, <variable>.bytespos
	bne	.L862	@,
.L861:
	movw	r0, #49713	@ tmp255,
	ldr	r2, [sp, #8]	@, %sfp
	ldrb	r3, [r5, r0]	@ zero_extendqisi2	@ <variable>.CurrPic.MbaffFrameFlag, <variable>.CurrPic.MbaffFrameFlag
	movw	r1, #17636	@ tmp258,
	movw	r0, #22292	@ tmp259,
	cmp	r2, #0	@,
	strb	r3, [r7, #1]	@ <variable>.CurrPic.MbaffFrameFlag, <variable>.MbaffFrameFlag
	ldr	r3, [r5, r0]	@ <variable>.CurrSlice.slice_qp_delta, <variable>.CurrSlice.slice_qp_delta
	ldr	r2, [r5, r1]	@ <variable>.CurrPPS.pic_init_qp_minus26, <variable>.CurrPPS.pic_init_qp_minus26
	add	r1, r2, r3	@ tmp260, <variable>.CurrPPS.pic_init_qp_minus26, <variable>.CurrSlice.slice_qp_delta
	add	r3, r1, #26	@ D.37041, tmp260,
	str	r3, [r7, #32]	@ D.37041, <variable>.SliceQPy
	bne	.L863	@,
	movw	r2, #50112	@ tmp264,
	ldr	r0, [r5, r2]	@ <variable>.CurrPic.frame_store, <variable>.CurrPic.frame_store
	str	r3, [r0, #428]	@ D.37041, <variable>.frame.MaxQp
	ldr	r3, [r5, r2]	@ <variable>.CurrPic.frame_store, <variable>.CurrPic.frame_store
	ldr	r1, [r7, #32]	@ <variable>.SliceQPy, <variable>.SliceQPy
	str	r1, [r3, #432]	@ <variable>.SliceQPy, <variable>.frame.MinQp
.L864:
	movw	r3, #22288	@ tmp273,
	movw	r1, #20740	@ tmp275,
	ldr	r2, [r5, r3]	@ <variable>.CurrSlice.cabac_init_idc, <variable>.CurrSlice.cabac_init_idc
	movw	r3, #20680	@ tmp279,
	str	r2, [r7, #36]	@ <variable>.CurrSlice.cabac_init_idc, <variable>.cabac_init_idc
	mov	r2, #20736	@ tmp277,
	ldr	r0, [r5, r1]	@ <variable>.CurrSlice.num_ref_idx_l1_active_minus1, <variable>.CurrSlice.num_ref_idx_l1_active_minus1
	str	r0, [r7, #40]	@ <variable>.CurrSlice.num_ref_idx_l1_active_minus1, <variable>.num_ref_idx_l1_active_minus1
	ldr	r1, [r5, r2]	@ <variable>.CurrSlice.num_ref_idx_l0_active_minus1, <variable>.CurrSlice.num_ref_idx_l0_active_minus1
	movw	r2, #20732	@ tmp282,
	str	r1, [r7, #44]	@ <variable>.CurrSlice.num_ref_idx_l0_active_minus1, <variable>.num_ref_idx_l0_active_minus1
	movw	r1, #20686	@ tmp284,
	ldrb	r0, [r5, r3]	@ zero_extendqisi2	@ <variable>.CurrSlice.slice_type, <variable>.CurrSlice.slice_type
	strb	r0, [ip, r4]	@ <variable>.CurrSlice.slice_type, <variable>.slice_type
	ldr	ip, [r5, r2]	@ <variable>.CurrSlice.first_mb_in_slice, <variable>.CurrSlice.first_mb_in_slice
	movw	r2, #13608	@ tmp287,
	str	ip, [r7, #48]	@ <variable>.CurrSlice.first_mb_in_slice, <variable>.first_mb_in_slice
	ldrb	r0, [r5, r1]	@ zero_extendqisi2	@ <variable>.CurrSlice.direct_spatial_mv_pred_flag, <variable>.CurrSlice.direct_spatial_mv_pred_flag
	movw	r1, #20724	@ tmp290,
	strb	r0, [r7, #2]	@ <variable>.CurrSlice.direct_spatial_mv_pred_flag, <variable>.direct_spatial_mv_pred_flag
	ldrb	ip, [r5, r2]	@ zero_extendqisi2	@ <variable>.CurrSPS.direct_8x8_inference_flag, <variable>.CurrSPS.direct_8x8_inference_flag
	movw	r2, #20728	@ tmp292,
	strb	ip, [r7, #3]	@ <variable>.CurrSPS.direct_8x8_inference_flag, <variable>.direct_8x8_inference_flag
	ldr	r0, [r5, r1]	@ <variable>.CurrSlice.listXsize, <variable>.CurrSlice.listXsize
	str	r0, [r7, #52]	@ <variable>.CurrSlice.listXsize, <variable>.listXsize
	ldr	ip, [r5, r2]	@ <variable>.CurrSlice.listXsize, <variable>.CurrSlice.listXsize
	str	ip, [r7, #56]	@ <variable>.CurrSlice.listXsize, <variable>.listXsize
	ldrb	r3, [r5, r3]	@ zero_extendqisi2	@ temp.3343, <variable>.CurrSlice.slice_type
	cmp	r3, #1	@ temp.3343,
	beq	.L947	@,
	cmp	r3, #0	@ temp.3343,
	movweq	r3, #17590	@ tmp298,
	movne	r3, #0	@ tmp301,
	ldreqb	r3, [r5, r3]	@ zero_extendqisi2	@ <variable>.CurrPPS.weighted_pred_flag, <variable>.CurrPPS.weighted_pred_flag
	strb	r3, [r7, #4]	@ tmp301, <variable>.weight_flag
.L866:
	movw	r2, #17640	@ tmp303,
	movw	r0, #17644	@ tmp305,
	ldr	r1, [r5, r2]	@ <variable>.CurrPPS.chroma_qp_index_offset, <variable>.CurrPPS.chroma_qp_index_offset
	movw	r3, #22300	@ tmp307,
	str	r1, [r7, #60]	@ <variable>.CurrPPS.chroma_qp_index_offset, <variable>.chroma_qp_index_offset
	movw	r1, #22304	@ tmp309,
	ldr	ip, [r5, r0]	@ <variable>.CurrPPS.second_chroma_qp_index_offset, <variable>.CurrPPS.second_chroma_qp_index_offset
	str	ip, [r7, #64]	@ <variable>.CurrPPS.second_chroma_qp_index_offset, <variable>.second_chroma_qp_index_offset
	movw	ip, #22296	@ tmp311,
	ldr	r2, [r5, r3]	@ <variable>.CurrSlice.slice_alpha_c0_offset_div2, <variable>.CurrSlice.slice_alpha_c0_offset_div2
	str	r2, [r7, #68]	@ <variable>.CurrSlice.slice_alpha_c0_offset_div2, <variable>.slice_alpha_c0_offset_div2
	movw	r2, #20680	@ tmp313,
	ldr	r0, [r5, r1]	@ <variable>.CurrSlice.slice_beta_offset_div2, <variable>.CurrSlice.slice_beta_offset_div2
	str	r0, [r7, #72]	@ <variable>.CurrSlice.slice_beta_offset_div2, <variable>.slice_beta_offset_div2
	ldr	r3, [r5, ip]	@ <variable>.CurrSlice.disable_deblocking_filter_idc, <variable>.CurrSlice.disable_deblocking_filter_idc
	str	r3, [r7, #76]	@ <variable>.CurrSlice.disable_deblocking_filter_idc, <variable>.disable_deblocking_filter_idc
	ldrb	r1, [r5, r2]	@ zero_extendqisi2	@ <variable>.CurrSlice.slice_type, <variable>.CurrSlice.slice_type
	cmp	r1, #2	@ <variable>.CurrSlice.slice_type,
	beq	.L868	@,
	movw	r3, #20724	@ tmp315,
	ldr	r4, [r5, r3]	@ temp.3501, <variable>.CurrSlice.listXsize
	cmp	r4, #0	@ temp.3501,
	beq	.L869	@,
	movw	r1, #27036	@ tmp317,
	ldr	r0, [r5, r1]	@ <variable>.pListX, <variable>.pListX
	ldr	r3, [r0, #4]	@ temp.3478, <variable>.frame_store
	ldrb	ip, [r3, #0]	@ zero_extendqisi2	@ <variable>.non_existing, <variable>.non_existing
	cmp	ip, #0	@ <variable>.non_existing,
	beq	.L870	@,
	tst	r4, #1	@ temp.3501,
	add	r3, r5, #26880	@ tmp327, pH264Ctx,
	add	r1, r3, #160	@ ivtmp.3315, tmp327,
	mov	r0, #0	@ i.3346,
	bne	.L872	@,
	ldr	ip, [r1, #0]	@ tmp628, <variable>.pListX
	add	r1, r3, #164	@ ivtmp.3315, tmp327,
	mov	r0, #1	@ i.3346,
	ldr	r3, [ip, #4]	@ temp.3478, <variable>.frame_store
	ldrb	r2, [r3, #0]	@ zero_extendqisi2	@ <variable>.non_existing, <variable>.non_existing
	cmp	r2, #0	@ <variable>.non_existing,
	bne	.L872	@,
.L870:
	movw	lr, #52840	@ tmp321,
	ldr	r1, [r3, #508]	@, <variable>.logic_fs_id
	ldr	r0, [r5, lr]	@, <variable>.ChanID
	bl	FSP_GetLogicFs	@
	subs	r3, r0, #0	@ pstLogicFs,
	beq	.L948	@,
	ldr	r2, [r3, #408]	@ <variable>.pstDecodeFs, <variable>.pstDecodeFs
	ldr	r4, [r2, #4]	@, <variable>.PhyFsID
	str	r4, [sp, #4]	@, %sfp
	b	.L874	@
.L875:
	ldr	r3, [r2], #4	@ tmp319, <variable>.pListX
	ldr	r3, [r3, #4]	@ temp.3478, <variable>.frame_store
	ldrb	ip, [r3, #0]	@ zero_extendqisi2	@ <variable>.non_existing, <variable>.non_existing
	cmp	ip, #0	@ <variable>.non_existing,
	beq	.L870	@,
	ldr	r3, [r1, #4]	@ tmp630, <variable>.pListX
	add	r1, r2, #4	@ ivtmp.3315, tmp603,
	ldr	r3, [r3, #4]	@ temp.3478, <variable>.frame_store
	ldrb	r2, [r3, #0]	@ zero_extendqisi2	@ <variable>.non_existing, <variable>.non_existing
	cmp	r2, #0	@ <variable>.non_existing,
	beq	.L870	@,
.L872:
	add	ip, r0, #1	@ tmp604, i.3346,
	mov	r2, r1	@ tmp603, ivtmp.3315
	cmp	ip, r4	@ tmp604, temp.3501
	add	r0, ip, #1	@ i.3346, tmp604,
	bcc	.L875	@,
.L869:
	mov	r0, #0	@,
	str	r0, [sp, #4]	@, %sfp
.L874:
	movw	r1, #20728	@ tmp328,
	ldr	r4, [r5, r1]	@ temp.3349, <variable>.CurrSlice.listXsize
	cmp	r4, #0	@ temp.3349,
	beq	.L876	@,
	movw	ip, #27168	@ tmp330,
	ldr	r3, [r5, ip]	@ <variable>.pListX, <variable>.pListX
	ldr	r3, [r3, #4]	@ temp.3479, <variable>.frame_store
	ldrb	r2, [r3, #0]	@ zero_extendqisi2	@ <variable>.non_existing, <variable>.non_existing
	cmp	r2, #0	@ <variable>.non_existing,
	beq	.L877	@,
	tst	r4, #1	@ temp.3349,
	add	r3, r5, #27136	@ tmp340, pH264Ctx,
	add	r1, r3, #36	@ ivtmp.3310, tmp340,
	mov	r0, #0	@ i.3354,
	bne	.L879	@,
	ldr	r2, [r1, #0]	@ tmp624, <variable>.pListX
	add	r1, r3, #40	@ ivtmp.3310, tmp340,
	mov	r0, #1	@ i.3354,
	ldr	r3, [r2, #4]	@ temp.3479, <variable>.frame_store
	ldrb	ip, [r3, #0]	@ zero_extendqisi2	@ <variable>.non_existing, <variable>.non_existing
	cmp	ip, #0	@ <variable>.non_existing,
	bne	.L879	@,
	b	.L877	@
.L882:
	ldr	r3, [r2], #4	@ tmp332, <variable>.pListX
	ldr	r3, [r3, #4]	@ temp.3479, <variable>.frame_store
	ldrb	ip, [r3, #0]	@ zero_extendqisi2	@ <variable>.non_existing, <variable>.non_existing
	cmp	ip, #0	@ <variable>.non_existing,
	beq	.L877	@,
	ldr	r3, [r1, #4]	@ tmp626, <variable>.pListX
	add	r1, r2, #4	@ ivtmp.3310, tmp598,
	ldr	r3, [r3, #4]	@ temp.3479, <variable>.frame_store
	ldrb	ip, [r3, #0]	@ zero_extendqisi2	@ <variable>.non_existing, <variable>.non_existing
	cmp	ip, #0	@ <variable>.non_existing,
	beq	.L877	@,
.L879:
	add	ip, r0, #1	@ tmp599, i.3354,
	mov	r2, r1	@ tmp598, ivtmp.3310
	cmp	r4, ip	@ temp.3349, tmp599
	add	r0, ip, #1	@ i.3354, tmp599,
	bhi	.L882	@,
.L876:
	mov	r1, #0	@,
	str	r1, [sp, #12]	@, %sfp
.L881:
	movw	r2, #49707	@ tmp341,
	ldrb	r8, [r5, r2]	@ zero_extendqisi2	@ <variable>.CurrPic.structure, <variable>.CurrPic.structure
	cmp	r8, #0	@ <variable>.CurrPic.structure,
	beq	.L883	@,
	movw	r9, #20724	@ tmp343,
	ldr	r3, [r5, r9]	@ <variable>.CurrSlice.listXsize, <variable>.CurrSlice.listXsize
	cmp	r3, #0	@ <variable>.CurrSlice.listXsize,
	beq	.L885	@,
	add	r4, r5, #26880	@ ivtmp.3290, pH264Ctx,
	mov	r6, r7	@ ivtmp.3295, pCurrSlicePara
	add	r4, r4, #156	@ ivtmp.3290, ivtmp.3290,
	mov	r8, #0	@ i.3443,
	movw	sl, #52840	@ tmp590,
	b	.L901	@
.L899:
	strb	r3, [r6, #1630]	@ temp.3437, <variable>.btm_structure
	add	r8, r8, #1	@ i.3443, i.3443,
	ldr	ip, [r4, #0]	@ tmp475, <variable>.pListX
	ldrb	r0, [ip, #1]	@ zero_extendqisi2	@ <variable>.is_long_term, <variable>.is_long_term
	strb	r0, [r6, #1631]	@ <variable>.is_long_term, <variable>.btm_is_long_term
	ldr	r3, [r4, #0]	@ tmp478, <variable>.pListX
	add	r4, r4, #4	@ ivtmp.3290, ivtmp.3290,
	ldr	lr, [r3, #16]	@ <variable>.poc, <variable>.poc
	str	lr, [r6, #1656]	@ <variable>.poc, <variable>.btm_poc
	add	r6, r6, #36	@ ivtmp.3295, ivtmp.3295,
	ldr	r1, [r5, r9]	@ <variable>.CurrSlice.listXsize, <variable>.CurrSlice.listXsize
	cmp	r1, r8	@ <variable>.CurrSlice.listXsize, i.3443
	bls	.L885	@,
.L901:
	ldr	r3, [r4, #0]	@ tmp439, <variable>.pListX
	ldr	r0, [r5, sl]	@, <variable>.ChanID
	ldr	lr, [r3, #4]	@ <variable>.frame_store, <variable>.frame_store
	ldr	r1, [lr, #508]	@, <variable>.logic_fs_id
	bl	FSP_GetLogicFs	@
	ldr	r2, [r4, #0]	@ tmp442, <variable>.pListX
	ldr	r1, [r2, #4]	@ <variable>.frame_store, <variable>.frame_store
	ldr	ip, [r1, #548]	@ <variable>.pmv_address_idc, <variable>.pmv_address_idc
	str	ip, [r6, #1636]	@ <variable>.pmv_address_idc, <variable>.pmv_address_idc
	ldr	r3, [r4, #0]	@ tmp445, <variable>.pListX
	ldr	r2, [r3, #4]	@ <variable>.frame_store, <variable>.frame_store
	ldrb	r1, [r2, #1]	@ zero_extendqisi2	@ <variable>.is_used, <variable>.is_used
	strb	r1, [r6, #1625]	@ <variable>.is_used, <variable>.is_used
	ldr	ip, [r4, #0]	@ tmp449, <variable>.pListX
	ldr	r3, [ip, #4]	@ <variable>.frame_store, <variable>.frame_store
	ldrb	r3, [r3, #0]	@ zero_extendqisi2	@ <variable>.non_existing, <variable>.non_existing
	cmp	r3, #1	@ <variable>.non_existing,
	ldreq	r0, [sp, #4]	@ ExistImgIdc_0.3335, %sfp
	beq	.L897	@,
	cmp	r0, #0	@ pstLogicFs.3414,
	ldrne	r3, [r0, #408]	@ <variable>.pstDecodeFs, <variable>.pstDecodeFs
	ldrne	r0, [r3, #4]	@ ExistImgIdc_0.3335, <variable>.PhyFsID
.L897:
	str	r0, [r6, #1640]	@ ExistImgIdc_0.3335, <variable>.img_idc
	ldr	r3, [r4, #0]	@ tmp453, <variable>.pListX
	ldr	lr, [r3, #4]	@ <variable>.frame_store, <variable>.frame_store
	ldr	r2, [lr, #552]	@ <variable>.apc_idc, <variable>.apc_idc
	str	r2, [r6, #1644]	@ <variable>.apc_idc, <variable>.apc_idc
	ldr	r1, [r4, #0]	@ tmp456, <variable>.pListX
	ldr	ip, [r1, #4]	@ <variable>.frame_store, <variable>.frame_store
	ldr	r0, [ip, #524]	@ <variable>.poc, <variable>.poc
	str	r0, [r6, #1632]	@ <variable>.poc, <variable>.poc
	ldr	r3, [r4, #0]	@ tmp459, <variable>.pListX
	ldrb	lr, [r3, #0]	@ zero_extendqisi2	@ <variable>.structure, <variable>.structure
	strb	lr, [r6, #1624]	@ <variable>.structure, <variable>.list_structure
	ldr	r2, [r4, #0]	@ tmp462, <variable>.pListX
	ldr	r1, [r2, #4]	@ <variable>.frame_store, <variable>.frame_store
	ldrb	ip, [r1, #400]	@ zero_extendqisi2	@ <variable>.frame.structure, <variable>.frame.structure
	strb	ip, [r6, #1626]	@ <variable>.frame.structure, <variable>.frame_structure
	ldr	r0, [r4, #0]	@ tmp466, <variable>.pListX
	ldrb	r3, [r0, #0]	@ zero_extendqisi2	@ temp.3437, <variable>.structure
	cmp	r3, #1	@ temp.3437,
	bne	.L899	@,
	strb	r3, [r6, #1628]	@ temp.3437, <variable>.top_structure
	add	r8, r8, #1	@ i.3443, i.3443,
	ldr	r2, [r4, #0]	@ tmp469, <variable>.pListX
	ldrb	r1, [r2, #1]	@ zero_extendqisi2	@ <variable>.is_long_term, <variable>.is_long_term
	strb	r1, [r6, #1629]	@ <variable>.is_long_term, <variable>.top_is_long_term
	ldr	ip, [r4, #0]	@ tmp472, <variable>.pListX
	add	r4, r4, #4	@ ivtmp.3290, ivtmp.3290,
	ldr	r0, [ip, #16]	@ <variable>.poc, <variable>.poc
	str	r0, [r6, #1652]	@ <variable>.poc, <variable>.top_poc
	add	r6, r6, #36	@ ivtmp.3295, ivtmp.3295,
	ldr	r1, [r5, r9]	@ <variable>.CurrSlice.listXsize, <variable>.CurrSlice.listXsize
	cmp	r1, r8	@ <variable>.CurrSlice.listXsize, i.3443
	bhi	.L901	@,
.L885:
	movw	r3, #20680	@ tmp482,
	ldrb	r2, [r5, r3]	@ zero_extendqisi2	@ <variable>.CurrSlice.slice_type, <variable>.CurrSlice.slice_type
	cmp	r2, #1	@ <variable>.CurrSlice.slice_type,
	beq	.L949	@,
.L891:
	mov	r3, #0	@ ivtmp.3228,
.L908:
	add	r0, r5, r3	@ tmp534, pH264Ctx, ivtmp.3228
	add	r2, r3, #4	@ tmp594, ivtmp.3228,
	add	ip, r0, #26880	@ tmp536, tmp534,
	add	r1, r5, r2	@ tmp620, pH264Ctx, tmp594
	add	r0, r7, r3	@ tmp533, pCurrSlicePara, ivtmp.3228
	add	r1, r1, #26880	@ tmp621, tmp620,
	ldr	ip, [ip, #28]	@ tmp537, <variable>.APC.RefIdx
	add	r3, r2, #4	@ ivtmp.3228, tmp594,
	cmp	r3, #128	@ ivtmp.3228,
	add	r2, r7, r2	@ tmp619, pCurrSlicePara, tmp594
	str	ip, [r0, #3928]	@ tmp537, <variable>.Apc2RefIdx
	ldr	ip, [r1, #28]	@ tmp623, <variable>.APC.RefIdx
	str	ip, [r2, #3928]	@ tmp623, <variable>.Apc2RefIdx
	bne	.L908	@,
	movw	r2, #17590	@ tmp538,
	movw	r0, #17632	@ tmp541,
	ldrb	r1, [r5, r2]	@ zero_extendqisi2	@ temp.3488, <variable>.CurrPPS.weighted_pred_flag
	movw	ip, #51652	@ tmp539,
	ldr	r2, [r5, r0]	@ <variable>.CurrPPS.weighted_bipred_idc, <variable>.CurrPPS.weighted_bipred_idc
	movw	r3, #51656	@ tmp540,
	cmp	r1, #0	@ temp.3488,
	str	r1, [r5, ip]	@ temp.3488, <variable>.DecPicPara.weighted_pred_flag
	str	r2, [r5, r3]	@ <variable>.CurrPPS.weighted_bipred_idc, <variable>.DecPicPara.weighted_bipred_idc
	beq	.L909	@,
	movw	ip, #20680	@ tmp543,
	ldrb	r3, [r5, ip]	@ zero_extendqisi2	@ <variable>.CurrSlice.slice_type, <variable>.CurrSlice.slice_type
	cmp	r3, #0	@ <variable>.CurrSlice.slice_type,
	bne	.L909	@,
.L910:
	movw	r0, #20744	@ tmp549,
	movw	ip, #20748	@ tmp551,
	ldr	r4, [r5, r0]	@ <variable>.CurrSlice.luma_log2_weight_denom, <variable>.CurrSlice.luma_log2_weight_denom
	add	r1, r5, #20736	@ ivtmp.3207, pH264Ctx,
	add	r3, r1, #16	@ ivtmp.3207, ivtmp.3207,
	mov	r0, r7	@ ivtmp.3500, pCurrSlicePara
	mov	r2, r7	@ ivtmp.3211, ivtmp.3500
	mov	r1, #0	@ i,
	str	r4, [r7, #80]	@ <variable>.CurrSlice.luma_log2_weight_denom, <variable>.luma_log2_weight_denom
	mov	r4, #20736	@ tmp578,
	ldr	ip, [r5, ip]	@ <variable>.CurrSlice.chroma_log2_weight_denom, <variable>.CurrSlice.chroma_log2_weight_denom
	str	ip, [r7, #84]	@ <variable>.CurrSlice.chroma_log2_weight_denom, <variable>.chroma_log2_weight_denom
.L911:
	ldr	ip, [r3, #0]	@ tmp554, <variable>.CurrSlice.wp_weight_l0_y
	add	r1, r1, #1	@ i, i,
	str	ip, [r2, #88]	@ tmp554, <variable>.wp_weight_l0_y
	ldr	ip, [r3, #128]	@ tmp555, <variable>.CurrSlice.wp_weight_l0_u
	str	ip, [r2, #216]	@ tmp555, <variable>.wp_weight_l0_u
	ldr	ip, [r3, #256]	@ tmp556, <variable>.CurrSlice.wp_weight_l0_v
	str	ip, [r2, #344]	@ tmp556, <variable>.wp_weight_l0_v
	ldr	ip, [r3, #768]	@ tmp557, <variable>.CurrSlice.wp_offset_l0_y
	str	ip, [r2, #856]	@ tmp557, <variable>.wp_offset_l0_y
	ldr	ip, [r3, #896]	@ tmp558, <variable>.CurrSlice.wp_offset_l0_u
	str	ip, [r2, #984]	@ tmp558, <variable>.wp_offset_l0_u
	ldr	ip, [r3, #1024]	@ tmp559, <variable>.CurrSlice.wp_offset_l0_v
	add	r3, r3, #4	@ ivtmp.3207, ivtmp.3207,
	str	ip, [r2, #1112]	@ tmp559, <variable>.wp_offset_l0_v
	add	r2, r2, #4	@ ivtmp.3211, ivtmp.3211,
	ldr	ip, [r5, r4]	@ <variable>.CurrSlice.num_ref_idx_l0_active_minus1, <variable>.CurrSlice.num_ref_idx_l0_active_minus1
	cmp	ip, r1	@ <variable>.CurrSlice.num_ref_idx_l0_active_minus1, i
	bcs	.L911	@,
	movw	r3, #20680	@ tmp562,
	ldrb	r2, [r5, r3]	@ zero_extendqisi2	@ <variable>.CurrSlice.slice_type, <variable>.CurrSlice.slice_type
	cmp	r2, #1	@ <variable>.CurrSlice.slice_type,
	beq	.L950	@,
.L868:
	ldr	r1, [sp, #8]	@, %sfp
	mov	r0, #0	@ tmp576,
	ldr	ip, [r5, #368]	@ <variable>.pCurrNal, <variable>.pCurrNal
	add	r3, r1, #12672	@ tmp573,,
	add	r2, r3, #4	@ tmp573, tmp573,
	str	ip, [r5, r2, asl #2]	@ <variable>.pCurrNal, <variable>.pSliceNal
	str	r0, [r5, #368]	@ tmp576, <variable>.pCurrNal
	add	sp, sp, #20	@,,
	ldmfd	sp!, {r4, r5, r6, r7, r8, r9, sl, fp, pc}
.L863:
	movw	r1, #50112	@ tmp268,
	ldr	r2, [r5, r1]	@ temp.3341, <variable>.CurrPic.frame_store
	ldr	r0, [r2, #428]	@ <variable>.frame.MaxQp, <variable>.frame.MaxQp
	ldr	r1, [r2, #432]	@ <variable>.frame.MinQp, <variable>.frame.MinQp
	cmp	r0, r3	@ <variable>.frame.MaxQp, D.37041
	strge	r0, [r2, #428]	@, <variable>.frame.MaxQp, <variable>.frame.MaxQp
	strlt	r3, [r2, #428]	@, D.37041, <variable>.frame.MaxQp
	cmp	r1, r3	@ <variable>.frame.MinQp, D.37041
	strle	r1, [r2, #432]	@, <variable>.frame.MinQp, <variable>.frame.MinQp
	strgt	r3, [r2, #432]	@, D.37041, <variable>.frame.MinQp
	b	.L864	@
.L909:
	movw	r0, #17632	@ tmp545,
	ldr	r1, [r5, r0]	@ <variable>.CurrPPS.weighted_bipred_idc, <variable>.CurrPPS.weighted_bipred_idc
	cmp	r1, #1	@ <variable>.CurrPPS.weighted_bipred_idc,
	bne	.L868	@,
	movw	r3, #20680	@ tmp547,
	ldrb	r2, [r5, r3]	@ zero_extendqisi2	@ <variable>.CurrSlice.slice_type, <variable>.CurrSlice.slice_type
	cmp	r2, #1	@ <variable>.CurrSlice.slice_type,
	bne	.L868	@,
	b	.L910	@
.L883:
	movw	fp, #20724	@ tmp345,
	ldr	r0, [r5, fp]	@ <variable>.CurrSlice.listXsize, <variable>.CurrSlice.listXsize
	cmp	r0, #0	@ <variable>.CurrSlice.listXsize,
	beq	.L886	@,
	add	r9, r5, #26880	@ ivtmp.3252, pH264Ctx,
	mov	r4, r7	@ ivtmp.3257, pCurrSlicePara
	add	r6, r9, #156	@ ivtmp.3252, ivtmp.3252,
	mov	sl, r8	@ tmp585, i.3344
	movw	r9, #52840	@ tmp583,
.L890:
	ldr	ip, [r6, #0]	@ tmp350, <variable>.pListX
	ldr	r0, [r5, r9]	@, <variable>.ChanID
	ldr	lr, [ip, #4]	@ <variable>.frame_store, <variable>.frame_store
	ldr	r1, [lr, #508]	@, <variable>.logic_fs_id
	bl	FSP_GetLogicFs	@
	ldr	r3, [r6, #0]	@ tmp353, <variable>.pListX
	ldr	r2, [r3, #4]	@ <variable>.frame_store, <variable>.frame_store
	ldr	r1, [r2, #548]	@ <variable>.pmv_address_idc, <variable>.pmv_address_idc
	str	r1, [r4, #1636]	@ <variable>.pmv_address_idc, <variable>.pmv_address_idc
	ldr	ip, [r6, #0]	@ tmp356, <variable>.pListX
	ldr	r3, [ip, #4]	@ <variable>.frame_store, <variable>.frame_store
	ldrb	r2, [r3, #1]	@ zero_extendqisi2	@ <variable>.is_used, <variable>.is_used
	strb	r2, [r4, #1625]	@ <variable>.is_used, <variable>.is_used
	ldr	r1, [r6, #0]	@ tmp360, <variable>.pListX
	ldr	ip, [r1, #4]	@ <variable>.frame_store, <variable>.frame_store
	ldrb	r3, [ip, #0]	@ zero_extendqisi2	@ <variable>.non_existing, <variable>.non_existing
	cmp	r3, #1	@ <variable>.non_existing,
	ldreq	r0, [sp, #4]	@ ExistImgIdc_0.3333, %sfp
	beq	.L888	@,
	cmp	r0, #0	@ pstLogicFs.3359,
	ldrne	r3, [r0, #408]	@ <variable>.pstDecodeFs, <variable>.pstDecodeFs
	ldrne	r0, [r3, #4]	@ ExistImgIdc_0.3333, <variable>.PhyFsID
.L888:
	str	r0, [r4, #1640]	@ ExistImgIdc_0.3333, <variable>.img_idc
	add	r8, r8, #1	@ i.3344, i.3344,
	ldr	r1, [r6, #0]	@ tmp364, <variable>.pListX
	ldr	r0, [r1, #4]	@ <variable>.frame_store, <variable>.frame_store
	ldr	ip, [r0, #552]	@ <variable>.apc_idc, <variable>.apc_idc
	str	ip, [r4, #1644]	@ <variable>.apc_idc, <variable>.apc_idc
	ldr	lr, [r6, #0]	@ tmp367, <variable>.pListX
	ldr	r3, [lr, #4]	@ <variable>.frame_store, <variable>.frame_store
	ldr	r2, [r3, #524]	@ <variable>.poc, <variable>.poc
	str	r2, [r4, #1632]	@ <variable>.poc, <variable>.poc
	ldr	r1, [r6, #0]	@ tmp370, <variable>.pListX
	ldrb	r0, [r1, #1]	@ zero_extendqisi2	@ <variable>.is_long_term, <variable>.is_long_term
	strb	r0, [r4, #1627]	@ <variable>.is_long_term, <variable>.frame_is_long_term
	ldr	ip, [r6, #0]	@ tmp373, <variable>.pListX
	ldrb	lr, [ip, #0]	@ zero_extendqisi2	@ <variable>.structure, <variable>.structure
	strb	lr, [r4, #1626]	@ <variable>.structure, <variable>.frame_structure
	ldr	r3, [r6, #0]	@ tmp376, <variable>.pListX
	ldr	r2, [r3, #4]	@ <variable>.frame_store, <variable>.frame_store
	ldr	r1, [r2, #416]	@ <variable>.frame.poc, <variable>.frame.poc
	str	r1, [r4, #1648]	@ <variable>.frame.poc, <variable>.frame_poc
	ldr	r0, [r6, #0]	@ tmp379, <variable>.pListX
	ldr	ip, [r0, #4]	@ <variable>.frame_store, <variable>.frame_store
	ldr	lr, [ip, #452]	@ <variable>.top_field.poc, <variable>.top_field.poc
	str	lr, [r4, #1652]	@ <variable>.top_field.poc, <variable>.top_poc
	ldr	r3, [r6], #4	@ tmp382, <variable>.pListX
	ldr	r2, [r3, #4]	@ <variable>.frame_store, <variable>.frame_store
	ldr	r1, [r2, #488]	@ <variable>.bottom_field.poc, <variable>.bottom_field.poc
	strb	sl, [r4, #1624]	@ tmp585, <variable>.list_structure
	str	r1, [r4, #1656]	@ <variable>.bottom_field.poc, <variable>.btm_poc
	add	r4, r4, #36	@ ivtmp.3257, ivtmp.3257,
	ldr	r0, [r5, fp]	@ <variable>.CurrSlice.listXsize, <variable>.CurrSlice.listXsize
	cmp	r0, r8	@ <variable>.CurrSlice.listXsize, i.3344
	bhi	.L890	@,
.L886:
	movw	r3, #20680	@ tmp389,
	ldrb	r2, [r5, r3]	@ zero_extendqisi2	@ <variable>.CurrSlice.slice_type, <variable>.CurrSlice.slice_type
	cmp	r2, #1	@ <variable>.CurrSlice.slice_type,
	bne	.L891	@,
	movw	fp, #20728	@ tmp391,
	ldr	ip, [r5, fp]	@ <variable>.CurrSlice.listXsize, <variable>.CurrSlice.listXsize
	cmp	ip, #0	@ <variable>.CurrSlice.listXsize,
	beq	.L891	@,
	add	r6, r5, #27136	@ ivtmp.3234, pH264Ctx,
	add	sl, r7, #1632	@ ivtmp.3241, pCurrSlicePara,
	mov	r8, #0	@ i.3408,
	add	r6, r6, #32	@ ivtmp.3234, ivtmp.3234,
	add	r4, sl, #8	@ ivtmp.3241, ivtmp.3241,
	movw	r9, #52840	@ tmp579,
	mov	sl, r8	@ tmp581, i.3408
.L895:
	ldr	r1, [r6, #0]	@ tmp397, <variable>.pListX
	ldr	r0, [r5, r9]	@, <variable>.ChanID
	ldr	lr, [r1, #4]	@ <variable>.frame_store, <variable>.frame_store
	ldr	r1, [lr, #508]	@, <variable>.logic_fs_id
	bl	FSP_GetLogicFs	@
	ldr	ip, [r6, #0]	@ tmp400, <variable>.pListX
	ldr	r3, [ip, #4]	@ <variable>.frame_store, <variable>.frame_store
	ldr	r2, [r3, #548]	@ <variable>.pmv_address_idc, <variable>.pmv_address_idc
	str	r2, [r4, #1148]	@ <variable>.pmv_address_idc, <variable>.pmv_address_idc
	ldr	r1, [r6, #0]	@ tmp403, <variable>.pListX
	ldr	ip, [r1, #4]	@ <variable>.frame_store, <variable>.frame_store
	ldrb	r3, [ip, #1]	@ zero_extendqisi2	@ <variable>.is_used, <variable>.is_used
	strb	r3, [r4, #1137]	@ <variable>.is_used, <variable>.is_used
	ldr	r2, [r6, #0]	@ tmp407, <variable>.pListX
	ldr	r1, [r2, #4]	@ <variable>.frame_store, <variable>.frame_store
	ldrb	r3, [r1, #0]	@ zero_extendqisi2	@ <variable>.non_existing, <variable>.non_existing
	cmp	r3, #1	@ <variable>.non_existing,
	ldreq	r0, [sp, #12]	@ ExistImgIdc_1.3334, %sfp
	beq	.L893	@,
	cmp	r0, #0	@ pstLogicFs.3386,
	ldrne	r3, [r0, #408]	@ <variable>.pstDecodeFs, <variable>.pstDecodeFs
	ldrne	r0, [r3, #4]	@ ExistImgIdc_1.3334, <variable>.PhyFsID
.L893:
	str	r0, [r4, #0]	@ ExistImgIdc_1.3334, <variable>.img_idc
	add	r8, r8, #1	@ i.3408, i.3408,
	ldr	r2, [r6, #0]	@ tmp411, <variable>.pListX
	ldr	r0, [r2, #4]	@ <variable>.frame_store, <variable>.frame_store
	ldr	r1, [r0, #552]	@ <variable>.apc_idc, <variable>.apc_idc
	str	r1, [r4, #1156]	@ <variable>.apc_idc, <variable>.apc_idc
	ldr	lr, [r6, #0]	@ tmp414, <variable>.pListX
	ldr	ip, [lr, #4]	@ <variable>.frame_store, <variable>.frame_store
	ldr	r3, [ip, #524]	@ <variable>.poc, <variable>.poc
	str	r3, [r4, #1144]	@ <variable>.poc, <variable>.poc
	ldr	r2, [r6, #0]	@ tmp417, <variable>.pListX
	ldrb	r0, [r2, #1]	@ zero_extendqisi2	@ <variable>.is_long_term, <variable>.is_long_term
	strb	r0, [r4, #1139]	@ <variable>.is_long_term, <variable>.frame_is_long_term
	ldr	r1, [r6, #0]	@ tmp420, <variable>.pListX
	ldrb	lr, [r1, #0]	@ zero_extendqisi2	@ <variable>.structure, <variable>.structure
	strb	lr, [r4, #1138]	@ <variable>.structure, <variable>.frame_structure
	ldr	ip, [r6, #0]	@ tmp423, <variable>.pListX
	ldr	r3, [ip, #4]	@ <variable>.frame_store, <variable>.frame_store
	ldr	r2, [r3, #416]	@ <variable>.frame.poc, <variable>.frame.poc
	str	r2, [r4, #1160]	@ <variable>.frame.poc, <variable>.frame_poc
	ldr	r0, [r6, #0]	@ tmp426, <variable>.pListX
	ldr	r1, [r0, #4]	@ <variable>.frame_store, <variable>.frame_store
	ldr	lr, [r1, #452]	@ <variable>.top_field.poc, <variable>.top_field.poc
	str	lr, [r4, #1164]	@ <variable>.top_field.poc, <variable>.top_poc
	ldr	ip, [r6], #4	@ tmp429, <variable>.pListX
	ldr	r3, [ip, #4]	@ <variable>.frame_store, <variable>.frame_store
	ldr	r2, [r3, #488]	@ <variable>.bottom_field.poc, <variable>.bottom_field.poc
	strb	sl, [r4, #1136]	@ tmp581, <variable>.list_structure
	str	r2, [r4, #1168]	@ <variable>.bottom_field.poc, <variable>.btm_poc
	add	r4, r4, #36	@ ivtmp.3241, ivtmp.3241,
	ldr	r0, [r5, fp]	@ <variable>.CurrSlice.listXsize, <variable>.CurrSlice.listXsize
	cmp	r0, r8	@ <variable>.CurrSlice.listXsize, i.3408
	bhi	.L895	@,
	b	.L891	@
.L877:
	movw	lr, #52840	@ tmp334,
	ldr	r1, [r3, #508]	@, <variable>.logic_fs_id
	ldr	r0, [r5, lr]	@, <variable>.ChanID
	bl	FSP_GetLogicFs	@
	subs	r3, r0, #0	@ pstLogicFs.3350,
	beq	.L951	@,
	ldr	r0, [r3, #408]	@ <variable>.pstDecodeFs, <variable>.pstDecodeFs
	ldr	r8, [r0, #4]	@, <variable>.PhyFsID
	str	r8, [sp, #12]	@, %sfp
	b	.L881	@
.L947:
	movw	r0, #17632	@ tmp295,
	ldr	ip, [r5, r0]	@ <variable>.CurrPPS.weighted_bipred_idc, <variable>.CurrPPS.weighted_bipred_idc
	strb	ip, [r7, #4]	@ <variable>.CurrPPS.weighted_bipred_idc, <variable>.weight_flag
	b	.L866	@
.L949:
	movw	r9, #20728	@ tmp484,
	ldr	r0, [r5, r9]	@ <variable>.CurrSlice.listXsize, <variable>.CurrSlice.listXsize
	cmp	r0, #0	@ <variable>.CurrSlice.listXsize,
	beq	.L891	@,
	add	sl, r5, #27136	@ ivtmp.3270, pH264Ctx,
	add	r8, r7, #2800	@ ivtmp.3279, pCurrSlicePara,
	add	r4, sl, #32	@ ivtmp.3270, ivtmp.3270,
	add	r6, r8, #4	@ ivtmp.3279, ivtmp.3279,
	movw	sl, #52840	@ tmp587,
	mov	r8, #0	@ i.3439,
	b	.L907	@
.L905:
	strb	r3, [r6, #-22]	@ temp.3477, <variable>.btm_structure
	ldr	r1, [r4, #0]	@ tmp526, <variable>.pListX
	ldrb	r0, [r1, #1]	@ zero_extendqisi2	@ <variable>.is_long_term, <variable>.is_long_term
	strb	r0, [r6, #-21]	@ <variable>.is_long_term, <variable>.btm_is_long_term
	ldr	ip, [r4, #0]	@ tmp529, <variable>.pListX
	ldr	lr, [ip, #16]	@ <variable>.poc, <variable>.poc
	str	lr, [r6, #4]	@ <variable>.poc, <variable>.btm_poc
.L906:
	ldr	r2, [r5, r9]	@ <variable>.CurrSlice.listXsize, <variable>.CurrSlice.listXsize
	add	r8, r8, #1	@ i.3439, i.3439,
	add	r4, r4, #4	@ ivtmp.3270, ivtmp.3270,
	add	r6, r6, #36	@ ivtmp.3279, ivtmp.3279,
	cmp	r2, r8	@ <variable>.CurrSlice.listXsize, i.3439
	bls	.L891	@,
.L907:
	ldr	ip, [r4, #0]	@ tmp490, <variable>.pListX
	ldr	r0, [r5, sl]	@, <variable>.ChanID
	ldr	lr, [ip, #4]	@ <variable>.frame_store, <variable>.frame_store
	ldr	r1, [lr, #508]	@, <variable>.logic_fs_id
	bl	FSP_GetLogicFs	@
	ldr	r3, [r4, #0]	@ tmp493, <variable>.pListX
	ldr	r2, [r3, #4]	@ <variable>.frame_store, <variable>.frame_store
	ldr	r1, [r2, #548]	@ <variable>.pmv_address_idc, <variable>.pmv_address_idc
	str	r1, [r6, #-16]	@ <variable>.pmv_address_idc, <variable>.pmv_address_idc
	ldr	ip, [r4, #0]	@ tmp496, <variable>.pListX
	ldr	r3, [ip, #4]	@ <variable>.frame_store, <variable>.frame_store
	ldrb	r2, [r3, #1]	@ zero_extendqisi2	@ <variable>.is_used, <variable>.is_used
	strb	r2, [r6, #-27]	@ <variable>.is_used, <variable>.is_used
	ldr	r1, [r4, #0]	@ tmp500, <variable>.pListX
	ldr	ip, [r1, #4]	@ <variable>.frame_store, <variable>.frame_store
	ldrb	r3, [ip, #0]	@ zero_extendqisi2	@ <variable>.non_existing, <variable>.non_existing
	cmp	r3, #1	@ <variable>.non_existing,
	ldreq	r0, [sp, #12]	@ ExistImgIdc_1, %sfp
	beq	.L903	@,
	cmp	r0, #0	@ pstLogicFs.3454,
	ldrne	r3, [r0, #408]	@ <variable>.pstDecodeFs, <variable>.pstDecodeFs
	ldrne	r0, [r3, #4]	@ ExistImgIdc_1, <variable>.PhyFsID
.L903:
	str	r0, [r6, #-12]	@ ExistImgIdc_1, <variable>.img_idc
	ldr	ip, [r4, #0]	@ tmp504, <variable>.pListX
	ldr	lr, [ip, #4]	@ <variable>.frame_store, <variable>.frame_store
	ldr	r3, [lr, #552]	@ <variable>.apc_idc, <variable>.apc_idc
	str	r3, [r6, #-8]	@ <variable>.apc_idc, <variable>.apc_idc
	ldr	r2, [r4, #0]	@ tmp507, <variable>.pListX
	ldr	r1, [r2, #4]	@ <variable>.frame_store, <variable>.frame_store
	ldr	r0, [r1, #524]	@ <variable>.poc, <variable>.poc
	str	r0, [r6, #-20]	@ <variable>.poc, <variable>.poc
	ldr	ip, [r4, #0]	@ tmp510, <variable>.pListX
	ldrb	lr, [ip, #0]	@ zero_extendqisi2	@ <variable>.structure, <variable>.structure
	strb	lr, [r6, #-28]	@ <variable>.structure, <variable>.list_structure
	ldr	r3, [r4, #0]	@ tmp513, <variable>.pListX
	ldr	r2, [r3, #4]	@ <variable>.frame_store, <variable>.frame_store
	ldrb	r1, [r2, #400]	@ zero_extendqisi2	@ <variable>.frame.structure, <variable>.frame.structure
	strb	r1, [r6, #-26]	@ <variable>.frame.structure, <variable>.frame_structure
	ldr	r0, [r4, #0]	@ tmp517, <variable>.pListX
	ldrb	r3, [r0, #0]	@ zero_extendqisi2	@ temp.3477, <variable>.structure
	cmp	r3, #1	@ temp.3477,
	bne	.L905	@,
	strb	r3, [r6, #-24]	@ temp.3477, <variable>.top_structure
	ldr	r3, [r4, #0]	@ tmp520, <variable>.pListX
	ldrb	r2, [r3, #1]	@ zero_extendqisi2	@ <variable>.is_long_term, <variable>.is_long_term
	strb	r2, [r6, #-23]	@ <variable>.is_long_term, <variable>.top_is_long_term
	ldr	r1, [r4, #0]	@ tmp523, <variable>.pListX
	ldr	r0, [r1, #16]	@ <variable>.poc, <variable>.poc
	str	r0, [r6, #0]	@ <variable>.poc, <variable>.top_poc
	b	.L906	@
.L950:
	add	r1, r5, #20992	@ ivtmp.3190, pH264Ctx,
	mov	r2, #0	@ i.3339,
	add	r3, r1, #144	@ ivtmp.3190, ivtmp.3190,
	movw	ip, #20740	@ tmp577,
.L912:
	ldr	r1, [r3, #0]	@ tmp565, <variable>.CurrSlice.wp_weight_l1_y
	add	r2, r2, #1	@ i.3339, i.3339,
	str	r1, [r0, #472]	@ tmp565, <variable>.wp_weight_l1_y
	ldr	r1, [r3, #128]	@ tmp566, <variable>.CurrSlice.wp_weight_l1_u
	str	r1, [r0, #600]	@ tmp566, <variable>.wp_weight_l1_u
	ldr	r1, [r3, #256]	@ tmp567, <variable>.CurrSlice.wp_weight_l1_v
	str	r1, [r0, #728]	@ tmp567, <variable>.wp_weight_l1_v
	ldr	r1, [r3, #768]	@ tmp568, <variable>.CurrSlice.wp_offset_l1_y
	str	r1, [r0, #1240]	@ tmp568, <variable>.wp_offset_l1_y
	ldr	r1, [r3, #896]	@ tmp569, <variable>.CurrSlice.wp_offset_l1_u
	str	r1, [r0, #1368]	@ tmp569, <variable>.wp_offset_l1_u
	ldr	r1, [r3, #1024]	@ tmp570, <variable>.CurrSlice.wp_offset_l1_v
	add	r3, r3, #4	@ ivtmp.3190, ivtmp.3190,
	str	r1, [r0, #1496]	@ tmp570, <variable>.wp_offset_l1_v
	add	r0, r0, #4	@ ivtmp.3500, ivtmp.3500,
	ldr	r1, [r5, ip]	@ <variable>.CurrSlice.num_ref_idx_l1_active_minus1, <variable>.CurrSlice.num_ref_idx_l1_active_minus1
	cmp	r1, r2	@ <variable>.CurrSlice.num_ref_idx_l1_active_minus1, i.3339
	bcs	.L912	@,
	b	.L868	@
.L948:
	movw	r1, #:lower16:.LC22	@,
	movw	r2, #7080	@,
	movt	r1, #:upper16:.LC22	@,
	add	sp, sp, #20	@,,
	ldmfd	sp!, {r4, r5, r6, r7, r8, r9, sl, fp, lr}
	b	dprint_vfmw	@
.L951:
	movw	r1, #:lower16:.LC22	@,
	movw	r2, #7101	@,
	movt	r1, #:upper16:.LC22	@,
	add	sp, sp, #20	@,,
	ldmfd	sp!, {r4, r5, r6, r7, r8, r9, sl, fp, lr}
	b	dprint_vfmw	@
	.fnend
	.size	WriteSliceMsg, .-WriteSliceMsg
	.align	2
	.global	GetAPC
	.type	GetAPC, %function
GetAPC:
	.fnstart
.LFB1636:
	@ args = 0, pretend = 0, frame = 0
	@ frame_needed = 0, uses_anonymous_args = 0
	stmfd	sp!, {r4, r5, r6, r7, r8, sl, lr}	@,
	.save {r4, r5, r6, r7, r8, sl, lr}
	subs	r5, r1, #0	@ pFrameStore, pFrameStore
	.pad #12
	sub	sp, sp, #12	@,,
	mov	r6, r0	@ pH264Ctx, pH264Ctx
	beq	.L979	@,
	cmp	r2, #1	@ structure,
	beq	.L956	@,
	cmp	r2, #2	@ structure,
	beq	.L980	@,
	ldr	r7, [r5, #452]	@ toppoc, <variable>.top_field.poc
	ldr	r8, [r5, #488]	@ bottompoc, <variable>.bottom_field.poc
.L958:
	movw	r3, #26900	@ tmp152,
	ldr	r0, [r6, r3]	@ D.34075, <variable>.APC.size
	cmp	r0, #0	@ D.34075,
	beq	.L959	@,
	movw	r1, #26644	@ tmp153,
	ldr	r4, [r6, r1]	@ <variable>.APC.is_used, <variable>.APC.is_used
	cmp	r4, #0	@ <variable>.APC.is_used,
	beq	.L961	@,
	tst	r0, #1	@ D.34075,
	add	r3, r6, #26624	@ tmp191, pH264Ctx,
	add	r2, r3, #24	@ ivtmp.3533, tmp191,
	mov	r4, #0	@ i,
	bne	.L962	@,
	ldr	ip, [r2, #0]	@ D.34047, <variable>.APC.is_used
	mov	r4, #1	@ i,
	add	r2, r3, #28	@ ivtmp.3533, tmp191,
	cmp	ip, #0	@ D.34047,
	bne	.L962	@,
	b	.L961	@
.L967:
	ldr	ip, [r3], #4	@ D.34047, <variable>.APC.is_used
	cmp	ip, #0	@ D.34047,
	beq	.L961	@,
	ldr	r1, [r2, #4]	@ D.34047, <variable>.APC.is_used
	add	r4, r4, #1	@ i, i,
	add	r2, r3, #4	@ ivtmp.3533, tmp196,
	cmp	r1, #0	@ D.34047,
	beq	.L961	@,
.L962:
	add	r4, r4, #1	@ i, i,
	mov	r3, r2	@ tmp196, ivtmp.3533
	cmp	r4, r0	@ i, D.34075
	bcc	.L967	@,
.L959:
	mvn	r0, #0	@ D.34045,
.L954:
	add	sp, sp, #12	@,,
	ldmfd	sp!, {r4, r5, r6, r7, r8, sl, pc}
.L980:
	ldr	r7, [r5, #488]	@ toppoc, <variable>.bottom_field.poc
	mov	r8, r7	@ bottompoc, toppoc
	b	.L958	@
.L961:
	movw	r2, #52840	@ tmp155,
	ldr	r1, [r5, #508]	@, <variable>.logic_fs_id
	ldr	r0, [r6, r2]	@, <variable>.ChanID
	bl	FSP_GetLogicFs	@
	subs	ip, r0, #0	@ pstLogicFs,
	beq	.L963	@,
	ldr	r0, [ip, #408]	@ <variable>.pstDecodeFs, <variable>.pstDecodeFs
	cmp	r0, #0	@ <variable>.pstDecodeFs,
	beq	.L963	@,
	add	r2, r4, #6656	@ tmp160, i,
	movw	sl, #26904	@ tmp186,
	movw	r1, #:lower16:.LC23	@,
	mov	r3, r4	@, i
	add	r0, r6, r2, asl #2	@, tmp163, pH264Ctx, tmp160,
	ldr	r2, [r6, sl]	@ D.34062, <variable>.APC.used_size
	mov	sl, #1	@ tmp165,
	movt	r1, #:upper16:.LC23	@,
	mov	lr, r0	@ tmp184, tmp163
	str	sl, [r0, #20]	@ tmp165, <variable>.APC.is_used
	ldr	r0, [ip, #408]	@ <variable>.pstDecodeFs, <variable>.pstDecodeFs
	cmp	r2, #15	@ D.34062,
	addls	r2, r2, #1	@ iftmp.495, D.34062,
	movhi	r2, #16	@ iftmp.495,
	ldr	ip, [r0, #4]	@ <variable>.PhyFsID, <variable>.PhyFsID
	mov	r0, #13	@,
	str	r7, [lr, #148]	@ toppoc, <variable>.APC.poc
	str	r8, [lr, #212]	@ bottompoc, <variable>.APC.poc
	str	ip, [lr, #84]	@ <variable>.PhyFsID, <variable>.APC.idc
	movw	lr, #26904	@ tmp187,
	str	r2, [r6, lr]	@ iftmp.495, <variable>.APC.used_size
	ldr	r2, [r5, #184]	@, <variable>.fs_image.image_id
	bl	dprint_vfmw	@
	str	r4, [r5, #552]	@ i, <variable>.apc_idc
	mov	r0, #0	@ D.34045,
	b	.L954	@
.L956:
	ldr	r7, [r5, #452]	@ toppoc, <variable>.top_field.poc
	mov	r8, r7	@ bottompoc, toppoc
	b	.L958	@
.L979:
	mov	r0, r5	@, pFrameStore
	movw	r1, #:lower16:.LC1	@,
	movw	r2, #:lower16:.LC2	@,
	movt	r1, #:upper16:.LC1	@,
	movt	r2, #:upper16:.LC2	@,
	movw	r3, #2010	@,
	bl	dprint_vfmw	@
	mvn	r0, #0	@ D.34045,
	b	.L954	@
.L963:
	mov	lr, #0	@ tmp190,
	ldrb	r3, [r5, #2]	@ zero_extendqisi2	@ D.34070, <variable>.is_reference
	ldr	r2, [r5, #508]	@ D.34051, <variable>.logic_fs_id
	mov	r0, lr	@, tmp190
	movw	r1, #:lower16:.LC24	@,
	movt	r1, #:upper16:.LC24	@,
	stmia	sp, {ip, lr}	@ phole stm
	bl	dprint_vfmw	@
	mvn	r0, #0	@ D.34045,
	b	.L954	@
	.fnend
	.size	GetAPC, .-GetAPC
	.align	2
	.global	ExchangePts
	.type	ExchangePts, %function
ExchangePts:
	.fnstart
.LFB1629:
	@ args = 0, pretend = 0, frame = 8
	@ frame_needed = 0, uses_anonymous_args = 0
	stmfd	sp!, {r4, r5, r6, r7, r8, r9, sl, fp, lr}	@,
	.save {r4, r5, r6, r7, r8, r9, sl, fp, lr}
	.pad #20
	sub	sp, sp, #20	@,,
	mov	r6, r0	@ pH264Ctx, pH264Ctx
	mvn	r0, #0	@ tmp145,
	str	r1, [sp, #12]	@ pFrameStore, %sfp
	ldrd	r2, [r1, #16]	@ <variable>.fs_image.PTS, pFrameStore,
	mvn	r1, #0	@,
	cmp	r3, r1	@ <variable>.fs_image.PTS, tmp145
	cmpeq	r2, r0	@ <variable>.fs_image.PTS, tmp145
	beq	.L987	@,
	movw	r9, #26628	@ tmp146,
	ldr	r3, [r6, r9]	@ <variable>.DPB.used_size, <variable>.DPB.used_size
	cmp	r3, #0	@ <variable>.DPB.used_size,
	beq	.L987	@,
	add	r7, r6, #26368	@ ivtmp.3567, pH264Ctx,
	mvn	sl, #1	@ MinPts.3574,
	add	r7, r7, #64	@ ivtmp.3567, ivtmp.3567,
	mvn	fp, #0	@ MinPts.3574,
	mov	r8, #0	@ i,
	mvn	r1, #0	@,
	str	r1, [sp, #8]	@, %sfp
.L986:
	ldr	r3, [r7, #0]	@ D.33694, <variable>.DPB.fs
	cmp	r3, #0	@ D.33694,
	beq	.L983	@,
	movw	r2, #52840	@,
	ldr	r1, [r3, #508]	@, <variable>.logic_fs_id
	ldr	r0, [r6, r2]	@, <variable>.ChanID
	bl	FSP_GetLogicFs	@
	cmp	r0, #0	@ pstLogicFs
