	.arch armv7-a
	.fpu softvfp
	.eabi_attribute 20, 1	@ Tag_ABI_FP_denormal
	.eabi_attribute 21, 1	@ Tag_ABI_FP_exceptions
	.eabi_attribute 23, 3	@ Tag_ABI_FP_number_model
	.eabi_attribute 24, 1	@ Tag_ABI_align8_needed
	.eabi_attribute 25, 1	@ Tag_ABI_align8_preserved
	.eabi_attribute 26, 2	@ Tag_ABI_enum_size
	.eabi_attribute 30, 2	@ Tag_ABI_optimization_goals
	.eabi_attribute 34, 0	@ Tag_CPU_unaligned_access
	.eabi_attribute 18, 4	@ Tag_ABI_PCS_wchar_t
	.file	"vfmw_ctrl.c"
@ GNU C (gcc-linaro-4.9-2014.09 + glibc-2.24 (Build by czyong) Wed Dec 21 10:39:16 CST 2016) version 4.9.2 20140904 (prerelease) (arm-gcc492_glibc224-linux-gnueabi)
@	compiled by GNU C version 4.1.2 20080704 (Red Hat 4.1.2-44), GMP version 5.0.5, MPFR version 3.1.2, MPC version 1.0.1
@ GGC heuristics: --param ggc-min-expand=100 --param ggc-min-heapsize=131072
@ options passed:  -nostdinc
@ -I /usr1/code/v1r4_v1r6_sourceCode/code/current/v1r6_hi3716mv330_pack/work/source/kernel/linux-3.10.y/arch/arm/include
@ -I arch/arm/include/generated -I include
@ -I /usr1/code/v1r4_v1r6_sourceCode/code/current/v1r6_hi3716mv330_pack/work/source/kernel/linux-3.10.y/arch/arm/include/uapi
@ -I arch/arm/include/generated/uapi
@ -I /usr1/code/v1r4_v1r6_sourceCode/code/current/v1r6_hi3716mv330_pack/work/source/kernel/linux-3.10.y/include/uapi
@ -I include/generated/uapi -I arch/arm/mach-hi3716mv310/include
@ -I /usr1/code/v1r4_v1r6_sourceCode/code/current/v1r6_hi3716mv330_pack/work/source/kernel/linux-3.10.y/../../../source/common/include
@ -I /usr1/code/v1r4_v1r6_sourceCode/code/current/v1r6_hi3716mv330_pack/work/source/kernel/linux-3.10.y/../../../source/common/drv/include
@ -I /usr1/code/v1r4_v1r6_sourceCode/code/current/v1r6_hi3716mv330_pack/work/source/kernel/linux-3.10.y/../../../source/msp/drv/vfmw/vfmw_v4.0/drv/memmap
@ -I /usr1/code/v1r4_v1r6_sourceCode/code/current/v1r6_hi3716mv330_pack/work/source/kernel/linux-3.10.y/../../../source/msp/drv/vfmw/vfmw_v4.0/model/scd
@ -I /usr1/code/v1r4_v1r6_sourceCode/code/current/v1r6_hi3716mv330_pack/work/source/kernel/linux-3.10.y/../../../source/msp/drv/vfmw/vfmw_v4.0/firmware/common/softlib
@ -I /usr1/code/v1r4_v1r6_sourceCode/code/current/v1r6_hi3716mv330_pack/work/source/kernel/linux-3.10.y/../../../source/msp/drv/vfmw/vfmw_v4.0/firmware/common
@ -I /usr1/code/v1r4_v1r6_sourceCode/code/current/v1r6_hi3716mv330_pack/work/source/kernel/linux-3.10.y/../../../source/msp/drv/vfmw/vfmw_v4.0/firmware/common/syntax
@ -I /usr1/code/v1r4_v1r6_sourceCode/code/current/v1r6_hi3716mv330_pack/work/source/kernel/linux-3.10.y/../../../source/msp/drv/vfmw/vfmw_v4.0/firmware/driver/HiSCDV200
@ -I /usr1/code/v1r4_v1r6_sourceCode/code/current/v1r6_hi3716mv330_pack/work/source/kernel/linux-3.10.y/../../../source/msp/drv/vfmw/vfmw_v4.0/firmware/driver/HiVDHV100
@ -I /usr1/code/v1r4_v1r6_sourceCode/code/current/v1r6_hi3716mv330_pack/work/source/kernel/linux-3.10.y/../../../source/msp/drv/vfmw/vfmw_v4.0/firmware/driver/HiVDHV200R001
@ -I /usr1/code/v1r4_v1r6_sourceCode/code/current/v1r6_hi3716mv330_pack/work/source/kernel/linux-3.10.y/../../../source/msp/drv/vfmw/vfmw_v4.0/firmware/driver/HiVDHV200R002
@ -I /usr1/code/v1r4_v1r6_sourceCode/code/current/v1r6_hi3716mv330_pack/work/source/kernel/linux-3.10.y/../../../source/msp/drv/vfmw/vfmw_v4.0/firmware/driver/HiVDHV200R003
@ -I /usr1/code/v1r4_v1r6_sourceCode/code/current/v1r6_hi3716mv330_pack/work/source/kernel/linux-3.10.y/../../../source/msp/drv/vfmw/vfmw_v4.0/firmware/driver/HiVDHV200R004
@ -I /usr1/code/v1r4_v1r6_sourceCode/code/current/v1r6_hi3716mv330_pack/work/source/kernel/linux-3.10.y/../../../source/msp/drv/vfmw/vfmw_v4.0/model/rawpacket
@ -I /usr1/code/v1r4_v1r6_sourceCode/code/current/v1r6_hi3716mv330_pack/work/source/kernel/linux-3.10.y/../../../source/msp/drv/vfmw/vfmw_v4.0/firmware/product/Hi3716MV310_hisiv310/osal/linux_kernel
@ -I /usr1/code/v1r4_v1r6_sourceCode/code/current/v1r6_hi3716mv330_pack/work/source/kernel/linux-3.10.y/../../../source/msp/drv/vfmw/vfmw_v4.0/firmware/product/Hi3716MV310_hisiv310
@ -I /usr1/code/v1r4_v1r6_sourceCode/code/current/v1r6_hi3716mv330_pack/work/source/kernel/linux-3.10.y/../../../source/msp/drv/vfmw/vfmw_v4.0/firmware/driver/HiDNR
@ -I /usr1/code/v1r4_v1r6_sourceCode/code/current/v1r6_hi3716mv330_pack/work/source/kernel/linux-3.10.y/../../../source/msp/drv/vfmw/vfmw_v4.0/firmware/driver/HiBTLV100
@ -I /usr1/code/v1r4_v1r6_sourceCode/code/current/v1r6_hi3716mv330_pack/work/source/kernel/linux-3.10.y/../../../source/msp/drv/vfmw/vfmw_v4.0/firmware/common_test/vdecko
@ -imultilib a9_soft
@ -iprefix /opt/hisi-linux/x86-arm/arm-histbv310-linux/bin/../lib/gcc/arm-gcc492_glibc224-linux-gnueabi/4.9.2/
@ -isysroot /opt/hisi-linux/x86-arm/arm-histbv310-linux/bin/../target
@ -D __KERNEL__ -D __LINUX_ARM_ARCH__=7 -U arm -D CC_HAVE_ASM_GOTO
@ -D Hi3716MV310 -D ENV_ARMLINUX_KERNEL -D OFF_LINE_DNR_ENABLE
@ -D SCD_MP4_SLICE_ENABLE -D SUPPORT_JPEG_444 -D VFMW_EXTRA_TYPE_DEFINE
@ -D PRODUCT_STB -D __VFMW_REGISTER_ISR__ -D VFMW_VDH_V200R004_SUPPORT
@ -D VFMW_H264_SUPPORT -D VFMW_MPEG2_SUPPORT -D VFMW_MPEG4_SUPPORT
@ -D VFMW_AVS_SUPPORT -D VFMW_VC1_SUPPORT -D VFMW_BPD_H_SUPPORT
@ -D VFMW_REAL8_SUPPORT -D VFMW_REAL9_SUPPORT -D VFMW_VP6_SUPPORT
@ -D VFMW_VP8_SUPPORT -D VFMW_DIVX3_SUPPORT -D VFMW_DNR_SUPPORT
@ -D VFMW_H263_SUPPORT -D VFMW_JPEG_SUPPORT -D VFMW_RAW_SUPPORT
@ -D VFMW_USER_SUPPORT -D CFG_MAX_CHAN_NUM=4 -D CFG_MAX_CHAN_NUM=4
@ -D VFMW_DPRINT_SUPPORT -D VFMW_AVSPLUS_SUPPORT -D VFMW_SYSTEM_REG_DISABLE
@ -D REPAIR_ENABLE -D _FORTIFY_SOURCE=2 -D CHIP_TYPE_hi3716mv310
@ -D SDK_VERSION=HiSTBLinuxV100R006C00SPC052 -D HI_LOG_SUPPORT=1
@ -D HI_LOG_LEVEL=4 -D HI_PROC_SUPPORT=1 -D HI_PNG_DECODER_SUPPORT
@ -D HI_KEYLED_SUPPORT -D HI_HDCP_SUPPORT -D HI_SCI_SUPPORT
@ -D HI_GPIOI2C_SUPPORT -D HI_IR_S2_SUPPORT -D HI_DSC_SUPPORT -D MODULE
@ -D KBUILD_STR(s)=#s -D KBUILD_BASENAME=KBUILD_STR(vfmw_ctrl)
@ -D KBUILD_MODNAME=KBUILD_STR(hi_vfmw)
@ -isystem /opt/hisi-linux/x86-arm/arm-histbv310-linux/bin/../lib/gcc/arm-gcc492_glibc224-linux-gnueabi/4.9.2/include
@ -include /usr1/code/v1r4_v1r6_sourceCode/code/current/v1r6_hi3716mv330_pack/work/source/kernel/linux-3.10.y/include/linux/kconfig.h
@ -MD /usr1/code/v1r4_v1r6_sourceCode/code/current/v1r6_hi3716mv330_pack/work/source/msp/drv/vfmw/vfmw_v4.0/firmware/common/.vfmw_ctrl.o.d
@ /usr1/code/v1r4_v1r6_sourceCode/code/current/v1r6_hi3716mv330_pack/work/source/msp/drv/vfmw/vfmw_v4.0/firmware/common/vfmw_ctrl.c
@ -mlittle-endian -mabi=aapcs-linux -mno-thumb-interwork -marm
@ -march=armv7-a -mfloat-abi=soft -mtls-dialect=gnu -mno-unaligned-access
@ -mword-relocations
@ -auxbase-strip /usr1/code/v1r4_v1r6_sourceCode/code/current/v1r6_hi3716mv330_pack/work/source/msp/drv/vfmw/vfmw_v4.0/firmware/common/vfmw_ctrl.o
@ -O2 -Wall -Wundef -Wstrict-prototypes -Wno-trigraphs
@ -Werror=implicit-function-declaration -Wno-format-security
@ -Wframe-larger-than=1024 -Wno-unused-but-set-variable
@ -Wdeclaration-after-statement -Wno-pointer-sign -fno-strict-aliasing
@ -fno-common -fno-dwarf2-cfi-asm -funwind-tables -fno-stack-protector
@ -fomit-frame-pointer -fno-strict-overflow -fconserve-stack -fno-pic
@ -fverbose-asm -fno-delete-null-pointer-checks -fdiagnostics-color=auto
@ -fno-aggressive-loop-optimizations -fno-tree-vrp
@ options enabled:  -fauto-inc-dec -fbranch-count-reg -fcaller-saves
@ -fcombine-stack-adjustments -fcompare-elim -fcprop-registers
@ -fcrossjumping -fcse-follow-jumps -fdefer-pop -fdevirtualize
@ -fdevirtualize-speculatively -fearly-inlining
@ -feliminate-unused-debug-types -fexpensive-optimizations
@ -fforward-propagate -ffunction-cse -fgcse -fgcse-lm -fgnu-runtime
@ -fgnu-unique -fguess-branch-probability -fhoist-adjacent-loads -fident
@ -fif-conversion -fif-conversion2 -findirect-inlining -finline
@ -finline-atomics -finline-functions-called-once -finline-small-functions
@ -fipa-cp -fipa-profile -fipa-pure-const -fipa-reference -fipa-sra
@ -fira-hoist-pressure -fira-share-save-slots -fira-share-spill-slots
@ -fisolate-erroneous-paths-dereference -fivopts -fkeep-static-consts
@ -fleading-underscore -fmath-errno -fmerge-constants -fmerge-debug-strings
@ -fmove-loop-invariants -fomit-frame-pointer -foptimize-sibling-calls
@ -foptimize-strlen -fpartial-inlining -fpeephole -fpeephole2
@ -fprefetch-loop-arrays -freg-struct-return -freorder-blocks
@ -freorder-functions -frerun-cse-after-loop
@ -fsched-critical-path-heuristic -fsched-dep-count-heuristic
@ -fsched-group-heuristic -fsched-interblock -fsched-last-insn-heuristic
@ -fsched-pressure -fsched-rank-heuristic -fsched-spec
@ -fsched-spec-insn-heuristic -fsched-stalled-insns-dep -fschedule-insns
@ -fschedule-insns2 -fsection-anchors -fshow-column -fshrink-wrap
@ -fsigned-zeros -fsplit-ivs-in-unroller -fsplit-wide-types
@ -fstrict-volatile-bitfields -fsync-libcalls -fthread-jumps
@ -ftoplevel-reorder -ftrapping-math -ftree-bit-ccp -ftree-builtin-call-dce
@ -ftree-ccp -ftree-ch -ftree-coalesce-vars -ftree-copy-prop
@ -ftree-copyrename -ftree-cselim -ftree-dce -ftree-dominator-opts
@ -ftree-dse -ftree-forwprop -ftree-fre -ftree-loop-if-convert
@ -ftree-loop-im -ftree-loop-ivcanon -ftree-loop-optimize
@ -ftree-parallelize-loops= -ftree-phiprop -ftree-pre -ftree-pta
@ -ftree-reassoc -ftree-scev-cprop -ftree-sink -ftree-slsr -ftree-sra
@ -ftree-switch-conversion -ftree-tail-merge -ftree-ter -funit-at-a-time
@ -funwind-tables -fverbose-asm -fzero-initialized-in-bss -marm -mglibc
@ -mlittle-endian -mlra -mpic-data-is-text-relative -msched-prolog
@ -mvectorize-with-neon-quad -mword-relocations

	.text
	.align	2
	.type	VfmwProc_SetPrintLevel, %function
VfmwProc_SetPrintLevel:
	.fnstart
	@ args = 0, pretend = 0, frame = 0
	@ frame_needed = 0, uses_anonymous_args = 0
	@ link register save eliminated.
	ldr	r2, [r0]	@ dat, *p_args_2(D)
	ldr	r3, .L2	@ tmp112,
	str	r2, [r3]	@ dat, g_PrintEnable
	bx	lr	@
.L3:
	.align	2
.L2:
	.word	g_PrintEnable
	.fnend
	.size	VfmwProc_SetPrintLevel, .-VfmwProc_SetPrintLevel
	.align	2
	.type	VfmwProc_PrintTracer, %function
VfmwProc_PrintTracer:
	.fnstart
	@ args = 0, pretend = 0, frame = 0
	@ frame_needed = 0, uses_anonymous_args = 0
	@ link register save eliminated.
	bx	lr	@
	.fnend
	.size	VfmwProc_PrintTracer, .-VfmwProc_PrintTracer
	.align	2
	.type	VfmwProc_OpenScdLowdly, %function
VfmwProc_OpenScdLowdly:
	.fnstart
	@ args = 0, pretend = 0, frame = 0
	@ frame_needed = 0, uses_anonymous_args = 0
	@ link register save eliminated.
	ldr	r1, [r0]	@ *p_args_2(D), *p_args_2(D)
	mov	r2, #1	@ tmp118,
	ldr	r3, .L6	@ tmp113,
	add	r3, r3, r1, lsl #2	@ tmp116, tmp113, *p_args_2(D),
	ldr	r3, [r3, #236]	@ D.39131, s_SmIIS.pSmInstArray
	str	r2, [r3, #88]	@ tmp118, _4->Config.ScdLowdlyEnable
	bx	lr	@
.L7:
	.align	2
.L6:
	.word	s_SmIIS
	.fnend
	.size	VfmwProc_OpenScdLowdly, .-VfmwProc_OpenScdLowdly
	.align	2
	.type	VfmwProc_CloseScdLowdly, %function
VfmwProc_CloseScdLowdly:
	.fnstart
	@ args = 0, pretend = 0, frame = 0
	@ frame_needed = 0, uses_anonymous_args = 0
	@ link register save eliminated.
	ldr	r1, [r0]	@ *p_args_2(D), *p_args_2(D)
	mov	r2, #0	@ tmp118,
	ldr	r3, .L9	@ tmp113,
	add	r3, r3, r1, lsl #2	@ tmp116, tmp113, *p_args_2(D),
	ldr	r3, [r3, #236]	@ D.39134, s_SmIIS.pSmInstArray
	str	r2, [r3, #88]	@ tmp118, _4->Config.ScdLowdlyEnable
	bx	lr	@
.L10:
	.align	2
.L9:
	.word	s_SmIIS
	.fnend
	.size	VfmwProc_CloseScdLowdly, .-VfmwProc_CloseScdLowdly
	.align	2
	.global	VCTRL_EventReport
	.type	VCTRL_EventReport, %function
VCTRL_EventReport:
	.fnstart
	@ args = 0, pretend = 0, frame = 0
	@ frame_needed = 0, uses_anonymous_args = 0
	cmp	r0, #3	@ InstID,
	stmfd	sp!, {r4, lr}	@,
	.save {r4, lr}
	bhi	.L24	@,
	ldr	ip, .L28	@ tmp124,
	ldr	r3, [ip, r0, asl #2]	@ D.39139, s_pstVfmwChan
	cmp	r3, #0	@ D.39139,
	beq	.L25	@,
	ldr	r3, [r3, #20]	@ eType, _9->eAdapterType
	cmp	r3, #0	@ eType,
	beq	.L16	@,
	cmp	r3, #1	@ eType,
	bne	.L26	@,
	ldr	r3, [ip, #164]	@ D.39140, s_VfmwCTrl.event_report_omxvdec
	cmp	r3, #0	@ D.39140,
	beq	.L27	@,
.L19:
	ldmfd	sp!, {r4, lr}	@
	bx	r3	@ D.39140
.L26:
	ldr	r2, .L28+4	@,
	mov	r0, #0	@,
	ldr	r1, .L28+8	@,
	bl	dprint_vfmw	@
.L13:
	mvn	r0, #0	@,
	ldmfd	sp!, {r4, pc}	@
.L16:
	ldr	r3, [ip, #160]	@ D.39140, s_VfmwCTrl.event_report_vdec
	cmp	r3, #0	@ D.39140,
	bne	.L19	@,
	mov	r0, r3	@, D.39140
	ldr	r1, .L28+12	@,
	bl	dprint_vfmw	@
	b	.L13	@
.L27:
	mov	r0, r3	@, D.39140
	ldr	r1, .L28+16	@,
	bl	dprint_vfmw	@
	b	.L13	@
.L24:
	ldr	r3, .L28+20	@,
	mov	r2, #676	@,
	ldr	r1, .L28+24	@,
	mov	r0, #0	@,
	bl	dprint_vfmw	@
	b	.L13	@
.L25:
	mov	r0, r3	@, D.39139
	movw	r2, #677	@,
	ldr	r3, .L28+28	@,
	ldr	r1, .L28+24	@,
	bl	dprint_vfmw	@
	b	.L13	@
.L29:
	.align	2
.L28:
	.word	.LANCHOR0
	.word	.LANCHOR1
	.word	.LC9
	.word	.LC7
	.word	.LC8
	.word	.LC4
	.word	.LC5
	.word	.LC6
	.fnend
	.size	VCTRL_EventReport, .-VCTRL_EventReport
	.align	2
	.type	VfmwProc_SetNoStreamReportPeriod, %function
VfmwProc_SetNoStreamReportPeriod:
	.fnstart
	@ args = 0, pretend = 0, frame = 0
	@ frame_needed = 0, uses_anonymous_args = 0
	@ link register save eliminated.
	ldr	r3, [r0]	@ D.39149, *p_args_2(D)
	mov	r0, #32	@,
	ldr	ip, .L31	@ tmp113,
	ldr	r1, .L31+4	@,
	mov	r2, r3	@, D.39149
	str	r3, [ip]	@ D.39149, g_NoStreamReportPeriod
	b	dprint_vfmw	@
.L32:
	.align	2
.L31:
	.word	g_NoStreamReportPeriod
	.word	.LC10
	.fnend
	.size	VfmwProc_SetNoStreamReportPeriod, .-VfmwProc_SetNoStreamReportPeriod
	.align	2
	.type	VfmwProc_SetTraceImgPeriod, %function
VfmwProc_SetTraceImgPeriod:
	.fnstart
	@ args = 0, pretend = 0, frame = 0
	@ frame_needed = 0, uses_anonymous_args = 0
	@ link register save eliminated.
	ldr	r3, [r0]	@ D.39153, *p_args_2(D)
	mov	r0, #32	@,
	ldr	ip, .L34	@ tmp113,
	ldr	r1, .L34+4	@,
	mov	r2, r3	@, D.39153
	str	r3, [ip]	@ D.39153, g_TraceImgPeriod
	b	dprint_vfmw	@
.L35:
	.align	2
.L34:
	.word	g_TraceImgPeriod
	.word	.LC11
	.fnend
	.size	VfmwProc_SetTraceImgPeriod, .-VfmwProc_SetTraceImgPeriod
	.align	2
	.type	VfmwProc_SetTraceFramePeriod, %function
VfmwProc_SetTraceFramePeriod:
	.fnstart
	@ args = 0, pretend = 0, frame = 0
	@ frame_needed = 0, uses_anonymous_args = 0
	@ link register save eliminated.
	ldr	r3, [r0]	@ D.39157, *p_args_2(D)
	mov	r0, #32	@,
	ldr	ip, .L37	@ tmp113,
	ldr	r1, .L37+4	@,
	mov	r2, r3	@, D.39157
	str	r3, [ip]	@ D.39157, g_TraceFramePeriod
	b	dprint_vfmw	@
.L38:
	.align	2
.L37:
	.word	g_TraceFramePeriod
	.word	.LC12
	.fnend
	.size	VfmwProc_SetTraceFramePeriod, .-VfmwProc_SetTraceFramePeriod
	.align	2
	.type	VfmwProc_SetTraceBSPeriod, %function
VfmwProc_SetTraceBSPeriod:
	.fnstart
	@ args = 0, pretend = 0, frame = 0
	@ frame_needed = 0, uses_anonymous_args = 0
	@ link register save eliminated.
	ldr	r3, [r0]	@ D.39161, *p_args_2(D)
	mov	r0, #32	@,
	ldr	ip, .L40	@ tmp113,
	ldr	r1, .L40+4	@,
	mov	r2, r3	@, D.39161
	str	r3, [ip]	@ D.39161, g_TraceBsPeriod
	b	dprint_vfmw	@
.L41:
	.align	2
.L40:
	.word	g_TraceBsPeriod
	.word	.LC13
	.fnend
	.size	VfmwProc_SetTraceBSPeriod, .-VfmwProc_SetTraceBSPeriod
	.align	2
	.type	VfmwProc_SetTraceCtrl, %function
VfmwProc_SetTraceCtrl:
	.fnstart
	@ args = 0, pretend = 0, frame = 0
	@ frame_needed = 0, uses_anonymous_args = 0
	@ link register save eliminated.
	ldr	r3, [r0]	@ D.39165, *p_args_2(D)
	mov	r0, #32	@,
	ldr	ip, .L43	@ tmp113,
	ldr	r1, .L43+4	@,
	mov	r2, r3	@, D.39165
	str	r3, [ip]	@ D.39165, g_TraceCtrl
	b	dprint_vfmw	@
.L44:
	.align	2
.L43:
	.word	g_TraceCtrl
	.word	.LC14
	.fnend
	.size	VfmwProc_SetTraceCtrl, .-VfmwProc_SetTraceCtrl
	.align	2
	.type	VfmwProc_TestStopDec, %function
VfmwProc_TestStopDec:
	.fnstart
	@ args = 0, pretend = 0, frame = 0
	@ frame_needed = 0, uses_anonymous_args = 0
	@ link register save eliminated.
	ldr	r3, [r0]	@ D.39169, *p_args_2(D)
	mov	r0, #32	@,
	ldr	ip, .L46	@ tmp113,
	ldr	r1, .L46+4	@,
	mov	r2, r3	@, D.39169
	str	r3, [ip, #168]	@ D.39169, g_StopDec
	b	dprint_vfmw	@
.L47:
	.align	2
.L46:
	.word	.LANCHOR0
	.word	.LC15
	.fnend
	.size	VfmwProc_TestStopDec, .-VfmwProc_TestStopDec
	.align	2
	.type	VfmwProc_SetDnrSleepTime, %function
VfmwProc_SetDnrSleepTime:
	.fnstart
	@ args = 0, pretend = 0, frame = 0
	@ frame_needed = 0, uses_anonymous_args = 0
	@ link register save eliminated.
	ldr	r3, [r0]	@ D.39173, *p_args_2(D)
	mov	r0, #32	@,
	ldr	ip, .L49	@ tmp113,
	ldr	r1, .L49+4	@,
	mov	r2, r3	@, D.39173
	str	r3, [ip, #172]	@ D.39173, g_DnrSleepTime
	b	dprint_vfmw	@
.L50:
	.align	2
.L49:
	.word	.LANCHOR0
	.word	.LC16
	.fnend
	.size	VfmwProc_SetDnrSleepTime, .-VfmwProc_SetDnrSleepTime
	.align	2
	.type	VfmwProc_TestTimeSequence, %function
VfmwProc_TestTimeSequence:
	.fnstart
	@ args = 0, pretend = 0, frame = 0
	@ frame_needed = 0, uses_anonymous_args = 0
	@ link register save eliminated.
	ldr	r3, [r0]	@ D.39177, *p_args_2(D)
	mov	r0, #32	@,
	ldr	ip, .L52	@ tmp113,
	ldr	r1, .L52+4	@,
	mov	r2, r3	@, D.39177
	str	r3, [ip, #176]	@ D.39177, g_SleepTime
	b	dprint_vfmw	@
.L53:
	.align	2
.L52:
	.word	.LANCHOR0
	.word	.LC17
	.fnend
	.size	VfmwProc_TestTimeSequence, .-VfmwProc_TestTimeSequence
	.align	2
	.type	VfmwProc_SetCurProcChan, %function
VfmwProc_SetCurProcChan:
	.fnstart
	@ args = 0, pretend = 0, frame = 0
	@ frame_needed = 0, uses_anonymous_args = 0
	@ link register save eliminated.
	ldr	r3, [r0]	@ dat, *p_args_3(D)
	cmp	r3, #4	@ dat,
	bhi	.L56	@,
	ldr	ip, .L57	@ tmp114,
	mov	r2, r3	@, dat
	ldr	r1, .L57+4	@,
	mov	r0, #32	@,
	str	r3, [ip, #180]	@ dat, g_CurProcChan
	b	dprint_vfmw	@
.L56:
	mov	r2, r3	@, dat
	ldr	r1, .L57+8	@,
	mov	r0, #32	@,
	b	dprint_vfmw	@
.L58:
	.align	2
.L57:
	.word	.LANCHOR0
	.word	.LC19
	.word	.LC18
	.fnend
	.size	VfmwProc_SetCurProcChan, .-VfmwProc_SetCurProcChan
	.align	2
	.type	VfmwProc_SetSaveFileAfterReset, %function
VfmwProc_SetSaveFileAfterReset:
	.fnstart
	@ args = 0, pretend = 0, frame = 0
	@ frame_needed = 0, uses_anonymous_args = 0
	@ link register save eliminated.
	ldr	r3, [r0]	@ dat, *p_args_3(D)
	cmp	r3, #1	@ dat,
	bls	.L61	@,
	mov	r2, r3	@, dat
	ldr	r1, .L62	@,
	mov	r0, #32	@,
	b	dprint_vfmw	@
.L61:
	ldr	ip, .L62+4	@ tmp112,
	mov	r2, r3	@, dat
	ldr	r1, .L62+8	@,
	mov	r0, #32	@,
	str	r3, [ip, #184]	@ dat, g_ResetCreateNewSave
	b	dprint_vfmw	@
.L63:
	.align	2
.L62:
	.word	.LC21
	.word	.LANCHOR0
	.word	.LC20
	.fnend
	.size	VfmwProc_SetSaveFileAfterReset, .-VfmwProc_SetSaveFileAfterReset
	.align	2
	.type	VfmwProc_SetUSE_FF_APT_EN, %function
VfmwProc_SetUSE_FF_APT_EN:
	.fnstart
	@ args = 0, pretend = 0, frame = 0
	@ frame_needed = 0, uses_anonymous_args = 0
	@ link register save eliminated.
	ldr	r3, [r0]	@ dat, *p_args_3(D)
	cmp	r3, #1	@ dat,
	bls	.L66	@,
	mov	r2, r3	@, dat
	ldr	r1, .L67	@,
	mov	r0, #32	@,
	b	dprint_vfmw	@
.L66:
	ldr	ip, .L67+4	@ tmp112,
	mov	r2, r3	@, dat
	ldr	r1, .L67+8	@,
	mov	r0, #32	@,
	str	r3, [ip]	@ dat, USE_FF_APT_EN
	b	dprint_vfmw	@
.L68:
	.align	2
.L67:
	.word	.LC23
	.word	USE_FF_APT_EN
	.word	.LC22
	.fnend
	.size	VfmwProc_SetUSE_FF_APT_EN, .-VfmwProc_SetUSE_FF_APT_EN
	.align	2
	.type	VfmwProc_SetDNR, %function
VfmwProc_SetDNR:
	.fnstart
	@ args = 0, pretend = 0, frame = 16
	@ frame_needed = 0, uses_anonymous_args = 0
	stmfd	sp!, {r4, r5, r6, lr}	@,
	.save {r4, r5, r6, lr}
	.pad #16
	sub	sp, sp, #16	@,,
	ldr	r3, [r0]	@ dat, *p_args_5(D)
	ldr	r2, .L77	@ tmp125,
	and	lr, r3, #15	@ D.39194, dat,
	ldr	r4, .L77+4	@ tmp151,
	cmp	lr, #3	@ D.39194,
	ubfx	ip, r3, #4, #4	@ D.39194, dat,,
	ldmia	r2, {r0, r1, r2}	@ tmp125,,,
	movcs	lr, #0	@ D.39194,
	cmp	ip, #3	@ D.39194,
	ubfx	r3, r3, #8, #4	@ D.39194, dat,,
	ldr	r5, .L77+8	@ tmp150,
	ldr	r6, .L77+12	@ tmp130,
	movcs	ip, #0	@ D.39194,
	str	lr, [r4]	@ D.39194, g_DREnable
	add	lr, sp, #16	@ tmp152,,
	cmp	r3, #3	@ D.39194,
	str	ip, [r5]	@ D.39194, g_DBEnable
	stmdb	lr, {r0, r1, r2}	@ tmp152,,,
	mov	r0, #32	@,
	ldr	r1, .L77+16	@,
	movcs	r3, #0	@ D.39194,
	str	r3, [r6]	@ D.39194, g_DCEnable
	bl	dprint_vfmw	@
	ldr	r3, [r6]	@ g_DCEnable, g_DCEnable
	add	r2, sp, #16	@ tmp153,,
	ldr	r1, .L77+20	@,
	mov	r0, #32	@,
	add	r3, r2, r3, lsl #2	@ tmp134, tmp153, g_DCEnable,
	ldr	r2, [r3, #-12]	@, opt
	bl	dprint_vfmw	@
	ldr	r3, [r5]	@ g_DBEnable, g_DBEnable
	add	r2, sp, #16	@ tmp154,,
	ldr	r1, .L77+24	@,
	mov	r0, #32	@,
	add	r3, r2, r3, lsl #2	@ tmp140, tmp154, g_DBEnable,
	ldr	r2, [r3, #-12]	@, opt
	bl	dprint_vfmw	@
	ldr	r3, [r4]	@ g_DREnable, g_DREnable
	add	r2, sp, #16	@ tmp155,,
	ldr	r1, .L77+28	@,
	mov	r0, #32	@,
	add	r3, r2, r3, lsl #2	@ tmp146, tmp155, g_DREnable,
	ldr	r2, [r3, #-12]	@, opt
	add	sp, sp, #16	@,,
	@ sp needed	@
	ldmfd	sp!, {r4, r5, r6, lr}	@
	b	dprint_vfmw	@
.L78:
	.align	2
.L77:
	.word	.LANCHOR1+20
	.word	g_DREnable
	.word	g_DBEnable
	.word	g_DCEnable
	.word	.LC25
	.word	.LC26
	.word	.LC27
	.word	.LC28
	.fnend
	.size	VfmwProc_SetDNR, .-VfmwProc_SetDNR
	.align	2
	.global	VCTRL_Isr_0
	.type	VCTRL_Isr_0, %function
VCTRL_Isr_0:
	.fnstart
	@ args = 0, pretend = 0, frame = 0
	@ frame_needed = 0, uses_anonymous_args = 0
	stmfd	sp!, {r4, lr}	@,
	.save {r4, lr}
	mov	r0, #0	@,
	bl	VDMDRV_IsrProcess	@
	mov	r0, #1	@,
	ldmfd	sp!, {r4, pc}	@
	.fnend
	.size	VCTRL_Isr_0, .-VCTRL_Isr_0
	.align	2
	.global	VCTRL_Scd_Isr
	.type	VCTRL_Scd_Isr, %function
VCTRL_Scd_Isr:
	.fnstart
	@ args = 0, pretend = 0, frame = 0
	@ frame_needed = 0, uses_anonymous_args = 0
	stmfd	sp!, {r4, lr}	@,
	.save {r4, lr}
	bl	SM_SCDIntServeProc	@
	mov	r0, #1	@,
	ldmfd	sp!, {r4, pc}	@
	.fnend
	.size	VCTRL_Scd_Isr, .-VCTRL_Scd_Isr
	.align	2
	.global	VCTRL_Dnr_Isr
	.type	VCTRL_Dnr_Isr, %function
VCTRL_Dnr_Isr:
	.fnstart
	@ args = 0, pretend = 0, frame = 0
	@ frame_needed = 0, uses_anonymous_args = 0
	stmfd	sp!, {r4, lr}	@,
	.save {r4, lr}
	bl	DNR_IntServeProc	@
	mov	r0, #1	@,
	ldmfd	sp!, {r4, pc}	@
	.fnend
	.size	VCTRL_Dnr_Isr, .-VCTRL_Dnr_Isr
	.align	2
	.type	VfmwProc_SetDNRCfg, %function
VfmwProc_SetDNRCfg:
	.fnstart
	@ args = 0, pretend = 0, frame = 16
	@ frame_needed = 0, uses_anonymous_args = 0
	str	lr, [sp, #-4]!	@,
	.save {lr}
	.pad #20
	sub	sp, sp, #20	@,,
	ldr	r2, [r0]	@ dat, *p_args_4(D)
	mov	r0, r2, lsr #27	@ D.39210, dat,
	cmp	r0, #4	@ D.39210,
	bhi	.L93	@,
	mov	r1, sp	@,
	ubfx	ip, r2, #26, #1	@ tmp132, dat,,
	ubfx	r3, r2, #25, #1	@ tmp136, dat,,
	strb	ip, [sp]	@ tmp132, DnrChanCfgArgs.s32MirrorEn
	strb	r3, [sp, #1]	@ tmp136, DnrChanCfgArgs.s32VcmpEn
	ubfx	ip, r2, #24, #1	@ tmp140, dat,,
	ubfx	r3, r2, #12, #12	@ D.39212, dat,,
	strb	ip, [sp, #2]	@ tmp140, DnrChanCfgArgs.s32WmEn
	ubfx	r2, r2, #0, #12	@ D.39212, dat,,
	str	r3, [sp, #4]	@ D.39212, DnrChanCfgArgs.s32VcmpWmStartLine
	str	r2, [sp, #8]	@ D.39212, DnrChanCfgArgs.s32VcmpWmEndLine
	bl	DNR_ConfigChan	@
	cmp	r0, #0	@,
	bne	.L94	@,
	add	sp, sp, #20	@,,
	@ sp needed	@
	ldr	pc, [sp], #4	@
.L93:
	ldr	r1, .L95	@,
	mov	r0, #32	@,
	bl	dprint_vfmw	@
	add	sp, sp, #20	@,,
	@ sp needed	@
	ldr	pc, [sp], #4	@
.L94:
	ldr	r1, .L95+4	@,
	mov	r0, #32	@,
	bl	dprint_vfmw	@
	add	sp, sp, #20	@,,
	@ sp needed	@
	ldr	pc, [sp], #4	@
.L96:
	.align	2
.L95:
	.word	.LC18
	.word	.LC29
	.fnend
	.size	VfmwProc_SetDNRCfg, .-VfmwProc_SetDNRCfg
	.align	2
	.type	VfmwProc_Save1DYUV, %function
VfmwProc_Save1DYUV:
	.fnstart
	@ args = 0, pretend = 0, frame = 56
	@ frame_needed = 0, uses_anonymous_args = 0
	stmfd	sp!, {r4, r5, r6, r7, lr}	@,
	.save {r4, r5, r6, r7, lr}
	.pad #68
	sub	sp, sp, #68	@,,
	ldr	r2, [r0]	@ dat, *p_args_4(D)
#APP
@ 182 "/usr1/code/v1r4_v1r6_sourceCode/code/current/v1r6_hi3716mv330_pack/work/source/kernel/linux-3.10.y/arch/arm/include/asm/memory.h" 1
	@ __pv_stub
1:	sub	r4, r2, #-2130706432	@ t, dat,
	.pushsection .pv_table,"a"
	.long	1b
	.popsection

@ 0 "" 2
	cmp	r4, #0	@ t,
	ldmib	r0, {r6, r7}	@ p_args,,
	beq	.L104	@,
	str	r2, [sp]	@ dat,
	mov	r1, #50	@,
	ldr	r3, .L105	@,
	add	r0, sp, #14	@ tmp132,,
	ldr	r2, .L105+4	@,
	bl	snprintf	@
	add	r0, sp, #14	@ tmp133,,
	mov	r2, #0	@,
	mov	r1, #66	@,
	bl	klib_fopen	@
	subs	r5, r0, #0	@ fp,
	beq	.L100	@,
	ldr	r3, .L105+8	@ tmp124,
	ldr	ip, [r3, #96]	@ D.39217, g_vdm_hal_fun_ptr.pfun_VDMHAL_Write1DYuv
	cmp	ip, #0	@ D.39217,
	beq	.L101	@,
	mov	lr, #1	@ tmp125,
	mov	r3, r7	@, D.39216
	mov	r2, r6	@, D.39216
	mov	r1, r4	@, t
	str	lr, [sp]	@ tmp125,
	blx	ip	@ D.39217
.L102:
	mov	r0, r5	@, fp
	bl	klib_fclose	@
	add	r2, sp, #14	@ tmp134,,
	ldr	r1, .L105+12	@,
	mov	r0, #32	@,
	bl	dprint_vfmw	@
.L99:
	mov	r0, r4	@, t
	bl	__arm_iounmap	@
	add	sp, sp, #68	@,,
	@ sp needed	@
	ldmfd	sp!, {r4, r5, r6, r7, pc}	@
.L101:
	mov	r0, ip	@, D.39217
	movw	r2, #7639	@,
	ldr	r1, .L105+16	@,
	bl	dprint_vfmw	@
	b	.L102	@
.L104:
	ldr	r1, .L105+20	@,
	mov	r0, #32	@,
	bl	dprint_vfmw	@
	mov	r0, r4	@, t
	bl	__arm_iounmap	@
	add	sp, sp, #68	@,,
	@ sp needed	@
	ldmfd	sp!, {r4, r5, r6, r7, pc}	@
.L100:
	add	r2, sp, #14	@ tmp135,,
	ldr	r1, .L105+24	@,
	mov	r0, #32	@,
	bl	dprint_vfmw	@
	b	.L99	@
.L106:
	.align	2
.L105:
	.word	.LANCHOR2
	.word	.LC31
	.word	g_vdm_hal_fun_ptr
	.word	.LC33
	.word	.LC32
	.word	.LC30
	.word	.LC34
	.fnend
	.size	VfmwProc_Save1DYUV, .-VfmwProc_Save1DYUV
	.align	2
	.type	VfmwProc_SaveOneYUV, %function
VfmwProc_SaveOneYUV:
	.fnstart
	@ args = 0, pretend = 0, frame = 56
	@ frame_needed = 0, uses_anonymous_args = 0
	stmfd	sp!, {r4, r5, lr}	@,
	.save {r4, r5, lr}
	.pad #68
	sub	sp, sp, #68	@,,
	ldr	r2, [r0]	@ dat, *p_args_3(D)
#APP
@ 182 "/usr1/code/v1r4_v1r6_sourceCode/code/current/v1r6_hi3716mv330_pack/work/source/kernel/linux-3.10.y/arch/arm/include/asm/memory.h" 1
	@ __pv_stub
1:	sub	r4, r2, #-2130706432	@ t, dat,
	.pushsection .pv_table,"a"
	.long	1b
	.popsection

@ 0 "" 2
	cmp	r4, #0	@ t,
	beq	.L112	@,
	str	r2, [sp]	@ dat,
	mov	r1, #50	@,
	ldr	r3, .L113	@,
	add	r0, sp, #14	@ tmp125,,
	ldr	r2, .L113+4	@,
	bl	snprintf	@
	add	r0, sp, #14	@ tmp126,,
	mov	r2, #0	@,
	mov	r1, #66	@,
	bl	klib_fopen	@
	subs	r5, r0, #0	@ fp,
	beq	.L110	@,
	mov	r2, r5	@, fp
	mov	r1, #3145728	@,
	mov	r0, r4	@, t
	bl	klib_fwrite	@
	mov	r0, r5	@, fp
	bl	klib_fclose	@
	add	r2, sp, #14	@ tmp127,,
	ldr	r1, .L113+8	@,
	mov	r0, #32	@,
	bl	dprint_vfmw	@
	mov	r0, r4	@, t
	bl	__arm_iounmap	@
	add	sp, sp, #68	@,,
	@ sp needed	@
	ldmfd	sp!, {r4, r5, pc}	@
.L110:
	add	r2, sp, #14	@ tmp128,,
	ldr	r1, .L113+12	@,
	mov	r0, #32	@,
	bl	dprint_vfmw	@
	mov	r0, r4	@, t
	bl	__arm_iounmap	@
	add	sp, sp, #68	@,,
	@ sp needed	@
	ldmfd	sp!, {r4, r5, pc}	@
.L112:
	ldr	r1, .L113+16	@,
	mov	r0, #32	@,
	bl	dprint_vfmw	@
	mov	r0, r4	@, t
	bl	__arm_iounmap	@
	add	sp, sp, #68	@,,
	@ sp needed	@
	ldmfd	sp!, {r4, r5, pc}	@
.L114:
	.align	2
.L113:
	.word	.LANCHOR2
	.word	.LC35
	.word	.LC36
	.word	.LC34
	.word	.LC30
	.fnend
	.size	VfmwProc_SaveOneYUV, .-VfmwProc_SaveOneYUV
	.align	2
	.type	VCTRL_ConfigMemInfo.isra.0, %function
VCTRL_ConfigMemInfo.isra.0:
	.fnstart
	@ args = 64, pretend = 0, frame = 416
	@ frame_needed = 0, uses_anonymous_args = 0
	stmfd	sp!, {r4, r5, r6, r7, r8, r9, r10, fp, lr}	@,
	.save {r4, r5, r6, r7, r8, r9, r10, fp, lr}
	.pad #444
	sub	sp, sp, #444	@,,
	ldr	r5, .L133	@ tmp233,
	mov	r6, r0	@ ChanID, ChanID
	ldr	lr, [sp, #536]	@ D.39235, ChanMemFlag.SelfAllocChanMem_ctx
	ldr	r4, [sp, #528]	@ D.39235, ChanMemFlag.SelfAllocChanMem_vdh
	ldr	ip, [r5, r0, asl #2]	@ D.39234, s_pstVfmwChan
	ldr	r8, [sp, #532]	@ D.39235, ChanMemFlag.SelfAllocChanMem_scd
	ldr	r7, [sp, #540]	@ ChanMemFlag.SelfAllocChanMem_pmv, ChanMemFlag.SelfAllocChanMem_pmv
	add	r0, ip, #217088	@ tmp168, D.39234,
	str	lr, [ip, #224]	@ D.39235, _7->s32SelfAllocChanMem_ctx
	str	r4, [ip, #216]	@ D.39235, _7->s32SelfAllocChanMem_vdh
	str	r8, [ip, #220]	@ D.39235, _7->s32SelfAllocChanMem_scd
	str	r7, [r0, #400]	@ ChanMemFlag.SelfAllocChanMem_pmv, _7->s32SelfAllocChanMem_pmv
	ldr	r0, [r3, #8]	@ pChanOption_12(D)->MemAllocMode, pChanOption_12(D)->MemAllocMode
	ldr	r7, [sp, #480]	@ ISRA.219, ISRA.219
	cmp	r0, #3	@ pChanOption_12(D)->MemAllocMode,
	cmpeq	lr, #1	@, D.39235,
	ldr	fp, [sp, #484]	@ ISRA.220, ISRA.220
	ldr	r9, [sp, #492]	@ ISRA.222, ISRA.222
	moveq	lr, #1	@ tmp175,
	movne	lr, #0	@ tmp175,
	cmp	r4, #0	@ D.39235,
	movne	r0, #0	@, tmp179
	andeq	r0, lr, #1	@,, tmp179, tmp175
	ldr	r10, [sp, #504]	@ ISRA.225, ISRA.225
	cmp	r8, #0	@ D.39235,
	movne	r0, #0	@, tmp185
	andeq	r0, r0, #1	@,, tmp185, tmp179
	ldr	r4, [sp, #488]	@ ISRA.221, ISRA.221
	cmp	r0, #0	@ tmp185,
	ldr	lr, [sp, #496]	@ ISRA.223, ISRA.223
	ldr	r8, [sp, #500]	@ ISRA.224, ISRA.224
	beq	.L116	@,
	add	r0, r9, r8	@ D.39235, ISRA.222, ISRA.224
	cmp	r2, #1	@ OneChanMemFlag,
	cmpeq	r0, r7	@, D.39235, ISRA.219
	beq	.L132	@,
.L116:
	mov	r2, #0	@ tmp196,
	str	r2, [ip, #148]	@ tmp196, _7->s32OneChanMem
.L117:
	add	ip, r5, r6, lsl #2	@ tmp205, tmp233, ChanID,
	ldr	r2, [r5, r6, asl #2]	@ D.39234, s_pstVfmwChan
	str	lr, [ip, #188]	@ ISRA.223, g_scd_vir
	add	r0, r2, #217088	@ tmp199, D.39234,
	ldr	ip, [sp, #508]	@ tmp235, ISRA.226
	str	r7, [r2, #176]	@ ISRA.219, _17->stChanMem_vdh.PhyAddr
	str	fp, [r2, #172]	@ ISRA.220, _17->stChanMem_vdh.VirAddr
	str	ip, [r2, #204]	@ tmp235, _17->stChanMem_ctx.VirAddr
	ldr	ip, [sp, #512]	@ tmp236, ISRA.227
	str	r4, [r2, #180]	@ ISRA.221, _17->stChanMem_vdh.Length
	str	r9, [r2, #192]	@ ISRA.222, _17->stChanMem_scd.PhyAddr
	str	ip, [r2, #212]	@ tmp236, _17->stChanMem_ctx.Length
	ldr	ip, [sp, #516]	@ tmp237, ISRA.228
	str	lr, [r2, #188]	@ ISRA.223, _17->stChanMem_scd.VirAddr
	str	r8, [r2, #196]	@ ISRA.224, _17->stChanMem_scd.Length
	str	r10, [r2, #208]	@ ISRA.225, _17->stChanMem_ctx.PhyAddr
	str	ip, [r0, #412]	@ tmp237, _17->stChanMem_pmv.PhyAddr
	ldr	ip, [sp, #520]	@ tmp238, ISRA.229
	str	ip, [r0, #408]	@ tmp238, _17->stChanMem_pmv.VirAddr
	ldr	ip, [sp, #524]	@ tmp239, ISRA.230
	str	ip, [r0, #416]	@ tmp239, _17->stChanMem_pmv.Length
	ldr	r0, [r2, #1580]	@ _17->stSynExtraData.stChanOption.DynamicSwitchDnrParam.s32DynamicSwitchDnrEnable, _17->stSynExtraData.stChanOption.DynamicSwitchDnrParam.s32DynamicSwitchDnrEnable
	str	r7, [r2, #248]	@ ISRA.219, _17->s32SdecMemAddr
	cmp	r0, #1	@ _17->stSynExtraData.stChanOption.DynamicSwitchDnrParam.s32DynamicSwitchDnrEnable,
	str	r4, [r2, #252]	@ ISRA.221, _17->s32SdecMemSize
	beq	.L118	@,
	str	r7, [r2, #236]	@ ISRA.219, _17->s32OffLineDnrMemAddr
	cmp	r1, #24	@ eCapLevel,
	ldr	r2, .L133+4	@ tmp208,
	ldrne	r1, [r3, #60]	@ DnrImgNum, pChanOption_12(D)->s32DisplayFrameNum
	moveq	r1, #1	@ DnrImgNum,
	ldr	ip, [r2, #36]	@ D.39238, g_vdm_hal_fun_ptr.pfun_VDMHAL_ArrangeMem
	cmp	ip, #0	@ D.39238,
	beq	.L122	@,
	ldr	r10, [r3, #16]	@ pChanOption_12(D)->s32MaxHeight, pChanOption_12(D)->s32MaxHeight
	mov	lr, #64	@ tmp212,
	ldr	r2, [r3, #12]	@ pChanOption_12(D)->s32MaxWidth, pChanOption_12(D)->s32MaxWidth
	add	r0, sp, #24	@ tmp213,,
	str	r1, [sp, #4]	@ DnrImgNum,
	mvn	r1, #0	@ tmp214,
	str	r0, [sp, #16]	@ tmp213,
	mov	r3, r10	@, pChanOption_12(D)->s32MaxHeight
	mov	r0, #0	@ tmp215,
	str	r1, [sp, #12]	@ tmp214,
	str	r0, [sp, #8]	@ tmp215,
	mov	r1, r4	@, ISRA.221
	str	r0, [sp]	@ tmp215,
	mov	r0, r7	@, ISRA.219
	str	lr, [sp, #20]	@ tmp212,
	blx	ip	@ D.39238
	cmp	r0, #0	@,
	bne	.L122	@,
	ldr	r3, [r5, r6, asl #2]	@ tmp218, s_pstVfmwChan
	ldr	r2, [sp, #28]	@ stMemArrange.TotalMemUsed, stMemArrange.TotalMemUsed
	str	r2, [r3, #240]	@ stMemArrange.TotalMemUsed, _34->s32OffLineDNRMemSize
.L123:
	ldr	r2, [r5, r6, asl #2]	@ D.39234, s_pstVfmwChan
	mov	ip, #14336	@ tmp227,
	mov	r0, #0	@ D.39239,
	mov	r1, #32768	@ tmp231,
	ldr	r3, [r2, #240]	@ D.39235, _36->s32OffLineDNRMemSize
	str	r9, [r2, #244]	@ ISRA.222, _36->s32ScdChanMemAddr
	rsb	r4, r3, r4	@ D.39235, D.39235, ISRA.221
	add	r7, r3, r7	@ D.39235, D.39235, ISRA.219
	sub	r4, r4, #47104	@ D.39235, D.39235,
	str	r7, [r2, #228]	@ D.39235, _36->s32VdmChanMemAddr
	sub	r4, r4, #16	@ D.39235, D.39235,
	str	r8, [r2, #256]	@ ISRA.224, _36->s32ScdChanMemSize
	add	r7, r7, r4	@ D.39235, D.39235, D.39235
	str	r4, [r2, #232]	@ D.39235, _36->s32VdmChanMemSize
	add	r3, r7, ip	@ D.39235, D.39235,
	add	r7, r7, #15	@ D.39235, D.39235,
	add	r3, r3, #15	@ D.39235, D.39235,
	bic	r7, r7, #15	@ D.39235, D.39235,
	bic	r3, r3, #15	@ D.39235, D.39235,
	str	r7, [r2, #260]	@ D.39235, _36->s32BpdChanMemAddr
	str	r3, [r2, #268]	@ D.39235, _36->s32Vp8SegIdChanMemAddr
	str	ip, [r2, #264]	@ tmp227, _36->s32BpdChanMemSize
	str	r1, [r2, #272]	@ tmp231, _36->s32Vp8SegIdChanMemSize
.L121:
	add	sp, sp, #444	@,,
	@ sp needed	@
	ldmfd	sp!, {r4, r5, r6, r7, r8, r9, r10, fp, pc}	@
.L118:
	mov	r3, #0	@ tmp220,
	str	r3, [r2, #236]	@ tmp220, _17->s32OffLineDnrMemAddr
	str	r3, [r2, #240]	@ tmp220, _17->s32OffLineDNRMemSize
	b	.L123	@
.L132:
	add	r0, r4, r8	@ D.39235, ISRA.221, ISRA.224
	mov	r2, #1	@ tmp195,
	str	r9, [ip, #160]	@ ISRA.222, _7->stChanMem.PhyAddr
	str	lr, [ip, #156]	@ ISRA.223, _7->stChanMem.VirAddr
	str	r0, [ip, #164]	@ D.39235, _7->stChanMem.Length
	str	r2, [ip, #148]	@ tmp195, _7->s32OneChanMem
	b	.L117	@
.L122:
	ldr	r1, .L133+8	@,
	mov	r0, #1	@,
	bl	dprint_vfmw	@
	mvn	r0, #0	@ D.39239,
	b	.L121	@
.L134:
	.align	2
.L133:
	.word	.LANCHOR0
	.word	g_vdm_hal_fun_ptr
	.word	.LC37
	.fnend
	.size	VCTRL_ConfigMemInfo.isra.0, .-VCTRL_ConfigMemInfo.isra.0
	.align	2
	.type	VfmwProc_CloseModuleLowly, %function
VfmwProc_CloseModuleLowly:
	.fnstart
	@ args = 0, pretend = 0, frame = 0
	@ frame_needed = 0, uses_anonymous_args = 0
	ldr	r3, [r0]	@ dat, *p_args_3(D)
	cmp	r3, #3	@ dat,
	bhi	.L138	@,
	str	lr, [sp, #-4]!	@,
	.save {lr}
	mov	r2, r3	@, dat
	ldr	lr, .L139	@ tmp114,
	mov	ip, #0	@ tmp116,
	ldr	r1, .L139+4	@,
	mov	r0, #32	@,
	ldr	r3, [lr, r3, asl #2]	@ tmp115, s_pstVfmwChan
	str	ip, [r3, #1420]	@ tmp116, _6->stSynExtraData.s32ModuleLowlyEnable
	ldr	lr, [sp], #4	@,
	b	dprint_vfmw	@
.L138:
	ldr	r1, .L139+8	@,
	mov	r0, #0	@,
	b	dprint_vfmw	@
.L140:
	.align	2
.L139:
	.word	.LANCHOR0
	.word	.LC39
	.word	.LC38
	.fnend
	.size	VfmwProc_CloseModuleLowly, .-VfmwProc_CloseModuleLowly
	.align	2
	.type	VfmwProc_OpenModuleLowly, %function
VfmwProc_OpenModuleLowly:
	.fnstart
	@ args = 0, pretend = 0, frame = 0
	@ frame_needed = 0, uses_anonymous_args = 0
	ldr	r3, [r0]	@ dat, *p_args_3(D)
	cmp	r3, #3	@ dat,
	bhi	.L144	@,
	str	lr, [sp, #-4]!	@,
	.save {lr}
	mov	r2, r3	@, dat
	ldr	lr, .L145	@ tmp114,
	mov	ip, #1	@ tmp116,
	ldr	r1, .L145+4	@,
	mov	r0, #32	@,
	ldr	r3, [lr, r3, asl #2]	@ tmp115, s_pstVfmwChan
	str	ip, [r3, #1420]	@ tmp116, _6->stSynExtraData.s32ModuleLowlyEnable
	ldr	lr, [sp], #4	@,
	b	dprint_vfmw	@
.L144:
	ldr	r1, .L145+8	@,
	mov	r0, #0	@,
	b	dprint_vfmw	@
.L146:
	.align	2
.L145:
	.word	.LANCHOR0
	.word	.LC39
	.word	.LC38
	.fnend
	.size	VfmwProc_OpenModuleLowly, .-VfmwProc_OpenModuleLowly
	.align	2
	.type	VfmwProc_SaveYUV, %function
VfmwProc_SaveYUV:
	.fnstart
	@ args = 0, pretend = 0, frame = 56
	@ frame_needed = 0, uses_anonymous_args = 0
	stmfd	sp!, {r4, r5, r6, lr}	@,
	.save {r4, r5, r6, lr}
	.pad #64
	sub	sp, sp, #64	@,,
	ldr	r5, [r0]	@ dat, *p_args_3(D)
	cmp	r5, #3	@ dat,
	bhi	.L147	@,
	ldr	r4, .L154	@ tmp117,
	ldr	r6, [r4, #204]	@ vfmw_save_yuv_file, vfmw_save_yuv_file
	cmp	r6, #0	@ vfmw_save_yuv_file,
	beq	.L153	@,
	ldr	r1, .L154+4	@,
	mov	r0, #32	@,
	bl	dprint_vfmw	@
	ldr	r0, [r4, #204]	@, vfmw_save_yuv_file
	bl	klib_fclose	@
	mov	r3, #0	@ tmp136,
	str	r3, [r4, #204]	@ tmp136, vfmw_save_yuv_file
.L147:
	add	sp, sp, #64	@,,
	@ sp needed	@
	ldmfd	sp!, {r4, r5, r6, pc}	@
.L153:
	ldr	ip, [r4, #208]	@ D.39259, save_file_cnt
	mov	r1, #50	@,
	ldr	r3, .L154+8	@,
	add	r0, sp, #14	@ tmp137,,
	ldr	r2, .L154+12	@,
	str	ip, [sp]	@ D.39259,
	add	ip, ip, #1	@ D.39259, D.39259,
	str	ip, [r4, #208]	@ D.39259, save_file_cnt
	bl	snprintf	@
	mov	r2, r6	@, vfmw_save_yuv_file
	add	r0, sp, #14	@ tmp138,,
	mov	r1, #66	@,
	bl	klib_fopen	@
	str	r5, [r4, #212]	@ dat, save_yuv_chan_num
	cmp	r0, #0	@ D.39260,
	str	r0, [r4, #204]	@ D.39260, vfmw_save_yuv_file
	beq	.L150	@,
	mov	r3, r5	@, dat
	add	r2, sp, #14	@ tmp139,,
	ldr	r1, .L154+16	@,
	mov	r0, #32	@,
	bl	dprint_vfmw	@
	b	.L147	@
.L150:
	add	r2, sp, #14	@ tmp140,,
	ldr	r1, .L154+20	@,
	mov	r0, #32	@,
	bl	dprint_vfmw	@
	b	.L147	@
.L155:
	.align	2
.L154:
	.word	.LANCHOR0
	.word	.LC43
	.word	.LANCHOR2
	.word	.LC40
	.word	.LC41
	.word	.LC42
	.fnend
	.size	VfmwProc_SaveYUV, .-VfmwProc_SaveYUV
	.align	2
	.type	VfmwProc_SaveSeg, %function
VfmwProc_SaveSeg:
	.fnstart
	@ args = 0, pretend = 0, frame = 56
	@ frame_needed = 0, uses_anonymous_args = 0
	stmfd	sp!, {r4, r5, r6, lr}	@,
	.save {r4, r5, r6, lr}
	.pad #64
	sub	sp, sp, #64	@,,
	ldr	r5, [r0]	@ dat, *p_args_3(D)
	cmp	r5, #3	@ dat,
	bhi	.L156	@,
	ldr	r4, .L163	@ tmp117,
	ldr	r6, [r4, #216]	@ vfmw_save_seg_file, vfmw_save_seg_file
	cmp	r6, #0	@ vfmw_save_seg_file,
	beq	.L162	@,
	ldr	r1, .L163+4	@,
	mov	r0, #32	@,
	bl	dprint_vfmw	@
	ldr	r0, [r4, #216]	@, vfmw_save_seg_file
	bl	klib_fclose	@
	mov	r3, #0	@ tmp136,
	str	r3, [r4, #216]	@ tmp136, vfmw_save_seg_file
.L156:
	add	sp, sp, #64	@,,
	@ sp needed	@
	ldmfd	sp!, {r4, r5, r6, pc}	@
.L162:
	ldr	ip, [r4, #220]	@ D.39271, save_file_cnt
	mov	r1, #50	@,
	ldr	r3, .L163+8	@,
	add	r0, sp, #14	@ tmp137,,
	ldr	r2, .L163+12	@,
	str	ip, [sp]	@ D.39271,
	add	ip, ip, #1	@ D.39271, D.39271,
	str	ip, [r4, #220]	@ D.39271, save_file_cnt
	bl	snprintf	@
	mov	r2, r6	@, vfmw_save_seg_file
	add	r0, sp, #14	@ tmp138,,
	mov	r1, #66	@,
	bl	klib_fopen	@
	str	r5, [r4, #224]	@ dat, save_seg_chan_num
	cmp	r0, #0	@ D.39272,
	str	r0, [r4, #216]	@ D.39272, vfmw_save_seg_file
	beq	.L159	@,
	mov	r3, r5	@, dat
	add	r2, sp, #14	@ tmp139,,
	ldr	r1, .L163+16	@,
	mov	r0, #32	@,
	bl	dprint_vfmw	@
	b	.L156	@
.L159:
	add	r2, sp, #14	@ tmp140,,
	ldr	r1, .L163+20	@,
	mov	r0, #32	@,
	bl	dprint_vfmw	@
	b	.L156	@
.L164:
	.align	2
.L163:
	.word	.LANCHOR0
	.word	.LC47
	.word	.LANCHOR2
	.word	.LC44
	.word	.LC45
	.word	.LC46
	.fnend
	.size	VfmwProc_SaveSeg, .-VfmwProc_SaveSeg
	.align	2
	.type	VfmwProc_Savestream, %function
VfmwProc_Savestream:
	.fnstart
	@ args = 0, pretend = 0, frame = 56
	@ frame_needed = 0, uses_anonymous_args = 0
	stmfd	sp!, {r4, r5, r6, lr}	@,
	.save {r4, r5, r6, lr}
	.pad #64
	sub	sp, sp, #64	@,,
	ldr	r5, [r0]	@ dat, *p_args_3(D)
	cmp	r5, #3	@ dat,
	bhi	.L165	@,
	ldr	r4, .L172	@ tmp117,
	ldr	r6, [r4, #228]	@ vfmw_save_str_file, vfmw_save_str_file
	cmp	r6, #0	@ vfmw_save_str_file,
	beq	.L171	@,
	ldr	r1, .L172+4	@,
	mov	r0, #32	@,
	bl	dprint_vfmw	@
	ldr	r0, [r4, #228]	@, vfmw_save_str_file
	bl	klib_fclose	@
	mov	r3, #0	@ tmp136,
	str	r3, [r4, #228]	@ tmp136, vfmw_save_str_file
.L165:
	add	sp, sp, #64	@,,
	@ sp needed	@
	ldmfd	sp!, {r4, r5, r6, pc}	@
.L171:
	ldr	ip, [r4, #232]	@ D.39283, save_file_cnt
	mov	r1, #50	@,
	ldr	r3, .L172+8	@,
	add	r0, sp, #14	@ tmp137,,
	ldr	r2, .L172+12	@,
	str	ip, [sp]	@ D.39283,
	add	ip, ip, #1	@ D.39283, D.39283,
	str	ip, [r4, #232]	@ D.39283, save_file_cnt
	bl	snprintf	@
	mov	r2, r6	@, vfmw_save_str_file
	add	r0, sp, #14	@ tmp138,,
	mov	r1, #66	@,
	bl	klib_fopen	@
	str	r5, [r4, #236]	@ dat, save_str_chan_num
	cmp	r0, #0	@ D.39284,
	str	r0, [r4, #228]	@ D.39284, vfmw_save_str_file
	beq	.L168	@,
	mov	r3, r5	@, dat
	add	r2, sp, #14	@ tmp139,,
	ldr	r1, .L172+16	@,
	mov	r0, #32	@,
	bl	dprint_vfmw	@
	b	.L165	@
.L168:
	add	r2, sp, #14	@ tmp140,,
	ldr	r1, .L172+20	@,
	mov	r0, #32	@,
	bl	dprint_vfmw	@
	b	.L165	@
.L173:
	.align	2
.L172:
	.word	.LANCHOR0
	.word	.LC51
	.word	.LANCHOR2
	.word	.LC48
	.word	.LC49
	.word	.LC50
	.fnend
	.size	VfmwProc_Savestream, .-VfmwProc_Savestream
	.align	2
	.type	VCTRL_StopVfmw.part.15, %function
VCTRL_StopVfmw.part.15:
	.fnstart
	@ args = 0, pretend = 0, frame = 0
	@ frame_needed = 0, uses_anonymous_args = 0
	stmfd	sp!, {r4, r5, r6, lr}	@,
	.save {r4, r5, r6, lr}
	ldr	r5, .L187	@ tmp122,
	ldr	r3, [r5, #44]	@ s_VfmwCTrl.eTaskState, s_VfmwCTrl.eTaskState
	cmp	r3, #1	@ s_VfmwCTrl.eTaskState,
	beq	.L177	@,
	mov	r0, #10	@,
	mov	r4, #49	@ D.39299,
	bl	msleep	@
	b	.L178	@
.L186:
	bl	msleep	@
	subs	r4, r4, #1	@ D.39299, D.39299,
	beq	.L185	@,
.L178:
	ldr	r3, [r5, #44]	@ s_VfmwCTrl.eTaskState, s_VfmwCTrl.eTaskState
	mov	r0, #10	@,
	cmp	r3, #1	@ s_VfmwCTrl.eTaskState,
	bne	.L186	@,
.L177:
	mov	r0, #0	@ ret,
.L176:
	mov	r3, #0	@ tmp120,
	str	r3, [r5, #48]	@ tmp120, s_VfmwCTrl.eTaskCommand
	ldmfd	sp!, {r4, r5, r6, pc}	@
.L185:
	mvn	r0, #0	@ ret,
	b	.L176	@
.L188:
	.align	2
.L187:
	.word	.LANCHOR0
	.fnend
	.size	VCTRL_StopVfmw.part.15, .-VCTRL_StopVfmw.part.15
	.align	2
	.type	VCTRL_StartVfmw.part.16, %function
VCTRL_StartVfmw.part.16:
	.fnstart
	@ args = 0, pretend = 0, frame = 0
	@ frame_needed = 0, uses_anonymous_args = 0
	stmfd	sp!, {r4, r5, r6, lr}	@,
	.save {r4, r5, r6, lr}
	ldr	r5, .L202	@ tmp122,
	ldr	r3, [r5, #44]	@ s_VfmwCTrl.eTaskState, s_VfmwCTrl.eTaskState
	cmp	r3, #2	@ s_VfmwCTrl.eTaskState,
	beq	.L192	@,
	mov	r0, #10	@,
	mov	r4, #49	@ D.39309,
	bl	msleep	@
	b	.L193	@
.L201:
	bl	msleep	@
	subs	r4, r4, #1	@ D.39309, D.39309,
	beq	.L200	@,
.L193:
	ldr	r3, [r5, #44]	@ s_VfmwCTrl.eTaskState, s_VfmwCTrl.eTaskState
	mov	r0, #10	@,
	cmp	r3, #2	@ s_VfmwCTrl.eTaskState,
	bne	.L201	@,
.L192:
	mov	r0, #0	@ ret,
.L191:
	mov	r3, #0	@ tmp120,
	str	r3, [r5, #48]	@ tmp120, s_VfmwCTrl.eTaskCommand
	ldmfd	sp!, {r4, r5, r6, pc}	@
.L200:
	mvn	r0, #0	@ ret,
	b	.L191	@
.L203:
	.align	2
.L202:
	.word	.LANCHOR0
	.fnend
	.size	VCTRL_StartVfmw.part.16, .-VCTRL_StartVfmw.part.16
	.align	2
	.global	VCTRL_RegisterSoftDecoder
	.type	VCTRL_RegisterSoftDecoder, %function
VCTRL_RegisterSoftDecoder:
	.fnstart
	@ args = 0, pretend = 0, frame = 0
	@ frame_needed = 0, uses_anonymous_args = 0
	stmfd	sp!, {r4, lr}	@,
	.save {r4, lr}
	mov	r1, r0	@ pstSdecFunc, pstSdecFunc
	ldr	r0, [r0]	@ pstSdecFunc_4(D)->pfun_iMediaSoftDEC_Create, pstSdecFunc_4(D)->pfun_iMediaSoftDEC_Create
	cmp	r0, #0	@ pstSdecFunc_4(D)->pfun_iMediaSoftDEC_Create,
	beq	.L214	@,
	ldr	r0, [r1, #4]	@ pstSdecFunc_4(D)->pfun_iMediaSoftDEC_Destroy, pstSdecFunc_4(D)->pfun_iMediaSoftDEC_Destroy
	cmp	r0, #0	@ pstSdecFunc_4(D)->pfun_iMediaSoftDEC_Destroy,
	beq	.L215	@,
	ldr	r0, [r1, #8]	@ pstSdecFunc_4(D)->pfun_iMediaSoftDEC_Init, pstSdecFunc_4(D)->pfun_iMediaSoftDEC_Init
	cmp	r0, #0	@ pstSdecFunc_4(D)->pfun_iMediaSoftDEC_Init,
	beq	.L216	@,
	ldr	r0, [r1, #12]	@ pstSdecFunc_4(D)->pfun_iMediaSoftDEC_Decode, pstSdecFunc_4(D)->pfun_iMediaSoftDEC_Decode
	cmp	r0, #0	@ pstSdecFunc_4(D)->pfun_iMediaSoftDEC_Decode,
	beq	.L217	@,
	ldr	r0, [r1, #16]	@ pstSdecFunc_4(D)->pfun_iMediaSoftDEC_RecycleImage, pstSdecFunc_4(D)->pfun_iMediaSoftDEC_RecycleImage
	cmp	r0, #0	@ pstSdecFunc_4(D)->pfun_iMediaSoftDEC_RecycleImage,
	beq	.L218	@,
	ldr	r0, [r1, #20]	@ pstSdecFunc_4(D)->pfun_iMediaSoftDEC_GetRemainImg, pstSdecFunc_4(D)->pfun_iMediaSoftDEC_GetRemainImg
	cmp	r0, #0	@ pstSdecFunc_4(D)->pfun_iMediaSoftDEC_GetRemainImg,
	beq	.L219	@,
	ldr	r0, [r1, #24]	@ pstSdecFunc_4(D)->pfun_iMediaSoftDEC_GetImageBuffer, pstSdecFunc_4(D)->pfun_iMediaSoftDEC_GetImageBuffer
	cmp	r0, #0	@ pstSdecFunc_4(D)->pfun_iMediaSoftDEC_GetImageBuffer,
	beq	.L220	@,
	mov	r2, #28	@,
	ldr	r0, .L221	@,
	bl	memcpy	@
	mov	r0, #0	@ D.39312,
	ldmfd	sp!, {r4, pc}	@
.L220:
	ldr	r2, .L221+4	@,
	ldr	r1, .L221+8	@,
	bl	dprint_vfmw	@
	mvn	r0, #0	@ D.39312,
	ldmfd	sp!, {r4, pc}	@
.L219:
	ldr	r2, .L221+12	@,
	ldr	r1, .L221+8	@,
	bl	dprint_vfmw	@
	mvn	r0, #0	@ D.39312,
	ldmfd	sp!, {r4, pc}	@
.L218:
	ldr	r2, .L221+16	@,
	ldr	r1, .L221+8	@,
	bl	dprint_vfmw	@
	mvn	r0, #0	@ D.39312,
	ldmfd	sp!, {r4, pc}	@
.L217:
	ldr	r2, .L221+20	@,
	ldr	r1, .L221+8	@,
	bl	dprint_vfmw	@
	mvn	r0, #0	@ D.39312,
	ldmfd	sp!, {r4, pc}	@
.L216:
	ldr	r2, .L221+24	@,
	ldr	r1, .L221+8	@,
	bl	dprint_vfmw	@
	mvn	r0, #0	@ D.39312,
	ldmfd	sp!, {r4, pc}	@
.L215:
	ldr	r2, .L221+28	@,
	ldr	r1, .L221+8	@,
	bl	dprint_vfmw	@
	mvn	r0, #0	@ D.39312,
	ldmfd	sp!, {r4, pc}	@
.L214:
	ldr	r2, .L221+32	@,
	ldr	r1, .L221+8	@,
	bl	dprint_vfmw	@
	mvn	r0, #0	@ D.39312,
	ldmfd	sp!, {r4, pc}	@
.L222:
	.align	2
.L221:
	.word	.LANCHOR0+240
	.word	.LC59
	.word	.LC53
	.word	.LC58
	.word	.LC57
	.word	.LC56
	.word	.LC55
	.word	.LC54
	.word	.LC52
	.fnend
	.size	VCTRL_RegisterSoftDecoder, .-VCTRL_RegisterSoftDecoder
	.align	2
	.global	VCTRL_Suspend
	.type	VCTRL_Suspend, %function
VCTRL_Suspend:
	.fnstart
	@ args = 0, pretend = 0, frame = 0
	@ frame_needed = 0, uses_anonymous_args = 0
	stmfd	sp!, {r4, r5, r6, r7, r8, r9, r10, lr}	@,
	.save {r4, r5, r6, r7, r8, r9, r10, lr}
	bl	OSAL_GetTimeInMs	@
	mov	r4, #50	@ D.39348,
	mov	r6, r0	@ BeginTime,
	mov	r0, #0	@,
	mvn	r7, r6	@ D.39347, BeginTime
	bl	VDMDRV_PrepareSleep	@
	b	.L230	@
.L229:
	mov	r0, #10	@,
	bl	msleep	@
	subs	r4, r4, #1	@ D.39348, D.39348,
	beq	.L231	@,
.L230:
	mov	r0, #0	@,
	bl	VDMDRV_GetSleepStage	@
	cmp	r0, #2	@,
	beq	.L231	@,
	bl	OSAL_GetTimeInMs	@
	cmp	r6, r0	@ BeginTime, CurTime
	add	r5, r7, r0	@ WaitTime, D.39347, CurTime
	rsbls	r5, r6, r0	@ WaitTime, BeginTime, CurTime
	cmp	r5, #200	@ WaitTime,
	bls	.L229	@,
	mov	r0, #0	@,
	bl	VDMDRV_ForeceSleep	@
	mov	r2, r5	@, WaitTime
	ldr	r1, .L265	@,
	mov	r0, #0	@,
	bl	dprint_vfmw	@
	mov	r0, #10	@,
	bl	msleep	@
	subs	r4, r4, #1	@ D.39348, D.39348,
	bne	.L230	@,
.L231:
	ldr	r9, .L265+4	@ tmp154,
	bl	OSAL_GetTimeInMs	@
	ldr	r3, [r9, #4]	@ D.39350, g_vdm_hal_fun_ptr.pfun_VDMDRV_CloseHardware
	cmp	r3, #0	@ D.39350,
	beq	.L262	@,
	mov	r0, #0	@,
	blx	r3	@ D.39350
.L232:
	bl	SCDDRV_PrepareSleep	@
	mov	r4, #50	@ D.39348,
	bl	OSAL_GetTimeInMs	@
	mov	r7, r0	@ BeginTime,
	mvn	r8, r0	@ D.39347, BeginTime
	b	.L239	@
.L238:
	mov	r0, #10	@,
	bl	msleep	@
	subs	r4, r4, #1	@ D.39348, D.39348,
	beq	.L240	@,
.L239:
	bl	SCDDRV_GetSleepStage	@
	cmp	r0, #2	@,
	beq	.L240	@,
	bl	OSAL_GetTimeInMs	@
	cmp	r7, r0	@ BeginTime, CurTime
	add	r5, r8, r0	@ WaitTime, D.39347, CurTime
	rsbls	r5, r7, r0	@ WaitTime, BeginTime, CurTime
	cmp	r5, #200	@ WaitTime,
	bls	.L238	@,
	bl	SCDDRV_ForceSleep	@
	mov	r2, r5	@, WaitTime
	ldr	r1, .L265+8	@,
	mov	r0, #0	@,
	bl	dprint_vfmw	@
	mov	r0, #10	@,
	bl	msleep	@
	subs	r4, r4, #1	@ D.39348, D.39348,
	bne	.L239	@,
.L240:
	ldr	r0, [r9, #12]	@ D.39352, g_vdm_hal_fun_ptr.pfun_SCDDRV_CloseHardware
	cmp	r0, #0	@ D.39352,
	beq	.L263	@,
	blx	r0	@ D.39352
.L241:
	bl	DNRDRV_PrepareSleep	@
	mov	r4, #50	@ D.39348,
	bl	OSAL_GetTimeInMs	@
	mov	r7, r0	@ BeginTime,
	mvn	r8, r0	@ D.39347, BeginTime
	b	.L248	@
.L247:
	mov	r0, #10	@,
	bl	msleep	@
	subs	r4, r4, #1	@ D.39348, D.39348,
	beq	.L249	@,
.L248:
	bl	DNRDRV_GetSleepStage	@
	cmp	r0, #2	@,
	beq	.L249	@,
	bl	OSAL_GetTimeInMs	@
	cmp	r7, r0	@ BeginTime, CurTime
	add	r5, r8, r0	@ WaitTime, D.39347, CurTime
	rsbls	r5, r7, r0	@ WaitTime, BeginTime, CurTime
	cmp	r5, #200	@ WaitTime,
	bls	.L247	@,
	bl	DNRDRV_ForeceSleep	@
	mov	r2, r5	@, WaitTime
	ldr	r1, .L265+12	@,
	mov	r0, #0	@,
	bl	dprint_vfmw	@
	mov	r0, #10	@,
	bl	msleep	@
	subs	r4, r4, #1	@ D.39348, D.39348,
	bne	.L248	@,
.L249:
	ldr	r3, .L265+16	@ tmp144,
	ldr	r2, [r3, #16]	@ s_VfmwCTrl.s32IsVCTRLOpen, s_VfmwCTrl.s32IsVCTRLOpen
	cmp	r2, #1	@ s_VfmwCTrl.s32IsVCTRLOpen,
	beq	.L264	@,
.L243:
	bl	OSAL_GetTimeInMs	@
	ldr	r1, .L265+20	@,
	cmp	r6, r0	@ BeginTime, CurTime
	rsbls	r2, r6, r0	@ D.39347, BeginTime, CurTime
	mvnhi	r6, r6	@ D.39347, BeginTime
	addhi	r2, r6, r0	@ D.39347, D.39347, CurTime
	mov	r0, #0	@,
	ldmfd	sp!, {r4, r5, r6, r7, r8, r9, r10, lr}	@
	b	dprint_vfmw	@
.L262:
	mov	r0, r3	@, D.39350
	movw	r2, #283	@,
	ldr	r1, .L265+24	@,
	bl	dprint_vfmw	@
	b	.L232	@
.L263:
	movw	r2, #309	@,
	ldr	r1, .L265+24	@,
	bl	dprint_vfmw	@
	b	.L241	@
.L264:
	mov	r2, #2	@ tmp150,
	str	r2, [r3, #48]	@ tmp150, s_VfmwCTrl.eTaskCommand
	bl	VCTRL_StopVfmw.part.15	@
	b	.L243	@
.L266:
	.align	2
.L265:
	.word	.LC60
	.word	g_vdm_hal_fun_ptr
	.word	.LC61
	.word	.LC62
	.word	.LANCHOR0
	.word	.LC63
	.word	.LC32
	.fnend
	.size	VCTRL_Suspend, .-VCTRL_Suspend
	.align	2
	.type	VfmwProc_TestSuspend, %function
VfmwProc_TestSuspend:
	.fnstart
	@ args = 0, pretend = 0, frame = 0
	@ frame_needed = 0, uses_anonymous_args = 0
	stmfd	sp!, {r4, lr}	@,
	.save {r4, lr}
	mov	r2, r0	@, p_args
	ldr	r1, .L269	@,
	mov	r0, #22	@,
	bl	dprint_vfmw	@
	ldmfd	sp!, {r4, lr}	@
	b	VCTRL_Suspend	@
.L270:
	.align	2
.L269:
	.word	.LC64
	.fnend
	.size	VfmwProc_TestSuspend, .-VfmwProc_TestSuspend
	.align	2
	.global	VCTRL_Resume
	.type	VCTRL_Resume, %function
VCTRL_Resume:
	.fnstart
	@ args = 0, pretend = 0, frame = 0
	@ frame_needed = 0, uses_anonymous_args = 0
	stmfd	sp!, {r4, lr}	@,
	.save {r4, lr}
	bl	SCDDRV_ExitSleep	@
	bl	DNRDRV_ExitSleep	@
	mov	r0, #0	@,
	bl	VDMDRV_ExitSleep	@
	mov	r0, #0	@,
	bl	VDMDRV_GetSleepStage	@
	subs	r4, r0, #0	@ D.39366,
	bne	.L272	@,
	bl	SCDDRV_GetSleepStage	@
	cmp	r0, #0	@,
	bne	.L279	@,
	bl	BPD_OpenHardware	@
	ldr	r3, .L280	@ tmp117,
	ldr	r2, [r3, #16]	@ s_VfmwCTrl.s32IsVCTRLOpen, s_VfmwCTrl.s32IsVCTRLOpen
	cmp	r2, #1	@ s_VfmwCTrl.s32IsVCTRLOpen,
	ldmnefd	sp!, {r4, pc}	@
	str	r2, [r3, #48]	@ s_VfmwCTrl.s32IsVCTRLOpen, s_VfmwCTrl.eTaskCommand
	ldmfd	sp!, {r4, lr}	@
	b	VCTRL_StartVfmw.part.16	@
.L279:
	bl	SCDDRV_GetSleepStage	@
	ldr	r1, .L280+4	@,
	mov	r2, r0	@,
	mov	r0, r4	@, D.39366
	ldmfd	sp!, {r4, lr}	@
	b	dprint_vfmw	@
.L272:
	mov	r0, #0	@,
	bl	VDMDRV_GetSleepStage	@
	ldr	r1, .L280+8	@,
	ldmfd	sp!, {r4, lr}	@
	mov	r2, r0	@,
	mov	r0, #0	@,
	b	dprint_vfmw	@
.L281:
	.align	2
.L280:
	.word	.LANCHOR0
	.word	.LC66
	.word	.LC65
	.fnend
	.size	VCTRL_Resume, .-VCTRL_Resume
	.align	2
	.global	VCTRL_UnRegisterSoftDecoder
	.type	VCTRL_UnRegisterSoftDecoder, %function
VCTRL_UnRegisterSoftDecoder:
	.fnstart
	@ args = 0, pretend = 0, frame = 0
	@ frame_needed = 0, uses_anonymous_args = 0
	stmfd	sp!, {r4, lr}	@,
	.save {r4, lr}
	bl	VCTRL_Suspend	@
	mov	r1, #28	@,
	ldr	r0, .L284	@,
	bl	__memzero	@
	ldmfd	sp!, {r4, lr}	@
	b	VCTRL_Resume	@
.L285:
	.align	2
.L284:
	.word	.LANCHOR0+240
	.fnend
	.size	VCTRL_UnRegisterSoftDecoder, .-VCTRL_UnRegisterSoftDecoder
	.align	2
	.type	VfmwProc_TestResume, %function
VfmwProc_TestResume:
	.fnstart
	@ args = 0, pretend = 0, frame = 0
	@ frame_needed = 0, uses_anonymous_args = 0
	stmfd	sp!, {r4, lr}	@,
	.save {r4, lr}
	mov	r2, r0	@, p_args
	ldr	r1, .L288	@,
	mov	r0, #22	@,
	bl	dprint_vfmw	@
	ldmfd	sp!, {r4, lr}	@
	b	VCTRL_Resume	@
.L289:
	.align	2
.L288:
	.word	.LC64
	.fnend
	.size	VfmwProc_TestResume, .-VfmwProc_TestResume
	.align	2
	.global	ChanCtx_Init
	.type	ChanCtx_Init, %function
ChanCtx_Init:
	.fnstart
	@ args = 0, pretend = 0, frame = 0
	@ frame_needed = 0, uses_anonymous_args = 0
	stmfd	sp!, {r4, lr}	@,
	.save {r4, lr}
	mov	r1, #48	@,
	ldr	r4, .L292	@ tmp110,
	mov	r0, r4	@, tmp110
	bl	__memzero	@
	mvn	r3, #0	@ tmp112,
	str	r3, [r4, #16]	@ tmp112, MEM[(HI_S32 *)&g_ChanCtx + 16B]
	str	r3, [r4, #20]	@ tmp112, MEM[(HI_S32 *)&g_ChanCtx + 20B]
	str	r3, [r4, #24]	@ tmp112, MEM[(HI_S32 *)&g_ChanCtx + 24B]
	str	r3, [r4, #28]	@ tmp112, MEM[(HI_S32 *)&g_ChanCtx + 28B]
	ldmfd	sp!, {r4, pc}	@
.L293:
	.align	2
.L292:
	.word	g_ChanCtx
	.fnend
	.size	ChanCtx_Init, .-ChanCtx_Init
	.align	2
	.global	VCTRL_Isr_1
	.type	VCTRL_Isr_1, %function
VCTRL_Isr_1:
	.fnstart
	@ args = 0, pretend = 0, frame = 0
	@ frame_needed = 0, uses_anonymous_args = 0
	stmfd	sp!, {r4, lr}	@,
	.save {r4, lr}
	mov	r0, #1	@,
	bl	VDMDRV_IsrProcess	@
	mov	r0, #1	@,
	ldmfd	sp!, {r4, pc}	@
	.fnend
	.size	VCTRL_Isr_1, .-VCTRL_Isr_1
	.align	2
	.global	VCTRL_InformVdmFree
	.type	VCTRL_InformVdmFree, %function
VCTRL_InformVdmFree:
	.fnstart
	@ args = 0, pretend = 0, frame = 0
	@ frame_needed = 0, uses_anonymous_args = 0
	stmfd	sp!, {r4, r5, r6, lr}	@,
	.save {r4, r5, r6, lr}
	bl	OSAL_GetTimeInMs	@
	ldr	r5, .L301	@ tmp120,
	ldr	r3, [r5, #268]	@ D.39381, LastEventTime
	cmp	r0, r3	@ CurTime, D.39381
	mov	r4, r0	@ CurTime,
	bls	.L297	@,
	rsb	r3, r3, r0	@ Period, D.39381, CurTime
	cmp	r3, #9	@ Period,
	ldmlsfd	sp!, {r4, r5, r6, pc}	@
	b	.L298	@
.L297:
	str	r0, [r5, #268]	@ CurTime, LastEventTime
.L298:
	ldr	r0, .L301+4	@,
	bl	OSAL_GiveEvent	@
	str	r4, [r5, #268]	@ CurTime, LastEventTime
	ldmfd	sp!, {r4, r5, r6, pc}	@
.L302:
	.align	2
.L301:
	.word	.LANCHOR0
	.word	.LANCHOR0+272
	.fnend
	.size	VCTRL_InformVdmFree, .-VCTRL_InformVdmFree
	.align	2
	.global	VCTRL_SetCallBack
	.type	VCTRL_SetCallBack, %function
VCTRL_SetCallBack:
	.fnstart
	@ args = 0, pretend = 0, frame = 0
	@ frame_needed = 0, uses_anonymous_args = 0
	cmp	r1, #0	@ event_report
	stmfd	sp!, {r4, lr}	@,
	.save {r4, lr}
	beq	.L312	@,
	cmp	r0, #0	@ eType,
	beq	.L307	@,
	cmp	r0, #1	@ eType,
	bne	.L313	@,
	ldr	r3, .L314	@ tmp117,
	mov	r0, #0	@ D.39384,
	str	r1, [r3, #164]	@ event_report, s_VfmwCTrl.event_report_omxvdec
	ldmfd	sp!, {r4, pc}	@
.L313:
	mov	r3, r0	@, eType
	ldr	r2, .L314+4	@,
	ldr	r1, .L314+8	@,
	mov	r0, #0	@,
	bl	dprint_vfmw	@
	mvn	r0, #0	@ D.39384,
	ldmfd	sp!, {r4, pc}	@
.L307:
	ldr	r3, .L314	@ tmp116,
	str	r1, [r3, #160]	@ event_report, s_VfmwCTrl.event_report_vdec
	ldmfd	sp!, {r4, pc}	@
.L312:
	mov	r0, r1	@, event_report
	ldr	r3, .L314+12	@,
	movw	r2, #715	@,
	ldr	r1, .L314+16	@,
	bl	dprint_vfmw	@
	mvn	r0, #0	@ D.39384,
	ldmfd	sp!, {r4, pc}	@
.L315:
	.align	2
.L314:
	.word	.LANCHOR0
	.word	.LANCHOR1+32
	.word	.LC9
	.word	.LC67
	.word	.LC5
	.fnend
	.size	VCTRL_SetCallBack, .-VCTRL_SetCallBack
	.align	2
	.global	VCTRL_StopVfmw
	.type	VCTRL_StopVfmw, %function
VCTRL_StopVfmw:
	.fnstart
	@ args = 0, pretend = 0, frame = 0
	@ frame_needed = 0, uses_anonymous_args = 0
	@ link register save eliminated.
	ldr	r3, .L318	@ tmp113,
	ldr	r2, [r3, #16]	@ s_VfmwCTrl.s32IsVCTRLOpen, s_VfmwCTrl.s32IsVCTRLOpen
	cmp	r2, #1	@ s_VfmwCTrl.s32IsVCTRLOpen,
	bne	.L317	@,
	mov	r2, #2	@ tmp116,
	str	r2, [r3, #48]	@ tmp116, s_VfmwCTrl.eTaskCommand
	b	VCTRL_StopVfmw.part.15	@
.L317:
	mvn	r0, #0	@,
	bx	lr	@
.L319:
	.align	2
.L318:
	.word	.LANCHOR0
	.fnend
	.size	VCTRL_StopVfmw, .-VCTRL_StopVfmw
	.align	2
	.global	VCTRL_StartVfmw
	.type	VCTRL_StartVfmw, %function
VCTRL_StartVfmw:
	.fnstart
	@ args = 0, pretend = 0, frame = 0
	@ frame_needed = 0, uses_anonymous_args = 0
	@ link register save eliminated.
	ldr	r3, .L322	@ tmp113,
	ldr	r2, [r3, #16]	@ s_VfmwCTrl.s32IsVCTRLOpen, s_VfmwCTrl.s32IsVCTRLOpen
	cmp	r2, #1	@ s_VfmwCTrl.s32IsVCTRLOpen,
	bne	.L321	@,
	str	r2, [r3, #48]	@ s_VfmwCTrl.s32IsVCTRLOpen, s_VfmwCTrl.eTaskCommand
	b	VCTRL_StartVfmw.part.16	@
.L321:
	mvn	r0, #0	@,
	bx	lr	@
.L323:
	.align	2
.L322:
	.word	.LANCHOR0
	.fnend
	.size	VCTRL_StartVfmw, .-VCTRL_StartVfmw
	.align	2
	.global	VCTRL_SetStreamInterface
	.type	VCTRL_SetStreamInterface, %function
VCTRL_SetStreamInterface:
	.fnstart
	@ args = 0, pretend = 0, frame = 0
	@ frame_needed = 0, uses_anonymous_args = 0
	subs	r3, r1, #0	@ pstStreamIntf, pstStreamIntf
	stmfd	sp!, {r4, lr}	@,
	.save {r4, lr}
	beq	.L329	@,
	ldr	r3, .L331	@ tmp118,
	ldr	r0, [r3, r0, asl #2]	@ D.39397, s_pstVfmwChan
	cmp	r0, #0	@ D.39397,
	beq	.L330	@,
	mov	r2, #12	@,
	add	r0, r0, #104	@, D.39397,
	bl	memcpy	@
	mov	r0, #0	@ D.39396,
	ldmfd	sp!, {r4, pc}	@
.L330:
	ldr	r3, .L331+4	@,
	movw	r2, #1151	@,
	ldr	r1, .L331+8	@,
	bl	dprint_vfmw	@
	mvn	r0, #0	@ D.39396,
	ldmfd	sp!, {r4, pc}	@
.L329:
	mov	r0, r3	@, pstStreamIntf
	movw	r2, #1150	@,
	ldr	r3, .L331+12	@,
	ldr	r1, .L331+8	@,
	bl	dprint_vfmw	@
	mvn	r0, #0	@ D.39396,
	ldmfd	sp!, {r4, pc}	@
.L332:
	.align	2
.L331:
	.word	.LANCHOR0
	.word	.LC6
	.word	.LC5
	.word	.LC68
	.fnend
	.size	VCTRL_SetStreamInterface, .-VCTRL_SetStreamInterface
	.align	2
	.global	VCTRL_GetStreamInterface
	.type	VCTRL_GetStreamInterface, %function
VCTRL_GetStreamInterface:
	.fnstart
	@ args = 0, pretend = 0, frame = 0
	@ frame_needed = 0, uses_anonymous_args = 0
	@ link register save eliminated.
	ldr	r3, .L336	@ tmp114,
	ldr	r0, [r3, r0, asl #2]	@ D.39406, s_pstVfmwChan
	cmp	r0, #0	@ D.39406,
	addne	r0, r0, #104	@ D.39405, D.39406,
	bx	lr	@
.L337:
	.align	2
.L336:
	.word	.LANCHOR0
	.fnend
	.size	VCTRL_GetStreamInterface, .-VCTRL_GetStreamInterface
	.align	2
	.global	VCTRL_SetFrameInterface
	.type	VCTRL_SetFrameInterface, %function
VCTRL_SetFrameInterface:
	.fnstart
	@ args = 0, pretend = 0, frame = 0
	@ frame_needed = 0, uses_anonymous_args = 0
	subs	r3, r1, #0	@ pstFrameIntf, pstFrameIntf
	stmfd	sp!, {r4, lr}	@,
	.save {r4, lr}
	beq	.L343	@,
	ldr	r3, .L345	@ tmp118,
	ldr	r0, [r3, r0, asl #2]	@ D.39410, s_pstVfmwChan
	cmp	r0, #0	@ D.39410,
	beq	.L344	@,
	mov	r2, #12	@,
	add	r0, r0, #128	@, D.39410,
	bl	memcpy	@
	mov	r0, #0	@ D.39409,
	ldmfd	sp!, {r4, pc}	@
.L344:
	ldr	r3, .L345+4	@,
	movw	r2, #1176	@,
	ldr	r1, .L345+8	@,
	bl	dprint_vfmw	@
	mvn	r0, #0	@ D.39409,
	ldmfd	sp!, {r4, pc}	@
.L343:
	mov	r0, r3	@, pstFrameIntf
	movw	r2, #1175	@,
	ldr	r3, .L345+12	@,
	ldr	r1, .L345+8	@,
	bl	dprint_vfmw	@
	mvn	r0, #0	@ D.39409,
	ldmfd	sp!, {r4, pc}	@
.L346:
	.align	2
.L345:
	.word	.LANCHOR0
	.word	.LC6
	.word	.LC5
	.word	.LC68
	.fnend
	.size	VCTRL_SetFrameInterface, .-VCTRL_SetFrameInterface
	.align	2
	.global	VCTRL_GetFrameInterface
	.type	VCTRL_GetFrameInterface, %function
VCTRL_GetFrameInterface:
	.fnstart
	@ args = 0, pretend = 0, frame = 0
	@ frame_needed = 0, uses_anonymous_args = 0
	@ link register save eliminated.
	ldr	r3, .L350	@ tmp114,
	ldr	r0, [r3, r0, asl #2]	@ D.39418, s_pstVfmwChan
	cmp	r0, #0	@ D.39418,
	addne	r0, r0, #128	@ D.39417, D.39418,
	bx	lr	@
.L351:
	.align	2
.L350:
	.word	.LANCHOR0
	.fnend
	.size	VCTRL_GetFrameInterface, .-VCTRL_GetFrameInterface
	.align	2
	.global	VCTRL_GetStreamSize
	.type	VCTRL_GetStreamSize, %function
VCTRL_GetStreamSize:
	.fnstart
	@ args = 0, pretend = 0, frame = 0
	@ frame_needed = 0, uses_anonymous_args = 0
	cmp	r0, #3	@ ChanID,
	stmfd	sp!, {r4, lr}	@,
	.save {r4, lr}
	bhi	.L358	@,
	ldr	r3, .L361	@ tmp121,
	ldr	r0, [r3, r0, asl #2]	@ D.39423, s_pstVfmwChan
	cmp	r0, #0	@ D.39423,
	beq	.L359	@,
	ldr	r3, [r0, #4]	@ _7->s32IsOpen, _7->s32IsOpen
	cmp	r3, #1	@ _7->s32IsOpen,
	bne	.L360	@,
	add	r0, r0, #74752	@, D.39423,
	add	r0, r0, #800	@,,
	ldmfd	sp!, {r4, lr}	@
	b	GetSegStreamSize	@
.L360:
	ldr	r3, .L361+4	@,
	mov	r2, #1216	@,
	ldr	r1, .L361+8	@,
	mov	r0, #0	@,
	bl	dprint_vfmw	@
.L354:
	mvn	r0, #0	@,
	ldmfd	sp!, {r4, pc}	@
.L358:
	ldr	r3, .L361+12	@,
	movw	r2, #1214	@,
	ldr	r1, .L361+8	@,
	mov	r0, #0	@,
	bl	dprint_vfmw	@
	b	.L354	@
.L359:
	ldr	r3, .L361+16	@,
	movw	r2, #1215	@,
	ldr	r1, .L361+8	@,
	bl	dprint_vfmw	@
	b	.L354	@
.L362:
	.align	2
.L361:
	.word	.LANCHOR0
	.word	.LC71
	.word	.LC5
	.word	.LC69
	.word	.LC70
	.fnend
	.size	VCTRL_GetStreamSize, .-VCTRL_GetStreamSize
	.align	2
	.global	VCTRL_SetDiscardPicParam
	.type	VCTRL_SetDiscardPicParam, %function
VCTRL_SetDiscardPicParam:
	.fnstart
	@ args = 0, pretend = 0, frame = 0
	@ frame_needed = 0, uses_anonymous_args = 0
	cmp	r0, #3	@ ChanID,
	stmfd	sp!, {r4, lr}	@,
	.save {r4, lr}
	bhi	.L370	@,
	cmp	r1, #0	@ pArgs,
	beq	.L371	@,
	ldr	r3, .L373	@ tmp124,
	ldr	r4, [r3, r0, asl #2]	@ D.39433, s_pstVfmwChan
	cmp	r4, #0	@ D.39433,
	beq	.L372	@,
	add	r0, r4, #1584	@, D.39433,
	mov	r2, #8	@,
	add	r0, r0, #12	@,,
	bl	memcpy	@
	ldr	r3, [r4, #1596]	@ _9->stSynExtraData.stDisParams.s32Mode, _9->stSynExtraData.stDisParams.s32Mode
	mov	r0, #0	@ tmp135,
	sub	r3, r3, #1	@ D.39432, _9->stSynExtraData.stDisParams.s32Mode,
	cmp	r3, #1	@ D.39432,
	strhi	r0, [r4, #1596]	@ tmp135, _9->stSynExtraData.stDisParams.s32Mode
	ldmfd	sp!, {r4, pc}	@
.L370:
	ldr	r3, .L373+4	@,
	movw	r2, #1228	@,
	ldr	r1, .L373+8	@,
	mov	r0, #0	@,
	bl	dprint_vfmw	@
	mvn	r0, #0	@ D.39431,
	ldmfd	sp!, {r4, pc}	@
.L372:
	mov	r0, r4	@, D.39433
	ldr	r3, .L373+12	@,
	movw	r2, #1230	@,
	ldr	r1, .L373+8	@,
	bl	dprint_vfmw	@
	mvn	r0, #0	@ D.39431,
	ldmfd	sp!, {r4, pc}	@
.L371:
	mov	r0, r1	@, pArgs
	ldr	r3, .L373+16	@,
	movw	r2, #1229	@,
	ldr	r1, .L373+8	@,
	bl	dprint_vfmw	@
	mvn	r0, #0	@ D.39431,
	ldmfd	sp!, {r4, pc}	@
.L374:
	.align	2
.L373:
	.word	.LANCHOR0
	.word	.LC69
	.word	.LC5
	.word	.LC6
	.word	.LC72
	.fnend
	.size	VCTRL_SetDiscardPicParam, .-VCTRL_SetDiscardPicParam
	.align	2
	.global	VCTRL_GetDispStateWithDNR
	.type	VCTRL_GetDispStateWithDNR, %function
VCTRL_GetDispStateWithDNR:
	.fnstart
	@ args = 0, pretend = 0, frame = 80
	@ frame_needed = 0, uses_anonymous_args = 0
	stmfd	sp!, {r4, lr}	@,
	.save {r4, lr}
	.pad #80
	sub	sp, sp, #80	@,,
	mov	r4, r1	@ pstChanState, pstChanState
	mov	r1, sp	@,
	bl	DNR_GetState	@
	add	r1, sp, #68	@,,
	ldmia	r1, {r1, r2, r3}	@,,,
	add	r3, r3, r2	@ D.39442, DnrChanState.read_out_frame_num, DnrChanState.new_frame_num
	str	r3, [r4, #88]	@ D.39442, pstChanState_8(D)->wait_disp_frame_num
	str	r1, [r4, #96]	@ DnrChanState.total_frame_num, pstChanState_8(D)->total_disp_frame_num
	add	sp, sp, #80	@,,
	@ sp needed	@
	ldmfd	sp!, {r4, pc}	@
	.fnend
	.size	VCTRL_GetDispStateWithDNR, .-VCTRL_GetDispStateWithDNR
	.align	2
	.global	VCTRL_GetDispState
	.type	VCTRL_GetDispState, %function
VCTRL_GetDispState:
	.fnstart
	@ args = 0, pretend = 0, frame = 0
	@ frame_needed = 0, uses_anonymous_args = 0
	ldr	ip, .L387	@ tmp162,
	movw	r3, #1546	@ tmp166,
	stmfd	sp!, {r4, r5, lr}	@,
	.save {r4, r5, lr}
	ldr	r0, [ip, r0, asl #2]	@ D.39456, s_pstVfmwChan
	add	r5, r0, #180224	@ tmp179, D.39456,
	ldrsb	lr, [r5, r3]	@ D.39454, _32->FspInst.s32DecFsNum
	cmp	lr, #0	@ D.39454,
	ble	.L383	@,
	movw	r3, #12950	@ ivtmp.546,
	mov	r4, #0	@ s32DecodedFrameNum,
	movt	r3, 3	@ ivtmp.546,
	add	r3, r0, r3	@ ivtmp.546, D.39456, ivtmp.546
	mov	r0, r4	@ i, s32DecodedFrameNum
.L380:
	ldrsb	ip, [r3]	@ MEM[base: _39, offset: 0B], MEM[base: _39, offset: 0B]
	add	r0, r0, #1	@ i, i,
	add	r3, r3, #52	@ ivtmp.546, ivtmp.546,
	cmp	ip, #3	@ MEM[base: _39, offset: 0B],
	addeq	r4, r4, #1	@ s32DecodedFrameNum, s32DecodedFrameNum,
	cmp	r0, lr	@ i, D.39454
	bne	.L380	@,
.L378:
	str	r4, [r1, #88]	@ D.39452, pstChanState_15(D)->wait_disp_frame_num
	ldrb	r3, [r5, #1546]	@ zero_extendqisi2	@ D.39453, _32->FspInst.s32DecFsNum
	cmp	r3, #0	@ D.39453,
	moveq	r3, #4	@ D.39451,
	mvnne	r0, r2	@ D.39454, RefNum
	sxtabne	r3, r0, r3	@ D.39451, D.39454, D.39453
	str	r3, [r1, #96]	@ D.39451, pstChanState_15(D)->total_disp_frame_num
	ldrb	r3, [r5, #1546]	@ zero_extendqisi2	@ D.39453, _32->FspInst.s32DecFsNum
	sxtb	r3, r3	@ D.39453, D.39453
	cmp	r3, #0	@ D.39453,
	ldmlefd	sp!, {r4, r5, pc}	@
	add	r2, r2, #1	@ D.39454, RefNum,
	cmp	r3, r2	@ D.39453, D.39454
	movle	r3, #0	@ tmp178,
	strle	r3, [r1, #96]	@ tmp178, pstChanState_15(D)->total_disp_frame_num
	ldmfd	sp!, {r4, r5, pc}	@
.L383:
	mov	r4, #0	@ D.39452,
	b	.L378	@
.L388:
	.align	2
.L387:
	.word	.LANCHOR0
	.fnend
	.size	VCTRL_GetDispState, .-VCTRL_GetDispState
	.align	2
	.global	VCTRL_GetImageInterface
	.type	VCTRL_GetImageInterface, %function
VCTRL_GetImageInterface:
	.fnstart
	@ args = 0, pretend = 0, frame = 0
	@ frame_needed = 0, uses_anonymous_args = 0
	@ link register save eliminated.
	ldr	r3, .L392	@ tmp114,
	ldr	r0, [r3, r0, asl #2]	@ D.39461, s_pstVfmwChan
	cmp	r0, #0	@ D.39461,
	addne	r0, r0, #116	@ D.39460, D.39461,
	bx	lr	@
.L393:
	.align	2
.L392:
	.word	.LANCHOR0
	.fnend
	.size	VCTRL_GetImageInterface, .-VCTRL_GetImageInterface
	.align	2
	.global	VCTRL_PartitionMemForStdUser
	.type	VCTRL_PartitionMemForStdUser, %function
VCTRL_PartitionMemForStdUser:
	.fnstart
	@ args = 4, pretend = 0, frame = 40
	@ frame_needed = 0, uses_anonymous_args = 0
	stmfd	sp!, {r4, r5, r6, r7, r8, r9, r10, fp, lr}	@,
	.save {r4, r5, r6, r7, r8, r9, r10, fp, lr}
	cmp	r2, #31	@ MaxHeight,
	cmpgt	r1, #31	@, MaxWidth,
	ldr	r4, .L412	@ tmp170,
	.pad #44
	sub	sp, sp, #44	@,,
	mov	r6, r2	@ MaxHeight, MaxHeight
	mov	r8, r1	@ MaxWidth, MaxWidth
	movle	r2, #1	@ tmp177,
	movgt	r2, #0	@ tmp177,
	mov	r9, r0	@ ChanID, ChanID
	ldr	r5, [r4, r0, asl #2]	@ pstChan, s_pstVfmwChan
	ldr	r10, [sp, #80]	@ MemSize, MemSize
	ble	.L408	@,
	cmp	r10, #0	@ MemSize,
	cmpne	r3, #0	@, MemAddr,
	mov	fp, r3	@ MemAddr, MemAddr
	moveq	r7, #1	@ tmp185,
	movne	r7, #0	@ tmp185,
	beq	.L409	@,
	mov	r1, #36	@,
	add	r0, sp, #4	@ tmp219,,
	bl	__memzero	@
	add	r1, sp, #4	@ tmp220,,
	mov	r0, r9	@, ChanID
	mov	r3, #1	@ tmp198,
	str	r6, [sp, #20]	@ MaxHeight, FspInstCfg.s32DecFsHeight
	str	r6, [sp, #36]	@ MaxHeight, FspInstCfg.s32DispFsHeight
	strb	r7, [sp, #4]	@ tmp185, FspInstCfg.s32DispLoopEnable
	strb	r7, [sp, #6]	@ tmp185, FspInstCfg.s32RprEnable
	str	r8, [sp, #16]	@ MaxWidth, FspInstCfg.s32DecFsWidth
	str	r8, [sp, #32]	@ MaxWidth, FspInstCfg.s32DispFsWidth
	strb	r7, [sp, #9]	@ tmp185, FspInstCfg.s32ExpectedDecFsNum
	strb	r7, [sp, #11]	@ tmp185, FspInstCfg.s32ExpectedDispFsNum
	strb	r7, [sp, #12]	@ tmp185, FspInstCfg.s32ExpectedPmvNum
	strb	r3, [sp, #8]	@ tmp198, FspInstCfg.s32UserDec
	bl	FSP_ConfigInstance	@
	subs	r6, r0, #0	@ D.39478,
	bne	.L398	@,
	mov	r2, r10	@, MemSize
	mov	r1, fp	@, MemAddr
	mov	r3, sp	@,
	mov	r0, r9	@, ChanID
	bl	FSP_PartitionFsMemory	@
	subs	r7, r0, #0	@ Ret,
	bne	.L410	@,
	mov	r0, r9	@, ChanID
	add	r1, r4, #284	@, tmp170,
	bl	FSP_GetInstInfo	@
	movw	r3, #285	@ tmp207,
	ldrsb	r3, [r4, r3]	@ D.39481, FspInstInfo.s32DecFsNum
	cmp	r3, #16	@ D.39481,
	movge	r3, #16	@ D.39481,
	cmp	r3, #2	@ D.39481,
	str	r3, [r5, #820]	@ D.39481, pstChan_8->s32UsrdecFrameNum
	ble	.L411	@,
	ldr	r3, [r4, #3620]	@ D.39481, FspInstInfo.s32DecFsSize
	mov	r1, #64	@,
	add	r0, r5, #752	@, pstChan,
	str	r3, [r5, #816]	@ D.39481, pstChan_8->s32UsrdecFrameSize
	bl	__memzero	@
	mov	r1, #64	@,
	add	r0, r5, #688	@, pstChan,
	bl	__memzero	@
	ldr	lr, [r5, #820]	@ D.39481, pstChan_8->s32UsrdecFrameNum
	cmp	lr, #0	@ D.39481,
	ble	.L396	@,
	add	r3, r4, #284	@ ivtmp.557, tmp170,
	add	r1, r5, #748	@ ivtmp.559, pstChan,
	mov	r2, r6	@ i, D.39478
.L403:
	ldr	ip, [r3, #20]	@ D.39481, MEM[base: _66, offset: 20B]
	add	r2, r2, #1	@ i, i,
	cmp	r2, lr	@ i, D.39481
	add	r3, r3, #52	@ ivtmp.557, ivtmp.557,
	str	ip, [r1, #4]!	@ D.39481, MEM[base: _67, offset: 0B]
	bne	.L403	@,
.L396:
	mov	r0, r6	@, D.39478
	add	sp, sp, #44	@,,
	@ sp needed	@
	ldmfd	sp!, {r4, r5, r6, r7, r8, r9, r10, fp, pc}	@
.L409:
	mov	r0, r2	@, tmp177
	ldr	r1, .L412+4	@,
	bl	dprint_vfmw	@
	mvn	r6, #0	@ D.39478,
	b	.L396	@
.L398:
	mov	r0, r7	@, tmp185
	ldr	r1, .L412+8	@,
	bl	dprint_vfmw	@
.L407:
	mvn	r6, #0	@ D.39478,
	mov	r0, r6	@, D.39478
	add	sp, sp, #44	@,,
	@ sp needed	@
	ldmfd	sp!, {r4, r5, r6, r7, r8, r9, r10, fp, pc}	@
.L410:
	mov	r0, r6	@, D.39478
	ldr	r1, .L412+12	@,
	bl	dprint_vfmw	@
	b	.L407	@
.L411:
	mov	r0, r7	@, Ret
	movw	r3, #1403	@,
	ldr	r2, .L412+16	@,
	ldr	r1, .L412+20	@,
	bl	dprint_vfmw	@
	b	.L407	@
.L408:
	mov	r3, r6	@, MaxHeight
	mov	r2, r1	@, MaxWidth
	mov	r0, #0	@,
	ldr	r1, .L412+24	@,
	bl	dprint_vfmw	@
	mvn	r6, #0	@ D.39478,
	b	.L396	@
.L413:
	.align	2
.L412:
	.word	.LANCHOR0
	.word	.LC74
	.word	.LC77
	.word	.LC75
	.word	.LANCHOR1+52
	.word	.LC76
	.word	.LC73
	.fnend
	.size	VCTRL_PartitionMemForStdUser, .-VCTRL_PartitionMemForStdUser
	.align	2
	.global	VCTRL_UnInstallChan
	.type	VCTRL_UnInstallChan, %function
VCTRL_UnInstallChan:
	.fnstart
	@ args = 0, pretend = 0, frame = 0
	@ frame_needed = 0, uses_anonymous_args = 0
	stmfd	sp!, {r4, lr}	@,
	.save {r4, lr}
	mov	r4, r0	@ ChanID, ChanID
	bl	DNR_DisableChan	@
	mov	r0, r4	@, ChanID
	bl	FSP_DisableInstance	@
	mov	r0, r4	@, ChanID
	bl	CloseUsdPool_WithMem	@
	mov	r0, #0	@,
	ldmfd	sp!, {r4, pc}	@
	.fnend
	.size	VCTRL_UnInstallChan, .-VCTRL_UnInstallChan
	.align	2
	.global	VCTRL_FreeChanResource
	.type	VCTRL_FreeChanResource, %function
VCTRL_FreeChanResource:
	.fnstart
	@ args = 0, pretend = 0, frame = 0
	@ frame_needed = 0, uses_anonymous_args = 0
	stmfd	sp!, {r4, r5, r6, lr}	@,
	.save {r4, r5, r6, lr}
	mov	r4, r1	@ pstChan, pstChan
	ldr	r3, [r1, #64]	@ pstChan_7(D)->s32SelfAllocChanMem_vdh, pstChan_7(D)->s32SelfAllocChanMem_vdh
	mov	r5, r0	@ ChanID, ChanID
	cmp	r3, #1	@ pstChan_7(D)->s32SelfAllocChanMem_vdh,
	beq	.L446	@,
.L417:
	ldr	r3, [r4, #28]	@ pstChan_7(D)->stChanMem_vdh.Length, pstChan_7(D)->stChanMem_vdh.Length
	cmp	r3, #0	@ pstChan_7(D)->stChanMem_vdh.Length,
	bne	.L447	@,
.L418:
	ldr	r2, [r4, #44]	@ D.39493, pstChan_7(D)->stChanMem_scd.Length
	cmp	r2, #0	@ D.39493,
	bne	.L448	@,
	ldr	r3, [r4, #68]	@ pstChan_7(D)->s32SelfAllocChanMem_scd, pstChan_7(D)->s32SelfAllocChanMem_scd
	cmp	r3, #1	@ pstChan_7(D)->s32SelfAllocChanMem_scd,
	beq	.L449	@,
.L421:
	ldr	r2, [r4, #28]	@, pstChan_7(D)->stChanMem_vdh.Length
	ldr	r1, [r4, #20]	@, pstChan_7(D)->stChanMem_vdh.VirAddr
	ldr	r0, [r4, #24]	@, pstChan_7(D)->stChanMem_vdh.PhyAddr
	bl	MEM_DelMemRecord	@
	ldr	r3, [r4, #72]	@ pstChan_7(D)->s32SelfAllocChanMem_ctx, pstChan_7(D)->s32SelfAllocChanMem_ctx
	cmp	r3, #1	@ pstChan_7(D)->s32SelfAllocChanMem_ctx,
	beq	.L450	@,
.L424:
	ldr	r0, [r4, #52]	@, pstChan_7(D)->stChanMem_ctx.VirAddr
	bl	KernelMunmap	@
.L425:
	ldr	r2, [r4, #60]	@, pstChan_7(D)->stChanMem_ctx.Length
	ldr	r1, [r4, #52]	@, pstChan_7(D)->stChanMem_ctx.VirAddr
	ldr	r0, [r4, #56]	@, pstChan_7(D)->stChanMem_ctx.PhyAddr
	bl	MEM_DelMemRecord	@
	ldr	r3, [r4, #76]	@ pstChan_7(D)->s32SelfAllocChanMem_pmv, pstChan_7(D)->s32SelfAllocChanMem_pmv
	ldr	r0, [r4, #100]	@ D.39498, pstChan_7(D)->stChanMem_pmv.PhyAddr
	cmp	r3, #1	@ pstChan_7(D)->s32SelfAllocChanMem_pmv,
	beq	.L451	@,
.L427:
	ldr	r2, [r4, #104]	@, pstChan_7(D)->stChanMem_pmv.Length
	ldr	r1, [r4, #96]	@, pstChan_7(D)->stChanMem_pmv.VirAddr
	bl	MEM_DelMemRecord	@
	mov	r0, #0	@,
	ldmfd	sp!, {r4, r5, r6, pc}	@
.L447:
	ldrsb	r3, [r4, #16]	@ pstChan_7(D)->stChanMem_vdh.IsCached, pstChan_7(D)->stChanMem_vdh.IsCached
	cmp	r3, #1	@ pstChan_7(D)->stChanMem_vdh.IsCached,
	bne	.L418	@,
	ldr	r0, [r4, #20]	@, pstChan_7(D)->stChanMem_vdh.VirAddr
	bl	KernelMunmap	@
	ldr	r1, [r4, #28]	@, pstChan_7(D)->stChanMem_vdh.Length
	ldr	r0, [r4, #24]	@, pstChan_7(D)->stChanMem_vdh.PhyAddr
	bl	KernelMmap	@
	mov	r3, #0	@ tmp162,
	strb	r3, [r4, #16]	@ tmp162, pstChan_7(D)->stChanMem_vdh.IsCached
	str	r0, [r4, #20]	@, pstChan_7(D)->stChanMem_vdh.VirAddr
	b	.L418	@
.L450:
	ldr	r0, [r4, #56]	@ D.39493, pstChan_7(D)->stChanMem_ctx.PhyAddr
	cmp	r0, #0	@ D.39493,
	beq	.L424	@,
	ldr	r1, [r4, #52]	@, pstChan_7(D)->stChanMem_ctx.VirAddr
	bl	MEM_ReleaseMemBlock	@
	b	.L425	@
.L451:
	cmp	r0, #0	@ D.39498,
	beq	.L427	@,
	ldr	r1, [r4, #96]	@, pstChan_7(D)->stChanMem_pmv.VirAddr
	bl	MEM_ReleaseMemBlock	@
	ldr	r0, [r4, #100]	@ D.39498, pstChan_7(D)->stChanMem_pmv.PhyAddr
	b	.L427	@
.L448:
	ldr	r1, [r4, #36]	@, pstChan_7(D)->stChanMem_scd.VirAddr
	ldr	r0, [r4, #40]	@, pstChan_7(D)->stChanMem_scd.PhyAddr
	bl	MEM_DelMemRecord	@
	ldr	r3, [r4, #68]	@ pstChan_7(D)->s32SelfAllocChanMem_scd, pstChan_7(D)->s32SelfAllocChanMem_scd
	cmp	r3, #1	@ pstChan_7(D)->s32SelfAllocChanMem_scd,
	beq	.L452	@,
.L420:
	ldr	r3, [r4, #44]	@ pstChan_7(D)->stChanMem_scd.Length, pstChan_7(D)->stChanMem_scd.Length
	cmp	r3, #0	@ pstChan_7(D)->stChanMem_scd.Length,
	beq	.L421	@,
	ldrsb	r3, [r4, #32]	@ pstChan_7(D)->stChanMem_scd.IsCached, pstChan_7(D)->stChanMem_scd.IsCached
	cmp	r3, #1	@ pstChan_7(D)->stChanMem_scd.IsCached,
	bne	.L421	@,
	ldr	r0, [r4, #36]	@, pstChan_7(D)->stChanMem_scd.VirAddr
	bl	KernelMunmap	@
	ldr	r1, [r4, #44]	@, pstChan_7(D)->stChanMem_scd.Length
	ldr	r0, [r4, #40]	@, pstChan_7(D)->stChanMem_scd.PhyAddr
	bl	KernelMmap	@
	ldr	r3, .L453	@ tmp173,
	mov	r2, #0	@ tmp176,
	strb	r2, [r4, #32]	@ tmp176, pstChan_7(D)->stChanMem_scd.IsCached
	add	r5, r3, r5, lsl #2	@ tmp174, tmp173, ChanID,
	str	r0, [r4, #36]	@ D.39497, pstChan_7(D)->stChanMem_scd.VirAddr
	str	r0, [r5, #188]	@ D.39497, g_scd_vir
	b	.L421	@
.L446:
	ldr	r0, [r1, #24]	@ D.39493, pstChan_7(D)->stChanMem_vdh.PhyAddr
	cmp	r0, #0	@ D.39493,
	beq	.L417	@,
	ldr	r1, [r1, #20]	@, pstChan_7(D)->stChanMem_vdh.VirAddr
	bl	MEM_ReleaseMemBlock	@
	b	.L418	@
.L452:
	ldr	r0, [r4, #40]	@ D.39493, pstChan_7(D)->stChanMem_scd.PhyAddr
	cmp	r0, #0	@ D.39493,
	beq	.L420	@,
.L428:
	ldr	r1, [r4, #36]	@, pstChan_7(D)->stChanMem_scd.VirAddr
	bl	MEM_ReleaseMemBlock	@
	b	.L421	@
.L449:
	ldr	r0, [r4, #40]	@ D.39493, pstChan_7(D)->stChanMem_scd.PhyAddr
	cmp	r0, #0	@ D.39493,
	beq	.L421	@,
	b	.L428	@
.L454:
	.align	2
.L453:
	.word	.LANCHOR0
	.fnend
	.size	VCTRL_FreeChanResource, .-VCTRL_FreeChanResource
	.align	2
	.global	VCTRL_GetChanCtxSize
	.type	VCTRL_GetChanCtxSize, %function
VCTRL_GetChanCtxSize:
	.fnstart
	@ args = 0, pretend = 0, frame = 0
	@ frame_needed = 0, uses_anonymous_args = 0
	@ link register save eliminated.
	movw	r3, #14840	@ tmp112,
	movt	r3, 8	@ tmp112,
	str	r3, [r1]	@ tmp112, *s32ChanCtxSize_2(D)
	bx	lr	@
	.fnend
	.size	VCTRL_GetChanCtxSize, .-VCTRL_GetChanCtxSize
	.align	2
	.global	VCTRL_StartChan
	.type	VCTRL_StartChan, %function
VCTRL_StartChan:
	.fnstart
	@ args = 0, pretend = 0, frame = 0
	@ frame_needed = 0, uses_anonymous_args = 0
	cmp	r0, #3	@ ChanID,
	stmfd	sp!, {r4, r5, r6, lr}	@,
	.save {r4, r5, r6, lr}
	mov	r4, r0	@ ChanID, ChanID
	bhi	.L472	@,
	ldr	r5, .L476	@ tmp166,
	ldr	r3, [r5, r0, asl #2]	@ D.39518, s_pstVfmwChan
	cmp	r3, #0	@ D.39518,
	beq	.L473	@,
	ldr	r6, [r3, #4]	@ _12->s32IsOpen, _12->s32IsOpen
	cmp	r6, #1	@ _12->s32IsOpen,
	bne	.L474	@,
	ldr	r3, [r3, #880]	@ _12->eVidStd, _12->eVidStd
	cmp	r3, #19	@ _12->eVidStd,
	beq	.L475	@,
	bl	SM_Start	@
	ldr	r3, [r5, r4, asl #2]	@ D.39518, s_pstVfmwChan
	mov	r1, #0	@ tmp148,
	str	r6, [r3, #8]	@ _12->s32IsOpen, _19->s32IsRun
	ldr	r2, [r5, r4, asl #2]	@ D.39518, s_pstVfmwChan
	ldr	r3, [r2, #12]	@ _21->s32Priority, _21->s32Priority
	str	r1, [r2, #16]	@ tmp148, _21->s32StopSyntax
	cmp	r3, r1	@ _21->s32Priority,
	bne	.L462	@,
	ldr	r3, .L476+4	@ ivtmp.586,
	mov	r0, r5	@ ivtmp.582, tmp166
	ldr	r1, .L476+8	@ ivtmp.587,
	add	lr, r3, #16	@ D.39517,,
	str	r6, [r2, #12]	@ _12->s32IsOpen, _21->s32Priority
.L465:
	ldr	r2, [r0], #4	@ D.39518, MEM[base: _50, offset: 0B]
	add	r3, r3, #4	@ ivtmp.586, ivtmp.586,
	add	r1, r1, #4	@ ivtmp.587, ivtmp.587,
	cmp	r2, #0	@ D.39518,
	streq	r2, [r3, #-4]	@ D.39518, MEM[base: _54, offset: 0B]
	ldrne	ip, [r2, #12]	@ D.39519, _25->s32Priority
	strne	ip, [r3, #-4]	@ D.39519, MEM[base: _52, offset: 0B]
	ldrne	r2, [r2, #12]	@ D.39519, _25->s32Priority
	cmp	r3, lr	@ ivtmp.586, D.39517
	str	r2, [r1, #-4]	@ D.39518,
	bne	.L465	@,
	ldr	r0, .L476+4	@,
	bl	VDMDRV_SetPriority	@
	mov	r0, r4	@, ChanID
	bl	VDMDRV_ClearChanIsDec	@
.L462:
	ldr	r3, [r5, r4, asl #2]	@ tmp163, s_pstVfmwChan
	ldr	r3, [r3, #1580]	@ _35->stSynExtraData.stChanOption.DynamicSwitchDnrParam.s32DynamicSwitchDnrEnable, _35->stSynExtraData.stChanOption.DynamicSwitchDnrParam.s32DynamicSwitchDnrEnable
	cmp	r3, #1	@ _35->stSynExtraData.stChanOption.DynamicSwitchDnrParam.s32DynamicSwitchDnrEnable,
	beq	.L466	@,
	mov	r0, r4	@, ChanID
	bl	DNR_StartChan	@
.L466:
	mov	r0, r4	@, ChanID
	bl	VDMDRV_ClearChanIsDec	@
	mov	r0, #0	@ D.39516,
	ldmfd	sp!, {r4, r5, r6, pc}	@
.L474:
	ldr	r3, .L476+12	@,
	movw	r2, #2698	@,
	ldr	r1, .L476+16	@,
	mov	r0, #0	@,
	bl	dprint_vfmw	@
	mvn	r0, #0	@ D.39516,
	ldmfd	sp!, {r4, r5, r6, pc}	@
.L472:
	ldr	r3, .L476+20	@,
	movw	r2, #2696	@,
	ldr	r1, .L476+16	@,
	mov	r0, #0	@,
	bl	dprint_vfmw	@
	mvn	r0, #0	@ D.39516,
	ldmfd	sp!, {r4, r5, r6, pc}	@
.L475:
	ldr	r3, .L476+24	@,
	movw	r2, #2699	@,
	ldr	r1, .L476+16	@,
	mov	r0, #0	@,
	bl	dprint_vfmw	@
	mvn	r0, #0	@ D.39516,
	ldmfd	sp!, {r4, r5, r6, pc}	@
.L473:
	mov	r0, r3	@, D.39518
	movw	r2, #2697	@,
	ldr	r3, .L476+28	@,
	ldr	r1, .L476+16	@,
	bl	dprint_vfmw	@
	mvn	r0, #0	@ D.39516,
	ldmfd	sp!, {r4, r5, r6, pc}	@
.L477:
	.align	2
.L476:
	.word	.LANCHOR0
	.word	.LANCHOR0+3624
	.word	g_ChanCtx
	.word	.LC78
	.word	.LC5
	.word	.LC69
	.word	.LC79
	.word	.LC70
	.fnend
	.size	VCTRL_StartChan, .-VCTRL_StartChan
	.align	2
	.type	VfmwProc_TestStartChan, %function
VfmwProc_TestStartChan:
	.fnstart
	@ args = 0, pretend = 0, frame = 0
	@ frame_needed = 0, uses_anonymous_args = 0
	stmfd	sp!, {r4, lr}	@,
	.save {r4, lr}
	ldr	r4, [r0]	@ dat, *p_args_2(D)
	mov	r0, r4	@, dat
	bl	VCTRL_StartChan	@
	mov	r2, r4	@, dat
	ldr	r1, .L480	@,
	ldmfd	sp!, {r4, lr}	@
	mov	r3, r0	@,
	mov	r0, #32	@,
	b	dprint_vfmw	@
.L481:
	.align	2
.L480:
	.word	.LC80
	.fnend
	.size	VfmwProc_TestStartChan, .-VfmwProc_TestStartChan
	.align	2
	.global	VCTRL_StopChan
	.type	VCTRL_StopChan, %function
VCTRL_StopChan:
	.fnstart
	@ args = 0, pretend = 0, frame = 0
	@ frame_needed = 0, uses_anonymous_args = 0
	cmp	r0, #3	@ ChanID,
	stmfd	sp!, {r4, r5, r6, lr}	@,
	.save {r4, r5, r6, lr}
	mov	r4, r0	@ ChanID, ChanID
	bhi	.L489	@,
	ldr	r6, .L492	@ tmp120,
	ldr	r3, [r6, r0, asl #2]	@ D.39535, s_pstVfmwChan
	cmp	r3, #0	@ D.39535,
	beq	.L490	@,
	ldr	r2, [r3, #4]	@ _7->s32IsOpen, _7->s32IsOpen
	cmp	r2, #1	@ _7->s32IsOpen,
	bne	.L491	@,
	str	r2, [r3, #16]	@ _7->s32IsOpen, _7->s32StopSyntax
	mov	r2, #0	@ tmp127,
	str	r2, [r3, #8]	@ tmp127, _7->s32IsRun
	bl	SM_Stop	@
	subs	r5, r0, #0	@ s32Ret,
	bne	.L487	@,
	mov	r1, r5	@, s32Ret
	mov	r0, r4	@, ChanID
	bl	DeleteRawPacketInBuffer	@
	mov	r0, r4	@, ChanID
	bl	DNR_StopChan	@
	mov	r0, r4	@, ChanID
	bl	VDMDRV_ClearChanIsDec	@
	ldr	r3, [r6, r4, asl #2]	@ tmp129, s_pstVfmwChan
	mov	r0, r5	@ D.39533, s32Ret
	str	r5, [r3, #16]	@ s32Ret, _18->s32StopSyntax
	ldmfd	sp!, {r4, r5, r6, pc}	@
.L491:
	ldr	r3, .L492+4	@,
	movw	r2, #2825	@,
	ldr	r1, .L492+8	@,
	mov	r0, #0	@,
	bl	dprint_vfmw	@
	mvn	r0, #0	@ D.39533,
	ldmfd	sp!, {r4, r5, r6, pc}	@
.L487:
	mvn	r0, #0	@ D.39533,
	ldmfd	sp!, {r4, r5, r6, pc}	@
.L489:
	ldr	r3, .L492+12	@,
	movw	r2, #2823	@,
	ldr	r1, .L492+8	@,
	mov	r0, #0	@,
	bl	dprint_vfmw	@
	mvn	r0, #0	@ D.39533,
	ldmfd	sp!, {r4, r5, r6, pc}	@
.L490:
	mov	r0, r3	@, D.39535
	movw	r2, #2824	@,
	ldr	r3, .L492+16	@,
	ldr	r1, .L492+8	@,
	bl	dprint_vfmw	@
	mvn	r0, #0	@ D.39533,
	ldmfd	sp!, {r4, r5, r6, pc}	@
.L493:
	.align	2
.L492:
	.word	.LANCHOR0
	.word	.LC82
	.word	.LC5
	.word	.LC69
	.word	.LC81
	.fnend
	.size	VCTRL_StopChan, .-VCTRL_StopChan
	.align	2
	.type	VfmwProc_TestStopChan, %function
VfmwProc_TestStopChan:
	.fnstart
	@ args = 0, pretend = 0, frame = 0
	@ frame_needed = 0, uses_anonymous_args = 0
	stmfd	sp!, {r4, lr}	@,
	.save {r4, lr}
	ldr	r4, [r0]	@ dat, *p_args_2(D)
	mov	r0, r4	@, dat
	bl	VCTRL_StopChan	@
	mov	r2, r4	@, dat
	ldr	r1, .L496	@,
	ldmfd	sp!, {r4, lr}	@
	mov	r3, r0	@,
	mov	r0, #32	@,
	b	dprint_vfmw	@
.L497:
	.align	2
.L496:
	.word	.LC83
	.fnend
	.size	VfmwProc_TestStopChan, .-VfmwProc_TestStopChan
	.align	2
	.global	VCTRL_GetChanCfg
	.type	VCTRL_GetChanCfg, %function
VCTRL_GetChanCfg:
	.fnstart
	@ args = 0, pretend = 0, frame = 0
	@ frame_needed = 0, uses_anonymous_args = 0
	cmp	r0, #3	@ ChanID,
	stmfd	sp!, {r4, lr}	@,
	.save {r4, lr}
	bhi	.L504	@,
	cmp	r1, #0	@ pstCfg,
	mov	r3, r1	@ pstCfg, pstCfg
	beq	.L505	@,
	ldr	r2, .L507	@ tmp121,
	ldr	r1, [r2, r0, asl #2]	@ D.39550, s_pstVfmwChan
	cmp	r1, #0	@ D.39550,
	beq	.L506	@,
	add	r1, r1, #32	@, D.39550,
	mov	r0, r3	@, pstCfg
	mov	r2, #72	@,
	bl	memcpy	@
	mov	r0, #0	@ D.39548,
	ldmfd	sp!, {r4, pc}	@
.L504:
	ldr	r3, .L507+4	@,
	movw	r2, #2874	@,
	ldr	r1, .L507+8	@,
	mov	r0, #0	@,
	bl	dprint_vfmw	@
	mvn	r0, #0	@ D.39548,
	ldmfd	sp!, {r4, pc}	@
.L506:
	mov	r0, r1	@, D.39550
	ldr	r3, .L507+12	@,
	movw	r2, #2876	@,
	ldr	r1, .L507+8	@,
	bl	dprint_vfmw	@
	mvn	r0, #0	@ D.39548,
	ldmfd	sp!, {r4, pc}	@
.L505:
	mov	r0, r1	@, pstCfg
	ldr	r3, .L507+16	@,
	movw	r2, #2875	@,
	ldr	r1, .L507+8	@,
	bl	dprint_vfmw	@
	mvn	r0, #0	@ D.39548,
	ldmfd	sp!, {r4, pc}	@
.L508:
	.align	2
.L507:
	.word	.LANCHOR0
	.word	.LC69
	.word	.LC5
	.word	.LC6
	.word	.LC84
	.fnend
	.size	VCTRL_GetChanCfg, .-VCTRL_GetChanCfg
	.align	2
	.global	RefreshDecCore
	.type	RefreshDecCore, %function
RefreshDecCore:
	.fnstart
	@ args = 0, pretend = 0, frame = 0
	@ frame_needed = 0, uses_anonymous_args = 0
	stmfd	sp!, {r4, r5, r6, lr}	@,
	.save {r4, r5, r6, lr}
	ldr	r4, .L531	@ tmp172,
	ldr	ip, [r4, r0, asl #2]	@ D.39559, s_pstVfmwChan
	ldr	r3, [ip, #880]	@ _8->eVidStd, _8->eVidStd
	ldr	r2, [ip, #1624]	@ eOldDecCore, _8->eDecCore
	sub	r3, r3, #4	@ tmp137, _8->eVidStd,
	cmp	r3, #10	@ tmp137,
	ldrls	pc, [pc, r3, asl #2]	@ tmp137
	b	.L510	@
.L512:
	.word	.L511
	.word	.L510
	.word	.L510
	.word	.L510
	.word	.L510
	.word	.L510
	.word	.L513
	.word	.L514
	.word	.L515
	.word	.L510
	.word	.L516
.L515:
	ldr	r3, [r4, #3640]	@ g_VdmCharacter, g_VdmCharacter
	tst	r3, #1	@ g_VdmCharacter,
	moveq	r3, #5	@ tmp153,
	streq	r3, [ip, #1624]	@ tmp153, _8->eDecCore
	beq	.L517	@,
.L510:
	mov	r3, #0	@ tmp155,
	str	r3, [ip, #1624]	@ tmp155, _8->eDecCore
.L517:
	cmp	r2, r3	@ eOldDecCore, D.39568
	beq	.L524	@,
	sub	r2, r2, #1	@ D.39562, eOldDecCore,
	mov	r6, r1	@ pstSoftDecMem, pstSoftDecMem
	cmp	r2, #4	@ D.39562,
	mov	r5, r0	@ ChanID, ChanID
	bhi	.L523	@,
	ldr	r3, [r4, #244]	@ D.39563, g_SdecFunc.pfun_iMediaSoftDEC_Destroy
	cmp	r3, #0	@ D.39563,
	beq	.L523	@,
	add	r0, ip, #217088	@, D.39559,
	add	r0, r0, #432	@,,
	blx	r3	@ D.39563
.L523:
	ldr	r2, [r4, r5, asl #2]	@ D.39559, s_pstVfmwChan
	ldr	r1, .L531	@ tmp160,
	ldr	r3, [r2, #1624]	@ _31->eDecCore, _31->eDecCore
	sub	r3, r3, #1	@ D.39562, _31->eDecCore,
	cmp	r3, #4	@ D.39562,
	bhi	.L524	@,
	ldr	r3, [r1, #240]	@ D.39567, g_SdecFunc.pfun_iMediaSoftDEC_Create
	add	r0, r2, #217088	@ tmp164, D.39559,
	ldr	r1, [r2, #24]	@ _31->eChanCapLevel, _31->eChanCapLevel
	cmp	r3, #0	@ D.39567,
	str	r1, [r0, #444]	@ _31->eChanCapLevel, _31->stSynCtx.unSyntax.stiMediaSoftCtx.eChanCapLevel
	beq	.L526	@,
	ldr	r2, [r2, #880]	@, _31->eVidStd
	mov	r1, r6	@, pstSoftDecMem
	add	r0, r0, #432	@, tmp164,
	blx	r3	@ D.39567
	cmp	r0, #0	@,
	bne	.L526	@,
.L524:
	mov	r0, #0	@ D.39558,
	ldmfd	sp!, {r4, r5, r6, pc}	@
.L516:
	mov	r3, #2	@ tmp139,
	str	r3, [ip, #1624]	@ tmp139, _8->eDecCore
	b	.L517	@
.L511:
	mov	r3, #1	@ tmp138,
	str	r3, [ip, #1624]	@ tmp138, _8->eDecCore
	b	.L517	@
.L513:
	ldr	r3, [r4, #3640]	@ g_VdmCharacter, g_VdmCharacter
	tst	r3, #1	@ g_VdmCharacter,
	moveq	r3, #3	@ tmp143,
	streq	r3, [ip, #1624]	@ tmp143, _8->eDecCore
	beq	.L517	@,
	b	.L510	@
.L514:
	ldr	r3, [r4, #3640]	@ g_VdmCharacter, g_VdmCharacter
	tst	r3, #1	@ g_VdmCharacter,
	moveq	r3, #4	@ tmp148,
	streq	r3, [ip, #1624]	@ tmp148, _8->eDecCore
	beq	.L517	@,
	b	.L510	@
.L526:
	ldr	r1, .L531+4	@,
	mov	r0, #0	@,
	bl	dprint_vfmw	@
	mvn	r0, #0	@ D.39558,
	ldmfd	sp!, {r4, r5, r6, pc}	@
.L532:
	.align	2
.L531:
	.word	.LANCHOR0
	.word	.LC85
	.fnend
	.size	RefreshDecCore, .-RefreshDecCore
	.align	2
	.global	VCTRL_CheckCommonParameter
	.type	VCTRL_CheckCommonParameter, %function
VCTRL_CheckCommonParameter:
	.fnstart
	@ args = 0, pretend = 0, frame = 0
	@ frame_needed = 0, uses_anonymous_args = 0
	@ link register save eliminated.
	ldr	r3, .L547	@ tmp143,
	ldr	r2, [r1]	@ pstCfg_6(D)->eVidStd, pstCfg_6(D)->eVidStd
	ldr	r3, [r3, r0, asl #2]	@ D.39573, s_pstVfmwChan
	ldr	r0, [r3, #32]	@ _4->stChanCfg.eVidStd, _4->stChanCfg.eVidStd
	cmp	r0, r2	@ _4->stChanCfg.eVidStd, pstCfg_6(D)->eVidStd
	bne	.L546	@,
	ldr	r0, [r3, #48]	@ _4->stChanCfg.s32ChanErrThr, _4->stChanCfg.s32ChanErrThr
	ldr	r2, [r1, #16]	@ pstCfg_6(D)->s32ChanErrThr, pstCfg_6(D)->s32ChanErrThr
	cmp	r0, r2	@ _4->stChanCfg.s32ChanErrThr, pstCfg_6(D)->s32ChanErrThr
	bne	.L546	@,
	ldr	r0, [r3, #44]	@ _4->stChanCfg.s32ChanPriority, _4->stChanCfg.s32ChanPriority
	ldr	r2, [r1, #12]	@ pstCfg_6(D)->s32ChanPriority, pstCfg_6(D)->s32ChanPriority
	cmp	r0, r2	@ _4->stChanCfg.s32ChanPriority, pstCfg_6(D)->s32ChanPriority
	bne	.L546	@,
	ldr	r0, [r3, #52]	@ _4->stChanCfg.s32ChanStrmOFThr, _4->stChanCfg.s32ChanStrmOFThr
	ldr	r2, [r1, #20]	@ pstCfg_6(D)->s32ChanStrmOFThr, pstCfg_6(D)->s32ChanStrmOFThr
	cmp	r0, r2	@ _4->stChanCfg.s32ChanStrmOFThr, pstCfg_6(D)->s32ChanStrmOFThr
	bne	.L546	@,
	ldr	r0, [r3, #56]	@ _4->stChanCfg.s32DecMode, _4->stChanCfg.s32DecMode
	ldr	r2, [r1, #24]	@ pstCfg_6(D)->s32DecMode, pstCfg_6(D)->s32DecMode
	cmp	r0, r2	@ _4->stChanCfg.s32DecMode, pstCfg_6(D)->s32DecMode
	bne	.L546	@,
	ldr	r0, [r3, #60]	@ _4->stChanCfg.s32DecOrderOutput, _4->stChanCfg.s32DecOrderOutput
	ldr	r2, [r1, #28]	@ pstCfg_6(D)->s32DecOrderOutput, pstCfg_6(D)->s32DecOrderOutput
	cmp	r0, r2	@ _4->stChanCfg.s32DecOrderOutput, pstCfg_6(D)->s32DecOrderOutput
	bne	.L546	@,
	ldr	r0, [r3, #68]	@ _4->stChanCfg.s32DnrDispOutEnable, _4->stChanCfg.s32DnrDispOutEnable
	ldr	r2, [r1, #36]	@ pstCfg_6(D)->s32DnrDispOutEnable, pstCfg_6(D)->s32DnrDispOutEnable
	cmp	r0, r2	@ _4->stChanCfg.s32DnrDispOutEnable, pstCfg_6(D)->s32DnrDispOutEnable
	bne	.L546	@,
	ldr	r0, [r3, #64]	@ _4->stChanCfg.s32DnrTfEnable, _4->stChanCfg.s32DnrTfEnable
	ldr	r2, [r1, #32]	@ pstCfg_6(D)->s32DnrTfEnable, pstCfg_6(D)->s32DnrTfEnable
	cmp	r0, r2	@ _4->stChanCfg.s32DnrTfEnable, pstCfg_6(D)->s32DnrTfEnable
	bne	.L546	@,
	ldr	r0, [r3, #76]	@ _4->stChanCfg.s32VcmpEn, _4->stChanCfg.s32VcmpEn
	ldr	r2, [r1, #44]	@ pstCfg_6(D)->s32VcmpEn, pstCfg_6(D)->s32VcmpEn
	cmp	r0, r2	@ _4->stChanCfg.s32VcmpEn, pstCfg_6(D)->s32VcmpEn
	bne	.L546	@,
	ldr	r0, [r3, #88]	@ _4->stChanCfg.s32VcmpWmEndLine, _4->stChanCfg.s32VcmpWmEndLine
	ldr	r2, [r1, #56]	@ pstCfg_6(D)->s32VcmpWmEndLine, pstCfg_6(D)->s32VcmpWmEndLine
	cmp	r0, r2	@ _4->stChanCfg.s32VcmpWmEndLine, pstCfg_6(D)->s32VcmpWmEndLine
	bne	.L546	@,
	ldr	r0, [r3, #84]	@ _4->stChanCfg.s32VcmpWmStartLine, _4->stChanCfg.s32VcmpWmStartLine
	ldr	r2, [r1, #52]	@ pstCfg_6(D)->s32VcmpWmStartLine, pstCfg_6(D)->s32VcmpWmStartLine
	cmp	r0, r2	@ _4->stChanCfg.s32VcmpWmStartLine, pstCfg_6(D)->s32VcmpWmStartLine
	bne	.L546	@,
	ldr	r0, [r3, #80]	@ _4->stChanCfg.s32WmEn, _4->stChanCfg.s32WmEn
	ldr	r2, [r1, #48]	@ pstCfg_6(D)->s32WmEn, pstCfg_6(D)->s32WmEn
	cmp	r0, r2	@ _4->stChanCfg.s32WmEn, pstCfg_6(D)->s32WmEn
	bne	.L546	@,
	ldr	r3, [r3, #92]	@ _4->stChanCfg.s32SupportAllP, _4->stChanCfg.s32SupportAllP
	ldr	r0, [r1, #60]	@ pstCfg_6(D)->s32SupportAllP, pstCfg_6(D)->s32SupportAllP
	subs	r0, r3, r0	@ D.39572, _4->stChanCfg.s32SupportAllP, pstCfg_6(D)->s32SupportAllP
	mvnne	r0, #0	@ D.39572,
	bx	lr	@
.L546:
	mvn	r0, #0	@ D.39572,
	bx	lr	@
.L548:
	.align	2
.L547:
	.word	.LANCHOR0
	.fnend
	.size	VCTRL_CheckCommonParameter, .-VCTRL_CheckCommonParameter
	.align	2
	.global	VCTRL_CmpConfigParameter
	.type	VCTRL_CmpConfigParameter, %function
VCTRL_CmpConfigParameter:
	.fnstart
	@ args = 0, pretend = 0, frame = 0
	@ frame_needed = 0, uses_anonymous_args = 0
	ldr	r2, .L557	@ tmp129,
	stmfd	sp!, {r4, r5, r6, lr}	@,
	.save {r4, r5, r6, lr}
	ldr	r5, [r2, r0, asl #2]	@ D.39580, s_pstVfmwChan
	ldr	r2, [r5, #880]	@ _4->eVidStd, _4->eVidStd
	cmp	r2, #19	@ _4->eVidStd,
	beq	.L554	@,
	mov	r4, r1	@ pstCfg, pstCfg
	bl	VCTRL_CheckCommonParameter	@
	cmp	r0, #0	@ D.39579
	bne	.L554	@,
	ldr	r3, [r5, #32]	@ D.39582, _4->stChanCfg.eVidStd
	cmp	r3, #1	@ D.39582,
	beq	.L556	@,
	sub	r3, r3, #10	@ D.39583, D.39582,
	cmp	r3, #2	@ D.39583,
	ldmhifd	sp!, {r4, r5, r6, pc}	@
	ldr	r3, [r5, #36]	@ _4->stChanCfg.StdExt.Vp6Ext.bReversed, _4->stChanCfg.StdExt.Vp6Ext.bReversed
	ldr	r0, [r4, #4]	@ pstCfg_6(D)->StdExt.Vp6Ext.bReversed, pstCfg_6(D)->StdExt.Vp6Ext.bReversed
	subs	r0, r3, r0	@ D.39579, _4->stChanCfg.StdExt.Vp6Ext.bReversed, pstCfg_6(D)->StdExt.Vp6Ext.bReversed
	mvnne	r0, #0	@ D.39579,
	ldmfd	sp!, {r4, r5, r6, pc}	@
.L556:
	ldr	r2, [r5, #36]	@ _4->stChanCfg.StdExt.Vc1Ext.IsAdvProfile, _4->stChanCfg.StdExt.Vc1Ext.IsAdvProfile
	ldr	r3, [r4, #4]	@ pstCfg_6(D)->StdExt.Vc1Ext.IsAdvProfile, pstCfg_6(D)->StdExt.Vc1Ext.IsAdvProfile
	cmp	r2, r3	@ _4->stChanCfg.StdExt.Vc1Ext.IsAdvProfile, pstCfg_6(D)->StdExt.Vc1Ext.IsAdvProfile
	bne	.L554	@,
	ldr	r3, [r5, #40]	@ _4->stChanCfg.StdExt.Vc1Ext.CodecVersion, _4->stChanCfg.StdExt.Vc1Ext.CodecVersion
	ldr	r0, [r4, #8]	@ pstCfg_6(D)->StdExt.Vc1Ext.CodecVersion, pstCfg_6(D)->StdExt.Vc1Ext.CodecVersion
	subs	r0, r3, r0	@ D.39579, _4->stChanCfg.StdExt.Vc1Ext.CodecVersion, pstCfg_6(D)->StdExt.Vc1Ext.CodecVersion
	mvnne	r0, #0	@ D.39579,
	ldmfd	sp!, {r4, r5, r6, pc}	@
.L554:
	mvn	r0, #0	@ D.39579,
	ldmfd	sp!, {r4, r5, r6, pc}	@
.L558:
	.align	2
.L557:
	.word	.LANCHOR0
	.fnend
	.size	VCTRL_CmpConfigParameter, .-VCTRL_CmpConfigParameter
	.align	2
	.global	VCTRL_CheckChanWH
	.type	VCTRL_CheckChanWH, %function
VCTRL_CheckChanWH:
	.fnstart
	@ args = 0, pretend = 0, frame = 0
	@ frame_needed = 0, uses_anonymous_args = 0
	ldr	r2, .L575	@ tmp136,
	ldr	r3, .L575+4	@ tmp135,
	stmfd	sp!, {r4, lr}	@,
	.save {r4, lr}
	.pad #8
	sub	sp, sp, #8	@,,
	ldr	ip, [r2]	@ D.39588, g_chipID
	ldr	r3, [r3, r0, asl #2]	@ D.39587, s_pstVfmwChan
	cmp	ip, #16	@ D.39588,
	ldr	lr, [r3, #1456]	@ ChanMaxWidth, _5->stSynExtraData.stChanOption.s32MaxWidth
	ldr	r4, [r3, #1460]	@ ChanMaxHeight, _5->stSynExtraData.stChanOption.s32MaxHeight
	bhi	.L560	@,
	mov	r2, #1	@ tmp137,
	movw	r0, #36832	@ tmp138,
	mov	r3, r2, asl ip	@ D.39590, tmp137,
	bfi	r0, r2, #16, #16	@ tmp138, tmp137,,
	ands	r0, r3, r0	@ D.39590, D.39590, tmp138
	bne	.L561	@,
	tst	r3, #31	@ D.39590,
	beq	.L560	@,
	ldr	r3, .L575+8	@ tmp141,
	ldr	r3, [r3]	@ g_ChipMaxWidth, g_ChipMaxWidth
	cmp	lr, r3	@ ChanMaxWidth, g_ChipMaxWidth
	bgt	.L562	@,
	ldr	r3, .L575+12	@ tmp143,
	ldr	r3, [r3]	@ g_ChipMaxHeight, g_ChipMaxHeight
	cmp	r4, r3	@ ChanMaxHeight, g_ChipMaxHeight
	ble	.L563	@,
.L562:
	ldr	r3, [r1]	@ pstCfg_11(D)->eVidStd, pstCfg_11(D)->eVidStd
	cmp	r3, #18	@ pstCfg_11(D)->eVidStd,
	bne	.L573	@,
.L567:
	mov	r0, #0	@ ret,
	add	sp, sp, #8	@,,
	@ sp needed	@
	ldmfd	sp!, {r4, pc}	@
.L561:
	ldr	r3, .L575+8	@ tmp147,
	ldr	r2, [r3]	@ D.39588, g_ChipMaxWidth
	cmp	lr, r2	@ ChanMaxWidth, D.39588
	bgt	.L564	@,
	ldr	r3, .L575+12	@ tmp148,
	ldr	r3, [r3]	@ g_ChipMaxHeight, g_ChipMaxHeight
	cmp	r4, r3	@ ChanMaxHeight, g_ChipMaxHeight
	ble	.L567	@,
.L564:
	ldr	r0, [r1]	@ D.39588, pstCfg_11(D)->eVidStd
	cmp	r0, #18	@ D.39588,
	cmpne	r0, #0	@, D.39588,
	bic	r0, r0, #2	@ D.39588, D.39588,
	movne	r3, #1	@ tmp154,
	moveq	r3, #0	@ tmp154,
	cmp	r0, #13	@ D.39588,
	moveq	r0, #0	@, tmp161
	andne	r0, r3, #1	@,, tmp161, tmp154
	cmp	r0, #0	@ tmp161,
	bne	.L574	@,
.L563:
	add	sp, sp, #8	@,,
	@ sp needed	@
	ldmfd	sp!, {r4, pc}	@
.L560:
	mov	r2, ip	@, D.39588
	ldr	r1, .L575+16	@,
	mov	r0, #0	@,
	bl	dprint_vfmw	@
	mvn	r0, #0	@ ret,
	b	.L563	@
.L573:
	mov	r2, ip	@, D.39588
	ldr	r1, .L575+20	@,
	mov	r0, #0	@,
	bl	dprint_vfmw	@
	mvn	r0, #0	@ ret,
	b	.L563	@
.L574:
	ldr	r3, .L575+12	@ tmp162,
	mov	r0, #0	@,
	str	ip, [sp]	@ D.39588,
	ldr	r1, .L575+24	@,
	ldr	r3, [r3]	@ g_ChipMaxHeight, g_ChipMaxHeight
	bl	dprint_vfmw	@
	mvn	r0, #0	@ ret,
	b	.L563	@
.L576:
	.align	2
.L575:
	.word	g_chipID
	.word	.LANCHOR0
	.word	g_ChipMaxWidth
	.word	g_ChipMaxHeight
	.word	.LC88
	.word	.LC86
	.word	.LC87
	.fnend
	.size	VCTRL_CheckChanWH, .-VCTRL_CheckChanWH
	.align	2
	.global	VCTRL_SeekPts
	.type	VCTRL_SeekPts, %function
VCTRL_SeekPts:
	.fnstart
	@ args = 0, pretend = 0, frame = 0
	@ frame_needed = 0, uses_anonymous_args = 0
	ldr	r3, .L583	@ tmp122,
	stmfd	sp!, {r4, lr}	@,
	.save {r4, lr}
	ldr	r3, [r3, r0, asl #2]	@ D.39598, s_pstVfmwChan
	cmp	r3, #0	@ D.39598,
	beq	.L582	@,
	ldr	r3, [r3, #880]	@ D.39599, _5->eVidStd
	cmp	r3, #4	@ D.39599,
	cmpne	r3, #14	@, D.39599,
	beq	.L580	@,
	bl	SM_SeekPts	@
	adds	r0, r0, #0	@ D.39600,,
	movne	r0, #1	@ D.39600,
	rsb	r0, r0, #0	@ D.39597, D.39600
	ldmfd	sp!, {r4, pc}	@
.L580:
	mvn	r0, #0	@ D.39597,
	ldmfd	sp!, {r4, pc}	@
.L582:
	mov	r0, r3	@, D.39598
	movw	r2, #3659	@,
	ldr	r3, .L583+4	@,
	ldr	r1, .L583+8	@,
	bl	dprint_vfmw	@
	mvn	r0, #0	@ D.39597,
	ldmfd	sp!, {r4, pc}	@
.L584:
	.align	2
.L583:
	.word	.LANCHOR0
	.word	.LC6
	.word	.LC5
	.fnend
	.size	VCTRL_SeekPts, .-VCTRL_SeekPts
	.align	2
	.global	VCTRL_LoadDspCode
	.type	VCTRL_LoadDspCode, %function
VCTRL_LoadDspCode:
	.fnstart
	@ args = 0, pretend = 0, frame = 72
	@ frame_needed = 0, uses_anonymous_args = 0
	stmfd	sp!, {r4, r5, r6, lr}	@,
	.save {r4, r5, r6, lr}
	.pad #80
	sub	sp, sp, #80	@,,
	mov	r6, r0	@ ChanID, ChanID
	mov	r1, #72	@,
	add	r0, sp, #8	@ tmp171,,
	bl	__memzero	@
	add	r1, sp, #8	@ tmp172,,
	mov	r0, r6	@, ChanID
	bl	VCTRL_GetChanCfg	@
	subs	ip, r0, #0	@ ret,
	bne	.L604	@,
	ldr	r0, [sp, #8]	@ D.39605, stCfgInfo.eVidStd
	ldr	r5, .L608	@ tmp170,
	cmp	r0, #0	@ D.39605,
	beq	.L605	@,
	ldr	r1, [r5, #3644]	@ D.39607, g_DSPState
	cmp	r1, #0	@ D.39607,
	bne	.L600	@,
	mov	ip, r1	@ D.39606, D.39607
	mov	r2, r1	@ ScdLowdlyEnable, D.39606
.L596:
	ldr	r1, [r5, #3648]	@ D.39607, g_DSPState
	ldr	r3, .L608	@ tmp134,
	cmp	r1, #0	@ D.39607,
	bne	.L589	@,
	ldr	r1, [r3, #3652]	@ D.39607, g_DSPState
	cmp	r1, #0	@ D.39607,
	bne	.L589	@,
	ldr	r1, [r3, #3656]	@ D.39607, g_DSPState
	cmp	r1, #0	@ D.39607,
	subeq	r3, r0, #6	@ D.39606, D.39605,
	clzeq	r3, r3	@ D.39606, D.39606
	moveq	r3, r3, lsr #5	@ D.39606, D.39606,
	bne	.L589	@,
.L594:
	clz	r1, r1	@ D.39606, D.39607
	mov	r1, r1, lsr #5	@ D.39606, D.39606,
	ands	r4, r1, ip	@ tmp156, D.39606, D.39606
	bne	.L606	@,
	ands	r1, r1, r3	@ tmp163, D.39606, D.39606
	moveq	r0, r1	@ D.39604, tmp163
	bne	.L607	@,
.L602:
	add	sp, sp, #80	@,,
	@ sp needed	@
	ldmfd	sp!, {r4, r5, r6, pc}	@
.L605:
	ldr	r2, [sp, #48]	@ ScdLowdlyEnable, stCfgInfo.s32LowdlyEnable
	ldr	r1, [r5, #3644]	@ D.39607, g_DSPState
	sub	ip, r2, #1	@ D.39606, ScdLowdlyEnable,
	clz	ip, ip	@ D.39606, D.39606
	cmp	r1, #0	@ D.39607,
	mov	ip, ip, lsr #5	@ D.39606, D.39606,
	beq	.L596	@,
.L589:
	cmp	r1, #2	@ D.39607,
	movne	r3, #0	@, tmp141
	andeq	r3, ip, #1	@,, tmp141, D.39606
	cmp	r3, #0	@ tmp141,
	bne	.L592	@,
.L593:
	sub	r3, r0, #6	@ D.39606, D.39605,
	cmp	r1, #1	@ D.39607,
	cmpeq	r0, #6	@, D.39605,
	clz	r3, r3	@ D.39606, D.39606
	mov	r3, r3, lsr #5	@ D.39606, D.39606,
	bne	.L594	@,
.L592:
	str	r1, [sp]	@ D.39607,
	mov	r3, r0	@, D.39605
	ldr	r1, .L608+4	@,
	mov	r0, #32	@,
	bl	dprint_vfmw	@
	mvn	r0, #0	@ D.39604,
	b	.L602	@
.L606:
	bl	WriteHexFile	@
	add	r5, r5, r6, lsl #2	@ tmp158, tmp170, ChanID,
	mov	r3, #1	@ tmp160,
	mov	r0, #0	@ D.39604,
	str	r3, [r5, #3644]	@ tmp160, g_DSPState
	add	sp, sp, #80	@,,
	@ sp needed	@
	ldmfd	sp!, {r4, r5, r6, pc}	@
.L607:
	add	r5, r5, r6, lsl #2	@ tmp165, tmp170, ChanID,
	bl	WriteHexFile	@
	mov	r3, #2	@ tmp167,
	mov	r0, r4	@ D.39604, tmp156
	str	r3, [r5, #3644]	@ tmp167, g_DSPState
	b	.L602	@
.L600:
	mov	r2, ip	@ ScdLowdlyEnable, D.39606
	b	.L593	@
.L604:
	movw	r2, #3699	@,
	ldr	r1, .L608+8	@,
	mov	r0, #0	@,
	bl	dprint_vfmw	@
	mvn	r0, #0	@ D.39604,
	b	.L602	@
.L609:
	.align	2
.L608:
	.word	.LANCHOR0
	.word	.LC90
	.word	.LC89
	.fnend
	.size	VCTRL_LoadDspCode, .-VCTRL_LoadDspCode
	.align	2
	.global	VCTRL_ReleaseStream
	.type	VCTRL_ReleaseStream, %function
VCTRL_ReleaseStream:
	.fnstart
	@ args = 0, pretend = 0, frame = 0
	@ frame_needed = 0, uses_anonymous_args = 0
	ldr	r3, .L615	@ tmp117,
	stmfd	sp!, {r4, lr}	@,
	.save {r4, lr}
	ldr	r3, [r3, r0, asl #2]	@ tmp118, s_pstVfmwChan
	cmp	r3, #0	@ tmp118,
	beq	.L614	@,
	bl	SM_Reset	@
	adds	r0, r0, #0	@ D.39613,,
	movne	r0, #1	@ D.39613,
	rsb	r0, r0, #0	@ D.39612, D.39613
	ldmfd	sp!, {r4, pc}	@
.L614:
	mov	r0, r3	@, tmp118
	movw	r2, #3843	@,
	ldr	r3, .L615+4	@,
	ldr	r1, .L615+8	@,
	bl	dprint_vfmw	@
	mvn	r0, #0	@ D.39612,
	ldmfd	sp!, {r4, pc}	@
.L616:
	.align	2
.L615:
	.word	.LANCHOR0
	.word	.LC6
	.word	.LC5
	.fnend
	.size	VCTRL_ReleaseStream, .-VCTRL_ReleaseStream
	.align	2
	.global	VCTRL_GetChanImage
	.type	VCTRL_GetChanImage, %function
VCTRL_GetChanImage:
	.fnstart
	@ args = 0, pretend = 0, frame = 0
	@ frame_needed = 0, uses_anonymous_args = 0
	stmfd	sp!, {r4, r5, r6, r7, r8, lr}	@,
	.save {r4, r5, r6, r7, r8, lr}
	mov	r2, r0	@, ChanID
	mov	r4, r0	@ ChanID, ChanID
	mov	r6, r1	@ pImage, pImage
	mov	r0, #2	@,
	ldr	r1, .L630	@,
	bl	dprint_vfmw	@
	cmp	r4, #3	@ ChanID,
	bhi	.L625	@,
	ldr	r5, .L630+4	@ tmp128,
	ldr	r0, [r5, r4, asl #2]	@ D.39620, s_pstVfmwChan
	cmp	r0, #0	@ D.39620,
	beq	.L626	@,
	ldr	r3, [r0, #4]	@ _9->s32IsOpen, _9->s32IsOpen
	cmp	r3, #1	@ _9->s32IsOpen,
	bne	.L627	@,
	ldr	r0, .L630+8	@,
	bl	OSAL_SpinLockIRQ	@
	ldr	r0, [r5, r4, asl #2]	@ D.39620, s_pstVfmwChan
	cmp	r0, #0	@ D.39620,
	beq	.L628	@,
	ldr	r3, [r0, #4]	@ _14->s32IsOpen, _14->s32IsOpen
	cmp	r3, #1	@ _14->s32IsOpen,
	bne	.L629	@,
	add	r0, r0, #217088	@, D.39620,
	mov	r1, r6	@, pImage
	add	r0, r0, #424	@,,
	bl	SYNTAX_ReceiveImage	@
	subs	r7, r0, #1	@ D.39618,,
	ldr	r0, .L630+8	@,
	mvnne	r7, #0	@ D.39618,
	bl	OSAL_SpinUnLockIRQ	@
	ldr	r3, [r5, r4, asl #2]	@ tmp147, s_pstVfmwChan
	add	r3, r3, #233472	@ tmp149, tmp147,
	ldrb	r3, [r3, #132]	@ zero_extendqisi2	@ D.39623, _25->stSynCtx.unSyntax.stAvsCtx.SyntaxNew.bAvsPlus
	strb	r3, [r6, #336]	@ D.39623, pImage_21(D)->optm_inf.bAvsPlus
.L619:
	mov	r0, r7	@, D.39618
	ldmfd	sp!, {r4, r5, r6, r7, r8, pc}	@
.L627:
	ldr	r3, .L630+12	@,
	movw	r2, #4079	@,
	ldr	r1, .L630+16	@,
	mov	r0, #0	@,
	bl	dprint_vfmw	@
	mvn	r7, #0	@ D.39618,
	b	.L619	@
.L629:
	movw	r2, #4093	@,
	ldr	r1, .L630+20	@,
	mov	r0, #0	@,
	mvn	r7, #0	@ D.39618,
	bl	dprint_vfmw	@
	ldr	r0, .L630+8	@,
	bl	OSAL_SpinUnLockIRQ	@
	b	.L619	@
.L625:
	ldr	r3, .L630+24	@,
	movw	r2, #4075	@,
	ldr	r1, .L630+16	@,
	mov	r0, #0	@,
	bl	dprint_vfmw	@
	mvn	r7, #0	@ D.39618,
	b	.L619	@
.L626:
	ldr	r3, .L630+28	@,
	movw	r2, #4076	@,
	ldr	r1, .L630+16	@,
	mvn	r7, #0	@ D.39618,
	bl	dprint_vfmw	@
	b	.L619	@
.L628:
	movw	r2, #4086	@,
	ldr	r1, .L630+32	@,
	bl	dprint_vfmw	@
	ldr	r0, .L630+8	@,
	mvn	r7, #0	@ D.39618,
	bl	OSAL_SpinUnLockIRQ	@
	b	.L619	@
.L631:
	.align	2
.L630:
	.word	.LC91
	.word	.LANCHOR0
	.word	g_SpinLockIrq_Destroy
	.word	.LC92
	.word	.LC5
	.word	.LC94
	.word	.LC69
	.word	.LC6
	.word	.LC93
	.fnend
	.size	VCTRL_GetChanImage, .-VCTRL_GetChanImage
	.align	2
	.global	VCTRL_ReleaseChanImage
	.type	VCTRL_ReleaseChanImage, %function
VCTRL_ReleaseChanImage:
	.fnstart
	@ args = 0, pretend = 0, frame = 0
	@ frame_needed = 0, uses_anonymous_args = 0
	cmp	r0, #3	@ ChanID,
	stmfd	sp!, {r4, r5, r6, lr}	@,
	.save {r4, r5, r6, lr}
	mov	r4, r0	@ ChanID, ChanID
	bhi	.L641	@,
	ldr	r6, .L647	@ tmp126,
	ldr	r0, [r6, r0, asl #2]	@ D.39633, s_pstVfmwChan
	cmp	r0, #0	@ D.39633,
	beq	.L642	@,
	ldr	r3, [r0, #4]	@ _8->s32IsOpen, _8->s32IsOpen
	cmp	r3, #1	@ _8->s32IsOpen,
	bne	.L643	@,
	cmp	r1, #0	@ pImage,
	mov	r5, r1	@ pImage, pImage
	beq	.L644	@,
	ldr	r3, [r1, #176]	@, pImage_12(D)->image_id
	mov	r2, r4	@, ChanID
	ldr	r1, .L647+4	@,
	mov	r0, #2	@,
	bl	dprint_vfmw	@
	ldr	r0, .L647+8	@,
	bl	OSAL_SpinLockIRQ	@
	ldr	r0, [r6, r4, asl #2]	@ D.39633, s_pstVfmwChan
	cmp	r0, #0	@ D.39633,
	beq	.L645	@,
	ldr	r3, [r0, #4]	@ _17->s32IsOpen, _17->s32IsOpen
	cmp	r3, #1	@ _17->s32IsOpen,
	bne	.L646	@,
	add	r0, r0, #217088	@, D.39633,
	mov	r1, r5	@, pImage
	add	r0, r0, #424	@,,
	bl	SYNTAX_ReleaseImage	@
	subs	r4, r0, #1	@ D.39631,,
	ldr	r0, .L647+8	@,
	mvnne	r4, #0	@ D.39631,
	bl	OSAL_SpinUnLockIRQ	@
.L634:
	mov	r0, r4	@, D.39631
	ldmfd	sp!, {r4, r5, r6, pc}	@
.L646:
	movw	r2, #4187	@,
	ldr	r1, .L647+12	@,
	mov	r0, #0	@,
	mvn	r4, #0	@ D.39631,
	bl	dprint_vfmw	@
	ldr	r0, .L647+8	@,
	bl	OSAL_SpinUnLockIRQ	@
	b	.L634	@
.L643:
	ldr	r3, .L647+16	@,
	movw	r2, #4172	@,
	ldr	r1, .L647+20	@,
	mov	r0, #0	@,
	bl	dprint_vfmw	@
	mvn	r4, #0	@ D.39631,
	b	.L634	@
.L641:
	ldr	r3, .L647+24	@,
	movw	r2, #4170	@,
	ldr	r1, .L647+20	@,
	mov	r0, #0	@,
	bl	dprint_vfmw	@
	mvn	r4, #0	@ D.39631,
	b	.L634	@
.L644:
	mov	r0, r1	@, pImage
	ldr	r3, .L647+28	@,
	movw	r2, #4173	@,
	ldr	r1, .L647+20	@,
	bl	dprint_vfmw	@
	mvn	r4, #0	@ D.39631,
	b	.L634	@
.L642:
	ldr	r3, .L647+32	@,
	movw	r2, #4171	@,
	ldr	r1, .L647+20	@,
	mvn	r4, #0	@ D.39631,
	bl	dprint_vfmw	@
	b	.L634	@
.L645:
	movw	r2, #4180	@,
	ldr	r1, .L647+36	@,
	bl	dprint_vfmw	@
	ldr	r0, .L647+8	@,
	mvn	r4, #0	@ D.39631,
	bl	OSAL_SpinUnLockIRQ	@
	b	.L634	@
.L648:
	.align	2
.L647:
	.word	.LANCHOR0
	.word	.LC96
	.word	g_SpinLockIrq_Destroy
	.word	.LC94
	.word	.LC92
	.word	.LC5
	.word	.LC69
	.word	.LC95
	.word	.LC6
	.word	.LC93
	.fnend
	.size	VCTRL_ReleaseChanImage, .-VCTRL_ReleaseChanImage
	.align	2
	.global	VCTRL_GetVidStd
	.type	VCTRL_GetVidStd, %function
VCTRL_GetVidStd:
	.fnstart
	@ args = 0, pretend = 0, frame = 0
	@ frame_needed = 0, uses_anonymous_args = 0
	cmp	r0, #3	@ ChanId,
	stmfd	sp!, {r4, lr}	@,
	.save {r4, lr}
	bhi	.L650	@,
	ldr	r3, .L655	@ tmp116,
	ldr	r3, [r3, r0, asl #2]	@ D.39644, s_pstVfmwChan
	cmp	r3, #0	@ D.39644,
	beq	.L650	@,
	ldr	r2, [r3, #4]	@ _6->s32IsOpen, _6->s32IsOpen
	cmp	r2, #1	@ _6->s32IsOpen,
	beq	.L653	@,
	mov	r3, r0	@, ChanId
	movw	r2, #4248	@,
	ldr	r1, .L655+4	@,
	mov	r0, #0	@,
	bl	dprint_vfmw	@
	mov	r0, #19	@ D.39642,
	ldmfd	sp!, {r4, pc}	@
.L650:
	movw	r2, #4241	@,
	ldr	r1, .L655+8	@,
	mov	r0, #0	@,
	bl	dprint_vfmw	@
	mov	r0, #19	@ D.39642,
	ldmfd	sp!, {r4, pc}	@
.L653:
	ldr	r0, [r3, #880]	@ D.39642, _6->eVidStd
	ldmfd	sp!, {r4, pc}	@
.L656:
	.align	2
.L655:
	.word	.LANCHOR0
	.word	.LC98
	.word	.LC97
	.fnend
	.size	VCTRL_GetVidStd, .-VCTRL_GetVidStd
	.align	2
	.global	VCTRL_GetDecParam
	.type	VCTRL_GetDecParam, %function
VCTRL_GetDecParam:
	.fnstart
	@ args = 0, pretend = 0, frame = 0
	@ frame_needed = 0, uses_anonymous_args = 0
	cmp	r0, #3	@ ChanId,
	bhi	.L671	@,
	ldr	r3, .L681	@ tmp120,
	stmfd	sp!, {r4, r5, r6, lr}	@,
	.save {r4, r5, r6, lr}
	ldr	r5, [r3, r0, asl #2]	@ D.39655, s_pstVfmwChan
	cmp	r5, #0	@ D.39655,
	moveq	r3, r5	@ D.39652, D.39655
	beq	.L658	@,
	ldr	r3, [r5, #4]	@ _23->s32IsOpen, _23->s32IsOpen
	cmp	r3, #1	@ _23->s32IsOpen,
	beq	.L680	@,
.L676:
	mov	r3, #0	@ D.39652,
.L658:
	mov	r0, r3	@, D.39652
	ldmfd	sp!, {r4, r5, r6, pc}	@
.L671:
	mov	r3, #0	@ D.39652,
	mov	r0, r3	@, D.39652
	bx	lr	@
.L680:
	ldr	r3, [r5, #8]	@ _23->s32IsRun, _23->s32IsRun
	cmp	r3, #1	@ _23->s32IsRun,
	bne	.L676	@,
	ldr	r3, [r5, #880]	@ _23->eVidStd, _23->eVidStd
	cmp	r3, #13	@ _23->eVidStd,
	ldrls	pc, [pc, r3, asl #2]	@ _23->eVidStd
	b	.L676	@
.L661:
	.word	.L660
	.word	.L669
	.word	.L663
	.word	.L669
	.word	.L676
	.word	.L669
	.word	.L669
	.word	.L676
	.word	.L669
	.word	.L669
	.word	.L669
	.word	.L669
	.word	.L669
	.word	.L669
.L669:
	add	r3, r5, #217088	@ tmp143, D.39655,
	ldr	r4, [r3, #436]	@ pDecParam,
.L659:
	cmp	r4, #0	@ pDecParam,
	beq	.L676	@,
	bl	OSAL_GetTimeInMs	@
	mov	r3, r4	@ D.39652, pDecParam
	str	r0, [r5, #28]	@, _23->u32timeLastDecParamReady
	mov	r0, r3	@, D.39652
	ldmfd	sp!, {r4, r5, r6, pc}	@
.L660:
	add	r3, r5, #217088	@ tmp125, D.39655,
	ldr	r4, [r3, #792]	@ pDecParam, _23->stSynCtx.unSyntax.stH264Ctx.pH264DecParam
	b	.L659	@
.L663:
	add	r3, r5, #217088	@ tmp129, D.39655,
	ldr	r4, [r3, #1468]	@ pDecParam, _23->stSynCtx.unSyntax.stMpeg4Ctx.pMp4DecParam
	b	.L659	@
.L682:
	.align	2
.L681:
	.word	.LANCHOR0
	.fnend
	.size	VCTRL_GetDecParam, .-VCTRL_GetDecParam
	.align	2
	.global	VCTRL_ChanDecparamInValidFlag
	.type	VCTRL_ChanDecparamInValidFlag, %function
VCTRL_ChanDecparamInValidFlag:
	.fnstart
	@ args = 0, pretend = 0, frame = 8
	@ frame_needed = 0, uses_anonymous_args = 0
	cmp	r0, #3	@ ChanId,
	mov	r2, r0	@ ChanId, ChanId
	stmfd	sp!, {r4, r5, r6, r7, r8, lr}	@,
	.save {r4, r5, r6, r7, r8, lr}
	.pad #8
	sub	sp, sp, #8	@,,
	bhi	.L684	@,
	ldr	r5, .L696	@ tmp125,
	ldr	r3, [r5, r0, asl #2]	@ D.39661, s_pstVfmwChan
	cmp	r3, #0	@ D.39661,
	beq	.L684	@,
	ldr	r1, [r3, #4]	@ _6->s32IsOpen, _6->s32IsOpen
	cmp	r1, #1	@ _6->s32IsOpen,
	bne	.L687	@,
	ldr	r6, [r3, #8]	@ D.39662, _6->s32IsRun
	cmp	r6, #1	@ D.39662,
	beq	.L688	@,
.L687:
	ldr	r1, .L696+4	@,
	mov	r0, #22	@,
	mov	r4, #0	@ D.39659,
	bl	dprint_vfmw	@
.L686:
	mov	r0, r4	@, D.39659
	add	sp, sp, #8	@,,
	@ sp needed	@
	ldmfd	sp!, {r4, r5, r6, r7, r8, pc}	@
.L684:
	mov	r3, r2	@, ChanId
	ldr	r1, .L696+8	@,
	movw	r2, #4375	@,
	mov	r0, #22	@,
	bl	dprint_vfmw	@
	mov	r4, #0	@ D.39659,
	mov	r0, r4	@, D.39659
	add	sp, sp, #8	@,,
	@ sp needed	@
	ldmfd	sp!, {r4, r5, r6, r7, r8, pc}	@
.L688:
	str	r0, [sp, #4]	@ ChanId, %sfp
	bl	VCTRL_GetDecParam	@
	ldr	r2, [sp, #4]	@ ChanId, %sfp
	subs	r7, r0, #0	@ pDecParam,
	beq	.L694	@,
	ldr	r2, [r5, r2, asl #2]	@ D.39661, s_pstVfmwChan
	mov	r3, #0	@ tmp132,
	mov	r4, r3	@ D.39659, tmp132
	str	r3, [r2, #680]	@ tmp132, _17->s32CountNoDecparamFlag
	str	r3, [r2, #684]	@ tmp132, _17->u32NoDecparamStartTime
	b	.L686	@
.L694:
	ldr	r8, [r5, r2, asl #2]	@ D.39661, s_pstVfmwChan
	ldr	r4, [r8, #680]	@ D.39659, _11->s32CountNoDecparamFlag
	cmp	r4, #0	@ D.39659,
	beq	.L695	@,
	str	r2, [sp, #4]	@ ChanId, %sfp
	bl	OSAL_GetTimeInMs	@
	ldr	r2, [sp, #4]	@ ChanId, %sfp
	ldr	r3, [r5, r2, asl #2]	@ D.39661, s_pstVfmwChan
	ldr	r2, [r3, #684]	@ D.39663, _24->u32NoDecparamStartTime
	cmp	r0, r2	@ tmp, D.39663
	bls	.L691	@,
	rsb	r0, r2, r0	@ D.39663, D.39663, tmp
	cmp	r0, #40	@ D.39663,
	movls	r4, r7	@ D.39659, pDecParam
	bls	.L686	@,
.L691:
	str	r7, [r3, #680]	@ pDecParam, _24->s32CountNoDecparamFlag
	mov	r4, r6	@ D.39659, D.39662
	str	r7, [r3, #684]	@ pDecParam, _24->u32NoDecparamStartTime
	b	.L686	@
.L695:
	str	r6, [r8, #680]	@ D.39662, _11->s32CountNoDecparamFlag
	bl	OSAL_GetTimeInMs	@
	str	r0, [r8, #684]	@, _11->u32NoDecparamStartTime
	b	.L686	@
.L697:
	.align	2
.L696:
	.word	.LANCHOR0
	.word	.LC100
	.word	.LC99
	.fnend
	.size	VCTRL_ChanDecparamInValidFlag, .-VCTRL_ChanDecparamInValidFlag
	.align	2
	.global	VCTRL_GetChanMemInfo
	.type	VCTRL_GetChanMemInfo, %function
VCTRL_GetChanMemInfo:
	.fnstart
	@ args = 0, pretend = 0, frame = 0
	@ frame_needed = 0, uses_anonymous_args = 0
	cmp	r0, #3	@ ChanId,
	stmfd	sp!, {r4, lr}	@,
	.save {r4, lr}
	bhi	.L705	@,
	ldr	r3, .L707	@ tmp128,
	ldr	r3, [r3, r0, asl #2]	@ D.39671, s_pstVfmwChan
	cmp	r3, #0	@ D.39671,
	beq	.L706	@,
	cmn	r3, #152	@ D.39671,
	cmpne	r1, #0	@, pstMemRec,
	beq	.L703	@,
	ldr	r2, [r3, #148]	@ _7->s32OneChanMem, _7->s32OneChanMem
	cmp	r2, #1	@ _7->s32OneChanMem,
	bne	.L703	@,
	ldr	r2, [r3, #160]	@ D.39673, MEM[(struct MEM_RECORD_S *)_7 + 152B].PhyAddr
	str	r2, [r1, #8]	@ D.39673, pstMemRec_11(D)->PhyAddr
	ldr	r2, [r3, #156]	@ D.39674, MEM[(struct MEM_RECORD_S *)_7 + 152B].VirAddr
	clz	r0, r2	@ D.39672, D.39674
	str	r2, [r1, #4]	@ D.39674, pstMemRec_11(D)->VirAddr
	ldr	r3, [r3, #164]	@ D.39673, MEM[(struct MEM_RECORD_S *)_7 + 152B].Length
	mov	r0, r0, lsr #5	@ D.39672, D.39672,
	rsb	r0, r0, #0	@ D.39669, D.39672
	str	r3, [r1, #12]	@ D.39673, pstMemRec_11(D)->Length
	ldmfd	sp!, {r4, pc}	@
.L703:
	mvn	r0, #0	@ D.39669,
	ldmfd	sp!, {r4, pc}	@
.L705:
	ldr	r3, .L707+4	@,
	movw	r2, #4433	@,
	ldr	r1, .L707+8	@,
	mov	r0, #0	@,
	bl	dprint_vfmw	@
	mvn	r0, #0	@ D.39669,
	ldmfd	sp!, {r4, pc}	@
.L706:
	mov	r0, r3	@, D.39671
	movw	r2, #4434	@,
	ldr	r3, .L707+12	@,
	ldr	r1, .L707+8	@,
	bl	dprint_vfmw	@
	mvn	r0, #0	@ D.39669,
	ldmfd	sp!, {r4, pc}	@
.L708:
	.align	2
.L707:
	.word	.LANCHOR0
	.word	.LC101
	.word	.LC5
	.word	.LC6
	.fnend
	.size	VCTRL_GetChanMemInfo, .-VCTRL_GetChanMemInfo
	.align	2
	.global	VCTRL_ClearDecparam
	.type	VCTRL_ClearDecparam, %function
VCTRL_ClearDecparam:
	.fnstart
	@ args = 0, pretend = 0, frame = 0
	@ frame_needed = 0, uses_anonymous_args = 0
	@ link register save eliminated.
	ldr	r3, .L722	@ tmp113,
	ldr	r3, [r3, r0, asl #2]	@ D.39680, s_pstVfmwChan
	ldr	r2, [r3, #880]	@ _4->eVidStd, _4->eVidStd
	cmp	r2, #13	@ _4->eVidStd,
	ldrls	pc, [pc, r2, asl #2]	@ _4->eVidStd
	b	.L709	@
.L712:
	.word	.L711
	.word	.L721
	.word	.L714
	.word	.L721
	.word	.L709
	.word	.L721
	.word	.L721
	.word	.L709
	.word	.L721
	.word	.L721
	.word	.L721
	.word	.L721
	.word	.L721
	.word	.L721
.L721:
	add	r3, r3, #217088	@ tmp143, D.39680,
	mov	r2, #0	@ tmp144,
	str	r2, [r3, #436]	@ tmp144,
.L709:
	bx	lr	@
.L714:
	add	r3, r3, #217088	@ tmp122, D.39680,
	mov	r2, #0	@ tmp123,
	str	r2, [r3, #1468]	@ tmp123, _4->stSynCtx.unSyntax.stMpeg4Ctx.pMp4DecParam
	bx	lr	@
.L711:
	add	r3, r3, #217088	@ tmp116, D.39680,
	mov	r2, #0	@ tmp117,
	str	r2, [r3, #792]	@ tmp117, _4->stSynCtx.unSyntax.stH264Ctx.pH264DecParam
	bx	lr	@
.L723:
	.align	2
.L722:
	.word	.LANCHOR0
	.fnend
	.size	VCTRL_ClearDecparam, .-VCTRL_ClearDecparam
	.align	2
	.global	VCTRL_GetImageBuffer
	.type	VCTRL_GetImageBuffer, %function
VCTRL_GetImageBuffer:
	.fnstart
	@ args = 0, pretend = 0, frame = 0
	@ frame_needed = 0, uses_anonymous_args = 0
	cmp	r0, #3	@ ChanId,
	stmfd	sp!, {r4, lr}	@,
	.save {r4, lr}
	bhi	.L746	@,
	ldr	r1, .L749	@ tmp170,
	ldr	r3, [r1, r0, asl #2]	@ D.39688, s_pstVfmwChan
	cmp	r3, #0	@ D.39688,
	beq	.L747	@,
	ldr	r0, [r3, #8]	@ D.39686, _9->s32IsRun
	cmp	r0, #1	@ D.39686,
	bne	.L748	@,
	ldr	r2, [r3, #880]	@ _9->eVidStd, _9->eVidStd
	cmp	r2, #14	@ _9->eVidStd,
	ldrls	pc, [pc, r2, asl #2]	@ _9->eVidStd
	b	.L741	@
.L730:
	.word	.L729
	.word	.L731
	.word	.L732
	.word	.L733
	.word	.L726
	.word	.L735
	.word	.L736
	.word	.L741
	.word	.L737
	.word	.L738
	.word	.L739
	.word	.L739
	.word	.L739
	.word	.L740
	.word	.L726
.L741:
	mov	r0, #0	@ D.39686,
.L726:
	ldmfd	sp!, {r4, pc}	@
.L733:
	add	r0, r3, #217088	@, D.39688,
	add	r0, r0, #432	@,,
	ldmfd	sp!, {r4, lr}	@
	b	MPEG2DEC_GetImageBuffer	@
.L735:
	add	r0, r3, #217088	@, D.39688,
	add	r0, r0, #432	@,,
	ldmfd	sp!, {r4, lr}	@
	b	DIVX3DEC_GetImageBuffer	@
.L736:
	add	r0, r3, #217088	@, D.39688,
	add	r0, r0, #432	@,,
	ldmfd	sp!, {r4, lr}	@
	b	AVSDEC_GetImageBuffer	@
.L737:
	add	r0, r3, #217088	@, D.39688,
	add	r0, r0, #432	@,,
	ldmfd	sp!, {r4, lr}	@
	b	REAL8DEC_GetImageBuffer	@
.L738:
	add	r0, r3, #217088	@, D.39688,
	add	r0, r0, #432	@,,
	ldmfd	sp!, {r4, lr}	@
	b	REAL9DEC_GetImageBuffer	@
.L739:
	ldr	r2, [r1, #3640]	@ g_VdmCharacter, g_VdmCharacter
	tst	r2, #1	@ g_VdmCharacter,
	ldmeqfd	sp!, {r4, pc}	@
	add	r0, r3, #217088	@, D.39688,
	add	r0, r0, #432	@,,
	ldmfd	sp!, {r4, lr}	@
	b	VP6DEC_GetImageBuffer	@
.L740:
	add	r0, r3, #217088	@, D.39688,
	add	r0, r0, #432	@,,
	ldmfd	sp!, {r4, lr}	@
	b	VP8DEC_GetImageBuffer	@
.L729:
	add	r0, r3, #217088	@, D.39688,
	add	r0, r0, #432	@,,
	ldmfd	sp!, {r4, lr}	@
	b	H264DEC_GetImageBuffer	@
.L731:
	add	r0, r3, #217088	@, D.39688,
	add	r0, r0, #432	@,,
	ldmfd	sp!, {r4, lr}	@
	b	VC1DEC_GetImageBuffer	@
.L732:
	add	r0, r3, #217088	@, D.39688,
	add	r0, r0, #432	@,,
	ldmfd	sp!, {r4, lr}	@
	b	MPEG4DEC_GetImageBuffer	@
.L748:
	ldr	r3, .L749+4	@,
	movw	r2, #4878	@,
	ldr	r1, .L749+8	@,
	mov	r0, #0	@,
	bl	dprint_vfmw	@
	mvn	r0, #0	@ D.39686,
	ldmfd	sp!, {r4, pc}	@
.L746:
	ldr	r3, .L749+12	@,
	movw	r2, #4876	@,
	ldr	r1, .L749+8	@,
	mov	r0, #0	@,
	bl	dprint_vfmw	@
	mvn	r0, #0	@ D.39686,
	ldmfd	sp!, {r4, pc}	@
.L747:
	mov	r0, r3	@, D.39688
	movw	r2, #4877	@,
	ldr	r3, .L749+16	@,
	ldr	r1, .L749+8	@,
	bl	dprint_vfmw	@
	mvn	r0, #0	@ D.39686,
	ldmfd	sp!, {r4, pc}	@
.L750:
	.align	2
.L749:
	.word	.LANCHOR0
	.word	.LC102
	.word	.LC5
	.word	.LC101
	.word	.LC92
	.fnend
	.size	VCTRL_GetImageBuffer, .-VCTRL_GetImageBuffer
	.align	2
	.global	VCTRL_ConfigFFFBSpeed
	.type	VCTRL_ConfigFFFBSpeed, %function
VCTRL_ConfigFFFBSpeed:
	.fnstart
	@ args = 0, pretend = 0, frame = 0
	@ frame_needed = 0, uses_anonymous_args = 0
	cmp	r0, #3	@ ChanID,
	stmfd	sp!, {r4, lr}	@,
	.save {r4, lr}
	bhi	.L757	@,
	ldr	r3, .L760	@ tmp120,
	ldr	r3, [r3, r0, asl #2]	@ D.39705, s_pstVfmwChan
	ldr	r2, [r3, #4]	@ _7->s32IsOpen, _7->s32IsOpen
	cmp	r2, #1	@ _7->s32IsOpen,
	bne	.L758	@,
	cmp	r1, #0	@ pArgs,
	beq	.L759	@,
	ldr	r2, [r1]	@ D.39706, *pArgs_10(D)
	mov	r0, #0	@ D.39703,
	str	r2, [r3, #1408]	@ D.39706, _7->stSynExtraData.s32FastForwardBackwardSpeed
	ldmfd	sp!, {r4, pc}	@
.L758:
	ldr	r3, .L760+4	@,
	movw	r2, #4983	@,
	ldr	r1, .L760+8	@,
	mov	r0, #0	@,
	bl	dprint_vfmw	@
	mvn	r0, #0	@ D.39703,
	ldmfd	sp!, {r4, pc}	@
.L757:
	ldr	r3, .L760+12	@,
	movw	r2, #4982	@,
	ldr	r1, .L760+8	@,
	mov	r0, #0	@,
	bl	dprint_vfmw	@
	mvn	r0, #0	@ D.39703,
	ldmfd	sp!, {r4, pc}	@
.L759:
	mov	r0, r1	@, pArgs
	ldr	r3, .L760+16	@,
	movw	r2, #4984	@,
	ldr	r1, .L760+8	@,
	bl	dprint_vfmw	@
	mvn	r0, #0	@ D.39703,
	ldmfd	sp!, {r4, pc}	@
.L761:
	.align	2
.L760:
	.word	.LANCHOR0
	.word	.LC78
	.word	.LC5
	.word	.LC69
	.word	.LC103
	.fnend
	.size	VCTRL_ConfigFFFBSpeed, .-VCTRL_ConfigFFFBSpeed
	.align	2
	.global	VCTRL_ConfigPVRInfo
	.type	VCTRL_ConfigPVRInfo, %function
VCTRL_ConfigPVRInfo:
	.fnstart
	@ args = 0, pretend = 0, frame = 0
	@ frame_needed = 0, uses_anonymous_args = 0
	cmp	r0, #3	@ ChanID,
	stmfd	sp!, {r4, lr}	@,
	.save {r4, lr}
	bhi	.L768	@,
	ldr	r3, .L771	@ tmp120,
	ldr	r0, [r3, r0, asl #2]	@ D.39712, s_pstVfmwChan
	ldr	r3, [r0, #4]	@ _7->s32IsOpen, _7->s32IsOpen
	cmp	r3, #1	@ _7->s32IsOpen,
	bne	.L769	@,
	cmp	r1, #0	@ pArgs,
	beq	.L770	@,
	mov	r2, #20	@,
	add	r0, r0, #1424	@, D.39712,
	bl	memcpy	@
	mov	r0, #0	@ D.39710,
	ldmfd	sp!, {r4, pc}	@
.L769:
	ldr	r3, .L771+4	@,
	movw	r2, #4995	@,
	ldr	r1, .L771+8	@,
	mov	r0, #0	@,
	bl	dprint_vfmw	@
	mvn	r0, #0	@ D.39710,
	ldmfd	sp!, {r4, pc}	@
.L768:
	ldr	r3, .L771+12	@,
	movw	r2, #4994	@,
	ldr	r1, .L771+8	@,
	mov	r0, #0	@,
	bl	dprint_vfmw	@
	mvn	r0, #0	@ D.39710,
	ldmfd	sp!, {r4, pc}	@
.L770:
	mov	r0, r1	@, pArgs
	ldr	r3, .L771+16	@,
	movw	r2, #4996	@,
	ldr	r1, .L771+8	@,
	bl	dprint_vfmw	@
	mvn	r0, #0	@ D.39710,
	ldmfd	sp!, {r4, pc}	@
.L772:
	.align	2
.L771:
	.word	.LANCHOR0
	.word	.LC78
	.word	.LC5
	.word	.LC69
	.word	.LC103
	.fnend
	.size	VCTRL_ConfigPVRInfo, .-VCTRL_ConfigPVRInfo
	.align	2
	.global	VCTRL_IsChanDecable
	.type	VCTRL_IsChanDecable, %function
VCTRL_IsChanDecable:
	.fnstart
	@ args = 0, pretend = 0, frame = 24
	@ frame_needed = 0, uses_anonymous_args = 0
	stmfd	sp!, {r4, r5, lr}	@,
	.save {r4, r5, lr}
	.pad #28
	sub	sp, sp, #28	@,,
	ldr	r5, .L780	@ tmp141,
	ldr	r2, [r5, r0, asl #2]	@ tmp128, s_pstVfmwChan
	cmp	r2, #0	@ tmp128,
	beq	.L776	@,
	mov	r1, sp	@,
	mov	r4, r0	@ ChanID, ChanID
	bl	SM_GetInfo	@
	cmp	r0, #0	@,
	bne	.L776	@,
	ldr	r3, [sp, #8]	@ SmInstInfo.SegNum, SmInstInfo.SegNum
	cmp	r3, #16	@ SmInstInfo.SegNum,
	bgt	.L777	@,
	ldr	r3, [sp, #16]	@ SmInstInfo.TotalSegSize, SmInstInfo.TotalSegSize
	cmp	r3, #524288	@ SmInstInfo.TotalSegSize,
	ble	.L776	@,
.L777:
	mov	r0, r4	@, ChanID
	bl	VCTRL_GetImageBuffer	@
	subs	r0, r0, #1	@ ret,,
	mvnne	r0, #0	@ ret,
	cmp	r0, #0	@ ret,
	bne	.L775	@,
	bl	OSAL_GetTimeInMs	@
	ldr	r3, [r5, r4, asl #2]	@ tmp135, s_pstVfmwChan
	ldr	r3, [r3, #28]	@ _18->u32timeLastDecParamReady, _18->u32timeLastDecParamReady
	rsb	r0, r3, r0	@ timePeriod, _18->u32timeLastDecParamReady,
	cmp	r0, #50	@ timePeriod,
	movls	r0, #0	@ D.39721,
	mvnhi	r0, #0	@ D.39721,
	add	sp, sp, #28	@,,
	@ sp needed	@
	ldmfd	sp!, {r4, r5, pc}	@
.L776:
	mvn	r0, #0	@ D.39721,
.L775:
	add	sp, sp, #28	@,,
	@ sp needed	@
	ldmfd	sp!, {r4, r5, pc}	@
.L781:
	.align	2
.L780:
	.word	.LANCHOR0
	.fnend
	.size	VCTRL_IsChanDecable, .-VCTRL_IsChanDecable
	.align	2
	.global	VCTRL_IsChanSegEnough
	.type	VCTRL_IsChanSegEnough, %function
VCTRL_IsChanSegEnough:
	.fnstart
	@ args = 0, pretend = 0, frame = 0
	@ frame_needed = 0, uses_anonymous_args = 0
	@ link register save eliminated.
	ldr	r3, .L783	@ tmp117,
	ldr	r3, [r3, r0, asl #2]	@ tmp118, s_pstVfmwChan
	ldr	r0, [r3, #672]	@ _4->s32NoStreamFlag, _4->s32NoStreamFlag
	subs	r0, r0, #1	@, _4->s32NoStreamFlag,
	movne	r0, #1	@,
	bx	lr	@
.L784:
	.align	2
.L783:
	.word	.LANCHOR0
	.fnend
	.size	VCTRL_IsChanSegEnough, .-VCTRL_IsChanSegEnough
	.align	2
	.global	VCTRL_IsChanActive
	.type	VCTRL_IsChanActive, %function
VCTRL_IsChanActive:
	.fnstart
	@ args = 0, pretend = 0, frame = 0
	@ frame_needed = 0, uses_anonymous_args = 0
	@ link register save eliminated.
	cmp	r0, #3	@ ChanID,
	bhi	.L791	@,
	ldr	r3, .L792	@ tmp121,
	ldr	r3, [r3, r0, asl #2]	@ D.39734, s_pstVfmwChan
	cmp	r3, #0	@ D.39734,
	beq	.L791	@,
	ldr	r2, [r3, #4]	@ _5->s32IsOpen, _5->s32IsOpen
	cmp	r2, #0	@ _5->s32IsOpen,
	beq	.L791	@,
	ldr	r2, [r3, #8]	@ _5->s32IsRun, _5->s32IsRun
	cmp	r2, #0	@ _5->s32IsRun,
	beq	.L791	@,
	ldr	r2, [r3, #12]	@ _5->s32Priority, _5->s32Priority
	cmp	r2, #0	@ _5->s32Priority,
	beq	.L791	@,
	ldr	r0, [r3, #880]	@ _5->eVidStd, _5->eVidStd
	cmp	r0, #19	@ _5->eVidStd,
	movne	r0, #0	@ D.39732,
	mvneq	r0, #0	@ D.39732,
	bx	lr	@
.L791:
	mvn	r0, #0	@ D.39732,
	bx	lr	@
.L793:
	.align	2
.L792:
	.word	.LANCHOR0
	.fnend
	.size	VCTRL_IsChanActive, .-VCTRL_IsChanActive
	.align	2
	.global	USERDEC_Init
	.type	USERDEC_Init, %function
USERDEC_Init:
	.fnstart
	@ args = 0, pretend = 0, frame = 0
	@ frame_needed = 0, uses_anonymous_args = 0
	stmfd	sp!, {r4, r5, r6, lr}	@,
	.save {r4, r5, r6, lr}
	mov	r4, r0	@ pCtx, pCtx
	ldr	r6, [r0, #352]	@ D.39760, pCtx_4(D)->ImageQue.ResetMagicWord
	mov	r5, r1	@ pstExtraData, pstExtraData
	mov	r1, #368	@,
	bl	__memzero	@
	add	r0, r4, #8	@, pCtx,
	str	r6, [r4, #352]	@ D.39760, pCtx_4(D)->ImageQue.ResetMagicWord
	bl	ResetVoQueue	@
	ldr	r0, .L812	@ ivtmp.645,
	mov	r2, #0	@ i,
	str	r5, [r4]	@ pstExtraData, pCtx_4(D)->pstExtraData
.L798:
	ldr	r1, [r0], #4	@ D.39762, MEM[base: _26, offset: 0B]
	cmp	r1, #0	@ D.39762,
	add	r3, r1, #217088	@ D.39763, D.39762,
	add	r3, r3, #432	@ D.39763, D.39763,
	beq	.L795	@,
	cmp	r4, r3	@ pCtx, D.39763
	beq	.L811	@,
.L795:
	add	r2, r2, #1	@ i, i,
	cmp	r2, #4	@ i,
	bne	.L798	@,
	mvn	r3, #0	@ tmp127,
	str	r3, [r4, #360]	@ tmp127, pCtx_4(D)->ChanID
.L796:
	ldr	r1, .L812+4	@,
	mov	r0, #0	@,
	bl	dprint_vfmw	@
	mvn	r0, #19	@ D.39759,
	ldmfd	sp!, {r4, r5, r6, pc}	@
.L811:
	cmn	r2, #1	@ i,
	str	r2, [r4, #360]	@ i, pCtx_4(D)->ChanID
	beq	.L796	@,
	mov	r0, #1	@ D.39759,
	ldmfd	sp!, {r4, r5, r6, pc}	@
.L813:
	.align	2
.L812:
	.word	.LANCHOR0
	.word	.LC104
	.fnend
	.size	USERDEC_Init, .-USERDEC_Init
	.align	2
	.global	USERDEC_RecycleImage
	.type	USERDEC_RecycleImage, %function
USERDEC_RecycleImage:
	.fnstart
	@ args = 0, pretend = 0, frame = 0
	@ frame_needed = 0, uses_anonymous_args = 0
	stmfd	sp!, {r4, r5, r6, lr}	@,
	.save {r4, r5, r6, lr}
	mov	r2, #0	@,
	mov	r5, r1	@ ImgID, ImgID
	mov	r4, r0	@ pCtx, pCtx
	ldr	r0, [r0, #360]	@, pCtx_3(D)->ChanID
	bl	FSP_SetDisplay	@
	mov	r1, r5	@, ImgID
	ldr	r0, [r4, #360]	@, pCtx_3(D)->ChanID
	bl	FSP_GetFsImagePtr	@
	subs	r5, r0, #0	@ pImg,
	beq	.L815	@,
	ldr	r1, [r5, #192]	@, pImg_10->p_usrdat
	mov	r6, #0	@ tmp125,
	ldr	r0, [r4, #360]	@, pCtx_3(D)->ChanID
	bl	FreeUsdByDec	@
	str	r6, [r5, #192]	@ tmp125, pImg_10->p_usrdat
	ldr	r1, [r5, #196]	@, pImg_10->p_usrdat
	ldr	r0, [r4, #360]	@, pCtx_3(D)->ChanID
	bl	FreeUsdByDec	@
	str	r6, [r5, #196]	@ tmp125, pImg_10->p_usrdat
.L815:
	mov	r0, #1	@,
	ldmfd	sp!, {r4, r5, r6, pc}	@
	.fnend
	.size	USERDEC_RecycleImage, .-USERDEC_RecycleImage
	.align	2
	.global	VDH_PutUsrdecFrame
	.type	VDH_PutUsrdecFrame, %function
VDH_PutUsrdecFrame:
	.fnstart
	@ args = 0, pretend = 0, frame = 0
	@ frame_needed = 0, uses_anonymous_args = 0
	stmfd	sp!, {r4, r5, r6, r7, r8, r9, r10, lr}	@,
	.save {r4, r5, r6, r7, r8, r9, r10, lr}
	mov	r6, r1	@ pstUsrdecFrame, pstUsrdecFrame
	.pad #8
	sub	sp, sp, #8	@,,
	ldr	r1, [r1, #28]	@, pstUsrdecFrame_15(D)->s32LumaPhyAddr
	mov	r8, r0	@ ChanID, ChanID
	bl	FSP_GetLogicIdByPhyAddr	@
	cmn	r0, #1	@ PicBufID,
	mov	r7, r0	@ PicBufID,
	beq	.L852	@,
	ldr	r3, [r6, #4]	@ pstUsrdecFrame_15(D)->s32IsFrameValid, pstUsrdecFrame_15(D)->s32IsFrameValid
	cmp	r3, #1	@ pstUsrdecFrame_15(D)->s32IsFrameValid,
	beq	.L823	@,
	mov	r1, r0	@, PicBufID
	mov	r2, #0	@,
	mov	r0, r8	@, ChanID
	bl	FSP_ClearLogicFs	@
	mov	r0, #0	@ D.39790,
.L822:
	add	sp, sp, #8	@,,
	@ sp needed	@
	ldmfd	sp!, {r4, r5, r6, r7, r8, r9, r10, pc}	@
.L823:
	ldr	r0, [r6, #36]	@, pstUsrdecFrame_15(D)->s32CbPhyAddr
	bl	MEM_Phy2Vir	@
	subs	r5, r0, #0	@ pSrc,
	beq	.L853	@,
.L824:
	mov	r1, r7	@, PicBufID
	mov	r0, r8	@, ChanID
	bl	FSP_GetFsImagePtr	@
	subs	r4, r0, #0	@ pLogic,
	beq	.L854	@,
	str	r7, [r4, #176]	@ PicBufID, pLogic_31->image_id
	mov	r9, #0	@ tmp205,
	ldrd	r2, [r6, #8]	@ D.39793, pstUsrdecFrame,
	mov	r10, #1	@ tmp204,
	strd	r2, [r4]	@ D.39793, pLogic_31->SrcPts
	ldrd	r2, [r6, #8]	@ D.39793, pstUsrdecFrame,
	strd	r2, [r4, #8]	@ D.39793, pLogic,
	ldrd	r2, [r6, #8]	@ D.39793, pstUsrdecFrame,
	strd	r2, [r4, #16]	@ D.39793, pLogic,
	ldrd	r2, [r6, #8]	@ D.39793, pstUsrdecFrame,
	str	r10, [r4, #68]	@ tmp204, pLogic_31->DispEnableFlag
	str	r9, [r4, #72]	@ tmp205, pLogic_31->DispFrameDistance
	strd	r2, [r4, #24]	@ D.39793, pLogic,
	str	r9, [r4, #76]	@ tmp205, pLogic_31->DistanceBeforeFirstFrame
	str	r9, [r4, #80]	@ tmp205, pLogic_31->GopNum
	ldr	r3, [r6, #28]	@ D.39791, pstUsrdecFrame_15(D)->s32LumaPhyAddr
	str	r3, [r4, #88]	@ D.39791, pLogic_31->top_luma_phy_addr
	mov	r0, r3	@, D.39791
	str	r3, [r4, #120]	@ D.39791, pLogic_31->luma_2d_phy_addr
	str	r3, [r4, #104]	@ D.39791, pLogic_31->luma_phy_addr
	ldr	r3, [r6, #36]	@ D.39791, pstUsrdecFrame_15(D)->s32CbPhyAddr
	str	r3, [r4, #92]	@ D.39791, pLogic_31->top_chrom_phy_addr
	str	r3, [r4, #124]	@ D.39791, pLogic_31->chrom_2d_phy_addr
	str	r3, [r4, #108]	@ D.39791, pLogic_31->chrom_phy_addr
	bl	MEM_Phy2Vir	@
	mov	r3, r0	@ D.39794,
	ldr	r0, [r4, #92]	@, pLogic_31->top_chrom_phy_addr
	str	r3, [r4, #48]	@ D.39794, pLogic_31->luma_2d_vir_addr
	str	r3, [r4, #32]	@ D.39794, pLogic_31->luma_vir_addr
	bl	MEM_Phy2Vir	@
	ldr	r2, [r4, #88]	@ pLogic_31->top_luma_phy_addr, pLogic_31->top_luma_phy_addr
	ldr	r3, [r4, #92]	@ pLogic_31->top_chrom_phy_addr, pLogic_31->top_chrom_phy_addr
	movw	r1, #11296	@ tmp224,
	str	r0, [r4, #52]	@ __p, pLogic_31->chrom_2d_vir_addr
	mov	ip, r0	@ __p,
	str	r0, [r4, #36]	@ __p, pLogic_31->chrom_vir_addr
	cmp	r0, r9	@ __p,
	ldr	r0, [r6, #32]	@ pstUsrdecFrame_15(D)->s32LumaStride, pstUsrdecFrame_15(D)->s32LumaStride
	add	r2, r2, r0	@ D.39791, pLogic_31->top_luma_phy_addr, pstUsrdecFrame_15(D)->s32LumaStride
	str	r2, [r4, #96]	@ D.39791, pLogic_31->btm_luma_phy_addr
	ldr	r2, [r6, #32]	@ pstUsrdecFrame_15(D)->s32LumaStride, pstUsrdecFrame_15(D)->s32LumaStride
	str	r9, [r4, #128]	@ tmp205, pLogic_31->is_fld_save
	add	r3, r3, r2	@ D.39791, pLogic_31->top_chrom_phy_addr, pstUsrdecFrame_15(D)->s32LumaStride
	str	r3, [r4, #100]	@ D.39791, pLogic_31->btm_chrom_phy_addr
	ldr	r3, [r6, #20]	@ pstUsrdecFrame_15(D)->s32YWidth, pstUsrdecFrame_15(D)->s32YWidth
	str	r3, [r4, #144]	@ pstUsrdecFrame_15(D)->s32YWidth, pLogic_31->image_width
	ldr	r3, [r6, #24]	@ pstUsrdecFrame_15(D)->s32YHeight, pstUsrdecFrame_15(D)->s32YHeight
	str	r3, [r4, #148]	@ pstUsrdecFrame_15(D)->s32YHeight, pLogic_31->image_height
	ldr	r3, [r6, #20]	@ D.39792, pstUsrdecFrame_15(D)->s32YWidth
	str	r3, [r4, #152]	@ D.39792, pLogic_31->disp_width
	mov	r2, r3, lsr r10	@ D.39792, D.39792,
	ldr	r3, [r6, #24]	@ D.39792, pstUsrdecFrame_15(D)->s32YHeight
	str	r2, [r4, #160]	@ D.39792, pLogic_31->disp_center_x
	str	r3, [r4, #156]	@ D.39792, pLogic_31->disp_height
	mov	r3, r3, lsr r10	@ D.39792, D.39792,
	str	r3, [r4, #164]	@ D.39792, pLogic_31->disp_center_y
	ldr	r3, [r6, #32]	@ pstUsrdecFrame_15(D)->s32LumaStride, pstUsrdecFrame_15(D)->s32LumaStride
	str	r9, [r4, #168]	@ tmp205, pLogic_31->frame_rate
	str	r9, [r4, #180]	@ tmp205, pLogic_31->error_level
	str	r3, [r4, #172]	@ pstUsrdecFrame_15(D)->s32LumaStride, pLogic_31->image_stride
	str	r10, [r4, #208]	@ tmp204, pLogic_31->chroma_idc
	str	r9, [r4, #256]	@ tmp205, pLogic_31->line_num_phy_addr
	str	r9, [r4, #56]	@ tmp205, pLogic_31->line_num_vir_addr
	str	r1, [r4, #140]	@ tmp224, pLogic_31->format
	beq	.L826	@,
	ldr	r3, [r6, #24]	@ pstUsrdecFrame_15(D)->s32YHeight, pstUsrdecFrame_15(D)->s32YHeight
	cmp	r3, r10	@ pstUsrdecFrame_15(D)->s32YHeight,
	bgt	.L839	@,
	b	.L840	@
.L856:
	ldr	r2, [r4, #144]	@ __n, pLogic_31->image_width
	cmp	r2, #0	@ __n,
	bne	.L855	@,
.L830:
	ldr	r3, [r6, #24]	@ pstUsrdecFrame_15(D)->s32YHeight, pstUsrdecFrame_15(D)->s32YHeight
	add	r9, r9, #1	@ y, y,
	ldr	r2, [r4, #172]	@ pLogic_31->image_stride, pLogic_31->image_stride
	add	r3, r3, r3, lsr #31	@ tmp258, pstUsrdecFrame_15(D)->s32YHeight, pstUsrdecFrame_15(D)->s32YHeight,
	add	ip, ip, r2	@ __p, __p, pLogic_31->image_stride
	cmp	r9, r3, asr #1	@ y, tmp258,
	bge	.L840	@,
.L839:
	ldr	r3, [r6]	@ D.39795, pstUsrdecFrame_15(D)->enFmt
	cmp	r3, #0	@ D.39795,
	beq	.L856	@,
	cmp	r3, #1	@ D.39795,
	beq	.L830	@,
	cmp	r3, #3	@ D.39795,
	beq	.L857	@,
	cmp	r3, #2	@ D.39795,
	beq	.L858	@,
	cmp	r3, #4	@ D.39795,
	bne	.L841	@,
	ldr	r3, [r4, #144]	@ pLogic_31->image_width, pLogic_31->image_width
	cmp	r3, #0	@ pLogic_31->image_width,
	movne	r1, r5	@ ivtmp.664, pSrc
	movne	r3, #0	@ x,
	beq	.L838	@,
.L837:
	ldrb	r0, [r5, r3, asl #1]	@ zero_extendqisi2	@ D.39796, MEM[base: pSrc_190, index: _119, step: 2, offset: 0B]
	mov	r2, ip	@ D.39794, __p
	add	r1, r1, #4	@ ivtmp.664, ivtmp.664,
	strb	r0, [r2, r3]!	@ D.39796, MEM[base: __p_191, index: _119, offset: 0B]
	add	r3, r3, #2	@ x, x,
	ldrb	r0, [r1, #-3]	@ zero_extendqisi2	@ D.39796, MEM[base: _120, offset: 1B]
	strb	r0, [r2, #1]	@ D.39796, MEM[base: _114, offset: 1B]
	ldr	r2, [r4, #144]	@ pLogic_31->image_width, pLogic_31->image_width
	cmp	r3, r2	@ x, pLogic_31->image_width
	bcc	.L837	@,
.L838:
	ldr	r3, [r6, #44]	@ pstUsrdecFrame_15(D)->s32ChromStride, pstUsrdecFrame_15(D)->s32ChromStride
	add	r5, r5, r3, lsl #1	@ pSrc, pSrc, pstUsrdecFrame_15(D)->s32ChromStride,
	b	.L830	@
.L855:
	mov	r0, ip	@, __p
	mov	r1, #128	@,
	bl	memset	@
	mov	ip, r0	@ __p,
	b	.L830	@
.L857:
	ldr	r3, [r4, #144]	@ pLogic_31->image_width, pLogic_31->image_width
	cmp	r3, #0	@ pLogic_31->image_width,
	movne	r1, r5	@ ivtmp.656, pSrc
	movne	r3, #0	@ x,
	beq	.L834	@,
.L833:
	ldrb	r0, [r5, r3, asl #1]	@ zero_extendqisi2	@ D.39796, MEM[base: pSrc_190, index: _205, step: 2, offset: 0B]
	mov	r2, ip	@ D.39794, __p
	add	r1, r1, #4	@ ivtmp.656, ivtmp.656,
	strb	r0, [r2, r3]!	@ D.39796, MEM[base: __p_191, index: _205, offset: 0B]
	add	r3, r3, #2	@ x, x,
	ldrb	r0, [r1, #-3]	@ zero_extendqisi2	@ D.39796, MEM[base: _203, offset: 1B]
	strb	r0, [r2, #1]	@ D.39796, MEM[base: _201, offset: 1B]
	ldr	r2, [r4, #144]	@ pLogic_31->image_width, pLogic_31->image_width
	cmp	r3, r2	@ x, pLogic_31->image_width
	bcc	.L833	@,
.L834:
	ldr	r3, [r6, #44]	@ pstUsrdecFrame_15(D)->s32ChromStride, pstUsrdecFrame_15(D)->s32ChromStride
	add	r5, r5, r3	@ pSrc, pSrc, pstUsrdecFrame_15(D)->s32ChromStride
	b	.L830	@
.L840:
	mov	r5, #18	@ tmp228,
	mov	r2, #1	@,
	mov	r1, r7	@, PicBufID
	mov	r0, r8	@, ChanID
	str	r5, [r4, #300]	@ tmp228, pLogic_31->ImageDnr.video_standard
	bl	FSP_SetDisplay	@
	ldr	r3, .L859	@ tmp229,
	str	r4, [sp]	@ pLogic,
	mov	r1, r5	@, tmp228
	mov	r0, r8	@, ChanID
	ldr	r2, [r3, r8, asl #2]	@ D.39798, s_pstVfmwChan
	add	r2, r2, #217088	@ tmp231, D.39798,
	add	r3, r2, #440	@, tmp231,
	add	r2, r2, #432	@, tmp231,
	bl	InsertImgToVoQueue	@
	cmp	r0, #1	@,
	bne	.L828	@,
	mov	r0, #0	@ D.39790,
	add	sp, sp, #8	@,,
	@ sp needed	@
	ldmfd	sp!, {r4, r5, r6, r7, r8, r9, r10, pc}	@
.L858:
	mov	r1, r5	@, pSrc
	mov	r0, ip	@, __p
	ldr	r2, [r4, #144]	@, pLogic_31->image_width
	bl	memcpy	@
	ldr	r3, [r6, #44]	@ pstUsrdecFrame_15(D)->s32ChromStride, pstUsrdecFrame_15(D)->s32ChromStride
	add	r5, r5, r3, lsl #1	@ pSrc, pSrc, pstUsrdecFrame_15(D)->s32ChromStride,
	mov	ip, r0	@ __p,
	b	.L830	@
.L853:
	ldr	r3, [r6, #4]	@ pstUsrdecFrame_15(D)->s32IsFrameValid, pstUsrdecFrame_15(D)->s32IsFrameValid
	cmp	r3, #1	@ pstUsrdecFrame_15(D)->s32IsFrameValid,
	bne	.L824	@,
	ldr	r2, [r6, #36]	@, pstUsrdecFrame_15(D)->s32CbPhyAddr
	ldr	r1, .L859+4	@,
	bl	dprint_vfmw	@
	mvn	r0, #0	@ D.39790,
	b	.L822	@
.L841:
	mvn	r0, #0	@ D.39790,
	b	.L822	@
.L828:
	ldr	r1, [r4, #192]	@, pLogic_31->p_usrdat
	mov	r0, r8	@, ChanID
	bl	FreeUsdByDec	@
	mov	r5, #0	@ tmp261,
	ldr	r1, [r4, #196]	@, pLogic_31->p_usrdat
	mov	r0, r8	@, ChanID
	str	r5, [r4, #192]	@ tmp261, pLogic_31->p_usrdat
	bl	FreeUsdByDec	@
	mov	r0, r8	@, ChanID
	str	r5, [r4, #196]	@ tmp261, pLogic_31->p_usrdat
	mov	r2, r5	@, tmp261
	mov	r1, r7	@, PicBufID
	bl	FSP_SetDisplay	@
	mvn	r0, #0	@ D.39790,
	b	.L822	@
.L852:
	ldr	r2, [r6, #28]	@, pstUsrdecFrame_15(D)->s32LumaPhyAddr
	mov	r0, #0	@,
	ldr	r1, .L859+8	@,
	bl	dprint_vfmw	@
	mov	r0, r7	@ D.39790, PicBufID
	b	.L822	@
.L854:
	movw	r2, #5171	@,
	ldr	r1, .L859+12	@,
	mov	r0, #22	@,
	bl	dprint_vfmw	@
	mvn	r0, #0	@ D.39790,
	b	.L822	@
.L826:
	mov	r0, r10	@, tmp204
	ldr	r1, .L859+16	@,
	bl	dprint_vfmw	@
	mvn	r0, #0	@ D.39790,
	b	.L822	@
.L860:
	.align	2
.L859:
	.word	.LANCHOR0
	.word	.LC106
	.word	.LC105
	.word	.LC107
	.word	.LC108
	.fnend
	.size	VDH_PutUsrdecFrame, .-VDH_PutUsrdecFrame
	.align	2
	.global	VCTRL_GetUsrdecFrame
	.type	VCTRL_GetUsrdecFrame, %function
VCTRL_GetUsrdecFrame:
	.fnstart
	@ args = 0, pretend = 0, frame = 0
	@ frame_needed = 0, uses_anonymous_args = 0
	stmfd	sp!, {r4, r5, r6, r7, r8, r9, lr}	@,
	.save {r4, r5, r6, r7, r8, r9, lr}
	mov	r5, r0	@ ChanID, ChanID
	ldr	r7, .L886	@ tmp130,
	.pad #12
	sub	sp, sp, #12	@,,
	ldr	r3, [r7, r0, asl #2]	@ D.39812, s_pstVfmwChan
	cmp	r3, #0	@ D.39812,
	beq	.L880	@,
	ldr	r6, [r3, #880]	@ _5->eVidStd, _5->eVidStd
	cmp	r6, #18	@ _5->eVidStd,
	bne	.L881	@,
	ldr	r3, [r3, #820]	@ _5->s32UsrdecFrameNum, _5->s32UsrdecFrameNum
	cmp	r3, #2	@ _5->s32UsrdecFrameNum,
	ble	.L882	@,
	mov	r8, r1	@ pMem, pMem
	bl	FSP_IsNewFsAvalible	@
	cmp	r0, #1	@ D.39814,
	bne	.L883	@,
	mov	r1, r0	@, D.39814
	mov	r0, r5	@, ChanID
	bl	FSP_NewLogicFs	@
	subs	r9, r0, #0	@ id,
	blt	.L884	@,
	mov	r1, r9	@, id
	mov	r0, r5	@, ChanID
	bl	FSP_GetLogicFs	@
	mov	r2, r9	@, id
	ldr	r1, .L886+4	@,
	mov	r4, r0	@ pLf,
	mov	r0, r6	@, _5->eVidStd
	bl	dprint_vfmw	@
	cmp	r4, #0	@ pLf,
	beq	.L885	@,
	ldr	r2, [r4, #408]	@ D.39815, pLf_18->pstDecodeFs
	cmp	r2, #0	@ D.39815,
	beq	.L869	@,
	ldr	r3, [r4, #412]	@ D.39815, pLf_18->pstDispOutFs
	cmp	r3, #0	@ D.39815,
	beq	.L869	@,
	ldr	r1, [r4, #416]	@ D.39815, pLf_18->pstTfOutFs
	cmp	r1, #0	@ D.39815,
	beq	.L869	@,
	ldr	ip, [r1, #12]	@ _23->PhyAddr, _23->PhyAddr
	mov	r0, r6	@, _5->eVidStd
	ldr	r3, [r3, #12]	@ _22->PhyAddr, _22->PhyAddr
	ldr	r2, [r2, #12]	@ _21->PhyAddr, _21->PhyAddr
	ldr	r1, .L886+8	@,
	str	ip, [sp]	@ _23->PhyAddr,
	bl	dprint_vfmw	@
	ldr	r3, [r4, #408]	@ pLf_18->pstDecodeFs, pLf_18->pstDecodeFs
	mov	r0, #0	@ D.39811,
	ldr	r3, [r3, #12]	@ D.39814, _28->PhyAddr
	str	r3, [r8]	@ D.39814, pMem_30(D)->PhyAddr
	ldr	r3, [r7, r5, asl #2]	@ tmp147, s_pstVfmwChan
	ldr	r3, [r3, #816]	@ D.39814, _32->s32UsrdecFrameSize
	str	r3, [r8, #8]	@ D.39814, pMem_30(D)->Length
.L863:
	add	sp, sp, #12	@,,
	@ sp needed	@
	ldmfd	sp!, {r4, r5, r6, r7, r8, r9, pc}	@
.L883:
	ldr	r1, .L886+12	@,
	mov	r0, #0	@,
	bl	dprint_vfmw	@
	mvn	r0, #0	@ D.39811,
	b	.L863	@
.L881:
	ldr	r1, .L886+16	@,
	mov	r0, #0	@,
	bl	dprint_vfmw	@
	mvn	r0, #0	@ D.39811,
	b	.L863	@
.L882:
	ldr	r1, .L886+20	@,
	mov	r0, #0	@,
	bl	dprint_vfmw	@
	mvn	r0, #0	@ D.39811,
	b	.L863	@
.L869:
	ldr	r1, .L886+24	@,
	mov	r0, #0	@,
	bl	dprint_vfmw	@
	mvn	r0, #0	@ D.39811,
	b	.L863	@
.L884:
	ldr	r1, .L886+28	@,
	mov	r0, #0	@,
	bl	dprint_vfmw	@
	mvn	r0, #0	@ D.39811,
	b	.L863	@
.L880:
	mov	r0, r3	@, D.39812
	movw	r2, #5331	@,
	ldr	r3, .L886+32	@,
	ldr	r1, .L886+36	@,
	bl	dprint_vfmw	@
	mvn	r0, #0	@ D.39811,
	b	.L863	@
.L885:
	movw	r2, #5367	@,
	ldr	r1, .L886+40	@,
	mov	r0, #22	@,
	bl	dprint_vfmw	@
	mvn	r0, #0	@ D.39811,
	b	.L863	@
.L887:
	.align	2
.L886:
	.word	.LANCHOR0
	.word	.LC113
	.word	.LC115
	.word	.LC111
	.word	.LC109
	.word	.LC110
	.word	.LC116
	.word	.LC112
	.word	.LC6
	.word	.LC5
	.word	.LC114
	.fnend
	.size	VCTRL_GetUsrdecFrame, .-VCTRL_GetUsrdecFrame
	.align	2
	.global	VCTRL_PutUsrdecFrame
	.type	VCTRL_PutUsrdecFrame, %function
VCTRL_PutUsrdecFrame:
	.fnstart
	@ args = 0, pretend = 0, frame = 0
	@ frame_needed = 0, uses_anonymous_args = 0
	ldr	r3, .L900	@ tmp117,
	stmfd	sp!, {r4, r5, r6, lr}	@,
	.save {r4, r5, r6, lr}
	mov	r4, r0	@ ChanID, ChanID
	ldr	r0, [r3, r0, asl #2]	@ D.39827, s_pstVfmwChan
	cmp	r0, #0	@ D.39827,
	beq	.L897	@,
	cmp	r1, #0	@ pUsrdecFrame,
	mov	r5, r1	@ pUsrdecFrame, pUsrdecFrame
	beq	.L898	@,
	ldr	r2, [r0, #880]	@ D.39828, _5->eVidStd
	cmp	r2, #18	@ D.39828,
	bne	.L899	@,
	mov	r2, #56	@,
	add	r0, r0, #824	@, D.39827,
	bl	memcpy	@
	mov	r1, r5	@, pUsrdecFrame
	mov	r0, r4	@, ChanID
	bl	VDH_PutUsrdecFrame	@
	cmp	r0, #0	@ D.39826
	ldmeqfd	sp!, {r4, r5, r6, pc}	@
	ldr	r1, .L900+4	@,
	mov	r0, #1	@,
	bl	dprint_vfmw	@
	mvn	r0, #0	@ D.39826,
	ldmfd	sp!, {r4, r5, r6, pc}	@
.L899:
	ldr	r1, .L900+8	@,
	mov	r0, #1	@,
	bl	dprint_vfmw	@
	mvn	r0, #0	@ D.39826,
	ldmfd	sp!, {r4, r5, r6, pc}	@
.L898:
	mov	r0, r1	@, pUsrdecFrame
	ldr	r3, .L900+12	@,
	movw	r2, #5421	@,
	ldr	r1, .L900+16	@,
	bl	dprint_vfmw	@
	mvn	r0, #0	@ D.39826,
	ldmfd	sp!, {r4, r5, r6, pc}	@
.L897:
	ldr	r3, .L900+20	@,
	movw	r2, #5420	@,
	ldr	r1, .L900+16	@,
	bl	dprint_vfmw	@
	mvn	r0, #0	@ D.39826,
	ldmfd	sp!, {r4, r5, r6, pc}	@
.L901:
	.align	2
.L900:
	.word	.LANCHOR0
	.word	.LC119
	.word	.LC118
	.word	.LC117
	.word	.LC5
	.word	.LC6
	.fnend
	.size	VCTRL_PutUsrdecFrame, .-VCTRL_PutUsrdecFrame
	.align	2
	.global	InitSyntaxCtx
	.type	InitSyntaxCtx, %function
InitSyntaxCtx:
	.fnstart
	@ args = 0, pretend = 0, frame = 0
	@ frame_needed = 0, uses_anonymous_args = 0
	@ link register save eliminated.
	ldr	r2, .L929	@ tmp191,
	ldr	r1, [r2, r0, asl #2]	@ D.39840, s_pstVfmwChan
	cmp	r1, #0	@ D.39840,
	beq	.L927	@,
	ldr	r3, [r1, #880]	@ _4->eVidStd, _4->eVidStd
	cmp	r3, #18	@ _4->eVidStd,
	ldrls	pc, [pc, r3, asl #2]	@ _4->eVidStd
	b	.L902	@
.L906:
	.word	.L905
	.word	.L907
	.word	.L908
	.word	.L909
	.word	.L910
	.word	.L911
	.word	.L912
	.word	.L902
	.word	.L913
	.word	.L914
	.word	.L915
	.word	.L915
	.word	.L915
	.word	.L916
	.word	.L910
	.word	.L902
	.word	.L902
	.word	.L902
	.word	.L917
.L915:
	ldr	r3, [r2, #3640]	@ g_VdmCharacter, g_VdmCharacter
	ldr	r2, .L929	@ tmp171,
	tst	r3, #1	@ g_VdmCharacter,
	bne	.L928	@,
.L910:
	ldr	r3, [r2, #248]	@ D.39845, g_SdecFunc.pfun_iMediaSoftDEC_Init
	cmp	r3, #0	@ D.39845,
	bxeq	lr	@
	add	r0, r1, #217088	@, D.39840,
	add	r1, r1, #888	@, D.39840,
	add	r0, r0, #432	@,,
	bx	r3	@ D.39845
.L911:
	add	r0, r1, #217088	@, D.39840,
	add	r1, r1, #888	@, D.39840,
	add	r0, r0, #432	@,,
	b	DIVX3DEC_Init	@
.L912:
	add	r0, r1, #217088	@, D.39840,
	add	r1, r1, #888	@, D.39840,
	add	r0, r0, #432	@,,
	b	AVSDEC_Init	@
.L913:
	add	r0, r1, #217088	@, D.39840,
	add	r1, r1, #888	@, D.39840,
	add	r0, r0, #432	@,,
	b	REAL8DEC_Init	@
.L914:
	add	r0, r1, #217088	@, D.39840,
	add	r1, r1, #888	@, D.39840,
	add	r0, r0, #432	@,,
	b	REAL9DEC_Init	@
.L916:
	add	r0, r1, #217088	@, D.39840,
	add	r1, r1, #888	@, D.39840,
	add	r0, r0, #432	@,,
	b	VP8DEC_Init	@
.L917:
	add	r0, r1, #217088	@, D.39840,
	add	r1, r1, #888	@, D.39840,
	add	r0, r0, #432	@,,
	b	USERDEC_Init	@
.L905:
	add	r0, r1, #217088	@, D.39840,
	add	r1, r1, #888	@, D.39840,
	add	r0, r0, #432	@,,
	b	H264DEC_Init	@
.L907:
	add	r0, r1, #217088	@, D.39840,
	add	r1, r1, #888	@, D.39840,
	add	r0, r0, #432	@,,
	b	VC1DEC_Init	@
.L908:
	add	r0, r1, #217088	@, D.39840,
	add	r1, r1, #888	@, D.39840,
	add	r0, r0, #432	@,,
	b	MPEG4DEC_Init	@
.L909:
	add	r0, r1, #217088	@, D.39840,
	add	r1, r1, #888	@, D.39840,
	add	r0, r0, #432	@,,
	b	MPEG2DEC_Init	@
.L902:
	bx	lr	@
.L928:
	add	r0, r1, #217088	@, D.39840,
	add	r1, r1, #888	@, D.39840,
	add	r0, r0, #432	@,,
	b	VP6DEC_Init	@
.L927:
	mov	r0, r1	@, D.39840
	ldr	r3, .L929+4	@,
	movw	r2, #5448	@,
	ldr	r1, .L929+8	@,
	b	dprint_vfmw	@
.L930:
	.align	2
.L929:
	.word	.LANCHOR0
	.word	.LC6
	.word	.LC120
	.fnend
	.size	InitSyntaxCtx, .-InitSyntaxCtx
	.align	2
	.global	VCTRL_GetMemSize_onFramePath
	.type	VCTRL_GetMemSize_onFramePath, %function
VCTRL_GetMemSize_onFramePath:
	.fnstart
	@ args = 0, pretend = 0, frame = 0
	@ frame_needed = 0, uses_anonymous_args = 0
	stmfd	sp!, {r4, lr}	@,
	.save {r4, lr}
	ldr	r0, [r1, #64]	@ D.39866, pChanOption_4(D)->s32SlotWidth
	cmp	r0, #0	@ D.39866,
	beq	.L932	@,
	ldr	r3, [r1, #68]	@ D.39866, pChanOption_4(D)->s32SlotHeight
	cmp	r3, #0	@ D.39866,
	beq	.L932	@,
	mul	r3, r3, r0	@ D.39866, D.39866, D.39866
	ldr	lr, [r1, #60]	@ pChanOption_4(D)->s32DisplayFrameNum, pChanOption_4(D)->s32DisplayFrameNum
	movw	ip, #14840	@ tmp129,
	mov	r1, #0	@ tmp128,
	movt	ip, 8	@ tmp129,
	mov	r0, r1	@ D.39865, tmp128
	stmib	r2, {r1, ip}	@ pDetailMemSize,,
	str	r1, [r2, #12]	@ tmp128, pDetailMemSize_14(D)->PmvDetailMem
	mla	r3, lr, r3, r3	@ D.39866, pChanOption_4(D)->s32DisplayFrameNum, D.39866, D.39866
	mov	r3, r3, asl #1	@ D.39866, D.39866,
	str	r3, [r2]	@ D.39866, pDetailMemSize_14(D)->VdhDetailMem
	ldmfd	sp!, {r4, pc}	@
.L932:
	ldr	r1, .L939	@,
	mov	r0, #32	@,
	bl	dprint_vfmw	@
	mvn	r0, #0	@ D.39865,
	ldmfd	sp!, {r4, pc}	@
.L940:
	.align	2
.L939:
	.word	.LC121
	.fnend
	.size	VCTRL_GetMemSize_onFramePath, .-VCTRL_GetMemSize_onFramePath
	.align	2
	.global	VCTRL_VarifyOption_onDecode
	.type	VCTRL_VarifyOption_onDecode, %function
VCTRL_VarifyOption_onDecode:
	.fnstart
	@ args = 0, pretend = 0, frame = 0
	@ frame_needed = 0, uses_anonymous_args = 0
	stmfd	sp!, {r4, lr}	@,
	.save {r4, lr}
	ldr	r3, [r0, #32]	@ pChanOption_4(D)->s32MaxRefFrameNum, pChanOption_4(D)->s32MaxRefFrameNum
	cmp	r3, #0	@ pChanOption_4(D)->s32MaxRefFrameNum,
	blt	.L942	@,
	ldr	r3, [r0, #12]	@ pChanOption_4(D)->s32MaxWidth, pChanOption_4(D)->s32MaxWidth
	cmp	r3, #31	@ pChanOption_4(D)->s32MaxWidth,
	ble	.L942	@,
	ldr	r3, [r0, #16]	@ pChanOption_4(D)->s32MaxHeight, pChanOption_4(D)->s32MaxHeight
	cmp	r3, #31	@ pChanOption_4(D)->s32MaxHeight,
	ble	.L942	@,
	ldr	r3, [r0, #56]	@ pChanOption_4(D)->s32SCDBufSize, pChanOption_4(D)->s32SCDBufSize
	cmp	r3, #262144	@ pChanOption_4(D)->s32SCDBufSize,
	blt	.L942	@,
	ldr	r3, [r0, #44]	@ pChanOption_4(D)->s32SupportH264, pChanOption_4(D)->s32SupportH264
	cmp	r3, #1	@ pChanOption_4(D)->s32SupportH264,
	beq	.L947	@,
.L945:
	mov	r0, #0	@ D.39872,
	ldmfd	sp!, {r4, pc}	@
.L947:
	ldr	r3, [r0, #20]	@ pChanOption_4(D)->s32MaxSliceNum, pChanOption_4(D)->s32MaxSliceNum
	cmp	r3, #0	@ pChanOption_4(D)->s32MaxSliceNum,
	ble	.L942	@,
	ldr	r3, [r0, #24]	@ pChanOption_4(D)->s32MaxSpsNum, pChanOption_4(D)->s32MaxSpsNum
	cmp	r3, #0	@ pChanOption_4(D)->s32MaxSpsNum,
	ble	.L942	@,
	ldr	r3, [r0, #28]	@ pChanOption_4(D)->s32MaxPpsNum, pChanOption_4(D)->s32MaxPpsNum
	cmp	r3, #0	@ pChanOption_4(D)->s32MaxPpsNum,
	bgt	.L945	@,
.L942:
	ldr	r1, .L948	@,
	mov	r0, #32	@,
	bl	dprint_vfmw	@
	mvn	r0, #0	@ D.39872,
	ldmfd	sp!, {r4, pc}	@
.L949:
	.align	2
.L948:
	.word	.LC122
	.fnend
	.size	VCTRL_VarifyOption_onDecode, .-VCTRL_VarifyOption_onDecode
	.align	2
	.global	VCTRL_GetChanPmvSize
	.type	VCTRL_GetChanPmvSize, %function
VCTRL_GetChanPmvSize:
	.fnstart
	@ args = 0, pretend = 0, frame = 0
	@ frame_needed = 0, uses_anonymous_args = 0
	ldr	ip, .L954	@ tmp117,
	stmfd	sp!, {r4, r5, r6, lr}	@,
	.save {r4, r5, r6, lr}
	mov	r4, r0	@ FrmNum, FrmNum
	ldr	ip, [ip, #100]	@ D.39878, g_vdm_hal_fun_ptr.pfun_VDMHAL_GetPmvSize
	mov	r5, r3	@ pChanPmvSize, pChanPmvSize
	cmp	ip, #0	@ D.39878,
	mvneq	r0, #0	@ D.39877,
	beq	.L951	@,
	mov	r0, r1	@ Width, Width
	mov	r1, r2	@, Height
	blx	ip	@ D.39878
.L951:
	mul	r4, r4, r0	@ D.39879, FrmNum, D.39877
	str	r4, [r5]	@ D.39879, *pChanPmvSize_11(D)
	ldmfd	sp!, {r4, r5, r6, pc}	@
.L955:
	.align	2
.L954:
	.word	g_vdm_hal_fun_ptr
	.fnend
	.size	VCTRL_GetChanPmvSize, .-VCTRL_GetChanPmvSize
	.align	2
	.global	VCTRL_GetMemSize_onDecode
	.type	VCTRL_GetMemSize_onDecode, %function
VCTRL_GetMemSize_onDecode:
	.fnstart
	@ args = 0, pretend = 0, frame = 416
	@ frame_needed = 0, uses_anonymous_args = 0
	stmfd	sp!, {r4, r5, r6, r7, r8, r9, r10, fp, lr}	@,
	.save {r4, r5, r6, r7, r8, r9, r10, fp, lr}
	mov	r0, r1	@, pChanOption
	.pad #444
	sub	sp, sp, #444	@,,
	mov	r4, r1	@ pChanOption, pChanOption
	mov	r5, r2	@ pDetailMemSize, pDetailMemSize
	bl	VCTRL_VarifyOption_onDecode	@
	subs	r6, r0, #0	@ D.39882,
	bne	.L964	@,
	ldr	r3, [r4, #40]	@ pChanOption_7(D)->s32SupportBFrame, pChanOption_7(D)->s32SupportBFrame
	ldr	r10, [r4, #32]	@ D.39883, pChanOption_7(D)->s32MaxRefFrameNum
	cmp	r3, #0	@ pChanOption_7(D)->s32SupportBFrame,
	moveq	r7, #1	@ PmvNum,
	addeq	fp, r10, r7	@ D.39882, D.39883,
	bne	.L967	@,
.L959:
	ldr	r9, .L969	@ tmp183,
	ldr	r0, [r4, #12]	@ D.39883, pChanOption_7(D)->s32MaxWidth
	ldr	r8, [r4, #60]	@ D.39883, pChanOption_7(D)->s32DisplayFrameNum
	ldr	r2, [r9, #100]	@ D.39886, g_vdm_hal_fun_ptr.pfun_VDMHAL_GetPmvSize
	ldr	r1, [r4, #16]	@ D.39883, pChanOption_7(D)->s32MaxHeight
	cmp	r2, #0	@ D.39886,
	mvneq	r0, #0	@ D.39882,
	beq	.L960	@,
	blx	r2	@ D.39886
.L960:
	mul	r3, r0, fp	@ ChanPmvSize, D.39882, D.39882
	str	r3, [r5, #12]	@ ChanPmvSize, pDetailMemSize_23(D)->PmvDetailMem
	ldr	ip, [r9, #36]	@ D.39884, g_vdm_hal_fun_ptr.pfun_VDMHAL_ArrangeMem
	cmp	ip, #0	@ D.39884,
	beq	.L962	@,
	ldr	r3, [r4, #16]	@ pChanOption_7(D)->s32MaxHeight, pChanOption_7(D)->s32MaxHeight
	mov	r0, #64	@ tmp158,
	ldr	r2, [r4, #12]	@ pChanOption_7(D)->s32MaxWidth, pChanOption_7(D)->s32MaxWidth
	add	r1, sp, #24	@ tmp159,,
	str	r0, [sp, #20]	@ tmp158,
	add	r8, r8, r10	@ FrameNum, D.39883, D.39883
	str	r1, [sp, #16]	@ tmp159,
	mvn	r0, #0	@ tmp160,
	mov	r1, #0	@ tmp161,
	str	r0, [sp, #12]	@ tmp160,
	str	r1, [sp, #8]	@ tmp161,
	mov	r0, #1	@,
	str	r8, [sp, #4]	@ FrameNum,
	mvn	r1, #-2147483648	@,
	str	r7, [sp]	@ PmvNum,
	blx	ip	@ D.39884
	cmp	r0, #0	@,
	bne	.L962	@,
	ldr	r3, [sp, #28]	@ MemArrange.TotalMemUsed, MemArrange.TotalMemUsed
	add	r3, r3, #47104	@ D.39883, MemArrange.TotalMemUsed,
	add	r3, r3, #16	@ D.39883, D.39883,
	str	r3, [r5]	@ D.39883, pDetailMemSize_23(D)->VdhDetailMem
	ldr	r3, [r4, #56]	@ pChanOption_7(D)->s32SCDBufSize, pChanOption_7(D)->s32SCDBufSize
	add	r3, r3, #32768	@ D.39883, pChanOption_7(D)->s32SCDBufSize,
	str	r3, [r5, #4]	@ D.39883, pDetailMemSize_23(D)->ScdDetailMem
	ldr	r3, [r4, #44]	@ D.39883, pChanOption_7(D)->s32SupportH264
	cmp	r3, #0	@ D.39883,
	beq	.L968	@,
	ldr	r1, [r4, #24]	@ pChanOption_7(D)->s32MaxSpsNum, pChanOption_7(D)->s32MaxSpsNum
	mov	ip, #4000	@ tmp174,
	ldr	r0, [r4, #20]	@ pChanOption_7(D)->s32MaxSliceNum, pChanOption_7(D)->s32MaxSliceNum
	movw	lr, #4060	@ tmp171,
	ldr	r2, [r4, #28]	@ pChanOption_7(D)->s32MaxPpsNum, pChanOption_7(D)->s32MaxPpsNum
	movw	r3, #14840	@ D.39885,
	mul	r1, ip, r1	@ D.39885, tmp174, pChanOption_7(D)->s32MaxSpsNum
	movt	r3, 8	@ D.39885,
	mla	r1, lr, r0, r1	@ D.39885, tmp171, pChanOption_7(D)->s32MaxSliceNum, D.39885
	mov	r0, #2208	@ tmp180,
	add	r3, r1, r3	@ D.39885, D.39885, D.39885
	mla	r3, r0, r2, r3	@ D.39885, tmp180, pChanOption_7(D)->s32MaxPpsNum, D.39885
	str	r3, [r5, #8]	@ D.39885, pDetailMemSize_23(D)->ChanCtxDetailMem
.L957:
	mov	r0, r6	@, D.39882
	add	sp, sp, #444	@,,
	@ sp needed	@
	ldmfd	sp!, {r4, r5, r6, r7, r8, r9, r10, fp, pc}	@
.L967:
	add	r7, r10, #1	@ PmvNum, D.39883,
	cmp	r7, #17	@ PmvNum,
	mov	fp, r7	@ D.39882, PmvNum
	movge	r7, #17	@ PmvNum,
	b	.L959	@
.L968:
	mov	r6, r3	@ D.39882, D.39883
	movw	r2, #14840	@ tmp168,
	movt	r2, 8	@ tmp168,
	mov	r0, r6	@, D.39882
	str	r2, [r5, #8]	@ tmp168, pDetailMemSize_23(D)->ChanCtxDetailMem
	add	sp, sp, #444	@,,
	@ sp needed	@
	ldmfd	sp!, {r4, r5, r6, r7, r8, r9, r10, fp, pc}	@
.L962:
	movw	r3, #5638	@,
	ldr	r2, .L969+4	@,
	ldr	r1, .L969+8	@,
	mov	r0, #0	@,
	bl	dprint_vfmw	@
	mvn	r6, #0	@ D.39882,
	mov	r0, r6	@, D.39882
	add	sp, sp, #444	@,,
	@ sp needed	@
	ldmfd	sp!, {r4, r5, r6, r7, r8, r9, r10, fp, pc}	@
.L964:
	mvn	r6, #0	@ D.39882,
	b	.L957	@
.L970:
	.align	2
.L969:
	.word	g_vdm_hal_fun_ptr
	.word	.LANCHOR1+84
	.word	.LC123
	.fnend
	.size	VCTRL_GetMemSize_onDecode, .-VCTRL_GetMemSize_onDecode
	.align	2
	.global	VCTRL_GetChanMemSizeWithOption
	.type	VCTRL_GetChanMemSizeWithOption, %function
VCTRL_GetChanMemSizeWithOption:
	.fnstart
	@ args = 0, pretend = 0, frame = 0
	@ frame_needed = 0, uses_anonymous_args = 0
	cmp	r3, #2	@ flag,
	stmfd	sp!, {r4, r5, r6, r7, r8, lr}	@,
	.save {r4, r5, r6, r7, r8, lr}
	.pad #8
	sub	sp, sp, #8	@,,
	beq	.L972	@,
	ldr	ip, .L990	@ tmp132,
	ldr	r4, [r1, #32]	@ D.39891, pChanOption_8(D)->s32MaxRefFrameNum
	ldr	r5, [r1, #60]	@ D.39891, pChanOption_8(D)->s32DisplayFrameNum
	ldr	r6, [ip, #3660]	@ D.39891, extra_ref
	ldr	r7, [ip, #3664]	@ D.39891, extra_disp
	add	ip, r4, r6	@ TempRefNum, D.39891, D.39891
	cmp	ip, #16	@ TempRefNum,
	add	lr, r5, r7	@ TempDispNum, D.39891, D.39891
	movge	ip, #16	@ TempRefNum,
	orrs	r8, ip, lr	@ tmp154, TempRefNum, TempDispNum
	bmi	.L985	@,
	clz	r3, r3	@ tmp150, flag
	cmp	r0, #25	@ eCapLevel,
	str	ip, [r1, #32]	@ TempRefNum, pChanOption_8(D)->s32MaxRefFrameNum
	mov	r3, r3, lsr #5	@ tmp150, tmp150,
	moveq	r3, #0	@ tmp150,
	cmp	r3, #0	@ tmp150,
	str	lr, [r1, #60]	@ TempDispNum, pChanOption_8(D)->s32DisplayFrameNum
	bne	.L986	@,
.L972:
	ldr	r3, [r1, #4]	@ D.39893, pChanOption_8(D)->Purpose
	cmp	r3, #2	@ D.39893,
	bhi	.L987	@,
	beq	.L988	@,
	cmp	r3, #1	@ D.39893,
	beq	.L989	@,
.L974:
	mvn	r0, #0	@,
	add	sp, sp, #8	@,,
	@ sp needed	@
	ldmfd	sp!, {r4, r5, r6, r7, r8, pc}	@
.L988:
	add	sp, sp, #8	@,,
	@ sp needed	@
	ldmfd	sp!, {r4, r5, r6, r7, r8, lr}	@
	b	VCTRL_GetMemSize_onFramePath	@
.L989:
	add	sp, sp, #8	@,,
	@ sp needed	@
	ldmfd	sp!, {r4, r5, r6, r7, r8, lr}	@
	b	VCTRL_GetMemSize_onDecode	@
.L986:
	ldr	r1, .L990+4	@,
	mov	r0, #32	@,
	bl	dprint_vfmw	@
	b	.L974	@
.L987:
	ldr	r1, .L990+8	@,
	mov	r0, #32	@,
	bl	dprint_vfmw	@
	b	.L974	@
.L985:
	str	r7, [sp, #4]	@ D.39891,
	mov	r3, r6	@, D.39891
	str	r5, [sp]	@ D.39891,
	mov	r2, r4	@, D.39891
	ldr	r1, .L990+12	@,
	mov	r0, #32	@,
	bl	dprint_vfmw	@
	b	.L974	@
.L991:
	.align	2
.L990:
	.word	.LANCHOR0
	.word	.LC125
	.word	.LC126
	.word	.LC124
	.fnend
	.size	VCTRL_GetChanMemSizeWithOption, .-VCTRL_GetChanMemSizeWithOption
	.align	2
	.global	VCTRL_GetChanMemSize
	.type	VCTRL_GetChanMemSize, %function
VCTRL_GetChanMemSize:
	.fnstart
	@ args = 0, pretend = 0, frame = 440
	@ frame_needed = 0, uses_anonymous_args = 0
	stmfd	sp!, {r4, r5, r6, r7, r8, r9, r10, fp, lr}	@,
	.save {r4, r5, r6, r7, r8, r9, r10, fp, lr}
	.pad #476
	sub	sp, sp, #476	@,,
	mov	r3, r0, asl #5	@ tmp312, eCapLevel,
	mov	r5, r0, asl #2	@ tmp311, eCapLevel,
	ldr	r10, .L1016	@ tmp314,
	mov	fp, r2	@ ScdMemSize, ScdMemSize
	str	r3, [sp, #52]	@ tmp312, %sfp
	rsb	r3, r5, r3	@ tmp166, tmp311, tmp312
	add	r3, r10, r3	@ tmp167, tmp314, tmp166
	mov	r6, r0	@ eCapLevel, eCapLevel
	sub	r0, r0, #18	@ tmp190, eCapLevel,
	str	r1, [sp, #36]	@ VdmMemSize, %sfp
	ldr	r2, [r3, #16]	@ nMiddleFrame, CapItem
	ldr	r9, [r3, #12]	@ nMinFrame, CapItem
	ldr	ip, [r3, #8]	@ nPmv, CapItem
	str	r2, [sp, #44]	@ nMiddleFrame, %sfp
	ldr	r2, [r3, #20]	@ nFluentFrame, CapItem
	str	r2, [sp, #48]	@ nFluentFrame, %sfp
	cmp	r0, #7	@ tmp190,
	ldrls	pc, [pc, r0, asl #2]	@ tmp190
	b	.L993	@
.L995:
	.word	.L1009
	.word	.L1009
	.word	.L1009
	.word	.L1009
	.word	.L1009
	.word	.L996
	.word	.L996
	.word	.L996
.L1009:
	mov	r3, #3	@ MinDnrFspNum,
.L994:
	ldr	r8, .L1016+4	@ tmp313,
	rsb	r3, r3, r9	@ s32MaxRefFrameNum, MinDnrFspNum, nMinFrame
	cmp	r3, #15	@ s32MaxRefFrameNum,
	ldr	r4, [r8, #3660]	@ extra_ref, extra_ref
	bic	r4, r4, r4, asr #31	@ extra_ref_tmp, extra_ref
	str	r4, [r8, #3660]	@ extra_ref_tmp, extra_ref
	movgt	r4, #0	@ extra_ref_tmp,
	bgt	.L997	@,
	add	r3, r3, r4	@ D.39902, s32MaxRefFrameNum, extra_ref_tmp
	cmp	r3, #16	@ D.39902,
	rsbgt	r3, r3, #16	@ D.39902, D.39902,
	addgt	r4, r4, r3	@ extra_ref_tmp, extra_ref_tmp, D.39902
.L997:
	add	r3, ip, r4	@ TempPmv, nPmv, extra_ref_tmp
	ldr	r7, [r8, #3664]	@ D.39902, extra_disp
	cmp	r3, #0	@ TempPmv,
	ble	.L1013	@,
	cmp	r3, #17	@ TempPmv,
	movge	r3, #17	@ nPmv,
	str	r3, [sp, #40]	@ nPmv, %sfp
.L999:
	cmp	r6, #23	@ eCapLevel,
	bhi	.L1000	@,
	ldr	r3, [sp, #44]	@ nMiddleFrame, %sfp
	add	r7, r4, r7	@ D.39902, extra_ref_tmp, D.39902
	add	r2, r7, r9	@ nMinFrame, D.39902, nMinFrame
	add	r1, r3, r7	@ nMiddleFrame, nMiddleFrame, D.39902
	ldr	r3, [sp, #48]	@ nFluentFrame, %sfp
	cmp	r2, #0	@ nMinFrame,
	cmpgt	r1, #0	@, nMiddleFrame,
	add	r7, r3, r7	@ nFluentFrame, nFluentFrame, D.39902
	movle	r3, #1	@ tmp201,
	movgt	r3, #0	@ tmp201,
	cmp	r7, #0	@ nFluentFrame,
	orrle	r3, r3, #1	@,, tmp207, tmp201
	cmp	r3, #0	@ tmp207,
	streq	r7, [sp, #48]	@ nFluentFrame, %sfp
	streq	r1, [sp, #44]	@ nMiddleFrame, %sfp
	moveq	r9, r2	@ nMinFrame, nMinFrame
	bne	.L1014	@,
.L1000:
	cmp	r6, #32	@ eCapLevel,
	bhi	.L1015	@,
	ldr	r6, .L1016+8	@ tmp211,
	ldr	ip, [r6, #36]	@ D.39904, g_vdm_hal_fun_ptr.pfun_VDMHAL_ArrangeMem
	cmp	ip, #0	@ D.39904,
	beq	.L1004	@,
	ldr	r3, [sp, #52]	@ tmp312, %sfp
	mov	r0, #0	@ tmp231,
	str	r9, [sp, #4]	@ nMinFrame,
	add	r8, sp, #56	@ tmp229,,
	rsb	r5, r5, r3	@ tmp217, tmp311, tmp312
	ldr	r3, [sp, #40]	@ nPmv, %sfp
	add	r4, r10, r5	@ tmp218, tmp314, tmp217
	mov	r9, #64	@ tmp228,
	ldr	r2, [r10, r5]	@ tmp227, CapItem
	mvn	r7, #0	@ tmp230,
	str	r3, [sp]	@ nPmv,
	mvn	r1, #-2147483648	@,
	ldr	r3, [r4, #4]	@ tmp220, CapItem
	str	r0, [sp, #8]	@ tmp231,
	mov	r0, #1	@,
	str	r9, [sp, #20]	@ tmp228,
	str	r8, [sp, #16]	@ tmp229,
	str	r7, [sp, #12]	@ tmp230,
	blx	ip	@ D.39904
	ldr	r10, .L1016	@ tmp213,
	cmp	r0, #0	@ ret
	bne	.L1004	@,
	ldr	r3, [sp, #60]	@ MemArrange.TotalMemUsed, MemArrange.TotalMemUsed
	ldr	r2, [sp, #36]	@ VdmMemSize, %sfp
	add	r3, r3, #47104	@ D.39902, MemArrange.TotalMemUsed,
	add	r3, r3, #16	@ D.39902, D.39902,
	str	r3, [r2]	@ D.39902, *VdmMemSize_53(D)
	ldr	r3, [r4, #24]	@ tmp243, CapItem
	add	r3, r3, #32768	@ D.39902, tmp243,
	str	r3, [fp]	@ D.39902, *ScdMemSize_61(D)
	ldr	ip, [r6, #36]	@ D.39904, g_vdm_hal_fun_ptr.pfun_VDMHAL_ArrangeMem
	cmp	ip, #0	@ D.39904,
	beq	.L1006	@,
	ldr	lr, [sp, #44]	@ nMiddleFrame, %sfp
	mvn	r1, #-2147483648	@,
	ldr	r3, [r4, #4]	@ tmp253, CapItem
	ldr	r2, [r10, r5]	@ tmp260, CapItem
	str	lr, [sp, #4]	@ nMiddleFrame,
	ldr	lr, [sp, #40]	@ nPmv, %sfp
	str	r0, [sp, #8]	@ ret,
	mov	r0, #1	@,
	str	r9, [sp, #20]	@ tmp228,
	str	lr, [sp]	@ nPmv,
	str	r8, [sp, #16]	@ tmp229,
	str	r7, [sp, #12]	@ tmp230,
	blx	ip	@ D.39904
	subs	lr, r0, #0	@ ret,
	bne	.L1006	@,
	ldr	r3, [sp, #60]	@ MemArrange.TotalMemUsed, MemArrange.TotalMemUsed
	ldr	r2, [sp, #36]	@ VdmMemSize, %sfp
	add	r3, r3, #47104	@ D.39902, MemArrange.TotalMemUsed,
	add	r3, r3, #16	@ D.39902, D.39902,
	str	r3, [r2, #4]	@ D.39902, MEM[(HI_S32 *)VdmMemSize_53(D) + 4B]
	ldr	r3, [r4, #24]	@ tmp276, CapItem
	add	r3, r3, #32768	@ D.39902, tmp276,
	str	r3, [fp, #4]	@ D.39902, MEM[(HI_S32 *)ScdMemSize_61(D) + 4B]
	ldr	ip, [r6, #36]	@ D.39904, g_vdm_hal_fun_ptr.pfun_VDMHAL_ArrangeMem
	cmp	ip, #0	@ D.39904,
	beq	.L1008	@,
	ldr	r3, [r4, #4]	@ tmp286, CapItem
	mvn	r1, #-2147483648	@,
	str	lr, [sp, #8]	@ ret,
	mov	r0, #1	@,
	ldr	lr, [sp, #48]	@ nFluentFrame, %sfp
	ldr	r2, [r10, r5]	@ tmp293, CapItem
	str	r9, [sp, #20]	@ tmp228,
	str	lr, [sp, #4]	@ nFluentFrame,
	ldr	lr, [sp, #40]	@ nPmv, %sfp
	str	r8, [sp, #16]	@ tmp229,
	str	r7, [sp, #12]	@ tmp230,
	str	lr, [sp]	@ nPmv,
	blx	ip	@ D.39904
	cmp	r0, #0	@ ret
	bne	.L1008	@,
	ldr	r3, [sp, #60]	@ MemArrange.TotalMemUsed, MemArrange.TotalMemUsed
	ldr	r2, [sp, #36]	@ VdmMemSize, %sfp
	add	r3, r3, #47104	@ D.39902, MemArrange.TotalMemUsed,
	add	r3, r3, #16	@ D.39902, D.39902,
	str	r3, [r2, #8]	@ D.39902, MEM[(HI_S32 *)VdmMemSize_53(D) + 8B]
	ldr	r3, [r4, #24]	@ tmp309, CapItem
	add	r3, r3, #32768	@ D.39902, tmp309,
	str	r3, [fp, #8]	@ D.39902, MEM[(HI_S32 *)ScdMemSize_61(D) + 8B]
.L1002:
	add	sp, sp, #476	@,,
	@ sp needed	@
	ldmfd	sp!, {r4, r5, r6, r7, r8, r9, r10, fp, pc}	@
.L996:
	mov	r3, #1	@ MinDnrFspNum,
	b	.L994	@
.L1014:
	ldr	r1, [r8, #3664]	@ D.39902, extra_disp
	mov	r3, r4	@, extra_ref_tmp
	ldr	r0, [sp, #48]	@ nFluentFrame, %sfp
	mov	r2, r9	@, nMinFrame
	str	r4, [sp, #20]	@ extra_ref_tmp,
	str	r1, [sp, #24]	@ D.39902,
	str	r1, [sp, #12]	@ D.39902,
	str	r1, [sp]	@ D.39902,
	ldr	r1, [sp, #44]	@ nMiddleFrame, %sfp
	str	r0, [sp, #16]	@ nFluentFrame,
	mov	r0, #32	@,
	str	r4, [sp, #8]	@ extra_ref_tmp,
	str	r1, [sp, #4]	@ nMiddleFrame,
	ldr	r1, .L1016+12	@,
	bl	dprint_vfmw	@
	b	.L1000	@
.L993:
	mov	r3, #6	@ MinDnrFspNum,
	b	.L994	@
.L1004:
	movw	r2, #5837	@,
	ldr	r1, .L1016+16	@,
	mov	r0, #0	@,
	bl	dprint_vfmw	@
	mvn	r0, #0	@ D.39901,
	add	sp, sp, #476	@,,
	@ sp needed	@
	ldmfd	sp!, {r4, r5, r6, r7, r8, r9, r10, fp, pc}	@
.L1006:
	movw	r2, #5855	@,
	ldr	r1, .L1016+16	@,
	mov	r0, #0	@,
	bl	dprint_vfmw	@
	mvn	r0, #0	@ D.39901,
	add	sp, sp, #476	@,,
	@ sp needed	@
	ldmfd	sp!, {r4, r5, r6, r7, r8, r9, r10, fp, pc}	@
.L1008:
	movw	r2, #5873	@,
	ldr	r1, .L1016+16	@,
	mov	r0, #0	@,
	bl	dprint_vfmw	@
	mvn	r0, #0	@ D.39901,
	add	sp, sp, #476	@,,
	@ sp needed	@
	ldmfd	sp!, {r4, r5, r6, r7, r8, r9, r10, fp, pc}	@
.L1013:
	mov	r3, r4	@, extra_ref_tmp
	mov	r2, ip	@, nPmv
	ldr	r1, .L1016+20	@,
	mov	r0, #32	@,
	str	ip, [sp, #40]	@ nPmv, %sfp
	bl	dprint_vfmw	@
	ldr	ip, [sp, #40]	@ nPmv, %sfp
	cmp	ip, #17	@ nPmv,
	movlt	r3, ip	@ nPmv, nPmv
	movge	r3, #17	@ nPmv,
	str	r3, [sp, #40]	@ nPmv, %sfp
	b	.L999	@
.L1015:
	mov	r2, r6	@, eCapLevel
	ldr	r1, .L1016+24	@,
	mov	r0, #1	@,
	bl	dprint_vfmw	@
	mvn	r0, #0	@ D.39901,
	b	.L1002	@
.L1017:
	.align	2
.L1016:
	.word	CapItem
	.word	.LANCHOR0
	.word	g_vdm_hal_fun_ptr
	.word	.LC128
	.word	.LC130
	.word	.LC127
	.word	.LC129
	.fnend
	.size	VCTRL_GetChanMemSize, .-VCTRL_GetChanMemSize
	.align	2
	.global	CloseDrivers
	.type	CloseDrivers, %function
CloseDrivers:
	.fnstart
	@ args = 0, pretend = 0, frame = 0
	@ frame_needed = 0, uses_anonymous_args = 0
	stmfd	sp!, {r4, r5, r6, r7, r8, lr}	@,
	.save {r4, r5, r6, r7, r8, lr}
	mov	r4, r0	@ pstDrvMem, pstDrvMem
	ldr	r5, [r0, #12]	@ Length, MEM[(struct MEM_RECORD_S *)pstDrvMem_13(D)].stVdmHalMem[0].Length
	ldr	r6, [r0, #8]	@ PhyAddr, MEM[(struct MEM_RECORD_S *)pstDrvMem_13(D)].stVdmHalMem[0].PhyAddr
	cmp	r5, #0	@ Length,
	ldr	r7, [r0, #4]	@ VirAddr, MEM[(struct MEM_RECORD_S *)pstDrvMem_13(D)].stVdmHalMem[0].VirAddr
	beq	.L1019	@,
	ldr	r3, .L1054	@ tmp141,
	ldr	r3, [r3, #32]	@ D.39913, g_vdm_hal_fun_ptr.pfun_VDMHAL_CloseHAL
	cmp	r3, #0	@ D.39913,
	beq	.L1049	@,
	mov	r0, #0	@,
	blx	r3	@ D.39913
.L1022:
	ldr	r1, [r4, #4]	@, MEM[(struct MEM_RECORD_S *)pstDrvMem_13(D)].stVdmHalMem[0].VirAddr
	ldr	r0, [r4, #8]	@, MEM[(struct MEM_RECORD_S *)pstDrvMem_13(D)].stVdmHalMem[0].PhyAddr
	bl	MEM_ReleaseMemBlock	@
	mov	r1, #16	@,
	mov	r0, r4	@, pstDrvMem
	bl	__memzero	@
.L1019:
	mov	r2, r5	@, Length
	mov	r1, r7	@, VirAddr
	mov	r0, r6	@, PhyAddr
	bl	MEM_DelMemRecord	@
	ldr	r5, [r4, #28]	@ Length, MEM[(struct MEM_RECORD_S *)pstDrvMem_13(D) + 16B].Length
	ldr	r6, [r4, #24]	@ PhyAddr, MEM[(struct MEM_RECORD_S *)pstDrvMem_13(D) + 16B].PhyAddr
	cmp	r5, #0	@ Length,
	ldr	r7, [r4, #20]	@ VirAddr, MEM[(struct MEM_RECORD_S *)pstDrvMem_13(D) + 16B].VirAddr
	bne	.L1050	@,
.L1023:
	mov	r2, r5	@, Length
	mov	r1, r7	@, VirAddr
	mov	r0, r6	@, PhyAddr
	bl	MEM_DelMemRecord	@
	ldr	r5, [r4, #44]	@ Length, MEM[(struct MEM_RECORD_S *)pstDrvMem_13(D)].stVdmReg[0].Length
	ldr	r6, [r4, #40]	@ PhyAddr, MEM[(struct MEM_RECORD_S *)pstDrvMem_13(D)].stVdmReg[0].PhyAddr
	cmp	r5, #0	@ Length,
	ldr	r7, [r4, #36]	@ VirAddr, MEM[(struct MEM_RECORD_S *)pstDrvMem_13(D)].stVdmReg[0].VirAddr
	bne	.L1051	@,
.L1024:
	mov	r2, r5	@, Length
	mov	r1, r7	@, VirAddr
	mov	r0, r6	@, PhyAddr
	bl	MEM_DelMemRecord	@
	ldr	r5, [r4, #76]	@ Length, MEM[(struct MEM_RECORD_S *)pstDrvMem_13(D) + 64B].Length
	ldr	r6, [r4, #72]	@ PhyAddr, MEM[(struct MEM_RECORD_S *)pstDrvMem_13(D) + 64B].PhyAddr
	cmp	r5, #0	@ Length,
	ldr	r7, [r4, #68]	@ VirAddr, MEM[(struct MEM_RECORD_S *)pstDrvMem_13(D) + 64B].VirAddr
	bne	.L1052	@,
.L1025:
	mov	r2, r5	@, Length
	mov	r1, r7	@, VirAddr
	mov	r0, r6	@, PhyAddr
	bl	MEM_DelMemRecord	@
	ldr	r5, [r4, #60]	@ Length, MEM[(struct MEM_RECORD_S *)pstDrvMem_13(D) + 48B].Length
	ldr	r6, [r4, #56]	@ PhyAddr, MEM[(struct MEM_RECORD_S *)pstDrvMem_13(D) + 48B].PhyAddr
	cmp	r5, #0	@ Length,
	ldr	r7, [r4, #52]	@ VirAddr, MEM[(struct MEM_RECORD_S *)pstDrvMem_13(D) + 48B].VirAddr
	bne	.L1053	@,
.L1026:
	mov	r2, r5	@, Length
	mov	r1, r7	@, VirAddr
	mov	r0, r6	@, PhyAddr
	bl	MEM_DelMemRecord	@
	ldr	r5, [r4, #92]	@ Length, MEM[(struct MEM_RECORD_S *)pstDrvMem_13(D) + 80B].Length
	ldr	r6, [r4, #88]	@ PhyAddr, MEM[(struct MEM_RECORD_S *)pstDrvMem_13(D) + 80B].PhyAddr
	cmp	r5, #0	@ Length,
	ldr	r7, [r4, #84]	@ VirAddr, MEM[(struct MEM_RECORD_S *)pstDrvMem_13(D) + 80B].VirAddr
	beq	.L1027	@,
	mov	r1, r7	@, VirAddr
	mov	r0, r6	@, PhyAddr
	bl	MEM_UnmapRegisterAddr	@
	add	r0, r4, #80	@, pstDrvMem,
	mov	r1, #16	@,
	bl	__memzero	@
.L1027:
	mov	r2, r5	@, Length
	mov	r1, r7	@, VirAddr
	mov	r0, r6	@, PhyAddr
	bl	MEM_DelMemRecord	@
	ldr	r2, .L1054+4	@,
	ldr	r1, .L1054+8	@,
	mov	r0, #70	@,
	bl	osal_free_irq	@
	ldr	r2, .L1054+4	@,
	ldr	r1, .L1054+12	@,
	mov	r0, #73	@,
	bl	osal_free_irq	@
	ldr	r2, .L1054+4	@,
	ldr	r1, .L1054+16	@,
	mov	r0, #93	@,
	bl	osal_free_irq	@
	mov	r0, #0	@,
	ldmfd	sp!, {r4, r5, r6, r7, r8, pc}	@
.L1053:
	mov	r1, r7	@, VirAddr
	mov	r0, r6	@, PhyAddr
	bl	MEM_UnmapRegisterAddr	@
	mov	r1, #16	@,
	add	r0, r4, #48	@, pstDrvMem,
	bl	__memzero	@
	b	.L1026	@
.L1052:
	mov	r1, r7	@, VirAddr
	mov	r0, r6	@, PhyAddr
	bl	MEM_UnmapRegisterAddr	@
	mov	r1, #16	@,
	add	r0, r4, #64	@, pstDrvMem,
	bl	__memzero	@
	b	.L1025	@
.L1051:
	mov	r1, r7	@, VirAddr
	mov	r0, r6	@, PhyAddr
	bl	MEM_UnmapRegisterAddr	@
	mov	r1, #16	@,
	add	r0, r4, #32	@, pstDrvMem,
	bl	__memzero	@
	b	.L1024	@
.L1050:
	bl	SM_CloseSCDDrv	@
	ldr	r1, [r4, #20]	@, MEM[(struct MEM_RECORD_S *)pstDrvMem_13(D) + 16B].VirAddr
	ldr	r0, [r4, #24]	@, MEM[(struct MEM_RECORD_S *)pstDrvMem_13(D) + 16B].PhyAddr
	bl	MEM_ReleaseMemBlock	@
	mov	r1, #16	@,
	add	r0, r4, r1	@, pstDrvMem,
	bl	__memzero	@
	b	.L1023	@
.L1049:
	mov	r0, r3	@, D.39913
	movw	r2, #6131	@,
	ldr	r1, .L1054+20	@,
	bl	dprint_vfmw	@
	b	.L1022	@
.L1055:
	.align	2
.L1054:
	.word	g_vdm_hal_fun_ptr
	.word	.LANCHOR0+3668
	.word	.LC131
	.word	.LC132
	.word	.LC133
	.word	.LC32
	.fnend
	.size	CloseDrivers, .-CloseDrivers
	.align	2
	.global	OpenDrivers
	.type	OpenDrivers, %function
OpenDrivers:
	.fnstart
	@ args = 0, pretend = 0, frame = 24
	@ frame_needed = 0, uses_anonymous_args = 0
	stmfd	sp!, {r4, r5, r6, r7, lr}	@,
	.save {r4, r5, r6, r7, lr}
	mov	r4, r0	@ pstDrvMem, pstDrvMem
	mov	r0, #0	@,
	.pad #36
	sub	sp, sp, #36	@,,
	add	r2, r4, #32	@, pstDrvMem,
	movt	r0, 4115	@,
	mov	r1, #4096	@,
	bl	MEM_MapRegisterAddr	@
	cmp	r0, #0	@,
	bne	.L1057	@,
	ldr	r2, [r4, #44]	@, MEM[(struct MEM_RECORD_S *)pstDrvMem_4(D)].stVdmReg[0].Length
	add	r6, r4, #64	@ __p, pstDrvMem,
	ldr	r1, [r4, #36]	@, MEM[(struct MEM_RECORD_S *)pstDrvMem_4(D)].stVdmReg[0].VirAddr
	ldr	r0, [r4, #40]	@, MEM[(struct MEM_RECORD_S *)pstDrvMem_4(D)].stVdmReg[0].PhyAddr
	bl	MEM_AddMemRecord	@
	mov	r0, #0	@,
	mov	r2, r6	@, __p
	movt	r0, 4116	@,
	mov	r1, #4096	@,
	bl	MEM_MapRegisterAddr	@
	cmp	r0, #0	@,
	bne	.L1089	@,
	ldr	r5, .L1091	@ tmp165,
	ldr	r3, [r5, #16]	@ D.39934, g_vdm_hal_fun_ptr.pfun_BPDDRV_OpenHardware
	cmp	r3, #0	@ D.39934,
	beq	.L1089	@,
	blx	r3	@ D.39934
	cmp	r0, #0	@,
	bne	.L1089	@,
	ldr	r2, [r4, #76]	@, MEM[(struct MEM_RECORD_S *)pstDrvMem_4(D) + 64B].Length
	add	r7, r4, #48	@ __p, pstDrvMem,
	ldr	r1, [r4, #68]	@, MEM[(struct MEM_RECORD_S *)pstDrvMem_4(D) + 64B].VirAddr
	ldr	r0, [r4, #72]	@, MEM[(struct MEM_RECORD_S *)pstDrvMem_4(D) + 64B].PhyAddr
	bl	MEM_AddMemRecord	@
	mov	r0, #49152	@,
	mov	r2, r7	@, __p
	movt	r0, 4115	@,
	mov	r1, #4096	@,
	bl	MEM_MapRegisterAddr	@
	cmp	r0, #0	@,
	bne	.L1070	@,
	ldr	r2, [r4, #60]	@, MEM[(struct MEM_RECORD_S *)pstDrvMem_4(D) + 48B].Length
	ldr	r1, [r4, #52]	@, MEM[(struct MEM_RECORD_S *)pstDrvMem_4(D) + 48B].VirAddr
	ldr	r0, [r4, #56]	@, MEM[(struct MEM_RECORD_S *)pstDrvMem_4(D) + 48B].PhyAddr
	bl	MEM_AddMemRecord	@
	movw	r0, #20600	@,
	mov	r2, r7	@, __p
	mov	r1, #4096	@,
	movt	r0, 4127	@,
	bl	MEM_MapRegisterAddr	@
	subs	r6, r0, #0	@ D.39933,
	bne	.L1070	@,
	ldr	r2, [r4, #60]	@, MEM[(struct MEM_RECORD_S *)pstDrvMem_4(D) + 48B].Length
	ldr	r1, [r4, #52]	@, MEM[(struct MEM_RECORD_S *)pstDrvMem_4(D) + 48B].VirAddr
	ldr	r0, [r4, #56]	@, MEM[(struct MEM_RECORD_S *)pstDrvMem_4(D) + 48B].PhyAddr
	bl	MEM_AddMemRecord	@
	mov	r3, r6	@, D.39933
	add	r0, sp, #12	@ tmp214,,
	ldr	r2, .L1091+4	@,
	mov	r1, #20	@,
	bl	snprintf	@
	ldr	r3, [r5, #24]	@ D.39934, g_vdm_hal_fun_ptr.pfun_VDMHAL_GetHalMemSize
	cmp	r3, #0	@ D.39934,
	beq	.L1066	@,
	blx	r3	@ D.39934
	subs	r2, r0, #0	@ Size,
	ble	.L1066	@,
	str	r6, [sp]	@ D.39933,
	mov	r1, r6	@, D.39933
	add	r0, sp, #12	@ tmp215,,
	mov	r3, r4	@, pstDrvMem
	bl	MEM_AllocMemBlock	@
	cmp	r0, #0	@,
	bne	.L1070	@,
	ldr	r2, [r4, #12]	@, MEM[(struct MEM_RECORD_S *)pstDrvMem_4(D)].stVdmHalMem[0].Length
	ldr	r1, [r4, #4]	@, MEM[(struct MEM_RECORD_S *)pstDrvMem_4(D)].stVdmHalMem[0].VirAddr
	ldr	r0, [r4, #8]	@, MEM[(struct MEM_RECORD_S *)pstDrvMem_4(D)].stVdmHalMem[0].PhyAddr
	bl	MEM_AddMemRecord	@
	ldr	r3, [r5, #28]	@ D.39937, g_vdm_hal_fun_ptr.pfun_VDMHAL_OpenHAL
	cmp	r3, #0	@ D.39937,
	beq	.L1070	@,
	mov	r2, #0	@,
	ldr	r1, [r4, #12]	@, MEM[(struct MEM_RECORD_S *)pstDrvMem_4(D)].stVdmHalMem[0].Length
	ldr	r0, [r4, #8]	@, MEM[(struct MEM_RECORD_S *)pstDrvMem_4(D)].stVdmHalMem[0].PhyAddr
	blx	r3	@ D.39937
	subs	r5, r0, #0	@ D.39933,
	bne	.L1070	@,
	bl	VDMDRV_Init	@
	add	r6, r4, #16	@ __p, pstDrvMem,
	bl	get_scd_msg_size	@
	str	r5, [sp]	@ D.39933,
	mov	r1, r5	@, D.39933
	mov	r3, r6	@, __p
	mov	r2, r0	@,
	ldr	r0, .L1091+8	@,
	bl	MEM_AllocMemBlock	@
	cmp	r0, #0	@,
	bne	.L1089	@,
	ldr	r2, [r4, #28]	@, MEM[(struct MEM_RECORD_S *)pstDrvMem_4(D) + 16B].Length
	ldr	r1, [r4, #20]	@, MEM[(struct MEM_RECORD_S *)pstDrvMem_4(D) + 16B].VirAddr
	ldr	r0, [r4, #24]	@, MEM[(struct MEM_RECORD_S *)pstDrvMem_4(D) + 16B].PhyAddr
	bl	MEM_AddMemRecord	@
	movw	r3, #20600	@,
	mov	r2, #49152	@,
	movt	r3, 4127	@,
	movt	r2, 4115	@,
	ldr	r1, [r4, #28]	@, MEM[(struct MEM_RECORD_S *)pstDrvMem_4(D) + 16B].Length
	ldr	r0, [r4, #24]	@, MEM[(struct MEM_RECORD_S *)pstDrvMem_4(D) + 16B].PhyAddr
	bl	SM_OpenSCDDrv	@
	cmp	r0, #0	@,
	bne	.L1089	@,
	ldr	r5, .L1091+12	@ tmp201,
	mov	r2, #128	@,
	ldr	r3, .L1091+16	@,
	mov	r0, #70	@,
	ldr	r1, .L1091+20	@,
	str	r5, [sp]	@ tmp201,
	bl	osal_request_irq	@
	cmp	r0, #0	@,
	bne	.L1089	@,
	str	r5, [sp]	@ tmp201,
	mov	r2, #128	@,
	ldr	r3, .L1091+24	@,
	mov	r0, #73	@,
	ldr	r1, .L1091+28	@,
	bl	osal_request_irq	@
	subs	r7, r0, #0	@ D.39933,
	bne	.L1089	@,
	str	r5, [sp]	@ tmp201,
	mov	r2, #128	@,
	ldr	r3, .L1091+32	@,
	mov	r0, #93	@,
	ldr	r1, .L1091+36	@,
	bl	osal_request_irq	@
	cmp	r0, #0	@ D.39932
	bne	.L1090	@,
.L1077:
	add	sp, sp, #36	@,,
	@ sp needed	@
	ldmfd	sp!, {r4, r5, r6, r7, pc}	@
.L1090:
	bl	DNR_Close	@
	mov	r0, r7	@ D.39932, D.39933
	add	sp, sp, #36	@,,
	@ sp needed	@
	ldmfd	sp!, {r4, r5, r6, r7, pc}	@
.L1089:
	mov	r0, r6	@, __p
.L1088:
	mov	r1, #16	@,
	bl	__memzero	@
	mov	r0, r4	@, pstDrvMem
	bl	CloseDrivers	@
	mvn	r0, #0	@ D.39932,
	add	sp, sp, #36	@,,
	@ sp needed	@
	ldmfd	sp!, {r4, r5, r6, r7, pc}	@
.L1066:
	mov	r0, #0	@,
	mov	r1, #16	@,
	bl	__memzero	@
	mov	r0, r4	@, pstDrvMem
	bl	CloseDrivers	@
.L1070:
	mov	r0, r7	@, __p
	b	.L1088	@
.L1057:
	mov	r1, #16	@,
	add	r0, r4, #80	@, pstDrvMem,
	bl	__memzero	@
	mov	r0, r4	@, pstDrvMem
	bl	CloseDrivers	@
	mvn	r0, #0	@ D.39932,
	b	.L1077	@
.L1092:
	.align	2
.L1091:
	.word	g_vdm_hal_fun_ptr
	.word	.LC134
	.word	.LC135
	.word	.LANCHOR0+3668
	.word	.LC131
	.word	VCTRL_Isr_0
	.word	.LC132
	.word	VCTRL_Scd_Isr
	.word	.LC133
	.word	VCTRL_Dnr_Isr
	.fnend
	.size	OpenDrivers, .-OpenDrivers
	.align	2
	.global	VCTRL_OpenVfmw
	.type	VCTRL_OpenVfmw, %function
VCTRL_OpenVfmw:
	.fnstart
	@ args = 0, pretend = 0, frame = 8
	@ frame_needed = 0, uses_anonymous_args = 0
	stmfd	sp!, {r4, r5, r6, r7, r8, r9, lr}	@,
	.save {r4, r5, r6, r7, r8, r9, lr}
	.pad #12
	sub	sp, sp, #12	@,,
	ldr	r5, .L1128	@ tmp301,
	ldr	r4, [r5, #16]	@ D.39954, s_VfmwCTrl.s32IsVCTRLOpen
	cmp	r4, #0	@ D.39954,
	bne	.L1114	@,
	ldr	r7, .L1128+4	@ tmp300,
	mov	r2, #1024	@,
	mov	r6, r0	@ event_report, event_report
	ldr	r0, .L1128+8	@,
	str	r4, [sp, #4]	@ D.39954, p
	ldr	r1, [r7]	@, saved_command_line
	bl	strlcpy	@
	ldr	r1, .L1128+12	@,
	ldr	r0, .L1128+8	@,
	bl	strstr	@
	cmp	r0, #0	@ D.39952,
	str	r0, [sp, #4]	@ D.39952, p
	beq	.L1096	@,
	ldr	r1, .L1128+16	@,
	add	r0, sp, #4	@ tmp304,,
	bl	strsep	@
	cmp	r0, #0	@,
	beq	.L1116	@,
	add	r0, sp, #4	@ tmp305,,
	ldr	r1, .L1128+20	@,
	bl	strsep	@
	cmp	r0, #0	@,
	beq	.L1125	@,
	mov	r2, r4	@, D.39954
	mov	r1, r4	@, D.39954
	bl	simple_strtol	@
	mov	r2, r0	@ D.39951, D.39955
	str	r0, [r5, #3660]	@ D.39955, extra_ref
.L1100:
	add	r3, r2, #4992	@ D.39956, D.39951,
	movw	r1, #10000	@ tmp183,
	add	r3, r3, #8	@ D.39956, D.39956,
	movw	r8, #5000	@ tmp181,
	cmp	r3, r1	@ D.39956, tmp183
	bhi	.L1101	@,
	cmp	r2, r8	@ D.39951, tmp181
	movw	r3, #60536	@ tmp185,
.L1124:
	movt	r3, 65535	@ tmp190,
	movge	r2, r8	@ D.39954, tmp181
	cmp	r2, r3	@ D.39954, tmp190
	movlt	r2, r3	@ D.39954, tmp190
.L1097:
	str	r2, [r5, #3660]	@ D.39954, extra_ref
.L1099:
	mov	r2, #1024	@,
	ldr	r1, [r7]	@, saved_command_line
	ldr	r0, .L1128+8	@,
	mov	r8, #0	@ tmp192,
	str	r8, [sp, #4]	@ tmp192, p
	bl	strlcpy	@
	ldr	r1, .L1128+24	@,
	ldr	r0, .L1128+8	@,
	bl	strstr	@
	ldr	r9, .L1128	@ tmp195,
	cmp	r0, r8	@ D.39952,
	str	r0, [sp, #4]	@ D.39952, p
	beq	.L1102	@,
	ldr	r1, .L1128+16	@,
	add	r0, sp, #4	@ tmp306,,
	bl	strsep	@
	cmp	r0, r8	@,
	beq	.L1103	@,
	add	r0, sp, #4	@ tmp307,,
	ldr	r1, .L1128+20	@,
	bl	strsep	@
	cmp	r0, r8	@,
	beq	.L1126	@,
	mov	r2, r8	@, tmp192
	mov	r1, r8	@, tmp2
	bl	simple_strtol	@
	mov	r2, r0	@ D.39951, D.39955
	str	r0, [r9, #3664]	@ D.39955, extra_disp
.L1106:
	add	r3, r2, #4992	@ D.39956, D.39951,
	movw	r1, #10000	@ tmp213,
	add	r3, r3, #8	@ D.39956, D.39956,
	movw	r8, #5000	@ tmp211,
	cmp	r3, r1	@ D.39956, tmp213
	bhi	.L1107	@,
	cmp	r2, r8	@ D.39951, tmp211
	movw	r3, #60536	@ tmp215,
	movt	r3, 65535	@ tmp215,
	movlt	r4, r2	@ D.39954, D.39951
	movge	r4, r8	@ D.39954, tmp211
	cmp	r4, r3	@ D.39954, tmp215
	movlt	r4, r3	@ D.39954, tmp215
.L1103:
	str	r4, [r5, #3664]	@ D.39954, extra_disp
.L1105:
	ldr	r5, .L1128+28	@ tmp302,
	mov	r3, #0	@ tmp222,
	str	r3, [sp, #4]	@ tmp222, p
	ldr	r4, [r5, #-3488]	@ D.39953, extra_cmd
	cmp	r4, r3	@ D.39953,
	beq	.L1108	@,
	ldr	r3, .L1128+32	@ tmp228,
	ubfx	r2, r4, #1, #1	@ tmp231, D.39953,,
	and	r1, r4, #1	@ tmp226, D.39953,
	ubfx	r4, r4, #2, #1	@ tmp236, D.39953,,
	strb	r1, [r5, #-3484]	@ tmp226, g_allow_B_before_P
	strb	r2, [r3, #64]	@ tmp231, g_not_direct_8x8_inference_flag
	strb	r4, [r5, #-3483]	@ tmp236, g_not_allow_H264FullPictureRepair_flag
.L1109:
	mov	r1, #152	@,
	ldr	r0, .L1128+36	@,
	bl	__memzero	@
	mov	r1, #16	@,
	ldr	r0, .L1128	@,
	bl	__memzero	@
	mov	r1, #16	@,
	ldr	r0, .L1128+40	@,
	bl	__memzero	@
	cmp	r6, #0	@ event_report,
	ldr	r3, .L1128+28	@ tmp273,
	mov	r1, #75497472	@,
	ldreq	r2, .L1128+44	@ tmp277,
	mov	r0, #-2013265920	@,
	ldr	r4, .L1128	@ tmp278,
	streq	r2, [r3, #-3464]	@ tmp277, g_event_report
	bl	MEM_InitMemManager	@
	bl	FSP_Init	@
	bl	ChanCtx_Init	@
	mov	r1, #16	@,
	ldr	r0, .L1128+48	@,
	bl	__memzero	@
	add	r0, r4, #64	@, tmp278,
	bl	OpenDrivers	@
	cmp	r0, #0	@,
	bne	.L1114	@,
	bl	DNR_Init	@
	mov	r1, #1	@,
	add	r0, r4, #272	@, tmp278,
	bl	OSAL_InitEvent	@
	ldr	r2, .L1128+52	@,
	ldr	r1, .L1128+56	@,
	add	r0, r4, #52	@, tmp278,
	bl	OSAL_CreateTask	@
	subs	r5, r0, #0	@ D.39951,
	bne	.L1115	@,
	add	r0, r4, #52	@, tmp278,
	bl	OSAL_WakeupTask	@
	mov	r3, #1	@ tmp295,
	str	r3, [r4, #16]	@ tmp295, s_VfmwCTrl.s32IsVCTRLOpen
.L1095:
	mov	r0, r5	@, D.39951
	add	sp, sp, #12	@,,
	@ sp needed	@
	ldmfd	sp!, {r4, r5, r6, r7, r8, r9, pc}	@
.L1108:
	ldr	r1, [r7]	@, saved_command_line
	mov	r2, #1024	@,
	ldr	r0, .L1128+8	@,
	bl	strlcpy	@
	ldr	r1, .L1128+60	@,
	ldr	r0, .L1128+8	@,
	bl	strstr	@
	cmp	r0, #0	@ D.39952,
	str	r0, [sp, #4]	@ D.39952, p
	beq	.L1109	@,
	ldr	r1, .L1128+16	@,
	add	r0, sp, #4	@ tmp308,,
	bl	strsep	@
	cmp	r0, #0	@,
	ldreq	r0, [r5, #-3488]	@ D.39953, extra_cmd
	beq	.L1111	@,
	add	r0, sp, #4	@ tmp309,,
	ldr	r1, .L1128+20	@,
	bl	strsep	@
	cmp	r0, #0	@,
	beq	.L1127	@,
	mov	r2, r4	@, D.39953
	mov	r1, r4	@, tmp2
	bl	simple_strtol	@
	str	r0, [r5, #-3488]	@ D.39953, extra_cmd
.L1111:
	ldr	r3, .L1128+32	@ tmp260,
	ubfx	r2, r0, #1, #1	@ tmp263, D.39953,,
	and	r1, r0, #1	@ tmp258, D.39953,
	ubfx	r0, r0, #2, #1	@ tmp268, D.39953,,
	strb	r1, [r5, #-3484]	@ tmp258, g_allow_B_before_P
	strb	r2, [r3, #64]	@ tmp263, g_not_direct_8x8_inference_flag
	strb	r0, [r5, #-3483]	@ tmp268, g_not_allow_H264FullPictureRepair_flag
	b	.L1109	@
.L1102:
	ldr	r2, [r9, #3664]	@ D.39951, extra_disp
	b	.L1106	@
.L1096:
	ldr	r2, [r5, #3660]	@ D.39951, extra_ref
	b	.L1100	@
.L1107:
	ldr	r1, .L1128+64	@,
	mov	r0, #32	@,
	bl	dprint_vfmw	@
	ldr	r4, [r5, #3664]	@ extra_disp, extra_disp
	movw	r3, #60536	@ tmp220,
	cmp	r4, r8	@ extra_disp, tmp211
	movt	r3, 65535	@ tmp220,
	movge	r4, r8	@ D.39954, tmp211
	cmp	r4, r3	@ D.39954, tmp220
	movlt	r4, r3	@ D.39954, tmp220
	b	.L1103	@
.L1101:
	ldr	r1, .L1128+68	@,
	mov	r0, #32	@,
	bl	dprint_vfmw	@
	ldr	r2, [r5, #3660]	@ extra_ref, extra_ref
	movw	r3, #60536	@ tmp190,
	cmp	r2, r8	@ extra_ref, tmp181
	b	.L1124	@
.L1116:
	mov	r2, r4	@ D.39954, D.39954
	b	.L1097	@
.L1114:
	mvn	r5, #0	@ D.39951,
	mov	r0, r5	@, D.39951
	add	sp, sp, #12	@,,
	@ sp needed	@
	ldmfd	sp!, {r4, r5, r6, r7, r8, r9, pc}	@
.L1125:
	movw	r3, #7132	@,
	ldr	r2, .L1128+72	@,
	ldr	r1, .L1128+76	@,
	mov	r0, #22	@,
	bl	dprint_vfmw	@
	b	.L1099	@
.L1126:
	movw	r3, #7173	@,
	ldr	r2, .L1128+80	@,
	ldr	r1, .L1128+76	@,
	mov	r0, #22	@,
	bl	dprint_vfmw	@
	b	.L1105	@
.L1115:
	add	r0, r4, #64	@, tmp278,
	mvn	r5, #0	@ D.39951,
	bl	CloseDrivers	@
	b	.L1095	@
.L1127:
	movw	r3, #7223	@,
	ldr	r2, .L1128+84	@,
	ldr	r1, .L1128+76	@,
	mov	r0, #22	@,
	bl	dprint_vfmw	@
	b	.L1109	@
.L1129:
	.align	2
.L1128:
	.word	.LANCHOR0
	.word	saved_command_line
	.word	.LANCHOR0+3672
	.word	.LC136
	.word	.LC137
	.word	.LC138
	.word	.LC141
	.word	.LANCHOR3
	.word	.LANCHOR2
	.word	.LANCHOR0+16
	.word	.LANCHOR3-3480
	.word	VCTRL_EventReport
	.word	.LANCHOR0+3644
	.word	VFMW_CTRL_thread_proc
	.word	.LC144
	.word	.LC143
	.word	.LC142
	.word	.LC140
	.word	.LANCHOR1+112
	.word	.LC139
	.word	.LANCHOR1+132
	.word	.LANCHOR1+152
	.fnend
	.size	VCTRL_OpenVfmw, .-VCTRL_OpenVfmw
	.align	2
	.global	GetNextDecodeMode
	.type	GetNextDecodeMode, %function
GetNextDecodeMode:
	.fnstart
	@ args = 0, pretend = 0, frame = 0
	@ frame_needed = 0, uses_anonymous_args = 0
	stmfd	sp!, {r4, r5, r6, r7, r8, lr}	@,
	.save {r4, r5, r6, r7, r8, lr}
	mov	r3, r2, asl #1	@ D.39970, Threshould,
	movw	r6, #21846	@ tmp124,
	cmp	r2, #0	@ Threshould,
	movt	r6, 21845	@ tmp124,
	add	r5, r2, #7	@ tmp119, Threshould,
	smull	r6, r7, r3, r6	@ tmp123, D.39970, tmp124
	movge	r5, r2	@ Threshould, Threshould
	.pad #8
	sub	sp, sp, #8	@,,
	mov	r5, r5, asr #3	@ tmp120, Threshould,
	mov	r6, r0	@ CurMode, CurMode
	mov	r4, r2	@ Threshould, Threshould
	str	r2, [sp]	@ Threshould,
	mov	r8, r1	@ StreamAmount, StreamAmount
	str	r1, [sp, #4]	@ StreamAmount,
	sub	r3, r7, r3, asr #31	@,, D.39970,
	ldr	r1, .L1139	@,
	mov	r2, r5	@, tmp120
	mov	r0, #30	@,
	bl	dprint_vfmw	@
	cmp	r6, #3	@ CurMode,
	beq	.L1137	@,
	cmp	r4, r8	@ Threshould, StreamAmount
	movge	r4, r6	@ CurMode, CurMode
	blt	.L1138	@,
.L1132:
	mov	r2, r6	@, CurMode
	mov	r3, r4	@, CurMode
	ldr	r1, .L1139+4	@,
	mov	r0, #30	@,
	bl	dprint_vfmw	@
	mov	r0, r4	@, CurMode
	add	sp, sp, #8	@,,
	@ sp needed	@
	ldmfd	sp!, {r4, r5, r6, r7, r8, pc}	@
.L1138:
	ldr	r1, .L1139+8	@,
	mov	r0, #30	@,
	bl	dprint_vfmw	@
.L1136:
	mov	r4, #3	@ CurMode,
	b	.L1132	@
.L1137:
	cmp	r5, r8	@ tmp120, StreamAmount
	ble	.L1136	@,
	ldr	r1, .L1139+12	@,
	mov	r0, #30	@,
	bl	dprint_vfmw	@
	mov	r4, #0	@ CurMode,
	b	.L1132	@
.L1140:
	.align	2
.L1139:
	.word	.LC145
	.word	.LC148
	.word	.LC147
	.word	.LC146
	.fnend
	.size	GetNextDecodeMode, .-GetNextDecodeMode
	.align	2
	.global	VCTRL_GetChanIDByCtx
	.type	VCTRL_GetChanIDByCtx, %function
VCTRL_GetChanIDByCtx:
	.fnstart
	@ args = 0, pretend = 0, frame = 0
	@ frame_needed = 0, uses_anonymous_args = 0
	@ link register save eliminated.
	ldr	ip, .L1150	@ ivtmp.706,
	mov	r2, #0	@ i,
.L1144:
	ldr	r1, [ip], #4	@ D.39989, MEM[base: _14, offset: 0B]
	cmp	r1, #0	@ D.39989,
	add	r3, r1, #217088	@ D.39990, D.39989,
	add	r3, r3, #432	@ D.39990, D.39990,
	beq	.L1142	@,
	cmp	r0, r3	@ pCtx, D.39990
	beq	.L1145	@,
.L1142:
	add	r2, r2, #1	@ i, i,
	cmp	r2, #4	@ i,
	bne	.L1144	@,
	mvn	r0, #0	@ D.39988,
	bx	lr	@
.L1145:
	mov	r0, r2	@ D.39988, i
	bx	lr	@
.L1151:
	.align	2
.L1150:
	.word	.LANCHOR0
	.fnend
	.size	VCTRL_GetChanIDByCtx, .-VCTRL_GetChanIDByCtx
	.align	2
	.global	VCTRL_GetChanIDByMemAddr
	.type	VCTRL_GetChanIDByMemAddr, %function
VCTRL_GetChanIDByMemAddr:
	.fnstart
	@ args = 0, pretend = 0, frame = 0
	@ frame_needed = 0, uses_anonymous_args = 0
	ldr	ip, .L1164	@ ivtmp.719,
	mov	r2, #0	@ i,
	str	lr, [sp, #-4]!	@,
	.save {lr}
.L1156:
	ldr	r3, [ip], #4	@ D.40006, MEM[base: _20, offset: 0B]
	cmp	r3, #0	@ D.40006,
	beq	.L1153	@,
	ldr	r1, [r3, #176]	@ D.40007, _4->stChanMem_vdh.PhyAddr
	cmp	r1, r0	@ D.40007, PhyAddr
	bgt	.L1154	@,
	ldr	lr, [r3, #180]	@ _4->stChanMem_vdh.Length, _4->stChanMem_vdh.Length
	add	r1, r1, lr	@ D.40007, D.40007, _4->stChanMem_vdh.Length
	cmp	r0, r1	@ PhyAddr, D.40007
	blt	.L1158	@,
.L1154:
	ldr	r1, [r3, #192]	@ D.40007, _4->stChanMem_scd.PhyAddr
	cmp	r0, r1	@ PhyAddr, D.40007
	blt	.L1153	@,
	ldr	r3, [r3, #196]	@ _4->stChanMem_scd.Length, _4->stChanMem_scd.Length
	add	r1, r1, r3	@ D.40007, D.40007, _4->stChanMem_scd.Length
	cmp	r0, r1	@ PhyAddr, D.40007
	blt	.L1158	@,
.L1153:
	add	r2, r2, #1	@ i, i,
	cmp	r2, #4	@ i,
	bne	.L1156	@,
	mvn	r0, #0	@ D.40005,
	ldr	pc, [sp], #4	@
.L1158:
	mov	r0, r2	@ D.40005, i
	ldr	pc, [sp], #4	@
.L1165:
	.align	2
.L1164:
	.word	.LANCHOR0
	.fnend
	.size	VCTRL_GetChanIDByMemAddr, .-VCTRL_GetChanIDByMemAddr
	.align	2
	.global	DecChanProcessPts
	.type	DecChanProcessPts, %function
DecChanProcessPts:
	.fnstart
	@ args = 0, pretend = 0, frame = 0
	@ frame_needed = 0, uses_anonymous_args = 0
	stmfd	sp!, {r4, r5, r6, r7, r8, r9, r10, fp, lr}	@,
	.save {r4, r5, r6, r7, r8, r9, r10, fp, lr}
	mov	r4, r1	@ pSegMan, pSegMan
	ldr	r6, .L1190	@ tmp240,
	.pad #12
	sub	sp, sp, #12	@,,
	mov	r5, r0	@ ChanID, ChanID
	ldr	ip, [r6, r0, asl #2]	@ D.40011, s_pstVfmwChan
	ldr	r1, [ip, #32]	@ D.40012, _10->stChanCfg.eVidStd
	cmp	r1, #1	@ D.40012,
	beq	.L1185	@,
	sub	r3, r1, #2	@ D.40018, D.40018,
	cmp	r1, #6	@ D.40018,
	cmpne	r3, #1	@, D.40018,
	bls	.L1178	@,
.L1168:
	ldrd	r2, [r4, #32]	@ D.40014, pSegMan,
	mvn	r1, #0	@,
	mvn	r0, #0	@ tmp220,
	cmp	r3, r1	@ D.40014,
	cmpeq	r2, r0	@ D.40014, tmp220
	beq	.L1186	@,
	add	r1, ip, #944	@ tmp224, D.40011,
	strd	r2, [r1]	@ D.40014, _10->stSynExtraData.pts
.L1177:
	ldrd	r8, [r4, #48]	@ D.40014, pSegMan,
	add	r5, ip, #960	@ tmp226, D.40011,
	add	lr, ip, #976	@ tmp228, D.40011,
	ldr	r1, .L1190+4	@,
	mov	r0, #29	@,
	strd	r8, [r5]	@ D.40014, _10->stSynExtraData.Usertag
	ldrd	r6, [r4, #56]	@ D.40014, pSegMan,
	strd	r6, [lr]	@ D.40014, _10->stSynExtraData.DispTime
	ldr	lr, [r4, #64]	@ D.40015, pSegMan_20(D)->CurrSeg.DispEnableFlag
	str	lr, [ip, #992]	@ D.40015, _10->stSynExtraData.DispEnableFlag
	ldr	lr, [r4, #68]	@ D.40015, pSegMan_20(D)->CurrSeg.DispFrameDistance
	str	lr, [ip, #996]	@ D.40015, _10->stSynExtraData.DispFrameDistance
	ldr	lr, [r4, #72]	@ D.40015, pSegMan_20(D)->CurrSeg.DistanceBeforeFirstFrame
	str	lr, [ip, #1000]	@ D.40015, _10->stSynExtraData.DistanceBeforeFirstFrame
	ldr	lr, [r4, #76]	@ D.40015, pSegMan_20(D)->CurrSeg.GopNum
	str	lr, [ip, #1016]	@ D.40015, _10->stSynExtraData.GopNum
	strd	r8, [sp]	@ D.40014,
	bl	dprint_vfmw	@
	add	sp, sp, #12	@,,
	@ sp needed	@
	ldmfd	sp!, {r4, r5, r6, r7, r8, r9, r10, fp, pc}	@
.L1185:
	add	r3, ip, #217088	@ tmp161, D.40011,
	ldr	r3, [r3, #432]	@ MEM[(struct VC1_CTX_S *)_10 + 217520B].pstExtraData, MEM[(struct VC1_CTX_S *)_10 + 217520B].pstExtraData
	ldr	r1, [r3, #388]	@ _12->StdExt.Vc1Ext.IsAdvProfile, _12->StdExt.Vc1Ext.IsAdvProfile
	sxtb	r1, r1	@ _12->StdExt.Vc1Ext.IsAdvProfile, _12->StdExt.Vc1Ext.IsAdvProfile
	cmp	r1, #1	@ _12->StdExt.Vc1Ext.IsAdvProfile,
	bne	.L1168	@,
.L1178:
	add	r0, ip, #1264	@, D.40011,
	add	r2, r4, #8	@, pSegMan,
	add	r0, r0, #8	@,,
	bl	IsNewpicSeg	@
	cmp	r0, #0	@,
	bne	.L1169	@,
	ldr	ip, [r6, r5, asl #2]	@ D.40011, s_pstVfmwChan
	add	lr, ip, #960	@ tmp238, D.40011,
	ldr	r3, [ip, #32]	@ _41->stChanCfg.eVidStd, _41->stChanCfg.eVidStd
	cmp	r3, #3	@ _41->stChanCfg.eVidStd,
	beq	.L1187	@,
	ldrd	r2, [lr, #-8]	@ D.40014, tmp238,
	mvn	r1, #0	@,
	mvn	r0, #0	@ tmp176,
	cmp	r3, r1	@ D.40014,
	cmpeq	r2, r0	@ D.40014, tmp176
	beq	.L1188	@,
	add	r1, ip, #944	@ tmp180, D.40011,
	strd	r2, [r1]	@ D.40014, _41->stSynExtraData.pts
.L1171:
	add	r7, ip, #976	@ tmp187, D.40011,
	mvn	r0, #0	@ tmp183,
	mvn	r1, #0	@,
	strd	r0, [lr, #-8]	@ tmp183, tmp238,
	ldrd	r10, [r7, #-8]	@ _41->stSynExtraData.NextUsertag, tmp187,
	add	r8, ip, #992	@ tmp192, D.40011,
	ldr	r1, .L1190+8	@,
	mov	r0, #29	@,
	strd	r10, [lr]	@ _41->stSynExtraData.NextUsertag, _41->stSynExtraData.Usertag
	ldrd	r8, [r8, #-8]	@ _41->stSynExtraData.NextDispTime, tmp192,
	strd	r8, [r7]	@ _41->stSynExtraData.NextDispTime, _41->stSynExtraData.DispTime
	ldr	r9, [ip, #1004]	@ _41->stSynExtraData.NextDispEnableFlag, _41->stSynExtraData.NextDispEnableFlag
	ldr	r8, [ip, #1008]	@ _41->stSynExtraData.NextDispFrameDistance, _41->stSynExtraData.NextDispFrameDistance
	ldr	r7, [ip, #1012]	@ _41->stSynExtraData.NextDistanceBeforeFirstFrame, _41->stSynExtraData.NextDistanceBeforeFirstFrame
	ldr	lr, [ip, #1020]	@ _41->stSynExtraData.NextGopNum, _41->stSynExtraData.NextGopNum
	str	r9, [ip, #992]	@ _41->stSynExtraData.NextDispEnableFlag, _41->stSynExtraData.DispEnableFlag
	str	r8, [ip, #996]	@ _41->stSynExtraData.NextDispFrameDistance, _41->stSynExtraData.DispFrameDistance
	str	r7, [ip, #1000]	@ _41->stSynExtraData.NextDistanceBeforeFirstFrame, _41->stSynExtraData.DistanceBeforeFirstFrame
	str	lr, [ip, #1016]	@ _41->stSynExtraData.NextGopNum, _41->stSynExtraData.GopNum
	bl	dprint_vfmw	@
	ldr	r1, [r6, r5, asl #2]	@ D.40011, s_pstVfmwChan
	ldr	r3, [r1, #32]	@ _62->stChanCfg.eVidStd, _62->stChanCfg.eVidStd
	cmp	r3, #3	@ _62->stChanCfg.eVidStd,
	beq	.L1189	@,
.L1173:
	ldrd	r2, [r4, #32]	@ D.40014, pSegMan,
	mvn	r7, #0	@,
	mvn	r6, #0	@ tmp209,
	add	r0, r1, #960	@ tmp239, D.40011,
	cmp	r3, r7	@ D.40014,
	cmpeq	r2, r6	@ D.40014, tmp209
	strned	r2, [r0, #-8]	@ D.40014, tmp239,
.L1175:
	ldrd	r2, [r4, #48]	@ D.40014, pSegMan,
	add	lr, r1, #976	@ tmp213, D.40011,
	add	ip, r1, #992	@ tmp215, D.40011,
	strd	r2, [lr, #-8]	@ D.40014, tmp213,
	ldrd	r2, [r4, #56]	@ D.40014, pSegMan,
	strd	r2, [ip, #-8]	@ D.40014, tmp215,
	ldr	r3, [r4, #64]	@ D.40015, pSegMan_20(D)->CurrSeg.DispEnableFlag
	str	r3, [r1, #1004]	@ D.40015, _119->stSynExtraData.NextDispEnableFlag
	ldr	r3, [r4, #68]	@ D.40015, pSegMan_20(D)->CurrSeg.DispFrameDistance
	str	r3, [r1, #1008]	@ D.40015, _119->stSynExtraData.NextDispFrameDistance
	ldr	r3, [r4, #72]	@ D.40015, pSegMan_20(D)->CurrSeg.DistanceBeforeFirstFrame
	str	r3, [r1, #1012]	@ D.40015, _119->stSynExtraData.NextDistanceBeforeFirstFrame
	ldr	r3, [r4, #76]	@ D.40015, pSegMan_20(D)->CurrSeg.GopNum
	str	r3, [r1, #1020]	@ D.40015, _119->stSynExtraData.NextGopNum
.L1174:
	ldrd	r2, [r0]	@, _120->stSynExtraData.Usertag
	mov	r0, #29	@,
	ldr	r1, .L1190+12	@,
	add	sp, sp, #12	@,,
	@ sp needed	@
	ldmfd	sp!, {r4, r5, r6, r7, r8, r9, r10, fp, lr}	@
	b	dprint_vfmw	@
.L1189:
	ldrd	r2, [r4, #32]	@ D.40014, pSegMan,
	add	lr, r1, #960	@ tmp202, D.40011,
	add	ip, r1, #976	@ tmp204, D.40011,
	add	r0, r1, #992	@ tmp206, D.40011,
	strd	r2, [lr, #-8]	@ D.40014, tmp202,
	ldrd	r2, [r4, #48]	@ D.40014, pSegMan,
	strd	r2, [ip, #-8]	@ D.40014, tmp204,
	ldrd	r2, [r4, #56]	@ D.40014, pSegMan,
	strd	r2, [r0, #-8]	@ D.40014, tmp206,
	ldr	r3, [r4, #64]	@ D.40015, pSegMan_20(D)->CurrSeg.DispEnableFlag
	str	r3, [r1, #1004]	@ D.40015, _62->stSynExtraData.NextDispEnableFlag
	ldr	r3, [r4, #68]	@ D.40015, pSegMan_20(D)->CurrSeg.DispFrameDistance
	str	r3, [r1, #1008]	@ D.40015, _62->stSynExtraData.NextDispFrameDistance
	ldr	r3, [r4, #72]	@ D.40015, pSegMan_20(D)->CurrSeg.DistanceBeforeFirstFrame
	str	r3, [r1, #1012]	@ D.40015, _62->stSynExtraData.NextDistanceBeforeFirstFrame
	ldr	r3, [r4, #76]	@ D.40015, pSegMan_20(D)->CurrSeg.GopNum
	str	r3, [r1, #1020]	@ D.40015, _62->stSynExtraData.NextGopNum
.L1169:
	ldr	r1, [r6, r5, asl #2]	@ D.40011, s_pstVfmwChan
	ldr	r3, [r1, #32]	@ _78->stChanCfg.eVidStd, _78->stChanCfg.eVidStd
	cmp	r3, #3	@ _78->stChanCfg.eVidStd,
	addeq	r0, r1, #960	@ tmp239, D.40011,
	bne	.L1173	@,
	b	.L1174	@
.L1186:
	add	r3, ip, #944	@ tmp222, D.40011,
	ldrd	r2, [r3]	@ D.40014, _10->stSynExtraData.pts
	b	.L1177	@
.L1187:
	ldrd	r2, [lr, #-8]	@ D.40014, tmp238,
	add	r1, ip, #944	@ tmp173, D.40011,
	strd	r2, [r1]	@ D.40014, _41->stSynExtraData.pts
	b	.L1171	@
.L1188:
	add	r3, ip, #944	@ tmp178, D.40011,
	ldrd	r2, [r3]	@ D.40014, _41->stSynExtraData.pts
	b	.L1171	@
.L1191:
	.align	2
.L1190:
	.word	.LANCHOR0
	.word	.LC151
	.word	.LC149
	.word	.LC150
	.fnend
	.size	DecChanProcessPts, .-DecChanProcessPts
	.align	2
	.global	DecChanCheckDecParam
	.type	DecChanCheckDecParam, %function
DecChanCheckDecParam:
	.fnstart
	@ args = 0, pretend = 0, frame = 0
	@ frame_needed = 0, uses_anonymous_args = 0
	ldr	r3, .L1202	@ tmp123,
	ldr	r2, [r3, r0, asl #2]	@ tmp124, s_pstVfmwChan
	ldr	r1, [r2, #880]	@ D.40030, _5->eVidStd
	sub	r2, r1, #10	@ D.40031, D.40030,
	cmp	r2, #2	@ D.40031,
	bhi	.L1193	@,
	ldr	r2, [r3, #3640]	@ g_VdmCharacter, g_VdmCharacter
	ands	r3, r2, #1	@ D.40028, g_VdmCharacter,
	beq	.L1201	@,
.L1193:
	sub	r3, r1, #14	@ D.40030, D.40030,
	bics	r3, r3, #4	@ tmp139, D.40030,
	movne	r3, #1	@ tmp131,
	moveq	r3, #0	@ tmp131,
	cmp	r1, #4	@ D.40030,
	moveq	r3, #0	@, tmp136
	andne	r3, r3, #1	@,, tmp136, tmp131
	cmp	r3, #0	@ tmp136,
	beq	.L1201	@,
	stmfd	sp!, {r4, lr}	@,
	.save {r4, lr}
	bl	VCTRL_GetDecParam	@
	cmp	r0, #0	@,
	mvnne	r3, #1	@ D.40028,
	moveq	r3, #0	@ D.40028,
	mov	r0, r3	@, D.40028
	ldmfd	sp!, {r4, pc}	@
.L1201:
	mov	r0, r3	@, D.40028
	bx	lr	@
.L1203:
	.align	2
.L1202:
	.word	.LANCHOR0
	.fnend
	.size	DecChanCheckDecParam, .-DecChanCheckDecParam
	.align	2
	.global	DecChanSyntax
	.type	DecChanSyntax, %function
DecChanSyntax:
	.fnstart
	@ args = 0, pretend = 0, frame = 0
	@ frame_needed = 0, uses_anonymous_args = 0
	cmp	r0, #3	@ ChanID,
	stmfd	sp!, {r4, r5, r6, r7, r8, r9, r10, lr}	@,
	.save {r4, r5, r6, r7, r8, r9, r10, lr}
	mov	r4, r0	@ ChanID, ChanID
	.pad #8
	sub	sp, sp, #8	@,,
	bhi	.L1235	@,
	ldr	r5, .L1241	@ tmp215,
	ldr	r0, [r5, r0, asl #2]	@ D.40038, s_pstVfmwChan
	cmp	r0, #0	@ D.40038,
	beq	.L1236	@,
	ldr	r2, [r0, #8]	@ _14->s32IsRun, _14->s32IsRun
	cmp	r2, #1	@ _14->s32IsRun,
	bne	.L1237	@,
	ldr	r6, [r0, #16]	@ D.40039, _14->s32StopSyntax
	cmp	r6, #0	@ D.40039,
	bne	.L1238	@,
	str	r6, [r0, #672]	@ D.40039, _14->s32NoStreamFlag
	mov	r8, r4, asl #2	@ tmp214, ChanID,
	bl	OSAL_GetTimeInMs	@
	ldr	r9, .L1241+4	@ tmp216,
	ldr	r1, .L1241+8	@ tmp165,
	add	r2, r9, r8	@ tmp161, tmp216, tmp214
	ldr	r3, [r2, #-3460]	@ tmp164, last_rec_pos_time
	ldr	r1, [r1]	@ g_TraceBsPeriod, g_TraceBsPeriod
	rsb	r3, r3, r0	@ D.40040, tmp164, currtime
	mov	r7, r0	@ currtime,
	cmp	r3, r1	@ D.40040, g_TraceBsPeriod
	mov	r0, r4	@, ChanID
	bls	.L1210	@,
	str	r7, [r2, #-3460]	@ currtime, last_rec_pos_time
	bl	DecChanCheckDecParam	@
	cmn	r0, #2	@ D.40036,
	mov	r10, r0	@ D.40036,
	bne	.L1211	@,
	mov	r2, r4	@, ChanID
	ldr	r1, .L1241+12	@,
	mov	r0, #23	@,
	bl	dprint_vfmw	@
.L1225:
	mov	r0, r10	@, D.40036
	add	sp, sp, #8	@,,
	@ sp needed	@
	ldmfd	sp!, {r4, r5, r6, r7, r8, r9, r10, pc}	@
.L1210:
	bl	DecChanCheckDecParam	@
	cmn	r0, #2	@ D.40036,
	mov	r10, r0	@ D.40036,
	beq	.L1225	@,
	mov	r0, r4	@, ChanID
	bl	VCTRL_GetImageBuffer	@
	cmp	r0, #1	@,
	mvnne	r10, #2	@ D.40036,
	bne	.L1225	@,
.L1220:
	ldr	r3, [r5, r4, asl #2]	@ D.40038, s_pstVfmwChan
	add	r10, r3, #1024	@ tmp217, D.40038,
	ldrb	r2, [r3, #1025]	@ zero_extendqisi2	@ MEM[(struct STREAM_SEG_PACKET_S *)_34 + 1024B].IsCurrSegWaitDec, MEM[(struct STREAM_SEG_PACKET_S *)_34 + 1024B].IsCurrSegWaitDec
	cmp	r2, #0	@ MEM[(struct STREAM_SEG_PACKET_S *)_34 + 1024B].IsCurrSegWaitDec,
	bne	.L1212	@,
	ldr	r3, [r3, #1616]	@ _34->stSynExtraData.s32DSDWaitFlag, _34->stSynExtraData.s32DSDWaitFlag
	cmp	r3, #0	@ _34->stSynExtraData.s32DSDWaitFlag,
	beq	.L1239	@,
.L1212:
	ldrd	r6, [r10, #48]	@ MEM[(struct STREAM_SEG_PACKET_S *)_34 + 1024B].CurrSeg.Usertag, tmp217,
	mov	r0, #29	@,
	ldrd	r2, [r10, #32]	@ MEM[(struct STREAM_SEG_PACKET_S *)_34 + 1024B].CurrSeg.Pts, tmp217,
	ldr	r1, .L1241+16	@,
	strd	r6, [sp]	@ MEM[(struct STREAM_SEG_PACKET_S *)_34 + 1024B].CurrSeg.Usertag,
	bl	dprint_vfmw	@
	mov	r1, r10	@, tmp217
	mov	r0, r4	@, ChanID
	bl	DecChanProcessPts	@
	mov	r0, #3	@,
	bl	CHECK_REC_POS_ENABLE	@
	ldr	r3, [r5, r4, asl #2]	@ D.40038, s_pstVfmwChan
	mov	r0, r10	@, tmp217
	add	r2, r3, #217088	@, D.40038,
	add	r2, r2, #432	@,,
	ldr	r1, [r3, #880]	@, _56->eVidStd
	bl	DecodeStream	@
	mov	r0, #4	@,
	bl	CHECK_REC_POS_ENABLE	@
	cmp	r0, #0	@,
	bne	.L1216	@,
.L1217:
	mov	r10, #0	@ D.40036,
	b	.L1225	@
.L1211:
	mov	r0, r4	@, ChanID
	bl	VCTRL_GetImageBuffer	@
	cmp	r0, #1	@ D.40039,
	moveq	r6, r0	@ rec_pos_print_flag, D.40039
	beq	.L1220	@,
	mov	r2, r4	@, ChanID
	ldr	r1, .L1241+20	@,
	mov	r0, #23	@,
	mvn	r10, #2	@ D.40036,
	bl	dprint_vfmw	@
	b	.L1225	@
.L1239:
	add	r1, r10, #8	@, tmp217,
	mov	r0, r4	@, ChanID
	bl	SM_ReadSegStream	@
	cmp	r0, #0	@,
	beq	.L1212	@,
	cmp	r6, #1	@ rec_pos_print_flag,
	beq	.L1240	@,
.L1213:
	add	r3, r9, r8	@ tmp179, tmp216, tmp214
	ldr	r2, .L1241+24	@ tmp183,
	ldr	r1, .L1241+4	@ tmp178,
	ldr	r3, [r3, #-3444]	@ tmp182, last_rec_pos_report_time
	ldr	r2, [r2]	@ g_NoStreamReportPeriod, g_NoStreamReportPeriod
	rsb	r3, r3, r7	@ D.40040, tmp182, currtime
	cmp	r3, r2	@ D.40040, g_NoStreamReportPeriod
	bls	.L1214	@,
	ldr	r3, [r1, #-3464]	@ D.40043, g_event_report
	cmp	r3, #0	@ D.40043,
	beq	.L1215	@,
	mov	r2, #0	@,
	mov	r1, #117	@,
	mov	r0, r4	@, ChanID
	blx	r3	@ D.40043
.L1215:
	add	r8, r9, r8	@ tmp187, tmp216, tmp214
	str	r7, [r8, #-3444]	@ currtime, last_rec_pos_report_time
.L1214:
	ldr	r3, [r5, r4, asl #2]	@ tmp190, s_pstVfmwChan
	mov	r2, #1	@ tmp191,
	mvn	r10, #3	@ D.40036,
	str	r2, [r3, #672]	@ tmp191, _49->s32NoStreamFlag
	b	.L1225	@
.L1216:
	bl	OSAL_GetTimeInMs	@
	add	r8, r9, r8	@ tmp204, tmp216, tmp214
	ldr	r1, .L1241+28	@ tmp208,
	ldr	r3, [r8, #-3428]	@ tmp207, last_rec_pos_decparam_time
	ldr	r1, [r1]	@ g_TraceFramePeriod, g_TraceFramePeriod
	rsb	r3, r3, r0	@ D.40040, tmp207, currtime
	mov	r2, r0	@ currtime,
	cmp	r3, r1	@ D.40040, g_TraceFramePeriod
	bls	.L1217	@,
	mov	r0, r4	@, ChanID
	str	r2, [r8, #-3428]	@ currtime, last_rec_pos_decparam_time
	mov	r10, #0	@ D.40036,
	bl	VCTRL_GetDecParam	@
	b	.L1225	@
.L1237:
	ldr	r3, .L1241+32	@,
	movw	r2, #6597	@,
	ldr	r1, .L1241+36	@,
	mov	r0, #0	@,
	bl	dprint_vfmw	@
	mvn	r10, #0	@ D.40036,
	b	.L1225	@
.L1238:
	ldr	r3, .L1241+40	@,
	movw	r2, #6598	@,
	ldr	r1, .L1241+36	@,
	mov	r0, #0	@,
	bl	dprint_vfmw	@
	mvn	r10, #0	@ D.40036,
	b	.L1225	@
.L1235:
	ldr	r3, .L1241+44	@,
	movw	r2, #6595	@,
	ldr	r1, .L1241+36	@,
	mov	r0, #0	@,
	bl	dprint_vfmw	@
	mvn	r10, #0	@ D.40036,
	b	.L1225	@
.L1236:
	ldr	r3, .L1241+48	@,
	movw	r2, #6596	@,
	ldr	r1, .L1241+36	@,
	mvn	r10, #0	@ D.40036,
	bl	dprint_vfmw	@
	b	.L1225	@
.L1240:
	mov	r2, r4	@, ChanID
	ldr	r1, .L1241+52	@,
	mov	r0, #23	@,
	bl	dprint_vfmw	@
	b	.L1213	@
.L1242:
	.align	2
.L1241:
	.word	.LANCHOR0
	.word	.LANCHOR3
	.word	g_TraceBsPeriod
	.word	.LC153
	.word	.LC156
	.word	.LC154
	.word	g_NoStreamReportPeriod
	.word	g_TraceFramePeriod
	.word	.LC102
	.word	.LC5
	.word	.LC152
	.word	.LC69
	.word	.LC92
	.word	.LC155
	.fnend
	.size	DecChanSyntax, .-DecChanSyntax
	.align	2
	.global	DecSyntax
	.type	DecSyntax, %function
DecSyntax:
	.fnstart
	@ args = 0, pretend = 0, frame = 24
	@ frame_needed = 0, uses_anonymous_args = 0
	stmfd	sp!, {r4, r5, r6, r7, r8, r9, lr}	@,
	.save {r4, r5, r6, r7, r8, r9, lr}
	.pad #28
	sub	sp, sp, #28	@,,
	ldr	r7, .L1271	@ tmp174,
	ldr	r3, .L1271+4	@ ivtmp.747,
	add	r0, r3, #16	@ D.40072, ivtmp.747,
	mov	r1, r7	@ ivtmp.743, tmp174
.L1246:
	ldr	r2, [r1], #4	@ D.40073, MEM[base: _1, offset: 0B]
	add	r3, r3, #4	@ ivtmp.747, ivtmp.747,
	cmp	r2, #0	@ D.40073,
	ldrne	r2, [r2, #12]	@ D.40074, _17->s32Priority
	str	r2, [r3, #-4]	@ D.40073,
	cmp	r3, r0	@ ivtmp.747, D.40072
	bne	.L1246	@,
	ldr	r6, .L1271+8	@ tmp175,
	mvn	r0, #0	@ ret,
	ldr	r8, .L1271	@ tmp178,
	mov	r9, #0	@ MaxPriChan,
.L1247:
	ldr	r3, [r6, #-3412]	@ MaxPri, ChanPriTab
	mov	r1, #0	@ tmp154,
	ldr	r2, [r6, #-3408]	@ MaxPri, ChanPriTab
	cmp	r3, r2	@ MaxPri, MaxPri
	movlt	r3, r2	@ MaxPri, MaxPri
	ldr	r2, [r6, #-3404]	@ MaxPri, ChanPriTab
	movlt	r5, #1	@ MaxPriChan,
	movge	r5, #0	@ MaxPriChan,
	cmp	r3, r2	@ MaxPri, MaxPri
	movlt	r3, r2	@ MaxPri, MaxPri
	ldr	r2, [r6, #-3400]	@ MaxPri, ChanPriTab
	movlt	r5, #2	@ MaxPriChan,
	cmp	r3, r2	@ MaxPri, MaxPri
	movlt	r5, #3	@ MaxPriChan,
	movlt	r3, r2	@ MaxPri, MaxPri
	cmp	r3, #0	@ MaxPri,
	add	r3, r6, r5, lsl #2	@ tmp152, tmp175, MaxPriChan,
	add	r2, r5, #1	@ D.40074, MaxPriChan,
	str	r2, [r7, #60]	@ D.40074, s_VfmwCTrl.s32ThisChanIDPlus1
	str	r9, [r3, #-3412]	@ MaxPriChan, ChanPriTab
	ldr	r3, .L1271	@ tmp155,
	ble	.L1251	@,
	ldr	r3, [r8, r5, asl #2]	@ D.40073, s_pstVfmwChan
	cmp	r3, r1	@ D.40073,
	beq	.L1247	@,
	ldr	r2, [r3, #8]	@ _28->s32IsRun, _28->s32IsRun
	cmp	r2, #1	@ _28->s32IsRun,
	bne	.L1247	@,
	ldr	r2, [r3, #52]	@ _28->stChanCfg.s32ChanStrmOFThr, _28->stChanCfg.s32ChanStrmOFThr
	cmp	r2, r1	@ _28->stChanCfg.s32ChanStrmOFThr,
	ble	.L1253	@,
	ldr	r3, [r3, #56]	@ _28->stChanCfg.s32DecMode, _28->stChanCfg.s32DecMode
	cmp	r3, r1	@ _28->stChanCfg.s32DecMode,
	beq	.L1268	@,
.L1253:
	mov	r4, #200	@ D.40072,
	b	.L1256	@
.L1269:
	subs	r4, r4, #1	@ D.40072, D.40072,
	beq	.L1247	@,
.L1256:
	mov	r0, r5	@, MaxPriChan
	bl	DecChanSyntax	@
	cmp	r0, #0	@ ret
	beq	.L1269	@,
	b	.L1247	@
.L1251:
	str	r1, [r3, #60]	@ tmp154, s_VfmwCTrl.s32ThisChanIDPlus1
	add	sp, sp, #28	@,,
	@ sp needed	@
	ldmfd	sp!, {r4, r5, r6, r7, r8, r9, pc}	@
.L1268:
	mov	r0, r5	@, MaxPriChan
	mov	r1, sp	@,
	bl	SM_GetInfo	@
	cmp	r0, #0	@,
	bne	.L1270	@,
.L1254:
	ldr	r4, [r7, r5, asl #2]	@ D.40073, s_pstVfmwChan
	ldr	r1, [sp, #12]	@, stScdInstInfo.TotalRawSize
	ldr	r2, [r4, #52]	@, _35->stChanCfg.s32ChanStrmOFThr
	ldr	r0, [r4, #896]	@, _35->stSynExtraData.s32DecMode
	bl	GetNextDecodeMode	@
	ldr	r3, [r7, r5, asl #2]	@ D.40073, s_pstVfmwChan
	str	r0, [r4, #896]	@, _35->stSynExtraData.s32DecMode
	ldr	r2, [r3, #896]	@ _42->stSynExtraData.s32DecMode, _42->stSynExtraData.s32DecMode
	cmp	r2, #0	@ _42->stSynExtraData.s32DecMode,
	strne	r9, [r3, #892]	@ MaxPriChan, _42->stSynExtraData.s32OutErrThr
	strne	r9, [r3, #888]	@ MaxPriChan, _42->stSynExtraData.s32RefErrThr
	ldreq	r2, [r3, #48]	@ D.40074, _42->stChanCfg.s32ChanErrThr
	streq	r2, [r3, #892]	@ D.40074, _42->stSynExtraData.s32OutErrThr
	streq	r2, [r3, #888]	@ D.40074, _42->stSynExtraData.s32RefErrThr
	b	.L1253	@
.L1270:
	mov	r0, sp	@,
	mov	r1, #24	@,
	bl	__memzero	@
	b	.L1254	@
.L1272:
	.align	2
.L1271:
	.word	.LANCHOR0
	.word	.LANCHOR3-3412
	.word	.LANCHOR3
	.fnend
	.size	DecSyntax, .-DecSyntax
	.align	2
	.global	VCTRL_RunProcess
	.type	VCTRL_RunProcess, %function
VCTRL_RunProcess:
	.fnstart
	@ args = 0, pretend = 0, frame = 0
	@ frame_needed = 0, uses_anonymous_args = 0
	stmfd	sp!, {r4, r5, r6, lr}	@,
	.save {r4, r5, r6, lr}
	mov	r3, #100	@ tmp119,
	ldr	r5, .L1289	@ tmp142,
	ldr	r0, [r5, #176]	@ D.40083, g_SleepTime
	str	r3, [r5, #56]	@ tmp119, s_VfmwCTrl.s32ThreadPos
	cmp	r0, #0	@ D.40083,
	ble	.L1274	@,
	bl	msleep	@
.L1274:
	ldr	r0, .L1289+4	@,
	bl	OSAL_SpinLockIRQ	@
	bl	SM_Wakeup	@
	ldr	r3, [r5, #168]	@ g_StopDec, g_StopDec
	mov	r2, #101	@ tmp125,
	str	r2, [r5, #56]	@ tmp125, s_VfmwCTrl.s32ThreadPos
	cmp	r3, #0	@ g_StopDec,
	movne	r6, #0	@ ret,
	beq	.L1287	@,
.L1275:
	mov	r3, #102	@ tmp129,
	str	r3, [r5, #56]	@ tmp129, s_VfmwCTrl.s32ThreadPos
	bl	VDMDRV_WakeUpVdm	@
	bl	SCDDRV_EnableInt	@
	bl	DNR_Wakeup	@
	ldr	r3, .L1289+8	@ tmp130,
	ldr	r0, [r3, #28]	@ D.40085, g_dnr_hal_fun_ptr.pfun_DNRHAL_EnableInt
	cmp	r0, #0	@ D.40085,
	beq	.L1276	@,
	blx	r0	@ D.40085
.L1279:
	ldr	r3, .L1289+12	@ tmp131,
	ldr	r3, [r3, #56]	@ D.40086, g_vdm_hal_fun_ptr.pfun_VDMHAL_EnableInt
	cmp	r3, #0	@ D.40086,
	beq	.L1288	@,
	mov	r0, #0	@,
	blx	r3	@ D.40086
.L1278:
	mov	r4, #0	@ i,
.L1280:
	mov	r0, r4	@, i
	mov	r1, #0	@,
	add	r4, r4, #1	@ i, i,
	bl	DeleteRawPacketInBuffer	@
	cmp	r4, #4	@ i,
	bne	.L1280	@,
	ldr	r0, .L1289+4	@,
	bl	OSAL_SpinUnLockIRQ	@
	mov	r1, #10	@,
	ldr	r0, .L1289+16	@,
	mov	r3, #105	@ tmp138,
	str	r3, [r5, #56]	@ tmp138, s_VfmwCTrl.s32ThreadPos
	bl	OSAL_WaitEvent	@
	mov	r0, r6	@, ret
	ldmfd	sp!, {r4, r5, r6, pc}	@
.L1287:
	bl	DecSyntax	@
	mov	r6, r0	@ ret,
	b	.L1275	@
.L1288:
	mov	r0, r3	@, D.40086
	mov	r2, #556	@,
	ldr	r1, .L1289+20	@,
	bl	dprint_vfmw	@
	b	.L1278	@
.L1276:
	movw	r2, #549	@,
	ldr	r1, .L1289+24	@,
	bl	dprint_vfmw	@
	b	.L1279	@
.L1290:
	.align	2
.L1289:
	.word	.LANCHOR0
	.word	.LANCHOR3-3396
	.word	g_dnr_hal_fun_ptr
	.word	g_vdm_hal_fun_ptr
	.word	.LANCHOR0+272
	.word	.LC32
	.word	.LC157
	.fnend
	.size	VCTRL_RunProcess, .-VCTRL_RunProcess
	.align	2
	.global	VFMW_CTRL_thread_proc
	.type	VFMW_CTRL_thread_proc, %function
VFMW_CTRL_thread_proc:
	.fnstart
	@ args = 0, pretend = 0, frame = 8
	@ frame_needed = 0, uses_anonymous_args = 0
	stmfd	sp!, {r4, r5, r6, r7, r8, lr}	@,
	.save {r4, r5, r6, r7, r8, lr}
	.pad #8
	sub	sp, sp, #8	@,,
	add	r1, sp, #8	@ tmp134,,
	mov	r3, #4	@ tmp133,
	mov	r0, sp	@,
	mov	r5, #0	@ tmp132,
	str	r3, [r1, #-4]!	@ tmp133, enChipVersion
	movw	r7, #10175	@ tmp200,
	str	r5, [sp]	@ tmp132, enChipType
	bl	HI_DRV_SYS_GetChipVersion	@
	ldr	r4, .L1324	@ tmp193,
	mov	r6, #12288	@ tmp201,
	movt	r7, 9	@ tmp200,
	movt	r6, 65056	@ tmp201,
.L1292:
	ldr	r1, .L1324+4	@,
	mov	r0, #2	@,
	mov	r3, #0	@ tmp137,
	str	r3, [r4, #56]	@ tmp137, s_VfmwCTrl.s32ThreadPos
	bl	dprint_vfmw	@
	ldr	r3, [r4, #48]	@ D.40091, s_VfmwCTrl.eTaskCommand
	mov	r1, #2	@ tmp140,
	mov	r2, #1	@ tmp142,
	cmp	r3, r1	@ D.40091,
	str	r1, [r4, #44]	@ tmp140, s_VfmwCTrl.eTaskState
	str	r2, [r4, #56]	@ tmp142, s_VfmwCTrl.s32ThreadPos
	bne	.L1299	@,
	b	.L1293	@
.L1297:
	mov	r3, #2	@ tmp173,
	str	r3, [r4, #56]	@ tmp173, s_VfmwCTrl.s32ThreadPos
	bl	VCTRL_RunProcess	@
	ldr	r1, .L1324+8	@,
	mov	r0, #22	@,
	bl	dprint_vfmw	@
	ldr	r3, [r4, #48]	@ D.40091, s_VfmwCTrl.eTaskCommand
	mov	r2, #1	@ tmp176,
	str	r2, [r4, #56]	@ tmp176, s_VfmwCTrl.s32ThreadPos
	cmp	r3, #2	@ D.40091,
	beq	.L1293	@,
.L1299:
	cmp	r3, #3	@ D.40091,
	beq	.L1294	@,
	bl	OSAL_GetTimeInMs	@
	ldr	r3, [sp, #4]	@ enChipVersion, enChipVersion
	cmp	r3, #5	@ enChipVersion,
	bne	.L1297	@,
	clz	r3, r5	@ tmp150, time2
	rsb	r2, r5, r0	@ D.40093, time2, time2
	mov	r3, r3, lsr #5	@ tmp150, tmp150,
	cmp	r2, r7	@ D.40093, tmp200
	orrhi	r3, r3, #1	@,, tmp153, tmp150
	cmp	r3, #0	@ tmp153,
	beq	.L1297	@,
	ldr	r3, [r6, #92]	@ reg_val, MEM[(volatile unsigned int *)4263522396B]
	mov	r5, r0	@ time2, time2
	cmp	r3, #3	@ reg_val,
	cmpne	r3, #0	@, reg_val,
	bic	r3, r3, #7	@ D.40093, reg_val,
	strne	r3, [r6, #92]	@ D.40093, MEM[(volatile unsigned int *)4263522396B]
	ldr	r3, [r6, #96]	@ reg_val, MEM[(volatile unsigned int *)4263522400B]
	cmp	r3, #3	@ reg_val,
	cmpne	r3, #0	@, reg_val,
	bic	r3, r3, #7	@ D.40093, reg_val,
	strne	r3, [r6, #96]	@ D.40093, MEM[(volatile unsigned int *)4263522400B]
	movne	r5, r0	@ time2, time2
	b	.L1297	@
.L1293:
	ldr	r1, .L1324+12	@,
	mov	r0, #2	@,
	mov	r3, #4	@ tmp179,
	mov	r8, #5	@ tmp194,
	str	r3, [r4, #56]	@ tmp179, s_VfmwCTrl.s32ThreadPos
	bl	dprint_vfmw	@
	mov	r3, #1	@ tmp182,
	str	r3, [r4, #44]	@ tmp182, s_VfmwCTrl.eTaskState
	b	.L1300	@
.L1323:
	bl	msleep	@
.L1300:
	ldr	r1, .L1324+16	@,
	mov	r0, #22	@,
	str	r8, [r4, #56]	@ tmp194, s_VfmwCTrl.s32ThreadPos
	bl	dprint_vfmw	@
	ldr	r3, [r4, #48]	@ D.40091, s_VfmwCTrl.eTaskCommand
	mov	r0, #10	@,
	cmp	r3, #1	@ D.40091,
	beq	.L1292	@,
	cmp	r3, #3	@ D.40091,
	bne	.L1323	@,
.L1294:
	ldr	r1, .L1324+20	@,
	mov	r0, #2	@,
	mov	r3, #6	@ tmp188,
	str	r3, [r4, #56]	@ tmp188, s_VfmwCTrl.s32ThreadPos
	bl	dprint_vfmw	@
	mov	r3, #0	@ tmp191,
	mov	r0, r3	@, tmp191
	str	r3, [r4, #44]	@ tmp191, s_VfmwCTrl.eTaskState
	add	sp, sp, #8	@,,
	@ sp needed	@
	ldmfd	sp!, {r4, r5, r6, r7, r8, pc}	@
.L1325:
	.align	2
.L1324:
	.word	.LANCHOR0
	.word	.LC158
	.word	.LC159
	.word	.LC160
	.word	.LC161
	.word	.LC162
	.fnend
	.size	VFMW_CTRL_thread_proc, .-VFMW_CTRL_thread_proc
	.align	2
	.global	VCTRL_GetChanVoQue
	.type	VCTRL_GetChanVoQue, %function
VCTRL_GetChanVoQue:
	.fnstart
	@ args = 0, pretend = 0, frame = 0
	@ frame_needed = 0, uses_anonymous_args = 0
	@ link register save eliminated.
	ldr	r1, .L1345	@ tmp149,
	ldr	r3, [r1, r0, asl #2]	@ D.40105, s_pstVfmwChan
	cmp	r3, #0	@ D.40105,
	beq	.L1342	@,
	ldr	r2, [r3, #880]	@ _5->eVidStd, _5->eVidStd
	cmp	r2, #18	@ _5->eVidStd,
	ldrls	pc, [pc, r2, asl #2]	@ _5->eVidStd
	b	.L1343	@
.L1329:
	.word	.L1340
	.word	.L1330
	.word	.L1331
	.word	.L1332
	.word	.L1333
	.word	.L1334
	.word	.L1335
	.word	.L1343
	.word	.L1336
	.word	.L1337
	.word	.L1338
	.word	.L1338
	.word	.L1338
	.word	.L1339
	.word	.L1333
	.word	.L1343
	.word	.L1343
	.word	.L1343
	.word	.L1340
.L1340:
	add	r0, r3, #217088	@ D.40104, D.40105,
	add	r0, r0, #440	@ D.40104, D.40104,
	bx	lr	@
.L1338:
	ldr	r2, [r1, #3640]	@ g_VdmCharacter, g_VdmCharacter
	tst	r2, #1	@ g_VdmCharacter,
	bne	.L1344	@,
.L1333:
	add	r0, r3, #237568	@ D.40104, D.40105,
	add	r0, r0, #440	@ D.40104, D.40104,
	bx	lr	@
.L1332:
	add	r0, r3, #290816	@ D.40104, D.40105,
	add	r0, r0, #48	@ D.40104, D.40104,
	bx	lr	@
.L1330:
	movw	r0, #3208	@ D.40104,
	movt	r0, 5	@ D.40104,
	add	r0, r3, r0	@ D.40104, D.40105, D.40104
	bx	lr	@
.L1331:
	add	r0, r3, #239616	@ D.40104, D.40105,
	add	r0, r0, #512	@ D.40104, D.40104,
	bx	lr	@
.L1334:
	add	r0, r3, #243712	@ D.40104, D.40105,
	add	r0, r0, #448	@ D.40104, D.40104,
	bx	lr	@
.L1335:
	add	r0, r3, #233472	@ D.40104, D.40105,
	add	r0, r0, #136	@ D.40104, D.40104,
	bx	lr	@
.L1336:
	add	r0, r3, #256000	@ D.40104, D.40105,
	add	r0, r0, #488	@ D.40104, D.40104,
	bx	lr	@
.L1337:
	add	r0, r3, #256000	@ D.40104, D.40105,
	add	r0, r0, #472	@ D.40104, D.40104,
	bx	lr	@
.L1339:
	add	r0, r3, #225280	@ D.40104, D.40105,
	add	r0, r0, #408	@ D.40104, D.40104,
	bx	lr	@
.L1343:
	mov	r0, #0	@ D.40104,
	bx	lr	@
.L1344:
	add	r0, r3, #229376	@ D.40104, D.40105,
	add	r0, r0, #792	@ D.40104, D.40104,
	bx	lr	@
.L1342:
	mov	r0, r3	@ D.40104, D.40105
	bx	lr	@
.L1346:
	.align	2
.L1345:
	.word	.LANCHOR0
	.fnend
	.size	VCTRL_GetChanVoQue, .-VCTRL_GetChanVoQue
	.align	2
	.global	VCTRL_GetChanImgNum
	.type	VCTRL_GetChanImgNum, %function
VCTRL_GetChanImgNum:
	.fnstart
	@ args = 0, pretend = 0, frame = 0
	@ frame_needed = 0, uses_anonymous_args = 0
	stmfd	sp!, {r4, r5, r6, r7, r8, lr}	@,
	.save {r4, r5, r6, r7, r8, lr}
	ldr	r7, .L1356	@ tmp120,
	ldr	lr, [r7, r0, asl #2]	@ tmp121, s_pstVfmwChan
	cmp	lr, #0	@ tmp121,
	beq	.L1354	@,
	mov	r6, r3	@ pNewImgNum, pNewImgNum
	mov	r5, r2	@ pReadImgNum, pReadImgNum
	mov	r8, r1	@ pRefImgNum, pRefImgNum
	mov	r4, r0	@ ChanID, ChanID
	bl	VCTRL_GetChanVoQue	@
	subs	r3, r0, #0	@ pstVoQue,
	beq	.L1349	@,
	mov	r2, r6	@, pNewImgNum
	mov	r1, r5	@, pReadImgNum
	bl	GetQueueImgNum	@
	ldr	r3, [r7, r4, asl #2]	@ D.40115, s_pstVfmwChan
	ldr	r2, [r3, #880]	@ D.40116, _14->eVidStd
	cmp	r2, #0	@ D.40116,
	beq	.L1355	@,
	cmp	r2, #15	@ D.40116,
	movne	r3, #2	@ tmp129,
	strne	r3, [r8]	@ tmp129, *pRefImgNum_11(D)
	ldmnefd	sp!, {r4, r5, r6, r7, r8, pc}	@
	ldr	r1, .L1356+4	@,
	mov	r0, #32	@,
	ldmfd	sp!, {r4, r5, r6, r7, r8, lr}	@
	b	dprint_vfmw	@
.L1355:
	add	r3, r3, #241664	@ tmp126, D.40115,
	ldr	r3, [r3, #2480]	@ _14->stSynCtx.unSyntax.stH264Ctx.DPB.size, _14->stSynCtx.unSyntax.stH264Ctx.DPB.size
	str	r3, [r8]	@ _14->stSynCtx.unSyntax.stH264Ctx.DPB.size, *pRefImgNum_11(D)
	ldmfd	sp!, {r4, r5, r6, r7, r8, pc}	@
.L1349:
	str	r3, [r6]	@ pstVoQue, *pNewImgNum_7(D)
	str	r3, [r5]	@ pstVoQue, *pReadImgNum_9(D)
	str	r3, [r8]	@ pstVoQue, *pRefImgNum_11(D)
	ldmfd	sp!, {r4, r5, r6, r7, r8, pc}	@
.L1354:
	mov	r0, lr	@, tmp121
	ldr	r3, .L1356+8	@,
	movw	r2, #6816	@,
	ldr	r1, .L1356+12	@,
	ldmfd	sp!, {r4, r5, r6, r7, r8, lr}	@
	b	dprint_vfmw	@
.L1357:
	.align	2
.L1356:
	.word	.LANCHOR0
	.word	.LC163
	.word	.LC6
	.word	.LC120
	.fnend
	.size	VCTRL_GetChanImgNum, .-VCTRL_GetChanImgNum
	.align	2
	.global	VCTRL_GetChanState
	.type	VCTRL_GetChanState, %function
VCTRL_GetChanState:
	.fnstart
	@ args = 0, pretend = 0, frame = 40
	@ frame_needed = 0, uses_anonymous_args = 0
	stmfd	sp!, {r4, r5, r6, lr}	@,
	.save {r4, r5, r6, lr}
	cmp	r0, #3	@ ChanID,
	.pad #40
	sub	sp, sp, #40	@,,
	mov	r5, r0	@ ChanID, ChanID
	mov	r0, #0	@ tmp132,
	str	r0, [sp, #12]	@ tmp132, NewNum
	str	r0, [sp, #8]	@ tmp132, ReadNum
	str	r0, [sp, #4]	@ tmp132, RefNum
	bhi	.L1367	@,
	cmp	r1, #0	@ pstChanState,
	mov	r4, r1	@ pstChanState, pstChanState
	beq	.L1368	@,
	ldr	r6, .L1371	@ tmp193,
	ldr	r0, [r6, r5, asl #2]	@ D.40123, s_pstVfmwChan
	cmp	r0, #0	@ D.40123,
	beq	.L1369	@,
	add	r1, r0, #1280	@, D.40123,
	mov	r2, #104	@,
	add	r1, r1, #4	@,,
	mov	r0, r4	@, pstChanState
	bl	memcpy	@
	add	r3, sp, #12	@,,
	add	r2, sp, #8	@,,
	add	r1, sp, #4	@,,
	mov	r0, r5	@, ChanID
	bl	VCTRL_GetChanImgNum	@
	ldr	r3, [r6, r5, asl #2]	@ D.40123, s_pstVfmwChan
	ldr	r2, [r3, #1580]	@ _17->stSynExtraData.stChanOption.DynamicSwitchDnrParam.s32DynamicSwitchDnrEnable, _17->stSynExtraData.stChanOption.DynamicSwitchDnrParam.s32DynamicSwitchDnrEnable
	cmp	r2, #1	@ _17->stSynExtraData.stChanOption.DynamicSwitchDnrParam.s32DynamicSwitchDnrEnable,
	beq	.L1370	@,
.L1363:
	mov	r1, r4	@, pstChanState
	mov	r0, r5	@, ChanID
	bl	VCTRL_GetDispStateWithDNR	@
.L1365:
	ldr	r2, .L1371+4	@ tmp157,
	mov	r3, r5, asl #5	@ tmp160, ChanID,
	sub	r3, r3, r5, asl #3	@ tmp161, tmp160, ChanID,
	ldr	ip, [sp, #8]	@ ReadNum, ReadNum
	add	r3, r2, r3	@ tmp162, tmp157, tmp161
	ldr	r2, [sp, #12]	@ NewNum, NewNum
	add	r1, sp, #16	@,,
	mov	r0, r5	@, ChanID
	add	r2, ip, r2	@ D.40125, ReadNum, NewNum
	str	r2, [r4, #52]	@ D.40125, pstChanState_10(D)->decoded_1d_frame_num
	ldr	r2, [r3, #-3368]	@ g_VfmwChanStat[ChanID_7(D)].u32IsFieldFlag, g_VfmwChanStat[ChanID_7(D)].u32IsFieldFlag
	ldr	r3, [r3, #-3380]	@ D.40126, g_VfmwChanStat[ChanID_7(D)].u32FrFrameRate
	str	r2, [r4, #100]	@ g_VfmwChanStat[ChanID_7(D)].u32IsFieldFlag, pstChanState_10(D)->is_field_flg
	str	r3, [r4, #24]	@ D.40126, pstChanState_10(D)->frame_rate
	bl	SM_GetInfo	@
	ldr	r2, [sp, #36]	@ ScdInstInfo.numReadSegFail, ScdInstInfo.numReadSegFail
	ldr	r3, [r6, r5, asl #2]	@ tmp181, s_pstVfmwChan
	ldr	r0, [sp, #32]	@ ScdInstInfo.TotalSegSize, ScdInstInfo.TotalSegSize
	cmp	r2, #10	@ ScdInstInfo.numReadSegFail,
	ldr	r1, [sp, #24]	@ ScdInstInfo.SegNum, ScdInstInfo.SegNum
	add	r3, r3, #229376	@ tmp188, tmp181,
	movle	r2, #0	@ D.40127,
	movgt	r2, #1	@ D.40127,
	str	r0, [r4, #56]	@ ScdInstInfo.TotalSegSize, pstChanState_10(D)->buffered_stream_size
	str	r1, [r4, #60]	@ ScdInstInfo.SegNum, pstChanState_10(D)->buffered_stream_num
	str	r2, [r4, #84]	@ D.40127, pstChanState_10(D)->stream_not_enough
	ldrb	r3, [r3, #4008]	@ zero_extendqisi2	@ MEM[(struct MP4_CTX_S *)_40 + 217520B], MEM[(struct MP4_CTX_S *)_40 + 217520B]
	and	r3, r3, #1	@ D.40128, MEM[(struct MP4_CTX_S *)_40 + 217520B],
	str	r3, [r4, #92]	@ D.40128, pstChanState_10(D)->mpeg4_shorthead
.L1358:
	add	sp, sp, #40	@,,
	@ sp needed	@
	ldmfd	sp!, {r4, r5, r6, pc}	@
.L1370:
	ldr	r3, [r3, #1604]	@ _17->stSynExtraData.s32DnrEnable, _17->stSynExtraData.s32DnrEnable
	cmp	r3, #1	@ _17->stSynExtraData.s32DnrEnable,
	beq	.L1363	@,
	ldr	r2, [sp, #4]	@, RefNum
	mov	r1, r4	@, pstChanState
	mov	r0, r5	@, ChanID
	bl	VCTRL_GetDispState	@
	b	.L1365	@
.L1367:
	mov	r2, r5	@, ChanID
	ldr	r1, .L1371+8	@,
	bl	dprint_vfmw	@
	add	sp, sp, #40	@,,
	@ sp needed	@
	ldmfd	sp!, {r4, r5, r6, pc}	@
.L1369:
	ldr	r3, .L1371+12	@,
	movw	r2, #1293	@,
	ldr	r1, .L1371+16	@,
	bl	dprint_vfmw	@
	b	.L1358	@
.L1368:
	mov	r0, r1	@, pstChanState
	ldr	r3, .L1371+20	@,
	movw	r2, #1292	@,
	ldr	r1, .L1371+16	@,
	bl	dprint_vfmw	@
	b	.L1358	@
.L1372:
	.align	2
.L1371:
	.word	.LANCHOR0
	.word	.LANCHOR3
	.word	.LC164
	.word	.LC166
	.word	.LC120
	.word	.LC165
	.fnend
	.size	VCTRL_GetChanState, .-VCTRL_GetChanState
	.align	2
	.global	VCTRL_GetDSDFlag
	.type	VCTRL_GetDSDFlag, %function
VCTRL_GetDSDFlag:
	.fnstart
	@ args = 0, pretend = 0, frame = 0
	@ frame_needed = 0, uses_anonymous_args = 0
	@ link register save eliminated.
	ldr	r3, .L1374	@ tmp117,
	ldr	r3, [r3, r0, asl #2]	@ tmp118, s_pstVfmwChan
	ldr	r0, [r3, #1580]	@ _4->stSynExtraData.stChanOption.DynamicSwitchDnrParam.s32DynamicSwitchDnrEnable, _4->stSynExtraData.stChanOption.DynamicSwitchDnrParam.s32DynamicSwitchDnrEnable
	sub	r0, r0, #1	@, _4->stSynExtraData.stChanOption.DynamicSwitchDnrParam.s32DynamicSwitchDnrEnable,
	clz	r0, r0	@,
	mov	r0, r0, lsr #5	@,,
	bx	lr	@
.L1375:
	.align	2
.L1374:
	.word	.LANCHOR0
	.fnend
	.size	VCTRL_GetDSDFlag, .-VCTRL_GetDSDFlag
	.align	2
	.global	VCTRL_RlsDSDFrame
	.type	VCTRL_RlsDSDFrame, %function
VCTRL_RlsDSDFrame:
	.fnstart
	@ args = 0, pretend = 0, frame = 0
	@ frame_needed = 0, uses_anonymous_args = 0
	cmp	r0, #3	@ ChanID,
	stmfd	sp!, {r4, r5, r6, r7, r8, lr}	@,
	.save {r4, r5, r6, r7, r8, lr}
	mov	r7, r0	@ ChanID, ChanID
	bhi	.L1393	@,
	ldr	r4, .L1398	@ tmp132,
	ldr	r0, [r4, r0, asl #2]	@ D.40159, s_pstVfmwChan
	cmp	r0, #0	@ D.40159,
	beq	.L1394	@,
	ldr	r3, [r0, #4]	@ _7->s32IsOpen, _7->s32IsOpen
	cmp	r3, #1	@ _7->s32IsOpen,
	bne	.L1395	@,
	cmp	r1, #0	@ pImage,
	beq	.L1396	@,
	ldr	r0, .L1398+4	@,
	bl	OSAL_SpinLockIRQ	@
	ldr	r3, [r4, r7, asl #2]	@ D.40159, s_pstVfmwChan
	cmp	r3, #0	@ D.40159,
	movweq	r2, #6929	@,
	beq	.L1392	@,
	ldr	r3, [r3, #4]	@ _14->s32IsOpen, _14->s32IsOpen
	cmp	r3, #1	@ _14->s32IsOpen,
	bne	.L1397	@,
	ldr	r0, .L1398+8	@,
	bl	OSAL_SpinLockIRQ	@
	ldr	r4, [r4, r7, asl #2]	@ D.40159, s_pstVfmwChan
	movw	r3, #1546	@ tmp154,
	add	r2, r4, #180224	@ tmp152, D.40159,
	ldrsb	r6, [r2, r3]	@ s32AllDecFrameNum, _25->FspInst.s32DecFsNum
	cmp	r6, #0	@ s32AllDecFrameNum,
	addgt	r4, r4, #216064	@ ivtmp.768, D.40159,
	movgt	r5, #0	@ i,
	addgt	r4, r4, #376	@ ivtmp.768, ivtmp.768,
	bgt	.L1388	@,
	b	.L1389	@
.L1386:
	cmp	r6, r5	@ s32AllDecFrameNum, i
	add	r4, r4, #16	@ ivtmp.768, ivtmp.768,
	beq	.L1389	@,
.L1388:
	ldr	r3, [r4, #-16]	@ MEM[base: _40, offset: 4294967280B], MEM[base: _40, offset: 4294967280B]
	add	r5, r5, #1	@ i, i,
	cmp	r3, #1	@ MEM[base: _40, offset: 4294967280B],
	bne	.L1386	@,
	ldr	r2, [r4, #-8]	@, MEM[base: _40, offset: 4294967288B]
	mov	r0, r7	@, ChanID
	ldr	r1, [r4, #-12]	@, MEM[base: _40, offset: 4294967284B]
	add	r4, r4, #16	@ ivtmp.768, ivtmp.768,
	bl	DNR_FsIsInImgQue	@
	cmp	r0, #0	@ s32UsingCount
	streq	r0, [r4, #-20]	@ s32UsingCount, MEM[base: _40, offset: 4294967292B]
	streq	r0, [r4, #-32]	@ s32UsingCount, MEM[base: _40, offset: 4294967280B]
	cmp	r6, r5	@ s32AllDecFrameNum, i
	bne	.L1388	@,
.L1389:
	ldr	r0, .L1398+8	@,
	bl	OSAL_SpinUnLockIRQ	@
	ldr	r0, .L1398+4	@,
	bl	OSAL_SpinUnLockIRQ	@
	mov	r0, #0	@ D.40157,
	ldmfd	sp!, {r4, r5, r6, r7, r8, pc}	@
.L1397:
	movw	r2, #6936	@,
.L1392:
	ldr	r1, .L1398+12	@,
	mov	r0, #31	@,
	bl	dprint_vfmw	@
	ldr	r0, .L1398+4	@,
	bl	OSAL_SpinUnLockIRQ	@
	mvn	r0, #0	@ D.40157,
	ldmfd	sp!, {r4, r5, r6, r7, r8, pc}	@
.L1395:
	ldr	r3, .L1398+16	@,
	movw	r2, #6923	@,
	ldr	r1, .L1398+20	@,
	mov	r0, #0	@,
	bl	dprint_vfmw	@
	mvn	r0, #0	@ D.40157,
	ldmfd	sp!, {r4, r5, r6, r7, r8, pc}	@
.L1393:
	ldr	r3, .L1398+24	@,
	movw	r2, #6921	@,
	ldr	r1, .L1398+20	@,
	mov	r0, #0	@,
	bl	dprint_vfmw	@
	mvn	r0, #0	@ D.40157,
	ldmfd	sp!, {r4, r5, r6, r7, r8, pc}	@
.L1396:
	mov	r0, r1	@, pImage
	ldr	r3, .L1398+28	@,
	movw	r2, #6924	@,
	ldr	r1, .L1398+20	@,
	bl	dprint_vfmw	@
	mvn	r0, #0	@ D.40157,
	ldmfd	sp!, {r4, r5, r6, r7, r8, pc}	@
.L1394:
	ldr	r3, .L1398+32	@,
	movw	r2, #6922	@,
	ldr	r1, .L1398+20	@,
	bl	dprint_vfmw	@
	mvn	r0, #0	@ D.40157,
	ldmfd	sp!, {r4, r5, r6, r7, r8, pc}	@
.L1399:
	.align	2
.L1398:
	.word	.LANCHOR0
	.word	g_SpinLockIrq_Destroy
	.word	.LANCHOR3-3292
	.word	.LC93
	.word	.LC169
	.word	.LC5
	.word	.LC167
	.word	.LC170
	.word	.LC168
	.fnend
	.size	VCTRL_RlsDSDFrame, .-VCTRL_RlsDSDFrame
	.align	2
	.global	VCTRL_GetChanWidth
	.type	VCTRL_GetChanWidth, %function
VCTRL_GetChanWidth:
	.fnstart
	@ args = 0, pretend = 0, frame = 0
	@ frame_needed = 0, uses_anonymous_args = 0
	cmp	r0, #3	@ ChanID,
	stmfd	sp!, {r4, lr}	@,
	.save {r4, lr}
	bhi	.L1405	@,
	ldr	r3, .L1407	@ tmp117,
	ldr	r0, [r3, r0, asl #2]	@ D.40173, s_pstVfmwChan
	cmp	r0, #0	@ D.40173,
	beq	.L1406	@,
	ldr	r0, [r0, #1456]	@ D.40171, _7->stSynExtraData.stChanOption.s32MaxWidth
	ldmfd	sp!, {r4, pc}	@
.L1405:
	ldr	r3, .L1407+4	@,
	movw	r2, #6951	@,
	ldr	r1, .L1407+8	@,
	mov	r0, #0	@,
	bl	dprint_vfmw	@
	mvn	r0, #0	@ D.40171,
	ldmfd	sp!, {r4, pc}	@
.L1406:
	ldr	r3, .L1407+12	@,
	movw	r2, #6952	@,
	ldr	r1, .L1407+8	@,
	bl	dprint_vfmw	@
	mvn	r0, #0	@ D.40171,
	ldmfd	sp!, {r4, pc}	@
.L1408:
	.align	2
.L1407:
	.word	.LANCHOR0
	.word	.LC69
	.word	.LC5
	.word	.LC6
	.fnend
	.size	VCTRL_GetChanWidth, .-VCTRL_GetChanWidth
	.align	2
	.global	VCTRL_GetChanHeight
	.type	VCTRL_GetChanHeight, %function
VCTRL_GetChanHeight:
	.fnstart
	@ args = 0, pretend = 0, frame = 0
	@ frame_needed = 0, uses_anonymous_args = 0
	cmp	r0, #3	@ ChanID,
	stmfd	sp!, {r4, lr}	@,
	.save {r4, lr}
	bhi	.L1414	@,
	ldr	r3, .L1416	@ tmp117,
	ldr	r0, [r3, r0, asl #2]	@ D.40178, s_pstVfmwChan
	cmp	r0, #0	@ D.40178,
	beq	.L1415	@,
	ldr	r0, [r0, #1460]	@ D.40176, _7->stSynExtraData.stChanOption.s32MaxHeight
	ldmfd	sp!, {r4, pc}	@
.L1414:
	ldr	r3, .L1416+4	@,
	movw	r2, #6959	@,
	ldr	r1, .L1416+8	@,
	mov	r0, #0	@,
	bl	dprint_vfmw	@
	mvn	r0, #0	@ D.40176,
	ldmfd	sp!, {r4, pc}	@
.L1415:
	ldr	r3, .L1416+12	@,
	movw	r2, #6960	@,
	ldr	r1, .L1416+8	@,
	bl	dprint_vfmw	@
	mvn	r0, #0	@ D.40176,
	ldmfd	sp!, {r4, pc}	@
.L1417:
	.align	2
.L1416:
	.word	.LANCHOR0
	.word	.LC69
	.word	.LC5
	.word	.LC6
	.fnend
	.size	VCTRL_GetChanHeight, .-VCTRL_GetChanHeight
	.align	2
	.global	VCTRL_GetChanCapLevel
	.type	VCTRL_GetChanCapLevel, %function
VCTRL_GetChanCapLevel:
	.fnstart
	@ args = 0, pretend = 0, frame = 0
	@ frame_needed = 0, uses_anonymous_args = 0
	cmp	r0, #3	@ ChanID,
	bhi	.L1424	@,
	ldr	r3, .L1425	@ tmp117,
	ldr	r3, [r3, r0, asl #2]	@ D.40183, s_pstVfmwChan
	cmp	r3, #0	@ D.40183,
	ldrne	r0, [r3, #24]	@ D.40181, _7->eChanCapLevel
	moveq	r0, #33	@ D.40181,
	bx	lr	@
.L1424:
	stmfd	sp!, {r4, lr}	@,
	.save {r4, lr}
	movw	r2, #6967	@,
	ldr	r3, .L1425+4	@,
	mov	r0, #0	@,
	ldr	r1, .L1425+8	@,
	bl	dprint_vfmw	@
	mvn	r0, #0	@ D.40181,
	ldmfd	sp!, {r4, pc}	@
.L1426:
	.align	2
.L1425:
	.word	.LANCHOR0
	.word	.LC69
	.word	.LC5
	.fnend
	.size	VCTRL_GetChanCapLevel, .-VCTRL_GetChanCapLevel
	.align	2
	.global	VCTRL_SetVdecExtra
	.type	VCTRL_SetVdecExtra, %function
VCTRL_SetVdecExtra:
	.fnstart
	@ args = 0, pretend = 0, frame = 0
	@ frame_needed = 0, uses_anonymous_args = 0
	add	r3, r0, #4992	@ D.40186, new_extra_ref,
	movw	r2, #10000	@ tmp125,
	stmfd	sp!, {r4, r5, r6, lr}	@,
	.save {r4, r5, r6, lr}
	add	r3, r3, #8	@ D.40186, D.40186,
	ldr	r5, .L1435	@ tmp144,
	cmp	r3, r2	@ D.40186, tmp125
	mov	r4, r1	@ new_extra_disp, new_extra_disp
	str	r0, [r5, #3660]	@ new_extra_ref, extra_ref
	bhi	.L1433	@,
.L1428:
	movw	r1, #5000	@ tmp130,
	cmp	r0, r1	@ D.40188, tmp130
	movw	r2, #60536	@ tmp132,
	add	r3, r4, #4992	@ D.40186, new_extra_disp,
	movge	r0, r1	@ D.40187, tmp130
	movt	r2, 65535	@ tmp132,
	cmp	r0, r2	@ D.40187, tmp132
	add	r3, r3, #8	@ D.40186, D.40186,
	movw	r1, #10000	@ tmp136,
	str	r4, [r5, #3664]	@ new_extra_disp, extra_disp
	movlt	r0, r2	@ D.40187, tmp132
	cmp	r3, r1	@ D.40186, tmp136
	str	r0, [r5, #3660]	@ D.40187, extra_ref
	ldr	r6, .L1435	@ tmp128,
	bhi	.L1434	@,
.L1429:
	movw	r2, #5000	@ tmp141,
	cmp	r4, r2	@ D.40188, tmp141
	movw	r3, #60536	@ tmp143,
	movge	r4, r2	@ D.40187, tmp141
	movt	r3, 65535	@ tmp143,
	cmp	r4, r3	@ D.40187, tmp143
	movlt	r4, r3	@ D.40187, tmp143
	str	r4, [r5, #3664]	@ D.40187, extra_disp
	ldmfd	sp!, {r4, r5, r6, pc}	@
.L1433:
	mov	r2, r0	@, new_extra_ref
	ldr	r1, .L1435+4	@,
	mov	r0, #32	@,
	bl	dprint_vfmw	@
	ldr	r0, [r5, #3660]	@ D.40188, extra_ref
	b	.L1428	@
.L1434:
	mov	r2, r4	@, new_extra_disp
	ldr	r1, .L1435+8	@,
	mov	r0, #32	@,
	bl	dprint_vfmw	@
	ldr	r4, [r6, #3664]	@ D.40188, extra_disp
	b	.L1429	@
.L1436:
	.align	2
.L1435:
	.word	.LANCHOR0
	.word	.LC171
	.word	.LC172
	.fnend
	.size	VCTRL_SetVdecExtra, .-VCTRL_SetVdecExtra
	.align	2
	.global	VCTRL_MaskAllInt
	.type	VCTRL_MaskAllInt, %function
VCTRL_MaskAllInt:
	.fnstart
	@ args = 0, pretend = 0, frame = 0
	@ frame_needed = 0, uses_anonymous_args = 0
	ldr	r3, .L1443	@ tmp112,
	stmfd	sp!, {r4, lr}	@,
	.save {r4, lr}
	ldr	r3, [r3, #52]	@ D.40195, g_vdm_hal_fun_ptr.pfun_VDMHAL_MaskInt
	cmp	r3, #0	@ D.40195,
	beq	.L1442	@,
	mov	r0, #0	@,
	blx	r3	@ D.40195
.L1439:
	bl	SCDDRV_MaskInt	@
	ldr	r3, .L1443+4	@ tmp114,
	ldr	r0, [r3, #24]	@ D.40194, g_dnr_hal_fun_ptr.pfun_DNRHAL_MaskInt
	cmp	r0, #0	@ D.40194,
	beq	.L1440	@,
	ldmfd	sp!, {r4, lr}	@
	bx	r0	@ indirect register sibling call	@ D.40194
.L1440:
	movw	r2, #7013	@,
	ldr	r1, .L1443+8	@,
	ldmfd	sp!, {r4, lr}	@
	b	dprint_vfmw	@
.L1442:
	mov	r0, r3	@, D.40195
	movw	r2, #7005	@,
	ldr	r1, .L1443+12	@,
	bl	dprint_vfmw	@
	b	.L1439	@
.L1444:
	.align	2
.L1443:
	.word	g_vdm_hal_fun_ptr
	.word	g_dnr_hal_fun_ptr
	.word	.LC157
	.word	.LC32
	.fnend
	.size	VCTRL_MaskAllInt, .-VCTRL_MaskAllInt
	.align	2
	.global	VCTRL_EnableAllInt
	.type	VCTRL_EnableAllInt, %function
VCTRL_EnableAllInt:
	.fnstart
	@ args = 0, pretend = 0, frame = 0
	@ frame_needed = 0, uses_anonymous_args = 0
	ldr	r3, .L1451	@ tmp112,
	stmfd	sp!, {r4, lr}	@,
	.save {r4, lr}
	ldr	r3, [r3, #56]	@ D.40200, g_vdm_hal_fun_ptr.pfun_VDMHAL_EnableInt
	cmp	r3, #0	@ D.40200,
	beq	.L1450	@,
	mov	r0, #0	@,
	blx	r3	@ D.40200
.L1447:
	bl	SCDDRV_EnableInt	@
	ldr	r3, .L1451+4	@ tmp114,
	ldr	r0, [r3, #28]	@ D.40199, g_dnr_hal_fun_ptr.pfun_DNRHAL_EnableInt
	cmp	r0, #0	@ D.40199,
	beq	.L1448	@,
	ldmfd	sp!, {r4, lr}	@
	bx	r0	@ indirect register sibling call	@ D.40199
.L1448:
	movw	r2, #7035	@,
	ldr	r1, .L1451+8	@,
	ldmfd	sp!, {r4, lr}	@
	b	dprint_vfmw	@
.L1450:
	mov	r0, r3	@, D.40200
	movw	r2, #7027	@,
	ldr	r1, .L1451+12	@,
	bl	dprint_vfmw	@
	b	.L1447	@
.L1452:
	.align	2
.L1451:
	.word	g_vdm_hal_fun_ptr
	.word	g_dnr_hal_fun_ptr
	.word	.LC157
	.word	.LC32
	.fnend
	.size	VCTRL_EnableAllInt, .-VCTRL_EnableAllInt
	.align	2
	.global	Save2DYuv
	.type	Save2DYuv, %function
Save2DYuv:
	.fnstart
	@ args = 8, pretend = 0, frame = 16
	@ frame_needed = 0, uses_anonymous_args = 0
	stmfd	sp!, {r4, r5, r6, r7, r8, r9, r10, fp, lr}	@,
	.save {r4, r5, r6, r7, r8, r9, r10, fp, lr}
	mov	r10, r3	@ Height, Height
	.pad #20
	sub	sp, sp, #20	@,,
	mov	r3, r2, asl #1	@ D.40238, Width,
	mov	r4, r2	@ Width, Width
	mov	r8, r1	@ ChromOfst, ChromOfst
	str	r2, [sp, #8]	@ Width, %sfp
	mov	r2, #0	@,
	mul	r1, r10, r3	@, Height, D.40238
	ldr	r7, [sp, #56]	@ Stride, Stride
	ldr	r6, [sp, #60]	@ fp, fp
	bl	__arm_ioremap	@
	subs	r5, r0, #0	@ pLuma,
	beq	.L1453	@,
	mul	fp, r10, r4	@ D.40238, Height, Width
	add	r8, r5, r8	@ pChrom, pLuma, ChromOfst
	add	r3, fp, fp, lsr #31	@ tmp153, D.40238, D.40238,
	mov	r3, r3, asr #1	@ D.40238, tmp153,
	str	r3, [sp, #12]	@ D.40238, %sfp
	add	r0, r3, #1024	@, D.40238,
	bl	OSAL_AllocVirMem	@
	subs	r3, r0, #0	@ pUV,
	str	r3, [sp, #4]	@ pUV, %sfp
	beq	.L1455	@,
	cmp	fp, #0	@ D.40238,
	add	r9, fp, #3	@ tmp158, D.40238,
	movge	r9, fp	@ D.40238, D.40238
	cmp	r10, #0	@ Height,
	add	r9, r3, r9, asr #2	@ pV, pUV, D.40238,
	movgt	r4, #0	@ y,
	ble	.L1460	@,
.L1459:
	add	r4, r4, #1	@ y, y,
	mov	r2, r6	@, fp
	mov	r1, fp	@, D.40238
	mov	r0, r5	@, pLuma
	bl	klib_fwrite	@
	cmp	r4, r10	@ y, Height
	bne	.L1459	@,
.L1460:
	add	r10, r10, r10, lsr #31	@ tmp161, Height, Height,
	mov	r10, r10, asr #1	@ D.40238, tmp161,
	cmp	r10, #0	@ D.40238,
	ble	.L1458	@,
	ldr	r3, [sp, #8]	@ Width, %sfp
	mov	r0, #0	@ y,
	ldr	fp, [sp, #4]	@ pUV, %sfp
	add	r4, r3, r3, lsr #31	@ tmp164, Width, Width,
	mov	r2, r4, asr #1	@ D.40238, tmp164,
.L1461:
	cmp	r2, #0	@ D.40238,
	ble	.L1463	@,
	sub	ip, fp, #1	@ ivtmp.800, pUV,
	sub	r1, r9, #1	@ ivtmp.811, pV,
	add	r4, r8, r2	@ D.40244, pChrom, D.40238
	mov	r3, r8	@ ivtmp.797, pChrom
.L1462:
	ldrb	lr, [r3]	@ zero_extendqisi2	@ D.40243, MEM[base: _51, offset: 0B]
	strb	lr, [ip, #1]!	@ D.40243, MEM[base: _37, offset: 0B]
	ldrb	lr, [r3, #1]!	@ zero_extendqisi2	@ D.40243, MEM[base: _7, offset: 0B]
	cmp	r4, r3	@ D.40244, ivtmp.797
	strb	lr, [r1, #1]!	@ D.40243, MEM[base: _11, offset: 0B]
	bne	.L1462	@,
	add	fp, fp, r2	@ pUV, pUV, D.40238
	add	r9, r9, r2	@ pV, pV, D.40238
.L1463:
	add	r0, r0, #1	@ y, y,
	add	r8, r8, r7	@ pChrom, pChrom, Stride
	cmp	r0, r10	@ y, D.40238
	bne	.L1461	@,
.L1458:
	mov	r2, r6	@, fp
	ldr	r1, [sp, #12]	@, %sfp
	ldr	r0, [sp, #4]	@, %sfp
	bl	klib_fwrite	@
.L1455:
	mov	r0, r5	@, pLuma
	bl	__arm_iounmap	@
	ldr	r3, [sp, #4]	@ pUV, %sfp
	cmp	r3, #0	@ pUV,
	beq	.L1453	@,
	ldr	r0, [sp, #4]	@, %sfp
	add	sp, sp, #20	@,,
	@ sp needed	@
	ldmfd	sp!, {r4, r5, r6, r7, r8, r9, r10, fp, lr}	@
	b	OSAL_FreeVirMem	@
.L1453:
	add	sp, sp, #20	@,,
	@ sp needed	@
	ldmfd	sp!, {r4, r5, r6, r7, r8, r9, r10, fp, pc}	@
	.fnend
	.size	Save2DYuv, .-Save2DYuv
	.align	2
	.global	VfmwProcGetHandler
	.type	VfmwProcGetHandler, %function
VfmwProcGetHandler:
	.fnstart
	@ args = 0, pretend = 0, frame = 0
	@ frame_needed = 0, uses_anonymous_args = 0
	@ link register save eliminated.
	subs	r1, r0, #0	@ cmd, cmd
	ldrne	r3, .L1487	@ ivtmp.829,
	bne	.L1479	@,
	b	.L1485	@
.L1480:
	ldr	r2, [r3, #8]!	@ MEM[base: _14, offset: 0B], MEM[base: _14, offset: 0B]
	cmp	r2, r1	@ MEM[base: _14, offset: 0B], cmd
	beq	.L1486	@,
.L1479:
	ldr	r0, [r3, #12]	@ pTargetHandler, MEM[base: _9, offset: 12B]
	cmp	r0, #0	@ pTargetHandler,
	bne	.L1480	@,
	bx	lr	@
.L1486:
	bx	lr	@
.L1485:
	ldr	r0, .L1487+4	@ pTargetHandler,
	bx	lr	@
.L1488:
	.align	2
.L1487:
	.word	.LANCHOR1+168
	.word	VfmwProc_SetPrintLevel
	.fnend
	.size	VfmwProcGetHandler, .-VfmwProcGetHandler
	.align	2
	.global	VCTRL_SetDbgOption
	.type	VCTRL_SetDbgOption, %function
VCTRL_SetDbgOption:
	.fnstart
	@ args = 0, pretend = 0, frame = 0
	@ frame_needed = 0, uses_anonymous_args = 0
	cmp	r1, #0	@ p_args
	beq	.L1496	@,
	mov	r2, r0	@ opt, opt
	cmp	r2, #0	@ opt,
	stmfd	sp!, {r4, lr}	@,
	.save {r4, lr}
	mov	r0, r1	@ p_args, p_args
	ldrne	r3, .L1503	@ ivtmp.837,
	bne	.L1494	@,
	b	.L1502	@
.L1495:
	ldr	lr, [r3, #8]!	@ MEM[base: _5, offset: 0B], MEM[base: _5, offset: 0B]
	cmp	r2, lr	@ opt, MEM[base: _5, offset: 0B]
	beq	.L1492	@,
.L1494:
	ldr	ip, [r3, #12]	@ pCommandHandler, MEM[base: _10, offset: 12B]
	cmp	ip, #0	@ pCommandHandler,
	bne	.L1495	@,
	ldr	r1, .L1503+4	@,
	mov	r0, #32	@,
	bl	dprint_vfmw	@
	mvn	r0, #1	@ D.40271,
	ldmfd	sp!, {r4, pc}	@
.L1502:
	ldr	ip, .L1503+8	@ pCommandHandler,
.L1492:
	blx	ip	@ pCommandHandler
	mov	r0, #1	@ D.40271,
	ldmfd	sp!, {r4, pc}	@
.L1496:
	mvn	r0, #1	@ D.40271,
	bx	lr	@
.L1504:
	.align	2
.L1503:
	.word	.LANCHOR1+168
	.word	.LC173
	.word	VfmwProc_SetPrintLevel
	.fnend
	.size	VCTRL_SetDbgOption, .-VCTRL_SetDbgOption
	.align	2
	.global	VCTRL_ResetChanWithOption
	.type	VCTRL_ResetChanWithOption, %function
VCTRL_ResetChanWithOption:
	.fnstart
	@ args = 0, pretend = 0, frame = 8
	@ frame_needed = 0, uses_anonymous_args = 0
	stmfd	sp!, {r4, r5, r6, r7, r8, lr}	@,
	.save {r4, r5, r6, r7, r8, lr}
	mov	r4, r0	@ ChanID, ChanID
	ldr	r5, .L1531	@ tmp180,
	.pad #8
	sub	sp, sp, #8	@,,
	ldr	r3, [r5, r0, asl #2]	@ D.40278, s_pstVfmwChan
	cmp	r3, #0	@ D.40278,
	beq	.L1527	@,
	ldr	r2, [r1]	@ pOption_13(D)->s32KeepBS, pOption_13(D)->s32KeepBS
	mov	r6, r1	@ pOption, pOption
	cmp	r2, #1	@ pOption_13(D)->s32KeepBS,
	bhi	.L1528	@,
	ldr	r7, [r3, #8]	@ ChanIsRun, _11->s32IsRun
	bl	VCTRL_StopChan	@
	ldr	r2, [r5, r4, asl #2]	@ D.40278, s_pstVfmwChan
	mov	r3, r4, asl #5	@ tmp146, ChanID,
	ldr	r0, .L1531+4	@ tmp142,
	sub	r3, r3, r4, asl #3	@ tmp147, tmp146, ChanID,
	mov	r8, #0	@ tmp139,
	mov	r1, #24	@,
	add	r0, r0, r3	@, tmp142, tmp147
	str	r8, [r2, #680]	@ tmp139, _19->s32CountNoDecparamFlag
	str	r8, [r2, #684]	@ tmp139, _19->u32NoDecparamStartTime
	bl	__memzero	@
	mov	r0, r4	@, ChanID
	bl	DNR_InformDecChanReset	@
	ldr	r2, [r6, #4]	@ D.40279, pOption_13(D)->s32KeepSPSPPS
	ldr	r3, [r5, r4, asl #2]	@ tmp150, s_pstVfmwChan
	mov	r0, r4	@, ChanID
	str	r2, [r3, #1412]	@ D.40279, _25->stSynExtraData.s32KeepSPSPPS
	bl	InitSyntaxCtx	@
	ldr	r3, [r5, r4, asl #2]	@ D.40278, s_pstVfmwChan
	add	r1, r3, #217088	@, D.40278,
	ldr	r0, [r3, #880]	@, _29->eVidStd
	add	r1, r1, #432	@,,
	bl	ReleaseCurPic	@
	ldr	r0, [r5, r4, asl #2]	@ tmp157, s_pstVfmwChan
	mov	r1, #248	@,
	add	r0, r0, #1024	@, tmp157,
	bl	__memzero	@
	ldr	r3, [r5, r4, asl #2]	@ D.40278, s_pstVfmwChan
	mvn	r0, #0	@ tmp161,
	mvn	r1, #0	@,
	add	r2, r3, #960	@ tmp163, D.40278,
	add	ip, r3, #944	@ tmp160, D.40278,
	strd	r0, [ip]	@ tmp161, _36->stSynExtraData.pts
	strd	r0, [r2, #-8]	@ tmp161, tmp163,
	mov	r0, r4	@, ChanID
	ldr	r2, [r3, #880]	@ _36->eVidStd, _36->eVidStd
	str	r8, [r3, #1272]	@ tmp139, _36->stSynExtraData.s32NewPicSegDetector
	cmp	r2, #18	@ _36->eVidStd,
	str	r8, [r3, #1620]	@ tmp139, _36->stSynExtraData.s32firstIdecodedflag
	beq	.L1509	@,
	bl	FSP_ResetInstance	@
.L1510:
	mov	r0, r4	@, ChanID
	bl	InitUsdPool	@
	ldr	r3, [r6]	@ pOption_13(D)->s32KeepBS, pOption_13(D)->s32KeepBS
	cmp	r3, #0	@ pOption_13(D)->s32KeepBS,
	beq	.L1529	@,
.L1511:
	ldr	r3, [r5, #184]	@ g_ResetCreateNewSave, g_ResetCreateNewSave
	ldr	r5, .L1531	@ tmp169,
	cmp	r3, #0	@ g_ResetCreateNewSave,
	beq	.L1512	@,
	ldr	r3, [r5, #228]	@ vfmw_save_str_file, vfmw_save_str_file
	mov	r2, #0	@ tmp171,
	add	r6, sp, #4	@ tmp181,,
	str	r2, [sp, #4]	@ tmp171, data
	cmp	r3, r2	@ vfmw_save_str_file,
	beq	.L1515	@,
	mov	r0, #512	@,
	mov	r1, r6	@, tmp181
	bl	VCTRL_SetDbgOption	@
	ldr	r3, [r5, #228]	@ vfmw_save_str_file, vfmw_save_str_file
	cmp	r3, #0	@ vfmw_save_str_file,
	beq	.L1515	@,
.L1514:
	ldr	r1, .L1531+8	@,
	mov	r0, #32	@,
	bl	dprint_vfmw	@
.L1512:
	cmp	r7, #0	@ ChanIsRun,
	bne	.L1530	@,
.L1516:
	mov	r0, r4	@, ChanID
	bl	VDMDRV_ClearChanIsDec	@
	mov	r0, #0	@ D.40277,
.L1507:
	add	sp, sp, #8	@,,
	@ sp needed	@
	ldmfd	sp!, {r4, r5, r6, r7, r8, pc}	@
.L1529:
	mov	r0, r4	@, ChanID
	bl	SM_Reset	@
	b	.L1511	@
.L1530:
	mov	r0, r4	@, ChanID
	bl	VCTRL_StartChan	@
	b	.L1516	@
.L1509:
	bl	FSP_EmptyInstance	@
	b	.L1510	@
.L1515:
	mov	r1, r6	@, tmp181
	mov	r0, #512	@,
	bl	VCTRL_SetDbgOption	@
	b	.L1514	@
.L1528:
	movw	r2, #3757	@,
	ldr	r1, .L1531+12	@,
	mov	r0, #0	@,
	bl	dprint_vfmw	@
	mvn	r0, #0	@ D.40277,
	add	sp, sp, #8	@,,
	@ sp needed	@
	ldmfd	sp!, {r4, r5, r6, r7, r8, pc}	@
.L1527:
	mov	r0, r3	@, D.40278
	movw	r2, #3753	@,
	ldr	r3, .L1531+16	@,
	ldr	r1, .L1531+20	@,
	bl	dprint_vfmw	@
	mvn	r0, #0	@ D.40277,
	b	.L1507	@
.L1532:
	.align	2
.L1531:
	.word	.LANCHOR0
	.word	.LANCHOR3-3388
	.word	.LC175
	.word	.LC174
	.word	.LC6
	.word	.LC5
	.fnend
	.size	VCTRL_ResetChanWithOption, .-VCTRL_ResetChanWithOption
	.align	2
	.global	VCTRL_ResetChan
	.type	VCTRL_ResetChan, %function
VCTRL_ResetChan:
	.fnstart
	@ args = 0, pretend = 0, frame = 8
	@ frame_needed = 0, uses_anonymous_args = 0
	stmfd	sp!, {r4, r5, r6, r7, r8, lr}	@,
	.save {r4, r5, r6, r7, r8, lr}
	mov	r4, r0	@ ChanID, ChanID
	ldr	r6, .L1559	@ tmp183,
	.pad #8
	sub	sp, sp, #8	@,,
	ldr	r3, [r6, r0, asl #2]	@ D.40290, s_pstVfmwChan
	cmp	r3, #0	@ D.40290,
	beq	.L1555	@,
	ldr	r7, [r3, #8]	@ ChanIsRun, _12->s32IsRun
	bl	VCTRL_StopChan	@
	ldr	r2, [r6, r4, asl #2]	@ D.40290, s_pstVfmwChan
	mov	r3, r4, asl #5	@ tmp139, ChanID,
	ldr	r0, .L1559+4	@ tmp135,
	sub	r3, r3, r4, asl #3	@ tmp140, tmp139, ChanID,
	mov	r5, #0	@ tmp132,
	mov	r1, #24	@,
	str	r5, [r2, #680]	@ tmp132, _16->s32CountNoDecparamFlag
	add	r0, r0, r3	@, tmp135, tmp140
	str	r5, [r2, #684]	@ tmp132, _16->u32NoDecparamStartTime
	bl	__memzero	@
	mov	r0, r4	@, ChanID
	bl	DNR_InformDecChanReset	@
	ldr	r3, [r6, r4, asl #2]	@ tmp143, s_pstVfmwChan
	mov	r0, r4	@, ChanID
	str	r5, [r3, #1412]	@ tmp132, _22->stSynExtraData.s32KeepSPSPPS
	bl	InitSyntaxCtx	@
	ldr	r0, [r6, r4, asl #2]	@ tmp147, s_pstVfmwChan
	mov	r1, #248	@,
	add	r0, r0, #1024	@, tmp147,
	bl	__memzero	@
	ldr	r3, [r6, r4, asl #2]	@ D.40290, s_pstVfmwChan
	mvn	r0, #0	@ tmp151,
	mvn	r1, #0	@,
	add	r2, r3, #217088	@ tmp158, D.40290,
	add	lr, r3, #944	@ tmp150, D.40290,
	add	ip, r3, #960	@ tmp153, D.40290,
	strd	r0, [lr]	@ tmp151, _28->stSynExtraData.pts
	strd	r0, [ip, #-8]	@ tmp151, tmp153,
	mov	r0, r4	@, ChanID
	str	r5, [r3, #1272]	@ tmp132, _28->stSynExtraData.s32NewPicSegDetector
	str	r5, [r3, #1620]	@ tmp132, _28->stSynExtraData.s32firstIdecodedflag
	str	r5, [r2, #384]	@ tmp132, _28->s32FindStartCodeCnt
	str	r5, [r2, #376]	@ tmp132, _28->s32H264Score
	str	r5, [r2, #380]	@ tmp132, _28->s32Mpeg2Score
	ldr	r2, [r3, #1580]	@ _28->stSynExtraData.stChanOption.DynamicSwitchDnrParam.s32DynamicSwitchDnrEnable, _28->stSynExtraData.stChanOption.DynamicSwitchDnrParam.s32DynamicSwitchDnrEnable
	cmp	r2, #1	@ _28->stSynExtraData.stChanOption.DynamicSwitchDnrParam.s32DynamicSwitchDnrEnable,
	streq	r5, [r3, #1616]	@ tmp132, _28->stSynExtraData.s32DSDWaitFlag
	ldr	r3, [r3, #880]	@ _28->eVidStd, _28->eVidStd
	cmp	r3, #18	@ _28->eVidStd,
	beq	.L1537	@,
	bl	FSP_ResetInstance	@
.L1538:
	mov	r0, r4	@, ChanID
	ldr	r5, .L1559	@ tmp169,
	bl	InitUsdPool	@
	mov	r0, r4	@, ChanID
	bl	SM_Reset	@
	ldr	r3, [r6, #184]	@ g_ResetCreateNewSave, g_ResetCreateNewSave
	cmp	r3, #0	@ g_ResetCreateNewSave,
	bne	.L1556	@,
	cmp	r7, #0	@ ChanIsRun,
	bne	.L1557	@,
.L1543:
	ldr	r3, [r6, r4, asl #2]	@ tmp180, s_pstVfmwChan
	ldr	r3, [r3, #1580]	@ _52->stSynExtraData.stChanOption.DynamicSwitchDnrParam.s32DynamicSwitchDnrEnable, _52->stSynExtraData.stChanOption.DynamicSwitchDnrParam.s32DynamicSwitchDnrEnable
	cmp	r3, #1	@ _52->stSynExtraData.stChanOption.DynamicSwitchDnrParam.s32DynamicSwitchDnrEnable,
	beq	.L1558	@,
.L1544:
	mov	r0, r4	@, ChanID
	bl	VDMDRV_ClearChanIsDec	@
	mov	r0, #0	@ D.40289,
.L1535:
	add	sp, sp, #8	@,,
	@ sp needed	@
	ldmfd	sp!, {r4, r5, r6, r7, r8, pc}	@
.L1556:
	ldr	r3, [r5, #228]	@ vfmw_save_str_file, vfmw_save_str_file
	mov	r2, #0	@ tmp171,
	add	r8, sp, #4	@ tmp184,,
	str	r2, [sp, #4]	@ tmp171, data
	cmp	r3, r2	@ vfmw_save_str_file,
	beq	.L1542	@,
	mov	r0, #512	@,
	mov	r1, r8	@, tmp184
	bl	VCTRL_SetDbgOption	@
	ldr	r3, [r5, #228]	@ vfmw_save_str_file, vfmw_save_str_file
	cmp	r3, #0	@ vfmw_save_str_file,
	beq	.L1542	@,
.L1541:
	ldr	r1, .L1559+8	@,
	mov	r0, #32	@,
	bl	dprint_vfmw	@
	cmp	r7, #0	@ ChanIsRun,
	beq	.L1543	@,
.L1557:
	mov	r0, r4	@, ChanID
	bl	VCTRL_StartChan	@
	ldr	r3, [r6, r4, asl #2]	@ tmp180, s_pstVfmwChan
	ldr	r3, [r3, #1580]	@ _52->stSynExtraData.stChanOption.DynamicSwitchDnrParam.s32DynamicSwitchDnrEnable, _52->stSynExtraData.stChanOption.DynamicSwitchDnrParam.s32DynamicSwitchDnrEnable
	cmp	r3, #1	@ _52->stSynExtraData.stChanOption.DynamicSwitchDnrParam.s32DynamicSwitchDnrEnable,
	bne	.L1544	@,
.L1558:
	mov	r0, r4	@, ChanID
	bl	DNR_StartChan	@
	b	.L1544	@
.L1537:
	bl	FSP_EmptyInstance	@
	b	.L1538	@
.L1542:
	mov	r1, r8	@, tmp184
	mov	r0, #512	@,
	bl	VCTRL_SetDbgOption	@
	b	.L1541	@
.L1555:
	mov	r0, r3	@, D.40290
	mov	r2, #3856	@,
	ldr	r3, .L1559+12	@,
	ldr	r1, .L1559+16	@,
	bl	dprint_vfmw	@
	mvn	r0, #0	@ D.40289,
	b	.L1535	@
.L1560:
	.align	2
.L1559:
	.word	.LANCHOR0
	.word	.LANCHOR3-3388
	.word	.LC175
	.word	.LC6
	.word	.LC5
	.fnend
	.size	VCTRL_ResetChan, .-VCTRL_ResetChan
	.align	2
	.global	VCTRL_CreateChanWithOption
	.type	VCTRL_CreateChanWithOption, %function
VCTRL_CreateChanWithOption:
	.fnstart
	@ args = 0, pretend = 0, frame = 232
	@ frame_needed = 0, uses_anonymous_args = 0
	stmfd	sp!, {r4, r5, r6, r7, r8, r9, r10, fp, lr}	@,
	.save {r4, r5, r6, r7, r8, r9, r10, fp, lr}
	.pad #300
	sub	sp, sp, #300	@,,
	add	r5, sp, #92	@ tmp881,,
	mov	r6, r0	@ eCapLevel, eCapLevel
	mov	r4, r1	@ pChanOption, pChanOption
	add	r0, sp, #124	@ tmp896,,
	mov	r1, #64	@,
	mov	r9, r2	@ flag, flag
	mov	r8, r3	@ OneChanMemFlag, OneChanMemFlag
	bl	__memzero	@
	mov	r0, r5	@, tmp881
	mov	r1, #16	@,
	bl	__memzero	@
	subs	r0, r6, #25	@ tmp404, eCapLevel,
	ldr	r7, .L1736	@ tmp885,
	movne	r0, #1	@ tmp404,
	cmp	r9, #0	@ flag,
	movne	r0, #0	@ tmp404,
	cmp	r0, #0	@ tmp404,
	str	r4, [r7, #-3284]	@ pChanOption, pOption
	bne	.L1710	@,
	ldr	r3, [r4, #4]	@ D.40395, pChanOption_14(D)->Purpose
	cmp	r3, #2	@ D.40395,
	bhi	.L1711	@,
	beq	.L1712	@,
	cmp	r3, #1	@ D.40395,
	bne	.L1567	@,
	ldr	r3, [r4, #32]	@ pChanOption_14(D)->s32MaxRefFrameNum, pChanOption_14(D)->s32MaxRefFrameNum
	cmp	r3, #0	@ pChanOption_14(D)->s32MaxRefFrameNum,
	blt	.L1568	@,
	ldr	r3, [r4, #12]	@ pChanOption_14(D)->s32MaxWidth, pChanOption_14(D)->s32MaxWidth
	cmp	r3, #31	@ pChanOption_14(D)->s32MaxWidth,
	ble	.L1568	@,
	ldr	r3, [r4, #16]	@ pChanOption_14(D)->s32MaxHeight, pChanOption_14(D)->s32MaxHeight
	cmp	r3, #31	@ pChanOption_14(D)->s32MaxHeight,
	ble	.L1568	@,
	ldr	r3, [r4, #56]	@ pChanOption_14(D)->s32SCDBufSize, pChanOption_14(D)->s32SCDBufSize
	cmp	r3, #262144	@ pChanOption_14(D)->s32SCDBufSize,
	blt	.L1568	@,
	ldr	r3, [r4, #44]	@ pChanOption_14(D)->s32SupportH264, pChanOption_14(D)->s32SupportH264
	cmp	r3, #1	@ pChanOption_14(D)->s32SupportH264,
	beq	.L1713	@,
.L1567:
	ldr	r3, [r4, #136]	@ pChanOption_14(D)->DynamicSwitchDnrParam.s32DynamicSwitchDnrEnable, pChanOption_14(D)->DynamicSwitchDnrParam.s32DynamicSwitchDnrEnable
	add	r2, sp, #108	@,,
	mov	r1, r4	@, pChanOption
	mov	r0, r6	@, eCapLevel
	cmp	r3, #1	@ pChanOption_14(D)->DynamicSwitchDnrParam.s32DynamicSwitchDnrEnable,
	movne	r3, #0	@ tmp421,
	strne	r3, [r4, #136]	@ tmp421, pChanOption_14(D)->DynamicSwitchDnrParam.s32DynamicSwitchDnrEnable
	mov	r3, r9	@, flag
	bl	VCTRL_GetChanMemSizeWithOption	@
	subs	ip, r0, #0	@ D.40383,
	bne	.L1714	@,
	ldr	r3, [r4, #8]	@ D.40397, pChanOption_14(D)->MemAllocMode
	ldr	r2, [sp, #120]	@ DetailMemSize$12, MEM[(struct  *)&DetailMemSize + 12B]
	cmp	r3, #1	@ D.40397,
	ldr	r9, [sp, #108]	@ DetailMemSize, MEM[(struct  *)&DetailMemSize]
	ldr	fp, [sp, #112]	@ DetailMemSize$4, MEM[(struct  *)&DetailMemSize + 4B]
	ldr	r10, [sp, #116]	@ DetailMemSize$8, MEM[(struct  *)&DetailMemSize + 8B]
	str	r2, [sp, #68]	@ DetailMemSize$12, %sfp
	beq	.L1715	@,
	cmp	r3, #2	@ D.40397,
	beq	.L1716	@,
	cmp	r3, #3	@ D.40397,
	bne	.L1587	@,
	mov	r1, #16	@,
	add	r0, sp, #188	@ tmp907,,
	bl	__memzero	@
	ldr	r3, [r4, #108]	@ MEM[(struct VDEC_CHAN_MEM_DETAIL_S *)pChanOption_14(D) + 72B].ChanMemCtx.VirAddr, MEM[(struct VDEC_CHAN_MEM_DETAIL_S *)pChanOption_14(D) + 72B].ChanMemCtx.VirAddr
	cmp	r3, #0	@ MEM[(struct VDEC_CHAN_MEM_DETAIL_S *)pChanOption_14(D) + 72B].ChanMemCtx.VirAddr,
	beq	.L1588	@,
	ldr	r3, [r4, #112]	@ MEM[(struct VDEC_CHAN_MEM_DETAIL_S *)pChanOption_14(D) + 72B].ChanMemCtx.Length, MEM[(struct VDEC_CHAN_MEM_DETAIL_S *)pChanOption_14(D) + 72B].ChanMemCtx.Length
	cmp	r3, #0	@ MEM[(struct VDEC_CHAN_MEM_DETAIL_S *)pChanOption_14(D) + 72B].ChanMemCtx.Length,
	bne	.L1589	@,
.L1588:
	mov	r2, r10	@, DetailMemSize$8
	add	r3, sp, #188	@ tmp908,,
	mov	r10, #1	@ tmp516,
	mov	r1, #0	@,
	str	r10, [sp]	@ tmp516,
	ldr	r0, .L1736+4	@,
	bl	MEM_AllocMemBlock	@
	cmp	r0, #0	@,
	bne	.L1717	@,
	ldr	r2, [sp, #200]	@, MemRecord.Length
	ldr	r1, [sp, #192]	@, MemRecord.VirAddr
	ldr	r0, [sp, #196]	@, MemRecord.PhyAddr
	bl	MEM_AddMemRecord	@
	ldr	r1, [sp, #196]	@ MemRecord.PhyAddr, MemRecord.PhyAddr
	ldr	r2, [sp, #192]	@ MemRecord.VirAddr, MemRecord.VirAddr
	ldr	r3, [sp, #200]	@ MemRecord.Length, MemRecord.Length
	str	r10, [sp, #100]	@ tmp516, MEM[(HI_S32 *)&ChanMemFlag + 8B]
	str	r1, [sp, #156]	@ MemRecord.PhyAddr, MEM[(struct MEM_DESC_S *)&ChanMemDetail + 32B].PhyAddr
	str	r2, [sp, #160]	@ MemRecord.VirAddr, MEM[(struct MEM_DESC_S *)&ChanMemDetail + 32B].VirAddr
	str	r3, [sp, #164]	@ MemRecord.Length, MEM[(struct MEM_DESC_S *)&ChanMemDetail + 32B].Length
.L1592:
	mov	r1, #16	@,
	add	r0, sp, #188	@ tmp917,,
	bl	__memzero	@
	ldr	r3, [r4, #76]	@ MEM[(struct VDEC_CHAN_MEM_DETAIL_S *)pChanOption_14(D) + 72B].ChanMemVdh.VirAddr, MEM[(struct VDEC_CHAN_MEM_DETAIL_S *)pChanOption_14(D) + 72B].ChanMemVdh.VirAddr
	cmp	r3, #0	@ MEM[(struct VDEC_CHAN_MEM_DETAIL_S *)pChanOption_14(D) + 72B].ChanMemVdh.VirAddr,
	beq	.L1636	@,
	ldr	r3, [r4, #80]	@ MEM[(struct VDEC_CHAN_MEM_DETAIL_S *)pChanOption_14(D) + 72B].ChanMemVdh.Length, MEM[(struct VDEC_CHAN_MEM_DETAIL_S *)pChanOption_14(D) + 72B].ChanMemVdh.Length
	cmp	r3, #0	@ MEM[(struct VDEC_CHAN_MEM_DETAIL_S *)pChanOption_14(D) + 72B].ChanMemVdh.Length,
	bne	.L1594	@,
.L1636:
	mov	r1, #0	@ tmp539,
	mov	r2, r9	@, DetailMemSize
	str	r1, [sp]	@ tmp539,
	add	r3, sp, #188	@ tmp909,,
	ldr	r0, .L1736+8	@,
	bl	MEM_AllocMemBlock	@
	cmp	r0, #0	@,
	bne	.L1718	@,
	ldr	r2, [sp, #200]	@, MemRecord.Length
	ldr	r1, [sp, #192]	@, MemRecord.VirAddr
	ldr	r0, [sp, #196]	@, MemRecord.PhyAddr
	bl	MEM_AddMemRecord	@
	ldr	r0, [sp, #196]	@ MemRecord.PhyAddr, MemRecord.PhyAddr
	ldr	r1, [sp, #192]	@ MemRecord.VirAddr, MemRecord.VirAddr
	mov	r3, #1	@ tmp553,
	ldr	r2, [sp, #200]	@ MemRecord.Length, MemRecord.Length
	str	r0, [sp, #124]	@ MemRecord.PhyAddr, MEM[(struct MEM_DESC_S *)&ChanMemDetail].PhyAddr
	str	r1, [sp, #128]	@ MemRecord.VirAddr, MEM[(struct MEM_DESC_S *)&ChanMemDetail].VirAddr
	str	r2, [sp, #132]	@ MemRecord.Length, MEM[(struct MEM_DESC_S *)&ChanMemDetail].Length
	str	r3, [sp, #92]	@ tmp553, MEM[(HI_S32 *)&ChanMemFlag]
.L1598:
	mov	r1, #16	@,
	add	r0, sp, #188	@ tmp918,,
	bl	__memzero	@
	ldr	r3, [r4, #92]	@ MEM[(struct VDEC_CHAN_MEM_DETAIL_S *)pChanOption_14(D) + 72B].ChanMemScd.VirAddr, MEM[(struct VDEC_CHAN_MEM_DETAIL_S *)pChanOption_14(D) + 72B].ChanMemScd.VirAddr
	cmp	r3, #0	@ MEM[(struct VDEC_CHAN_MEM_DETAIL_S *)pChanOption_14(D) + 72B].ChanMemScd.VirAddr,
	beq	.L1638	@,
	ldr	r3, [r4, #96]	@ MEM[(struct VDEC_CHAN_MEM_DETAIL_S *)pChanOption_14(D) + 72B].ChanMemScd.Length, MEM[(struct VDEC_CHAN_MEM_DETAIL_S *)pChanOption_14(D) + 72B].ChanMemScd.Length
	cmp	r3, #0	@ MEM[(struct VDEC_CHAN_MEM_DETAIL_S *)pChanOption_14(D) + 72B].ChanMemScd.Length,
	bne	.L1601	@,
.L1638:
	ldr	r3, [r4, #4]	@ MEM[(VDEC_CHAN_PURPOSE_E *)pChanOption_14(D) + 4B], MEM[(VDEC_CHAN_PURPOSE_E *)pChanOption_14(D) + 4B]
	cmp	r3, #2	@ MEM[(VDEC_CHAN_PURPOSE_E *)pChanOption_14(D) + 4B],
	beq	.L1602	@,
	mov	r1, #0	@ tmp573,
	mov	r2, fp	@, DetailMemSize$4
	str	r1, [sp]	@ tmp573,
	add	r3, sp, #188	@ tmp911,,
	ldr	r0, .L1736+12	@,
	bl	MEM_AllocMemBlock	@
	cmp	r0, #0	@,
	bne	.L1719	@,
	ldr	r2, [sp, #200]	@, MemRecord.Length
	ldr	r1, [sp, #192]	@, MemRecord.VirAddr
	ldr	r0, [sp, #196]	@, MemRecord.PhyAddr
	bl	MEM_AddMemRecord	@
	ldr	r0, [sp, #196]	@ MemRecord.PhyAddr, MemRecord.PhyAddr
	ldr	r1, [sp, #192]	@ MemRecord.VirAddr, MemRecord.VirAddr
	mov	r3, #1	@ tmp593,
	ldr	r2, [sp, #200]	@ MemRecord.Length, MemRecord.Length
	str	r0, [sp, #140]	@ MemRecord.PhyAddr, MEM[(struct MEM_DESC_S *)&ChanMemDetail + 16B].PhyAddr
	str	r1, [sp, #144]	@ MemRecord.VirAddr, MEM[(struct MEM_DESC_S *)&ChanMemDetail + 16B].VirAddr
	str	r2, [sp, #148]	@ MemRecord.Length, MEM[(struct MEM_DESC_S *)&ChanMemDetail + 16B].Length
	str	r3, [sp, #96]	@ tmp593, MEM[(HI_S32 *)&ChanMemFlag + 4B]
.L1607:
	mov	r1, #16	@,
	add	r0, sp, #188	@ tmp919,,
	bl	__memzero	@
	ldr	r3, [r4, #124]	@ MEM[(struct VDEC_CHAN_MEM_DETAIL_S *)pChanOption_14(D) + 72B].ChanMemPmv.VirAddr, MEM[(struct VDEC_CHAN_MEM_DETAIL_S *)pChanOption_14(D) + 72B].ChanMemPmv.VirAddr
	cmp	r3, #0	@ MEM[(struct VDEC_CHAN_MEM_DETAIL_S *)pChanOption_14(D) + 72B].ChanMemPmv.VirAddr,
	beq	.L1640	@,
	ldr	r3, [r4, #128]	@ MEM[(struct VDEC_CHAN_MEM_DETAIL_S *)pChanOption_14(D) + 72B].ChanMemPmv.Length, MEM[(struct VDEC_CHAN_MEM_DETAIL_S *)pChanOption_14(D) + 72B].ChanMemPmv.Length
	cmp	r3, #0	@ MEM[(struct VDEC_CHAN_MEM_DETAIL_S *)pChanOption_14(D) + 72B].ChanMemPmv.Length,
	bne	.L1613	@,
.L1640:
	ldr	r3, [r4, #4]	@ MEM[(VDEC_CHAN_PURPOSE_E *)pChanOption_14(D) + 4B], MEM[(VDEC_CHAN_PURPOSE_E *)pChanOption_14(D) + 4B]
	cmp	r3, #2	@ MEM[(VDEC_CHAN_PURPOSE_E *)pChanOption_14(D) + 4B],
	beq	.L1614	@,
	mov	r1, #0	@ tmp623,
	add	r3, sp, #188	@ tmp912,,
	ldr	r2, [sp, #68]	@, %sfp
	str	r1, [sp]	@ tmp623,
	ldr	r0, .L1736+16	@,
	bl	MEM_AllocMemBlock	@
	cmp	r0, #0	@,
	bne	.L1720	@,
	ldr	r2, [sp, #200]	@, MemRecord.Length
	ldr	r1, [sp, #192]	@, MemRecord.VirAddr
	ldr	r0, [sp, #196]	@, MemRecord.PhyAddr
	bl	MEM_AddMemRecord	@
	ldr	r0, [sp, #196]	@ MemRecord.PhyAddr, MemRecord.PhyAddr
	ldr	r1, [sp, #192]	@ MemRecord.VirAddr, MemRecord.VirAddr
	mov	r3, #1	@ tmp649,
	ldr	r2, [sp, #200]	@ MemRecord.Length, MemRecord.Length
	str	r0, [sp, #172]	@ MemRecord.PhyAddr, MEM[(struct MEM_DESC_S *)&ChanMemDetail + 48B].PhyAddr
	str	r1, [sp, #176]	@ MemRecord.VirAddr, MEM[(struct MEM_DESC_S *)&ChanMemDetail + 48B].VirAddr
	str	r2, [sp, #180]	@ MemRecord.Length, MEM[(struct MEM_DESC_S *)&ChanMemDetail + 48B].Length
	str	r3, [sp, #104]	@ tmp649, MEM[(HI_S32 *)&ChanMemFlag + 12B]
.L1682:
	ldr	r10, .L1736+20	@ tmp884,
	ldr	r0, .L1736+24	@,
	bl	OSAL_SpinLockIRQ	@
	bl	VCTRL_MaskAllInt	@
	ldr	r3, [r10]	@ s_pstVfmwChan, s_pstVfmwChan
	cmp	r3, #0	@ s_pstVfmwChan,
	beq	.L1645	@,
	ldr	r3, [r10, #4]	@ s_pstVfmwChan, s_pstVfmwChan
	cmp	r3, #0	@ s_pstVfmwChan,
	beq	.L1646	@,
	ldr	r3, [r10, #8]	@ s_pstVfmwChan, s_pstVfmwChan
	cmp	r3, #0	@ s_pstVfmwChan,
	beq	.L1647	@,
	ldr	r3, [r10, #12]	@ s_pstVfmwChan, s_pstVfmwChan
	cmp	r3, #0	@ s_pstVfmwChan,
	moveq	r9, #3	@ ChanID,
	beq	.L1627	@,
	mov	r2, #4	@,
	ldr	r1, .L1736+28	@,
	mov	r0, #1	@,
	bl	dprint_vfmw	@
	bl	VCTRL_EnableAllInt	@
	ldr	r0, .L1736+24	@,
	bl	OSAL_SpinUnLockIRQ	@
	mvn	r0, #0	@ D.40381,
.L1702:
	add	sp, sp, #300	@,,
	@ sp needed	@
	ldmfd	sp!, {r4, r5, r6, r7, r8, r9, r10, fp, pc}	@
.L1712:
	ldr	r3, [r4, #64]	@ pChanOption_14(D)->s32SlotWidth, pChanOption_14(D)->s32SlotWidth
	cmp	r3, #0	@ pChanOption_14(D)->s32SlotWidth,
	beq	.L1566	@,
	ldr	r3, [r4, #68]	@ pChanOption_14(D)->s32SlotHeight, pChanOption_14(D)->s32SlotHeight
	cmp	r3, #0	@ pChanOption_14(D)->s32SlotHeight,
	bne	.L1567	@,
.L1566:
	ldr	r1, .L1736+32	@,
	mov	r0, #0	@,
	bl	dprint_vfmw	@
	b	.L1635	@
.L1589:
	mov	r2, #16	@,
	add	r1, r4, #104	@, pChanOption,
	add	r0, sp, #156	@,,
	bl	memcpy	@
	ldr	r2, [sp, #164]	@ D.40383, MEM[(struct MEM_DESC_S *)&ChanMemDetail + 32B].Length
	cmp	r2, r10	@ D.40383, DetailMemSize$8
	blt	.L1721	@,
	ldr	r1, [sp, #160]	@, MEM[(struct MEM_DESC_S *)&ChanMemDetail + 32B].VirAddr
	ldr	r0, [sp, #156]	@, MEM[(struct MEM_DESC_S *)&ChanMemDetail + 32B].PhyAddr
	bl	MEM_AddMemRecord	@
	b	.L1592	@
.L1713:
	ldr	r3, [r4, #20]	@ pChanOption_14(D)->s32MaxSliceNum, pChanOption_14(D)->s32MaxSliceNum
	cmp	r3, #0	@ pChanOption_14(D)->s32MaxSliceNum,
	ble	.L1568	@,
	ldr	r3, [r4, #24]	@ pChanOption_14(D)->s32MaxSpsNum, pChanOption_14(D)->s32MaxSpsNum
	cmp	r3, #0	@ pChanOption_14(D)->s32MaxSpsNum,
	ble	.L1568	@,
	ldr	r3, [r4, #28]	@ pChanOption_14(D)->s32MaxPpsNum, pChanOption_14(D)->s32MaxPpsNum
	cmp	r3, #0	@ pChanOption_14(D)->s32MaxPpsNum,
	bgt	.L1567	@,
.L1568:
	ldr	r1, .L1736+36	@,
	mov	r0, #0	@,
	bl	dprint_vfmw	@
.L1635:
	mvn	r0, #0	@ D.40381,
	add	sp, sp, #300	@,,
	@ sp needed	@
	ldmfd	sp!, {r4, r5, r6, r7, r8, r9, r10, fp, pc}	@
.L1602:
	ldr	r2, [sp, #124]	@ MEM[(struct MEM_DESC_S *)&ChanMemDetail].PhyAddr, MEM[(struct MEM_DESC_S *)&ChanMemDetail].PhyAddr
	mov	r1, #0	@ tmp596,
	ldr	r3, [sp, #128]	@ MEM[(struct MEM_DESC_S *)&ChanMemDetail].VirAddr, MEM[(struct MEM_DESC_S *)&ChanMemDetail].VirAddr
	str	r1, [sp, #148]	@ tmp596, MEM[(struct MEM_DESC_S *)&ChanMemDetail + 16B].Length
	str	r2, [sp, #140]	@ MEM[(struct MEM_DESC_S *)&ChanMemDetail].PhyAddr, MEM[(struct MEM_DESC_S *)&ChanMemDetail + 16B].PhyAddr
	str	r3, [sp, #144]	@ MEM[(struct MEM_DESC_S *)&ChanMemDetail].VirAddr, MEM[(struct MEM_DESC_S *)&ChanMemDetail + 16B].VirAddr
	b	.L1607	@
.L1594:
	mov	r2, #16	@,
	add	r0, sp, #124	@ tmp910,,
	add	r1, r4, #72	@, pChanOption,
	bl	memcpy	@
	ldr	r2, [sp, #132]	@ D.40381, MEM[(struct MEM_DESC_S *)&ChanMemDetail].Length
	cmp	r9, r2	@ DetailMemSize, D.40381
	bgt	.L1722	@,
	ldr	r1, [sp, #128]	@, MEM[(struct MEM_DESC_S *)&ChanMemDetail].VirAddr
	ldr	r0, [sp, #124]	@, MEM[(struct MEM_DESC_S *)&ChanMemDetail].PhyAddr
	bl	MEM_AddMemRecord	@
	b	.L1598	@
.L1614:
	ldr	r2, [sp, #124]	@ MEM[(struct MEM_DESC_S *)&ChanMemDetail].PhyAddr, MEM[(struct MEM_DESC_S *)&ChanMemDetail].PhyAddr
	mov	r1, #0	@ tmp652,
	ldr	r3, [sp, #128]	@ MEM[(struct MEM_DESC_S *)&ChanMemDetail].VirAddr, MEM[(struct MEM_DESC_S *)&ChanMemDetail].VirAddr
	str	r1, [sp, #180]	@ tmp652, MEM[(struct MEM_DESC_S *)&ChanMemDetail + 48B].Length
	str	r2, [sp, #172]	@ MEM[(struct MEM_DESC_S *)&ChanMemDetail].PhyAddr, MEM[(struct MEM_DESC_S *)&ChanMemDetail + 48B].PhyAddr
	str	r3, [sp, #176]	@ MEM[(struct MEM_DESC_S *)&ChanMemDetail].VirAddr, MEM[(struct MEM_DESC_S *)&ChanMemDetail + 48B].VirAddr
	b	.L1682	@
.L1601:
	mov	r2, #16	@,
	add	r1, r4, #88	@, pChanOption,
	add	r0, sp, #140	@,,
	bl	memcpy	@
	ldr	r3, [r4, #4]	@ D.40395, MEM[(VDEC_CHAN_PURPOSE_E *)pChanOption_14(D) + 4B]
	cmp	r3, #2	@ D.40395,
	beq	.L1607	@,
	ldr	r1, [sp, #144]	@ D.40385, MEM[(struct MEM_DESC_S *)&ChanMemDetail + 16B].VirAddr
	cmp	r1, #0	@ D.40385,
	beq	.L1608	@,
	ldr	r2, [sp, #148]	@ D.40381, MEM[(struct MEM_DESC_S *)&ChanMemDetail + 16B].Length
	cmp	fp, r2	@ DetailMemSize$4, D.40381
	ble	.L1609	@,
.L1608:
	cmp	r3, #1	@ D.40395,
	beq	.L1610	@,
	ldr	r2, [sp, #148]	@ D.40381, MEM[(struct MEM_DESC_S *)&ChanMemDetail + 16B].Length
.L1609:
	ldr	r0, [sp, #140]	@, MEM[(struct MEM_DESC_S *)&ChanMemDetail + 16B].PhyAddr
	bl	MEM_AddMemRecord	@
	b	.L1607	@
.L1613:
	mov	r2, #16	@,
	add	r1, r4, #120	@, pChanOption,
	add	r0, sp, #172	@,,
	bl	memcpy	@
	ldr	r3, [r4, #4]	@ D.40395, MEM[(VDEC_CHAN_PURPOSE_E *)pChanOption_14(D) + 4B]
	cmp	r3, #2	@ D.40395,
	beq	.L1682	@,
	ldr	r1, [sp, #176]	@ D.40385, MEM[(struct MEM_DESC_S *)&ChanMemDetail + 48B].VirAddr
	cmp	r1, #0	@ D.40385,
	beq	.L1620	@,
	ldr	r2, [sp, #180]	@ D.40381, MEM[(struct MEM_DESC_S *)&ChanMemDetail + 48B].Length
	ldr	r0, [sp, #68]	@ DetailMemSize$12, %sfp
	cmp	r0, r2	@ DetailMemSize$12, D.40381
	ble	.L1621	@,
.L1620:
	cmp	r3, #1	@ D.40395,
	beq	.L1622	@,
	ldr	r2, [sp, #180]	@ D.40381, MEM[(struct MEM_DESC_S *)&ChanMemDetail + 48B].Length
.L1621:
	ldr	r0, [sp, #172]	@, MEM[(struct MEM_DESC_S *)&ChanMemDetail + 48B].PhyAddr
	bl	MEM_AddMemRecord	@
	b	.L1682	@
.L1715:
	mov	r2, #16	@,
	add	r1, r4, #72	@, pChanOption,
	add	r0, sp, #124	@ tmp898,,
	bl	memcpy	@
	mov	r2, #16	@,
	add	r1, r4, #88	@, pChanOption,
	add	r0, sp, #140	@,,
	bl	memcpy	@
	mov	r2, #16	@,
	add	r1, r4, #104	@, pChanOption,
	add	r0, sp, #156	@,,
	bl	memcpy	@
	ldr	r3, [sp, #160]	@ MEM[(struct MEM_DESC_S *)&ChanMemDetail + 32B].VirAddr, MEM[(struct MEM_DESC_S *)&ChanMemDetail + 32B].VirAddr
	cmp	r3, #0	@ MEM[(struct MEM_DESC_S *)&ChanMemDetail + 32B].VirAddr,
	beq	.L1573	@,
	ldr	r3, [sp, #164]	@ MEM[(struct MEM_DESC_S *)&ChanMemDetail + 32B].Length, MEM[(struct MEM_DESC_S *)&ChanMemDetail + 32B].Length
	cmp	r3, r10	@ MEM[(struct MEM_DESC_S *)&ChanMemDetail + 32B].Length, DetailMemSize$8
	blt	.L1573	@,
	ldr	r3, [sp, #144]	@ MEM[(struct MEM_DESC_S *)&ChanMemDetail + 16B].VirAddr, MEM[(struct MEM_DESC_S *)&ChanMemDetail + 16B].VirAddr
	cmp	r3, #0	@ MEM[(struct MEM_DESC_S *)&ChanMemDetail + 16B].VirAddr,
	beq	.L1576	@,
	ldr	r3, [sp, #148]	@ MEM[(struct MEM_DESC_S *)&ChanMemDetail + 16B].Length, MEM[(struct MEM_DESC_S *)&ChanMemDetail + 16B].Length
	cmp	fp, r3	@ DetailMemSize$4, MEM[(struct MEM_DESC_S *)&ChanMemDetail + 16B].Length
	ble	.L1577	@,
.L1576:
	ldr	r0, [r4, #4]	@ MEM[(VDEC_CHAN_PURPOSE_E *)pChanOption_14(D) + 4B], MEM[(VDEC_CHAN_PURPOSE_E *)pChanOption_14(D) + 4B]
	cmp	r0, #1	@ MEM[(VDEC_CHAN_PURPOSE_E *)pChanOption_14(D) + 4B],
	beq	.L1723	@,
.L1577:
	ldr	r1, [sp, #128]	@ D.40385, MEM[(struct MEM_DESC_S *)&ChanMemDetail].VirAddr
	cmp	r1, #0	@ D.40385,
	beq	.L1578	@,
	ldr	r2, [sp, #132]	@ D.40383, MEM[(struct MEM_DESC_S *)&ChanMemDetail].Length
	cmp	r9, r2	@ DetailMemSize, D.40383
	bgt	.L1578	@,
	ldr	r0, [sp, #124]	@, MEM[(struct MEM_DESC_S *)&ChanMemDetail].PhyAddr
	bl	MEM_AddMemRecord	@
	add	r0, sp, #156	@,,
	ldmia	r0, {r0, r1, r2}	@,,,
	bl	MEM_AddMemRecord	@
	ldr	r3, [r4, #4]	@ MEM[(VDEC_CHAN_PURPOSE_E *)pChanOption_14(D) + 4B], MEM[(VDEC_CHAN_PURPOSE_E *)pChanOption_14(D) + 4B]
	cmp	r3, #2	@ MEM[(VDEC_CHAN_PURPOSE_E *)pChanOption_14(D) + 4B],
	beq	.L1682	@,
	add	r0, sp, #140	@,,
	ldmia	r0, {r0, r1, r2}	@,,,
	bl	MEM_AddMemRecord	@
	b	.L1682	@
.L1716:
	mov	r1, #16	@,
	add	r0, sp, #188	@ tmp899,,
	str	ip, [sp, #68]	@ D.40383, %sfp
	bl	__memzero	@
	ldr	ip, [sp, #68]	@ D.40383, %sfp
	mov	r2, r10	@, DetailMemSize$8
	mov	r0, #1	@ tmp901,
	add	r3, sp, #188	@ tmp900,,
	str	r0, [sp]	@ tmp901,
	mov	r1, ip	@, D.40383
	ldr	r0, .L1736+4	@,
	bl	MEM_AllocMemBlock	@
	subs	r10, r0, #0	@ D.40383,
	bne	.L1724	@,
	ldr	r2, [sp, #200]	@, MemRecord.Length
	ldr	r1, [sp, #192]	@, MemRecord.VirAddr
	ldr	r0, [sp, #196]	@, MemRecord.PhyAddr
	bl	MEM_AddMemRecord	@
	ldr	r0, [sp, #196]	@ MemRecord.PhyAddr, MemRecord.PhyAddr
	ldr	ip, [sp, #192]	@ MemRecord.VirAddr, MemRecord.VirAddr
	mov	r2, r9	@, DetailMemSize
	ldr	lr, [sp, #200]	@ MemRecord.Length, MemRecord.Length
	mov	r1, r10	@, D.40383
	str	r0, [sp, #156]	@ MemRecord.PhyAddr, MEM[(struct MEM_DESC_S *)&ChanMemDetail + 32B].PhyAddr
	add	r3, sp, #188	@ tmp902,,
	str	r10, [sp]	@ D.40383,
	mov	r9, #1	@ tmp903,
	ldr	r0, .L1736+8	@,
	str	ip, [sp, #160]	@ MemRecord.VirAddr, MEM[(struct MEM_DESC_S *)&ChanMemDetail + 32B].VirAddr
	str	r9, [sp, #100]	@ tmp903, MEM[(HI_S32 *)&ChanMemFlag + 8B]
	str	lr, [sp, #164]	@ MemRecord.Length, MEM[(struct MEM_DESC_S *)&ChanMemDetail + 32B].Length
	bl	MEM_AllocMemBlock	@
	subs	ip, r0, #0	@ D.40383,
	bne	.L1725	@,
	ldr	r2, [sp, #200]	@, MemRecord.Length
	ldr	r1, [sp, #192]	@, MemRecord.VirAddr
	ldr	r0, [sp, #196]	@, MemRecord.PhyAddr
	str	ip, [sp, #68]	@ D.40383, %sfp
	bl	MEM_AddMemRecord	@
	ldr	r1, [r4, #4]	@ MEM[(VDEC_CHAN_PURPOSE_E *)pChanOption_14(D) + 4B], MEM[(VDEC_CHAN_PURPOSE_E *)pChanOption_14(D) + 4B]
	mov	r0, #1	@ tmp904,
	ldr	r2, [sp, #196]	@ D.40383, MemRecord.PhyAddr
	ldr	r3, [sp, #192]	@ D.40391, MemRecord.VirAddr
	cmp	r1, #2	@ MEM[(VDEC_CHAN_PURPOSE_E *)pChanOption_14(D) + 4B],
	ldr	r1, [sp, #200]	@ MemRecord.Length, MemRecord.Length
	str	r0, [sp, #92]	@ tmp904, MEM[(HI_S32 *)&ChanMemFlag]
	str	r2, [sp, #124]	@ D.40383, MEM[(struct MEM_DESC_S *)&ChanMemDetail].PhyAddr
	str	r3, [sp, #128]	@ D.40391, MEM[(struct MEM_DESC_S *)&ChanMemDetail].VirAddr
	str	r1, [sp, #132]	@ MemRecord.Length, MEM[(struct MEM_DESC_S *)&ChanMemDetail].Length
	ldr	ip, [sp, #68]	@ D.40383, %sfp
	beq	.L1585	@,
	str	ip, [sp]	@ D.40383,
	add	r3, sp, #188	@ tmp905,,
	mov	r2, fp	@, DetailMemSize$4
	mov	r1, ip	@, D.40383
	ldr	r0, .L1736+12	@,
	bl	MEM_AllocMemBlock	@
	cmp	r0, #0	@,
	bne	.L1726	@,
	ldr	r2, [sp, #200]	@, MemRecord.Length
	ldr	r1, [sp, #192]	@, MemRecord.VirAddr
	ldr	r0, [sp, #196]	@, MemRecord.PhyAddr
	bl	MEM_AddMemRecord	@
	ldr	r1, [sp, #196]	@ MemRecord.PhyAddr, MemRecord.PhyAddr
	ldr	r2, [sp, #192]	@ MemRecord.VirAddr, MemRecord.VirAddr
	mov	r0, #1	@ tmp906,
	ldr	r3, [sp, #200]	@ MemRecord.Length, MemRecord.Length
	str	r0, [sp, #96]	@ tmp906, MEM[(HI_S32 *)&ChanMemFlag + 4B]
	str	r1, [sp, #140]	@ MemRecord.PhyAddr, MEM[(struct MEM_DESC_S *)&ChanMemDetail + 16B].PhyAddr
	str	r2, [sp, #144]	@ MemRecord.VirAddr, MEM[(struct MEM_DESC_S *)&ChanMemDetail + 16B].VirAddr
	str	r3, [sp, #148]	@ MemRecord.Length, MEM[(struct MEM_DESC_S *)&ChanMemDetail + 16B].Length
	b	.L1682	@
.L1647:
	mov	r9, #2	@ ChanID,
.L1627:
	uxtb	fp, r9	@ D.40396, ChanID
.L1626:
	add	ip, r7, r9, lsl #2	@ tmp829, tmp885, ChanID,
	ldr	r2, [sp, #160]	@ D.40385, ChanMemDetail.ChanMemCtx.VirAddr
	ldr	lr, .L1736+40	@ tmp826,
	mov	r1, #3568	@,
	ldr	r7, .L1736+44	@ tmp824,
	movt	r1, 5	@,
	ldr	r3, [ip, #-3480]	@ tmp835, g_ChanTick
	mov	r0, r2	@, D.40385
	str	ip, [sp, #68]	@ tmp829, %sfp
	add	r3, r3, #1	@ D.40384, tmp835,
	str	r2, [r10, r9, asl #2]	@ D.40385, s_pstVfmwChan
	str	r3, [ip, #-3480]	@ D.40384, g_ChanTick
	mov	r2, #30	@ tmp825,
	str	r2, [lr, r9, asl #2]	@ tmp825, g_LastFrameRate
	str	r2, [r7, r9, asl #2]	@ tmp825, g_FrameRate
	bl	__memzero	@
	ldr	r7, [r10, r9, asl #2]	@ D.40382, s_pstVfmwChan
	mov	r2, #152	@,
	mov	r1, r4	@, pChanOption
	add	r0, r7, #1440	@, D.40382,
	add	r0, r0, #4	@,,
	bl	memcpy	@
	ldr	r1, .L1736+48	@ tmp871,
	movw	r2, #11160	@ tmp873,
	str	r9, [r7]	@ ChanID, _43->s32ChanID
	movt	r2, 1	@ tmp873,
	ldr	r3, [r10, r9, asl #2]	@ D.40382, s_pstVfmwChan
	mla	r2, r2, r9, r1	@ tmp874, tmp873, ChanID, tmp871
	ldr	ip, [sp, #68]	@ tmp829, %sfp
	add	r0, r3, #180224	@ tmp849, D.40382,
	movw	r1, #14840	@ tmp845,
	str	r6, [r7, #24]	@ eCapLevel, _43->eChanCapLevel
	movt	r1, 8	@ tmp845,
	str	r6, [r7, #920]	@ eCapLevel, _43->stSynExtraData.eCapLevel
	add	r2, r2, #75776	@ tmp875, tmp874,
	str	r1, [r7, #1388]	@ tmp845, _43->stSynExtraData.s32BasicCtxSize
	mov	r1, #0	@ tmp846,
	ldr	ip, [ip, #-3480]	@ tmp870, g_ChanTick
	add	lr, r3, #217088	@ tmp853, D.40382,
	str	r1, [r7, #1404]	@ tmp846, _43->stSynExtraData.s32MoreGapEnable
	strb	fp, [r0, #1536]	@ D.40396, _51->FspInst.s32InstID
	add	fp, r3, #163840	@ tmp861, D.40382,
	ldr	r7, [r4]	@ D.40387, pChanOption_14(D)->eAdapterType
	mov	r0, #19	@ tmp851,
	ldr	r1, .L1736+52	@ tmp855,
	str	r0, [r3, #880]	@ tmp851, _51->eVidStd
	str	r7, [r3, #20]	@ D.40387, _51->eAdapterType
	add	r1, r1, r9, lsl #2	@ tmp857, tmp855, ChanID,
	str	r0, [lr, #424]	@ tmp851, _51->stSynCtx.eVidStd
	add	r7, r3, #1632	@ D.40388, D.40382,
	str	r9, [fp, #4040]	@ ChanID, MEM[(struct SM_INSTANCE_S *)_51 + 1632B].InstID
	add	r0, r3, #181248	@ D.40389, D.40382,
	str	ip, [lr, #420]	@ tmp870, _51->u32ChanTick
	add	r0, r0, #512	@ D.40389, D.40389,
	ldr	ip, [r2, #916]	@ D.40383, s_DnrChan[ChanID_576].s32DnrEnable
	str	r7, [r1, #236]	@ D.40388, s_SmIIS.pSmInstArray
	ldr	r2, .L1736+56	@ tmp862,
	str	ip, [r3, #1604]	@ D.40383, _51->stSynExtraData.s32DnrEnable
	ldr	r1, [r4, #140]	@ D.40390, pChanOption_14(D)->DynamicSwitchDnrParam.DnrSwitchThreshold
	str	r0, [r2, r9, asl #2]	@ D.40389, s_pFspInst
	cmp	r1, #0	@ D.40390,
	streq	r1, [r3, #1608]	@ D.40390, _51->stSynExtraData.s32DSDThrWidth
	streq	r1, [r3, #1612]	@ D.40390, _51->stSynExtraData.s32DSDThrHeight
	beq	.L1629	@,
	mov	r0, r1, asl #5	@ tmp702, D.40390,
	ldr	r2, .L1736+60	@ tmp699,
	sub	r1, r0, r1, asl #2	@ tmp703, tmp702, D.40390,
	ldr	r1, [r2, r1]	@ D.40383, CapItem
	str	r1, [r3, #1608]	@ D.40383, _51->stSynExtraData.s32DSDThrWidth
	ldr	r0, [r4, #140]	@ pChanOption_14(D)->DynamicSwitchDnrParam.DnrSwitchThreshold, pChanOption_14(D)->DynamicSwitchDnrParam.DnrSwitchThreshold
	mov	r1, r0, asl #5	@ tmp709, pChanOption_14(D)->DynamicSwitchDnrParam.DnrSwitchThreshold,
	sub	r1, r1, r0, asl #2	@ tmp710, tmp709, pChanOption_14(D)->DynamicSwitchDnrParam.DnrSwitchThreshold,
	add	r2, r2, r1	@ tmp711, tmp699, tmp710
	ldr	r2, [r2, #4]	@ D.40383, CapItem
	str	r2, [r3, #1612]	@ D.40383, _51->stSynExtraData.s32DSDThrHeight
.L1629:
	ldr	r0, [r10, r9, asl #2]	@ D.40382, s_pstVfmwChan
	mov	r2, #0	@ tmp886,
	mov	ip, #-2147483648	@ tmp887,
	add	r3, r0, #216064	@ ivtmp.854, D.40382,
	add	r0, r0, #217088	@ tmp880, D.40382,
	add	r3, r3, #360	@ ivtmp.854, ivtmp.854,
	add	r1, r0, #360	@ D.40400, tmp880,
.L1630:
	str	r2, [r3, #8]	@ tmp886, MEM[base: _269, offset: 8B]
	str	r2, [r3, #12]	@ tmp886, MEM[base: _269, offset: 12B]
	stmia	r3, {r2, ip}	@ ivtmp.854,,
	add	r3, r3, #16	@ ivtmp.854, ivtmp.854,
	cmp	r3, r1	@ ivtmp.854, D.40400
	bne	.L1630	@,
	add	r0, r0, #360	@, tmp880,
	mov	r1, #16	@,
	bl	__memzero	@
	ldr	ip, [r10, r9, asl #2]	@ D.40382, s_pstVfmwChan
	ldr	r1, .L1736+64	@,
	mov	r0, #31	@,
	ldr	r7, .L1736+20	@ tmp719,
	ldr	lr, [ip, #1588]	@ _84->stSynExtraData.stChanOption.DynamicSwitchDnrParam.DnrNum, _84->stSynExtraData.stChanOption.DynamicSwitchDnrParam.DnrNum
	ldr	r3, [ip, #1608]	@ _84->stSynExtraData.s32DSDThrWidth, _84->stSynExtraData.s32DSDThrWidth
	ldr	r2, [ip, #1580]	@ _84->stSynExtraData.stChanOption.DynamicSwitchDnrParam.s32DynamicSwitchDnrEnable, _84->stSynExtraData.stChanOption.DynamicSwitchDnrParam.s32DynamicSwitchDnrEnable
	str	lr, [sp, #4]	@ _84->stSynExtraData.stChanOption.DynamicSwitchDnrParam.DnrNum,
	ldr	ip, [ip, #1612]	@ _84->stSynExtraData.s32DSDThrHeight, _84->stSynExtraData.s32DSDThrHeight
	str	ip, [sp]	@ _84->stSynExtraData.s32DSDThrHeight,
	bl	dprint_vfmw	@
	mov	r0, r9	@, ChanID
	bl	VCTRL_ResetChan	@
	ldmia	r5, {r0, r1, r2, r3}	@ tmp881,,,,
	add	ip, sp, #48	@ tmp725,,
	ldr	fp, [sp, #124]	@ MEM[(struct  *)&ChanMemDetail], MEM[(struct  *)&ChanMemDetail]
	ldr	r5, [sp, #180]	@ MEM[(struct  *)&ChanMemDetail + 56B], MEM[(struct  *)&ChanMemDetail + 56B]
	ldr	lr, [sp, #176]	@ MEM[(struct  *)&ChanMemDetail + 52B], MEM[(struct  *)&ChanMemDetail + 52B]
	stmia	ip, {r0, r1, r2, r3}	@ tmp725,,,,
	mov	r2, r8	@, OneChanMemFlag
	ldr	ip, [sp, #160]	@ MEM[(struct  *)&ChanMemDetail + 36B], MEM[(struct  *)&ChanMemDetail + 36B]
	mov	r1, r6	@, eCapLevel
	ldr	r8, [sp, #172]	@ MEM[(struct  *)&ChanMemDetail + 48B], MEM[(struct  *)&ChanMemDetail + 48B]
	mov	r3, r4	@, pChanOption
	ldr	r6, [sp, #164]	@ MEM[(struct  *)&ChanMemDetail + 40B], MEM[(struct  *)&ChanMemDetail + 40B]
	mov	r0, r9	@, ChanID
	str	fp, [sp]	@ MEM[(struct  *)&ChanMemDetail],
	str	r5, [sp, #44]	@ MEM[(struct  *)&ChanMemDetail + 56B],
	ldr	fp, [sp, #156]	@ MEM[(struct  *)&ChanMemDetail + 32B], MEM[(struct  *)&ChanMemDetail + 32B]
	ldr	r5, [sp, #144]	@ MEM[(struct  *)&ChanMemDetail + 20B], MEM[(struct  *)&ChanMemDetail + 20B]
	str	lr, [sp, #40]	@ MEM[(struct  *)&ChanMemDetail + 52B],
	str	r8, [sp, #36]	@ MEM[(struct  *)&ChanMemDetail + 48B],
	ldr	lr, [sp, #140]	@ MEM[(struct  *)&ChanMemDetail + 16B], MEM[(struct  *)&ChanMemDetail + 16B]
	ldr	r8, [sp, #132]	@ MEM[(struct  *)&ChanMemDetail + 8B], MEM[(struct  *)&ChanMemDetail + 8B]
	str	r6, [sp, #32]	@ MEM[(struct  *)&ChanMemDetail + 40B],
	str	ip, [sp, #28]	@ MEM[(struct  *)&ChanMemDetail + 36B],
	ldr	r6, [sp, #128]	@ MEM[(struct  *)&ChanMemDetail + 4B], MEM[(struct  *)&ChanMemDetail + 4B]
	ldr	ip, [sp, #148]	@ tmp914, MEM[(struct  *)&ChanMemDetail + 24B]
	str	fp, [sp, #24]	@ MEM[(struct  *)&ChanMemDetail + 32B],
	str	r5, [sp, #16]	@ MEM[(struct  *)&ChanMemDetail + 20B],
	str	ip, [sp, #20]	@ tmp914,
	stmib	sp, {r6, r8, lr}	@,,,
	bl	VCTRL_ConfigMemInfo.isra.0	@
	cmp	r0, #0	@,
	bne	.L1631	@,
	ldr	r3, [r7, r9, asl #2]	@ tmp740, s_pstVfmwChan
	mov	r0, r9	@, ChanID
	str	r9, [r3, #140]	@ ChanID, _106->s32SCDInstID
	bl	FSP_EnableInstance	@
	cmp	r0, #0	@,
	bne	.L1727	@,
	ldr	r3, [r7, r9, asl #2]	@ D.40382, s_pstVfmwChan
	ldr	r2, [r3, #1580]	@ _110->stSynExtraData.stChanOption.DynamicSwitchDnrParam.s32DynamicSwitchDnrEnable, _110->stSynExtraData.stChanOption.DynamicSwitchDnrParam.s32DynamicSwitchDnrEnable
	cmp	r2, #1	@ _110->stSynExtraData.stChanOption.DynamicSwitchDnrParam.s32DynamicSwitchDnrEnable,
	beq	.L1633	@,
	ldr	r3, [r3, #236]	@ D.40383, _110->s32OffLineDnrMemAddr
	mov	r0, r3	@, D.40383
	str	r3, [sp, #76]	@ D.40383, DnrMem.PhyAddr
	bl	MEM_Phy2Vir	@
