	.arch armv7-a
	.fpu softvfp
	.eabi_attribute 20, 1
	.eabi_attribute 21, 1
	.eabi_attribute 23, 3
	.eabi_attribute 24, 1
	.eabi_attribute 25, 1
	.eabi_attribute 26, 2
	.eabi_attribute 30, 2
	.eabi_attribute 18, 4
	.file	"h264.c"
@ GNU C (Hisilicon_v200(gcc4.4-290+glibc-2.11+eabi+nptl)) version 4.4.1 (arm-hisiv200-linux-gnueabi)
@	compiled by GNU C version 4.1.1 20061011 (Red Hat 4.1.1-30), GMP version 4.3.1, MPFR version 2.4.2.
@ GGC heuristics: --param ggc-min-expand=100 --param ggc-min-heapsize=131072
@ options passed:  -nostdinc -I./arch/arm/include
@ -Iarch/arm/include/generated -Iinclude -I./arch/arm/include/uapi
@ -Iarch/arm/include/generated/uapi -I./include/uapi
@ -Iinclude/generated/uapi -Iarch/arm/mach-hi3716mv310/include
@ -I/home/f00136911/v1r4/615/work/source/kernel/linux-3.18.y/../../../source/common/include
@ -I/home/f00136911/v1r4/615/work/source/kernel/linux-3.18.y/../../../source/common/drv/include
@ -I/home/f00136911/v1r4/615/work/source/kernel/linux-3.18.y/../../../source/msp/drv/vfmw/vfmw_v4.0/drv/memmap
@ -I/home/f00136911/v1r4/615/work/source/kernel/linux-3.18.y/../../../source/msp/drv/vfmw/vfmw_v4.0/model/scd
@ -I/home/f00136911/v1r4/615/work/source/kernel/linux-3.18.y/../../../source/msp/drv/vfmw/vfmw_v4.0/firmware/common/softlib
@ -I/home/f00136911/v1r4/615/work/source/kernel/linux-3.18.y/../../../source/msp/drv/vfmw/vfmw_v4.0/firmware/common
@ -I/home/f00136911/v1r4/615/work/source/kernel/linux-3.18.y/../../../source/msp/drv/vfmw/vfmw_v4.0/firmware/common/syntax
@ -I/home/f00136911/v1r4/615/work/source/kernel/linux-3.18.y/../../../source/msp/drv/vfmw/vfmw_v4.0/firmware/driver/HiSCDV200
@ -I/home/f00136911/v1r4/615/work/source/kernel/linux-3.18.y/../../../source/msp/drv/vfmw/vfmw_v4.0/firmware/driver/HiVDHV100
@ -I/home/f00136911/v1r4/615/work/source/kernel/linux-3.18.y/../../../source/msp/drv/vfmw/vfmw_v4.0/firmware/driver/HiVDHV200R001
@ -I/home/f00136911/v1r4/615/work/source/kernel/linux-3.18.y/../../../source/msp/drv/vfmw/vfmw_v4.0/firmware/driver/HiVDHV200R002
@ -I/home/f00136911/v1r4/615/work/source/kernel/linux-3.18.y/../../../source/msp/drv/vfmw/vfmw_v4.0/firmware/driver/HiVDHV200R003
@ -I/home/f00136911/v1r4/615/work/source/kernel/linux-3.18.y/../../../source/msp/drv/vfmw/vfmw_v4.0/firmware/driver/HiVDHV200R004
@ -I/home/f00136911/v1r4/615/work/source/kernel/linux-3.18.y/../../../source/msp/drv/vfmw/vfmw_v4.0/model/rawpacket
@ -I/home/f00136911/v1r4/615/work/source/kernel/linux-3.18.y/../../../source/msp/drv/vfmw/vfmw_v4.0/firmware/product/Hi3716MV310_advca/osal/linux_kernel
@ -I/home/f00136911/v1r4/615/work/source/kernel/linux-3.18.y/../../../source/msp/drv/vfmw/vfmw_v4.0/firmware/product/Hi3716MV310_advca
@ -I/home/f00136911/v1r4/615/work/source/kernel/linux-3.18.y/../../../source/msp/drv/vfmw/vfmw_v4.0/firmware/driver/HiDNR
@ -I/home/f00136911/v1r4/615/work/source/kernel/linux-3.18.y/../../../source/msp/drv/vfmw/vfmw_v4.0/firmware/driver/HiBTLV100
@ -I/home/f00136911/v1r4/615/work/source/kernel/linux-3.18.y/../../../source/msp/drv/vfmw/vfmw_v4.0/firmware/common_test/vdecko
@ -iprefix
@ /opt/hisi-linux/x86-arm/arm-hisiv200-linux/bin/../lib/gcc/arm-hisiv200-linux-gnueabi/4.4.1/
@ -isysroot /opt/hisi-linux/x86-arm/arm-hisiv200-linux/bin/../target
@ -D__KERNEL__ -D__LINUX_ARM_ARCH__=7 -Uarm -DHi3716MV310
@ -DENV_ARMLINUX_KERNEL -DOFF_LINE_DNR_ENABLE -DSCD_MP4_SLICE_ENABLE
@ -DSUPPORT_JPEG_444 -DVFMW_EXTRA_TYPE_DEFINE -DPRODUCT_STB
@ -D__VFMW_REGISTER_ISR__ -DVFMW_VDH_V200R004_SUPPORT -DVFMW_H264_SUPPORT
@ -DVFMW_MPEG2_SUPPORT -DVFMW_MPEG4_SUPPORT -DVFMW_AVS_SUPPORT
@ -DVFMW_VC1_SUPPORT -DVFMW_BPD_H_SUPPORT -DVFMW_REAL8_SUPPORT
@ -DVFMW_REAL9_SUPPORT -DVFMW_VP6_SUPPORT -DVFMW_VP8_SUPPORT
@ -DVFMW_DIVX3_SUPPORT -DVFMW_DNR_SUPPORT -DVFMW_H263_SUPPORT
@ -DVFMW_JPEG_SUPPORT -DVFMW_RAW_SUPPORT -DVFMW_USER_SUPPORT
@ -DCFG_MAX_CHAN_NUM=4 -DCFG_MAX_CHAN_NUM=4 -DVFMW_DPRINT_SUPPORT
@ -DVFMW_AVSPLUS_SUPPORT -DVFMW_SYSTEM_REG_DISABLE -DREPAIR_ENABLE
@ -DCHIP_TYPE_hi3716mv310 -DSDK_VERSION=HiSTBLinuxV100R006C00SPC050
@ -DHI_LOG_SUPPORT=0 -DHI_PROC_SUPPORT=0 -DHI_PNG_DECODER_SUPPORT
@ -DHI_KEYLED_SUPPORT -DHI_HDCP_SUPPORT -DHI_SCI_SUPPORT
@ -DHI_GPIOI2C_SUPPORT -DHI_IR_S2_SUPPORT -DHI_DSC_SUPPORT
@ -DHI_ADVCA_SUPPORT -DHI_ADVCA_TYPE_CONAX -DHI_ADVCA_FUNCTION_RELEASE
@ -DMODULE -DKBUILD_STR(s)=#s -DKBUILD_BASENAME=KBUILD_STR(h264)
@ -DKBUILD_MODNAME=KBUILD_STR(hi_vfmw) -isystem
@ /opt/hisi-linux/x86-arm/arm-hisiv200-linux/bin/../lib/gcc/arm-hisiv200-linux-gnueabi/4.4.1/include
@ -include ./include/linux/kconfig.h -MD
@ /home/f00136911/v1r4/615/work/source/msp/drv/vfmw/vfmw_v4.0/firmware/common/syntax/.h264.o.d
@ /home/f00136911/v1r4/615/work/source/msp/drv/vfmw/vfmw_v4.0/firmware/common/syntax/h264.c
@ -mlittle-endian -mabi=aapcs-linux -mno-thumb-interwork -mfpu=vfp -marm
@ -march=armv7-a -msoft-float -auxbase-strip
@ /home/f00136911/v1r4/615/work/source/msp/drv/vfmw/vfmw_v4.0/firmware/common/syntax/h264.o
@ -O2 -Wall -Wundef -Wstrict-prototypes -Wno-trigraphs
@ -Werror-implicit-function-declaration -Wno-format-security
@ -Wframe-larger-than=1024 -Wdeclaration-after-statement -Wno-pointer-sign
@ -Werror=implicit-int -Werror=strict-prototypes -std=gnu89
@ -fno-strict-aliasing -fno-common -fno-dwarf2-cfi-asm -funwind-tables
@ -fno-delete-null-pointer-checks -fstack-protector -fomit-frame-pointer
@ -fno-strict-overflow -fconserve-stack -fno-pic -fverbose-asm
@ options enabled:  -falign-loops -fargument-alias -fauto-inc-dec
@ -fbranch-count-reg -fcaller-saves -fcprop-registers -fcrossjumping
@ -fcse-follow-jumps -fdefer-pop -fearly-inlining
@ -feliminate-unused-debug-types -fexpensive-optimizations
@ -fforward-propagate -ffunction-cse -fgcse -fgcse-lm
@ -fguess-branch-probability -fident -fif-conversion -fif-conversion2
@ -findirect-inlining -finline -finline-functions-called-once
@ -finline-small-functions -fipa-cp -fipa-pure-const -fipa-reference
@ -fira-share-save-slots -fira-share-spill-slots -fivopts
@ -fkeep-static-consts -fleading-underscore -fmath-errno -fmerge-constants
@ -fmerge-debug-strings -fmove-loop-invariants -fomit-frame-pointer
@ -foptimize-register-move -foptimize-sibling-calls -fpeephole -fpeephole2
@ -fpromote-loop-indices -freg-struct-return -fregmove -frename-registers
@ -freorder-blocks -freorder-functions -frerun-cse-after-loop
@ -fsched-interblock -fsched-spec -fsched-stalled-insns-dep
@ -fschedule-insns -fschedule-insns2 -fsection-anchors -fsigned-zeros
@ -fsplit-ivs-in-unroller -fsplit-wide-types -fstack-protector
@ -fthread-jumps -ftoplevel-reorder -ftrapping-math -ftree-builtin-call-dce
@ -ftree-ccp -ftree-ch -ftree-copy-prop -ftree-copyrename -ftree-cselim
@ -ftree-dce -ftree-dominator-opts -ftree-dse -ftree-fre -ftree-loop-im
@ -ftree-loop-ivcanon -ftree-loop-optimize -ftree-parallelize-loops=
@ -ftree-pre -ftree-reassoc -ftree-scev-cprop -ftree-sink -ftree-sra
@ -ftree-switch-conversion -ftree-ter -ftree-vect-loop-version -ftree-vrp
@ -funit-at-a-time -funroll-loops -funwind-tables -fverbose-asm -fweb
@ -fzero-initialized-in-bss -mglibc -mlittle-endian -msched-prolog

@ Compiler executable checksum: fa59e0bd179ef45b3a3c3e6f3383fdac

	.text
	.align	2
	.global	GetMinPOC
	.type	GetMinPOC, %function
GetMinPOC:
	.fnstart
.LFB1928:
	@ args = 0, pretend = 0, frame = 0
	@ frame_needed = 0, uses_anonymous_args = 0
	@ link register save eliminated.
	movw	ip, #26628	@ tmp173,
	mvn	r3, #-2147483648	@ tmp172,
	stmfd	sp!, {r4, r5, r6, r7}	@,
	.save {r4, r5, r6, r7}
	mov	r4, #0	@ tmp171,
	str	r4, [r2, #0]	@ tmp171,* pos
	mov	r4, #26624	@ tmp174,
	str	r3, [r1, #0]	@ tmp172,* poc
	ldr	r3, [r0, r4]	@ prephitmp.944, <variable>.DPB.size
	ldr	r4, [r0, ip]	@ prephitmp.926, <variable>.DPB.used_size
	cmp	r4, r3	@ prephitmp.926, prephitmp.944
	strhi	r3, [r0, ip]	@ prephitmp.944, <variable>.DPB.used_size
	movls	r3, r4	@ prephitmp.944, prephitmp.926
	cmp	r3, #0	@ prephitmp.944,
	beq	.L7	@,
	add	r5, r0, #26368	@ ivtmp.940, pH264Ctx,
	mov	r3, #0	@ i,
	add	ip, r5, #64	@ ivtmp.940, ivtmp.940,
	movw	r7, #26628	@ tmp181,
.L6:
	ldr	r4, [ip, #0]	@ D.38064, <variable>.DPB.fs
	add	ip, ip, #4	@ ivtmp.940, ivtmp.940,
	ldr	r6, [r1, #0]	@ tmp177,* poc
	ldr	r5, [r4, #524]	@ D.38065, <variable>.poc
	cmp	r6, r5	@ tmp177, D.38065
	ble	.L5	@,
	ldrb	r4, [r4, #4]	@ zero_extendqisi2	@ <variable>.is_in_dpb, <variable>.is_in_dpb
	cmp	r4, #0	@ <variable>.is_in_dpb,
	strne	r5, [r1, #0]	@ D.38065,* poc
	strne	r3, [r2, #0]	@ i,* pos
.L5:
	ldr	r4, [r0, r7]	@ <variable>.DPB.used_size, <variable>.DPB.used_size
	add	r3, r3, #1	@ i, i,
	cmp	r4, r3	@ <variable>.DPB.used_size, i
	bhi	.L6	@,
.L7:
	ldmfd	sp!, {r4, r5, r6, r7}
	bx	lr
	.fnend
	.size	GetMinPOC, .-GetMinPOC
	.align	2
	.global	GetMaxPOC
	.type	GetMaxPOC, %function
GetMaxPOC:
	.fnstart
.LFB1929:
	@ args = 0, pretend = 0, frame = 0
	@ frame_needed = 0, uses_anonymous_args = 0
	@ link register save eliminated.
	stmfd	sp!, {r4, r5, r6, r7}	@,
	.save {r4, r5, r6, r7}
	mov	r4, #26624	@ tmp143,
	movw	r6, #26432	@ tmp148,
	movw	r7, #26628	@ tmp144,
	mov	ip, #0	@ tmp142,
	str	ip, [r2, #0]	@ tmp142,* pos
	ldr	r3, [r0, r4]	@ D.38081, <variable>.DPB.size
	ldr	ip, [r0, r6]	@ <variable>.DPB.fs, <variable>.DPB.fs
	ldr	r4, [r0, r7]	@ <variable>.DPB.used_size, <variable>.DPB.used_size
	cmp	r4, r3	@ <variable>.DPB.used_size, D.38081
	strhi	r3, [r0, r7]	@ D.38081, <variable>.DPB.used_size
	ldr	r6, [ip, #524]	@ prephitmp.960, <variable>.poc
	movw	r7, #26628	@ tmp149,
	str	r6, [r1, #0]	@ prephitmp.960,* poc
	ldr	r3, [r0, r7]	@ <variable>.DPB.used_size, <variable>.DPB.used_size
	cmp	r3, #0	@ <variable>.DPB.used_size,
	beq	.L15	@,
	add	r5, r0, #26368	@ ivtmp.976, pH264Ctx,
	mov	r3, #0	@ i,
	add	ip, r5, #64	@ ivtmp.976, ivtmp.976,
	b	.L14	@
.L16:
	ldr	r6, [r1, #0]	@ prephitmp.960,* poc
.L14:
	ldr	r4, [ip, #0]	@ D.38088, <variable>.DPB.fs
	add	ip, ip, #4	@ ivtmp.976, ivtmp.976,
	ldr	r5, [r4, #524]	@ D.38089, <variable>.poc
	cmp	r5, r6	@ D.38089, prephitmp.960
	ble	.L13	@,
	ldrb	r4, [r4, #4]	@ zero_extendqisi2	@ <variable>.is_in_dpb, <variable>.is_in_dpb
	cmp	r4, #0	@ <variable>.is_in_dpb,
	strne	r5, [r1, #0]	@ D.38089,* poc
	strne	r3, [r2, #0]	@ i,* pos
.L13:
	ldr	r4, [r0, r7]	@ <variable>.DPB.used_size, <variable>.DPB.used_size
	add	r3, r3, #1	@ i, i,
	cmp	r4, r3	@ <variable>.DPB.used_size, i
	bhi	.L16	@,
.L15:
	ldmfd	sp!, {r4, r5, r6, r7}
	bx	lr
	.fnend
	.size	GetMaxPOC, .-GetMaxPOC
	.align	2
	.global	FrameStoreRefFlg
	.type	FrameStoreRefFlg, %function
FrameStoreRefFlg:
	.fnstart
.LFB1930:
	@ args = 0, pretend = 0, frame = 0
	@ frame_needed = 0, uses_anonymous_args = 0
	@ link register save eliminated.
	ldrb	r0, [r0, #2]	@ zero_extendqisi2	@ <variable>.is_reference, <variable>.is_reference
	subs	r0, r0, #0	@, <variable>.is_reference,
	movne	r0, #1	@
	bx	lr	@
	.fnend
	.size	FrameStoreRefFlg, .-FrameStoreRefFlg
	.align	2
	.global	ShortTermRefFlg
	.type	ShortTermRefFlg, %function
ShortTermRefFlg:
	.fnstart
.LFB1931:
	@ args = 0, pretend = 0, frame = 0
	@ frame_needed = 0, uses_anonymous_args = 0
	@ link register save eliminated.
	ldrb	r3, [r0, #2]	@ zero_extendqisi2	@ D.38103, <variable>.is_reference
	cmp	r3, #3	@ D.38103,
	beq	.L27	@,
	tst	r3, #1	@ D.38103,
	bne	.L22	@,
.L23:
	ands	r3, r3, #2	@ tmp145, D.38103,
	moveq	r0, r3	@ D.38110, tmp145
	bxeq	lr	@
	ldr	r1, [r0, #472]	@ tmp148,
	bic	r2, r1, #-16777216	@ tmp146, tmp148,
	bic	r0, r2, #255	@ tmp146, tmp146,
	cmp	r0, #65536	@ tmp146,
	movne	r0, #0	@, D.38110
	moveq	r0, #1	@, D.38110
	bx	lr	@
.L27:
	ldr	ip, [r0, #400]	@ tmp140,
	bic	r1, ip, #-16777216	@ tmp138, tmp140,
	bic	r2, r1, #255	@ tmp138, tmp138,
	cmp	r2, #65536	@ tmp138,
	beq	.L21	@,
.L22:
	ldr	ip, [r0, #436]	@ tmp144,
	bic	r1, ip, #-16777216	@ tmp142, tmp144,
	bic	r2, r1, #255	@ tmp142, tmp142,
	cmp	r2, #65536	@ tmp142,
	bne	.L23	@,
.L21:
	mov	r0, #1	@ D.38110,
	bx	lr	@
	.fnend
	.size	ShortTermRefFlg, .-ShortTermRefFlg
	.align	2
	.global	LongTermRefFlg
	.type	LongTermRefFlg, %function
LongTermRefFlg:
	.fnstart
.LFB1932:
	@ args = 0, pretend = 0, frame = 0
	@ frame_needed = 0, uses_anonymous_args = 0
	@ link register save eliminated.
	ldrb	r3, [r0, #2]	@ zero_extendqisi2	@ D.38130, <variable>.is_reference
	cmp	r3, #3	@ D.38130,
	beq	.L36	@,
	tst	r3, #1	@ D.38130,
	bne	.L31	@,
.L32:
	ands	r3, r3, #2	@ tmp145, D.38130,
	moveq	r0, r3	@ D.38137, tmp145
	bxeq	lr	@
	ldr	r1, [r0, #472]	@ tmp148,
	bic	r2, r1, #-16777216	@ tmp146, tmp148,
	bic	r0, r2, #255	@ tmp146, tmp146,
	cmp	r0, #256	@ tmp146,
	movne	r0, #0	@, D.38137
	moveq	r0, #1	@, D.38137
	bx	lr	@
.L36:
	ldr	ip, [r0, #400]	@ tmp140,
	bic	r1, ip, #-16777216	@ tmp138, tmp140,
	bic	r2, r1, #255	@ tmp138, tmp138,
	cmp	r2, #256	@ tmp138,
	beq	.L30	@,
.L31:
	ldr	ip, [r0, #436]	@ tmp144,
	bic	r1, ip, #-16777216	@ tmp142, tmp144,
	bic	r2, r1, #255	@ tmp142, tmp142,
	cmp	r2, #256	@ tmp142,
	bne	.L32	@,
.L30:
	mov	r0, #1	@ D.38137,
	bx	lr	@
	.fnend
	.size	LongTermRefFlg, .-LongTermRefFlg
	.align	2
	.global	UpdateLTReflist
	.type	UpdateLTReflist, %function
UpdateLTReflist:
	.fnstart
.LFB1933:
	@ args = 0, pretend = 0, frame = 0
	@ frame_needed = 0, uses_anonymous_args = 0
	stmfd	sp!, {r3, r4, r5, r6, r7, r8, sl, lr}	@,
	.save {r3, r4, r5, r6, r7, r8, sl, lr}
	movw	sl, #26628	@ tmp141,
	ldr	r7, [r0, sl]	@ <variable>.DPB.used_size, <variable>.DPB.used_size
	mov	r8, r0	@ pH264Ctx, pH264Ctx
	cmp	r7, #0	@ <variable>.DPB.used_size,
	beq	.L39	@,
	add	r4, r0, #26368	@ ivtmp.1087, pH264Ctx,
	mov	r7, #0	@ j,
	add	r4, r4, #64	@ ivtmp.1087, ivtmp.1087,
	mov	r5, r7	@ i, j
.L41:
	ldr	r6, [r4, #0]	@ D.38166, <variable>.DPB.fs
	add	r5, r5, #1	@ i, i,
	add	r4, r4, #4	@ ivtmp.1087, ivtmp.1087,
	mov	r0, r6	@, D.38166
	bl	LongTermRefFlg	@
	add	r2, r7, #6592	@ tmp144, j,
	add	r1, r2, #48	@ tmp144, tmp144,
	ldr	r3, [r8, sl]	@ <variable>.DPB.used_size, <variable>.DPB.used_size
	cmp	r0, #0	@,
	strne	r6, [r8, r1, asl #2]	@ D.38166, <variable>.DPB.fs_ltref
	addne	r7, r7, #1	@ j, j,
	cmp	r3, r5	@ <variable>.DPB.used_size, i
	bhi	.L41	@,
.L39:
	mov	r3, #26624	@ tmp149,
	movw	ip, #26636	@ tmp148,
	ldr	r0, [r8, r3]	@ D.38172, <variable>.DPB.size
	str	r7, [r8, ip]	@ j, <variable>.DPB.ltref_frames_in_buffer
	cmp	r7, r0	@ j, D.38172
	ldmcsfd	sp!, {r3, r4, r5, r6, r7, r8, sl, pc}	@
	add	r3, r7, #6592	@ tmp150, j,
	add	r2, r7, #1	@ j, j,
	add	r1, r3, #48	@ tmp150, tmp150,
	cmp	r2, r0	@ j, D.38172
	mvn	ip, r7	@ tmp157, j
	add	r7, ip, r0	@ tmp156, tmp157, D.38172
	add	r8, r8, r1, asl #2	@, ivtmp.1083, pH264Ctx, tmp150,
	and	r7, r7, #1	@ tmp158, tmp156,
	mov	r1, #0	@ tmp154,
	str	r1, [r8], #4	@ tmp154, <variable>.DPB.fs_ltref
	ldmcsfd	sp!, {r3, r4, r5, r6, r7, r8, sl, pc}	@
	cmp	r7, #0	@ tmp158,
	beq	.L43	@,
	add	r2, r2, #1	@ j, j,
	str	r1, [r8], #4	@ tmp154, <variable>.DPB.fs_ltref
	cmp	r2, r0	@ j, D.38172
	ldmcsfd	sp!, {r3, r4, r5, r6, r7, r8, sl, pc}	@
.L43:
	add	r2, r2, #2	@ j, j,
	mov	ip, r8	@ tmp160, ivtmp.1083
	cmp	r2, r0	@ j, D.38172
	str	r1, [ip], #4	@ tmp154, <variable>.DPB.fs_ltref
	str	r1, [r8, #4]	@ tmp154, <variable>.DPB.fs_ltref
	add	r8, ip, #4	@ ivtmp.1083, tmp160,
	bcc	.L43	@,
	ldmfd	sp!, {r3, r4, r5, r6, r7, r8, sl, pc}	@
	.fnend
	.size	UpdateLTReflist, .-UpdateLTReflist
	.align	2
	.global	UpdateReflist
	.type	UpdateReflist, %function
UpdateReflist:
	.fnstart
.LFB1934:
	@ args = 0, pretend = 0, frame = 0
	@ frame_needed = 0, uses_anonymous_args = 0
	stmfd	sp!, {r3, r4, r5, r6, r7, r8, sl, lr}	@,
	.save {r3, r4, r5, r6, r7, r8, sl, lr}
	movw	sl, #26628	@ tmp141,
	ldr	r7, [r0, sl]	@ <variable>.DPB.used_size, <variable>.DPB.used_size
	mov	r8, r0	@ pH264Ctx, pH264Ctx
	cmp	r7, #0	@ <variable>.DPB.used_size,
	beq	.L54	@,
	add	r4, r0, #26368	@ ivtmp.1125, pH264Ctx,
	mov	r7, #0	@ j,
	add	r4, r4, #64	@ ivtmp.1125, ivtmp.1125,
	mov	r5, r7	@ i, j
.L56:
	ldr	r6, [r4, #0]	@ D.38185, <variable>.DPB.fs
	add	r5, r5, #1	@ i, i,
	add	r4, r4, #4	@ ivtmp.1125, ivtmp.1125,
	mov	r0, r6	@, D.38185
	bl	ShortTermRefFlg	@
	add	r2, r7, #6592	@ tmp144, j,
	add	r1, r2, #32	@ tmp144, tmp144,
	ldr	r3, [r8, sl]	@ <variable>.DPB.used_size, <variable>.DPB.used_size
	cmp	r0, #0	@,
	strne	r6, [r8, r1, asl #2]	@ D.38185, <variable>.DPB.fs_ref
	addne	r7, r7, #1	@ j, j,
	cmp	r3, r5	@ <variable>.DPB.used_size, i
	bhi	.L56	@,
.L54:
	mov	r3, #26624	@ tmp149,
	movw	ip, #26632	@ tmp148,
	ldr	r0, [r8, r3]	@ D.38191, <variable>.DPB.size
	str	r7, [r8, ip]	@ j, <variable>.DPB.ref_frames_in_buffer
	cmp	r7, r0	@ j, D.38191
	ldmcsfd	sp!, {r3, r4, r5, r6, r7, r8, sl, pc}	@
	add	r3, r7, #6592	@ tmp150, j,
	add	r2, r7, #1	@ j, j,
	add	r1, r3, #32	@ tmp150, tmp150,
	cmp	r2, r0	@ j, D.38191
	mvn	ip, r7	@ tmp157, j
	add	r7, ip, r0	@ tmp156, tmp157, D.38191
	add	r8, r8, r1, asl #2	@, ivtmp.1121, pH264Ctx, tmp150,
	and	r7, r7, #1	@ tmp158, tmp156,
	mov	r1, #0	@ tmp154,
	str	r1, [r8], #4	@ tmp154, <variable>.DPB.fs_ref
	ldmcsfd	sp!, {r3, r4, r5, r6, r7, r8, sl, pc}	@
	cmp	r7, #0	@ tmp158,
	beq	.L58	@,
	add	r2, r2, #1	@ j, j,
	str	r1, [r8], #4	@ tmp154, <variable>.DPB.fs_ref
	cmp	r2, r0	@ j, D.38191
	ldmcsfd	sp!, {r3, r4, r5, r6, r7, r8, sl, pc}	@
.L58:
	add	r2, r2, #2	@ j, j,
	mov	ip, r8	@ tmp160, ivtmp.1121
	cmp	r2, r0	@ j, D.38191
	str	r1, [ip], #4	@ tmp154, <variable>.DPB.fs_ref
	str	r1, [r8, #4]	@ tmp154, <variable>.DPB.fs_ref
	add	r8, ip, #4	@ ivtmp.1121, tmp160,
	bcc	.L58	@,
	ldmfd	sp!, {r3, r4, r5, r6, r7, r8, sl, pc}	@
	.fnend
	.size	UpdateReflist, .-UpdateReflist
	.align	2
	.global	GetPicNumX
	.type	GetPicNumX, %function
GetPicNumX:
	.fnstart
.LFB1935:
	@ args = 0, pretend = 0, frame = 0
	@ frame_needed = 0, uses_anonymous_args = 0
	@ link register save eliminated.
	ldrb	r3, [r0, #3]	@ zero_extendqisi2	@ <variable>.structure, <variable>.structure
	mvn	r1, r1	@ tmp141, difference_of_pic_nums_minus1
	ldr	r0, [r0, #416]	@ CurrPicNum, <variable>.frame_num
	cmp	r3, #0	@ <variable>.structure,
	movne	r0, r0, asl #1	@ tmp138, <variable>.frame_num,
	addne	r0, r0, #1	@ CurrPicNum, tmp138,
	add	r0, r0, r1	@, CurrPicNum, tmp141
	bx	lr	@
	.fnend
	.size	GetPicNumX, .-GetPicNumX
	.align	2
	.global	MarkPicLTRef
	.type	MarkPicLTRef, %function
MarkPicLTRef:
	.fnstart
.LFB1941:
	@ args = 0, pretend = 0, frame = 0
	@ frame_needed = 0, uses_anonymous_args = 0
	@ link register save eliminated.
	stmfd	sp!, {r4, r5, r6, r7, r8, sl}	@,
	.save {r4, r5, r6, r7, r8, sl}
	ldrb	r3, [r3, #3]	@ zero_extendqisi2	@ D.38430, <variable>.structure
	cmp	r3, #0	@ D.38430,
	beq	.L72	@,
	movw	ip, #26632	@ tmp155,
	ldr	r8, [r0, ip]	@ D.38446, <variable>.DPB.ref_frames_in_buffer
	cmp	r8, #0	@ D.38446,
	beq	.L82	@,
	add	r5, r0, #26368	@ ivtmp.1189, pH264Ctx,
	sub	r6, r8, #1	@ tmp280, D.38446,
	and	r7, r6, #1	@ tmp282, tmp280,
	mov	r4, #0	@ i.1207,
	ldr	ip, [r5, #128]!	@ temp.1199, <variable>.DPB.fs_ref
	ldrb	r6, [ip, #2]	@ zero_extendqisi2	@ D.38448, <variable>.is_reference
	tst	r6, #1	@ D.38448,
	beq	.L92	@,
	ldr	sl, [ip, #436]	@ tmp311,
	bic	sl, sl, #-16777216	@ tmp312, tmp311,
	bic	sl, sl, #255	@ tmp312, tmp312,
	cmp	sl, #65536	@ tmp312,
	beq	.L111	@,
.L92:
	tst	r6, #2	@ D.38448,
	beq	.L93	@,
	ldr	r6, [ip, #472]	@ tmp306,
	bic	r6, r6, #-16777216	@ tmp307, tmp306,
	bic	r6, r6, #255	@ tmp307, tmp307,
	cmp	r6, #65536	@ tmp307,
	beq	.L112	@,
.L93:
	mov	r4, #1	@ i.1207,
	cmp	r8, r4	@ D.38446, i.1207
	add	r5, r5, #4	@ ivtmp.1189, ivtmp.1189,
	bls	.L82	@,
	cmp	r7, #0	@ tmp282,
	beq	.L81	@,
	ldr	ip, [r5, #0]	@ temp.1199, <variable>.DPB.fs_ref
	ldrb	r6, [ip, #2]	@ zero_extendqisi2	@ D.38448, <variable>.is_reference
	tst	r6, #1	@ D.38448,
	beq	.L95	@,
	ldr	r7, [ip, #436]	@ tmp324,
	bic	r7, r7, #-16777216	@ tmp325, tmp324,
	bic	r7, r7, #255	@ tmp325, tmp325,
	cmp	r7, #65536	@ tmp325,
	beq	.L113	@,
.L95:
	tst	r6, #2	@ D.38448,
	beq	.L96	@,
	ldr	r6, [ip, #472]	@ tmp319,
	bic	r6, r6, #-16777216	@ tmp320, tmp319,
	bic	r6, r6, #255	@ tmp320, tmp320,
	cmp	r6, #65536	@ tmp320,
	beq	.L114	@,
.L96:
	add	r4, r4, #1	@ i.1207, i.1207,
	add	r5, r5, #4	@ ivtmp.1189, ivtmp.1189,
	cmp	r8, r4	@ D.38446, i.1207
	bhi	.L81	@,
.L82:
	ldmfd	sp!, {r4, r5, r6, r7, r8, sl}
	bx	lr
.L72:
	movw	ip, #26632	@ tmp156,
	ldr	r7, [r0, ip]	@ temp.1208, <variable>.DPB.ref_frames_in_buffer
	cmp	r7, #0	@ temp.1208,
	beq	.L82	@,
	add	r4, r0, #26368	@ ivtmp.1184, pH264Ctx,
	sub	r5, r7, #1	@ tmp275, temp.1208,
	and	r6, r5, #1	@ tmp277, tmp275,
	ldr	ip, [r4, #128]!	@ D.38434, <variable>.DPB.fs_ref
	ldrb	r5, [ip, #2]	@ zero_extendqisi2	@ <variable>.is_reference, <variable>.is_reference
	cmp	r5, #3	@ <variable>.is_reference,
	beq	.L115	@,
.L85:
	mov	r3, #1	@ i,
	cmp	r3, r7	@ i, temp.1208
	add	r4, r4, #4	@ ivtmp.1184, ivtmp.1184,
	bcs	.L82	@,
	cmp	r6, #0	@ tmp277,
	beq	.L76	@,
	ldr	ip, [r4, #0]	@ D.38434, <variable>.DPB.fs_ref
	ldrb	r5, [ip, #2]	@ zero_extendqisi2	@ <variable>.is_reference, <variable>.is_reference
	cmp	r5, #3	@ <variable>.is_reference,
	beq	.L116	@,
.L87:
	add	r3, r3, #1	@ i, i,
	add	r4, r4, #4	@ ivtmp.1184, ivtmp.1184,
	cmp	r3, r7	@ i, temp.1208
	bcc	.L76	@,
	b	.L82	@
.L75:
	ldr	ip, [r4, #4]	@ D.38434, <variable>.DPB.fs_ref
	add	r3, r3, #1	@ i, i,
	mov	r5, r3	@ tmp279, i
	ldrb	r4, [ip, #2]	@ zero_extendqisi2	@ <variable>.is_reference, <variable>.is_reference
	cmp	r4, #3	@ <variable>.is_reference,
	beq	.L117	@,
.L90:
	add	r3, r5, #1	@ i, tmp279,
	add	r4, r6, #4	@ ivtmp.1184, tmp278,
	cmp	r3, r7	@ i, temp.1208
	bcs	.L82	@,
.L76:
	ldr	ip, [r4, #0]	@ D.38434, <variable>.DPB.fs_ref
	add	r6, r4, #4	@ tmp278, ivtmp.1184,
	ldrb	r5, [ip, #2]	@ zero_extendqisi2	@ <variable>.is_reference, <variable>.is_reference
	cmp	r5, #3	@ <variable>.is_reference,
	bne	.L75	@,
	ldr	r5, [ip, #400]	@ tmp161,
	bic	r5, r5, #-16777216	@ tmp159, tmp161,
	bic	r5, r5, #255	@ tmp159, tmp159,
	cmp	r5, #65536	@ tmp159,
	bne	.L75	@,
	ldr	r5, [ip, #412]	@ <variable>.frame.pic_num, <variable>.frame.pic_num
	cmp	r5, r2	@ <variable>.frame.pic_num, picNumX
	beq	.L108	@,
	ldr	ip, [r4, #4]	@ D.38434, <variable>.DPB.fs_ref
	add	r3, r3, #1	@ i, i,
	mov	r5, r3	@ tmp279, i
	ldrb	r4, [ip, #2]	@ zero_extendqisi2	@ <variable>.is_reference, <variable>.is_reference
	cmp	r4, #3	@ <variable>.is_reference,
	bne	.L90	@,
.L117:
	ldr	r4, [ip, #400]	@ tmp302,
	bic	r4, r4, #-16777216	@ tmp303, tmp302,
	bic	r4, r4, #255	@ tmp303, tmp303,
	cmp	r4, #65536	@ tmp303,
	bne	.L90	@,
	ldr	r4, [ip, #412]	@ <variable>.frame.pic_num, <variable>.frame.pic_num
	cmp	r4, r2	@ <variable>.frame.pic_num, picNumX
	bne	.L90	@,
	b	.L108	@
.L77:
	tst	r6, #2	@ D.38448,
	beq	.L79	@,
	ldr	r6, [ip, #472]	@ tmp239,
	bic	r6, r6, #-16777216	@ tmp237, tmp239,
	bic	r6, r6, #255	@ tmp237, tmp237,
	cmp	r6, #65536	@ tmp237,
	beq	.L118	@,
.L79:
	ldr	ip, [r5, #4]	@ temp.1199, <variable>.DPB.fs_ref
	add	r4, r4, #1	@ i.1207, i.1207,
	add	r5, r5, #4	@ tmp284, ivtmp.1189,
	mov	sl, r4	@ tmp283, i.1207
	ldrb	r6, [ip, #2]	@ zero_extendqisi2	@ D.38448, <variable>.is_reference
	tst	r6, #1	@ D.38448,
	beq	.L99	@,
	ldr	r7, [ip, #436]	@ tmp335,
	bic	r7, r7, #-16777216	@ tmp336, tmp335,
	bic	r7, r7, #255	@ tmp336, tmp336,
	cmp	r7, #65536	@ tmp336,
	beq	.L119	@,
.L99:
	tst	r6, #2	@ D.38448,
	beq	.L100	@,
	ldr	r6, [ip, #472]	@ tmp330,
	bic	r6, r6, #-16777216	@ tmp331, tmp330,
	bic	r6, r6, #255	@ tmp331, tmp331,
	cmp	r6, #65536	@ tmp331,
	beq	.L120	@,
.L100:
	add	r4, sl, #1	@ i.1207, tmp283,
	add	r5, r5, #4	@ ivtmp.1189, tmp284,
	cmp	r8, r4	@ D.38446, i.1207
	bls	.L82	@,
.L81:
	ldr	ip, [r5, #0]	@ temp.1199, <variable>.DPB.fs_ref
	ldrb	r6, [ip, #2]	@ zero_extendqisi2	@ D.38448, <variable>.is_reference
	tst	r6, #1	@ D.38448,
	beq	.L77	@,
	ldr	r7, [ip, #436]	@ tmp200,
	bic	r7, r7, #-16777216	@ tmp198, tmp200,
	bic	r7, r7, #255	@ tmp198, tmp198,
	cmp	r7, #65536	@ tmp198,
	bne	.L77	@,
	ldr	r7, [ip, #448]	@ <variable>.top_field.pic_num, <variable>.top_field.pic_num
	cmp	r7, r2	@ <variable>.top_field.pic_num, picNumX
	bne	.L77	@,
	ldrb	r6, [ip, #473]	@ zero_extendqisi2	@ <variable>.bottom_field.is_long_term, <variable>.bottom_field.is_long_term
	cmp	r6, #1	@ <variable>.bottom_field.is_long_term,
	bne	.L78	@,
	ldr	r6, [ip, #520]	@ <variable>.long_term_frame_idx, <variable>.long_term_frame_idx
	cmp	r6, r1	@ <variable>.long_term_frame_idx, long_term_frame_idx
	bne	.L79	@,
.L78:
	add	r4, r4, #6592	@ tmp204, i.1207,
	str	r1, [ip, #520]	@ long_term_frame_idx, <variable>.long_term_frame_idx
	add	r4, r4, #32	@ tmp204, tmp204,
	cmp	r3, #1	@ D.38430,
	movne	r2, #0	@, tmp209
	moveq	r2, #1	@, tmp209
	add	ip, r2, r1, asl #1	@, tmp210, tmp209, long_term_frame_idx,
	mov	r1, #1	@ tmp214,
	ldr	r3, [r0, r4, asl #2]	@ tmp206, <variable>.DPB.fs_ref
	str	ip, [r3, #444]	@ tmp210, <variable>.top_field.long_term_pic_num
	mov	ip, #0	@ tmp219,
	ldr	r2, [r0, r4, asl #2]	@ tmp213, <variable>.DPB.fs_ref
	strb	r1, [r2, #437]	@ tmp214, <variable>.top_field.is_long_term
	ldr	r3, [r0, r4, asl #2]	@ tmp218, <variable>.DPB.fs_ref
	strb	ip, [r3, #438]	@ tmp219, <variable>.top_field.is_short_term
	ldr	r3, [r0, r4, asl #2]	@ temp.1204, <variable>.DPB.fs_ref
	ldrb	r2, [r3, #400]	@ zero_extendqisi2	@ D.38469, <variable>.frame.structure
	cmp	r2, #3	@ D.38469,
	cmpne	r2, #0	@, D.38469,
	bne	.L82	@,
	ldrb	r1, [r3, #437]	@ zero_extendqisi2	@ D.38475, <variable>.top_field.is_long_term
	ldrb	r2, [r3, #473]	@ zero_extendqisi2	@ <variable>.bottom_field.is_long_term, <variable>.bottom_field.is_long_term
	cmp	r2, r1	@ <variable>.bottom_field.is_long_term, D.38475
	streqb	r2, [r3, #401]	@ <variable>.bottom_field.is_long_term, <variable>.frame.is_long_term
	ldreq	ip, [r0, r4, asl #2]	@ temp.1206, <variable>.DPB.fs_ref
	ldreqb	r0, [ip, #438]	@ zero_extendqisi2	@ <variable>.top_field.is_short_term, <variable>.top_field.is_short_term
	streqb	r0, [ip, #402]	@ <variable>.top_field.is_short_term, <variable>.frame.is_short_term
	b	.L82	@
.L119:
	ldr	r7, [ip, #448]	@ <variable>.top_field.pic_num, <variable>.top_field.pic_num
	cmp	r7, r2	@ <variable>.top_field.pic_num, picNumX
	bne	.L99	@,
	ldrb	r6, [ip, #473]	@ zero_extendqisi2	@ <variable>.bottom_field.is_long_term, <variable>.bottom_field.is_long_term
	cmp	r6, #1	@ <variable>.bottom_field.is_long_term,
	bne	.L78	@,
	ldr	r6, [ip, #520]	@ <variable>.long_term_frame_idx, <variable>.long_term_frame_idx
	cmp	r6, r1	@ <variable>.long_term_frame_idx, long_term_frame_idx
	bne	.L100	@,
	b	.L78	@
.L118:
	ldr	r6, [ip, #484]	@ <variable>.bottom_field.pic_num, <variable>.bottom_field.pic_num
	cmp	r6, r2	@ <variable>.bottom_field.pic_num, picNumX
	bne	.L79	@,
	ldrb	r6, [ip, #437]	@ zero_extendqisi2	@ <variable>.top_field.is_long_term, <variable>.top_field.is_long_term
	cmp	r6, #1	@ <variable>.top_field.is_long_term,
	bne	.L80	@,
	ldr	r6, [ip, #520]	@ <variable>.long_term_frame_idx, <variable>.long_term_frame_idx
	cmp	r6, r1	@ <variable>.long_term_frame_idx, long_term_frame_idx
	bne	.L79	@,
	b	.L80	@
.L120:
	ldr	r6, [ip, #484]	@ <variable>.bottom_field.pic_num, <variable>.bottom_field.pic_num
	cmp	r6, r2	@ <variable>.bottom_field.pic_num, picNumX
	bne	.L100	@,
	ldrb	r6, [ip, #437]	@ zero_extendqisi2	@ <variable>.top_field.is_long_term, <variable>.top_field.is_long_term
	cmp	r6, #1	@ <variable>.top_field.is_long_term,
	bne	.L80	@,
	ldr	r6, [ip, #520]	@ <variable>.long_term_frame_idx, <variable>.long_term_frame_idx
	cmp	r6, r1	@ <variable>.long_term_frame_idx, long_term_frame_idx
	bne	.L100	@,
.L80:
	add	r4, r4, #6592	@ tmp243, i.1207,
	str	r1, [ip, #520]	@ long_term_frame_idx, <variable>.long_term_frame_idx
	add	r4, r4, #32	@ tmp243, tmp243,
	cmp	r3, #2	@ D.38430,
	movne	ip, #0	@, tmp248
	moveq	ip, #1	@, tmp248
	add	r1, ip, r1, asl #1	@, tmp249, tmp248, long_term_frame_idx,
	mov	ip, #1	@ tmp253,
	ldr	r3, [r0, r4, asl #2]	@ tmp245, <variable>.DPB.fs_ref
	str	r1, [r3, #480]	@ tmp249, <variable>.bottom_field.long_term_pic_num
	mov	r1, #0	@ tmp258,
	ldr	r2, [r0, r4, asl #2]	@ tmp252, <variable>.DPB.fs_ref
	strb	ip, [r2, #473]	@ tmp253, <variable>.bottom_field.is_long_term
	ldr	r3, [r0, r4, asl #2]	@ tmp257, <variable>.DPB.fs_ref
	strb	r1, [r3, #474]	@ tmp258, <variable>.bottom_field.is_short_term
	ldr	r3, [r0, r4, asl #2]	@ temp.1215, <variable>.DPB.fs_ref
	ldrb	r2, [r3, #400]	@ zero_extendqisi2	@ D.38495, <variable>.frame.structure
	cmp	r2, #3	@ D.38495,
	cmpne	r2, #0	@, D.38495,
	bne	.L82	@,
	ldrb	r1, [r3, #437]	@ zero_extendqisi2	@ temp.1216, <variable>.top_field.is_long_term
	ldrb	r2, [r3, #473]	@ zero_extendqisi2	@ <variable>.bottom_field.is_long_term, <variable>.bottom_field.is_long_term
	cmp	r2, r1	@ <variable>.bottom_field.is_long_term, temp.1216
	streqb	r2, [r3, #401]	@ <variable>.bottom_field.is_long_term, <variable>.frame.is_long_term
	ldreq	r2, [r0, r4, asl #2]	@ temp.1218, <variable>.DPB.fs_ref
	ldreqb	r0, [r2, #474]	@ zero_extendqisi2	@ <variable>.bottom_field.is_short_term, <variable>.bottom_field.is_short_term
	streqb	r0, [r2, #402]	@ <variable>.bottom_field.is_short_term, <variable>.frame.is_short_term
	b	.L82	@
.L111:
	ldr	sl, [ip, #448]	@ <variable>.top_field.pic_num, <variable>.top_field.pic_num
	cmp	sl, r2	@ <variable>.top_field.pic_num, picNumX
	bne	.L92	@,
	ldrb	r6, [ip, #473]	@ zero_extendqisi2	@ <variable>.bottom_field.is_long_term, <variable>.bottom_field.is_long_term
	cmp	r6, #1	@ <variable>.bottom_field.is_long_term,
	bne	.L78	@,
	ldr	r6, [ip, #520]	@ <variable>.long_term_frame_idx, <variable>.long_term_frame_idx
	cmp	r6, r1	@ <variable>.long_term_frame_idx, long_term_frame_idx
	bne	.L93	@,
	b	.L78	@
.L113:
	ldr	r7, [ip, #448]	@ <variable>.top_field.pic_num, <variable>.top_field.pic_num
	cmp	r7, r2	@ <variable>.top_field.pic_num, picNumX
	bne	.L95	@,
	ldrb	r6, [ip, #473]	@ zero_extendqisi2	@ <variable>.bottom_field.is_long_term, <variable>.bottom_field.is_long_term
	cmp	r6, #1	@ <variable>.bottom_field.is_long_term,
	bne	.L78	@,
	ldr	r6, [ip, #520]	@ <variable>.long_term_frame_idx, <variable>.long_term_frame_idx
	cmp	r6, r1	@ <variable>.long_term_frame_idx, long_term_frame_idx
	bne	.L96	@,
	b	.L78	@
.L112:
	ldr	r6, [ip, #484]	@ <variable>.bottom_field.pic_num, <variable>.bottom_field.pic_num
	cmp	r6, r2	@ <variable>.bottom_field.pic_num, picNumX
	bne	.L93	@,
	ldrb	r6, [ip, #437]	@ zero_extendqisi2	@ <variable>.top_field.is_long_term, <variable>.top_field.is_long_term
	cmp	r6, #1	@ <variable>.top_field.is_long_term,
	bne	.L80	@,
	ldr	r6, [ip, #520]	@ <variable>.long_term_frame_idx, <variable>.long_term_frame_idx
	cmp	r6, r1	@ <variable>.long_term_frame_idx, long_term_frame_idx
	bne	.L93	@,
	b	.L80	@
.L114:
	ldr	r6, [ip, #484]	@ <variable>.bottom_field.pic_num, <variable>.bottom_field.pic_num
	cmp	r6, r2	@ <variable>.bottom_field.pic_num, picNumX
	bne	.L96	@,
	ldrb	r6, [ip, #437]	@ zero_extendqisi2	@ <variable>.top_field.is_long_term, <variable>.top_field.is_long_term
	cmp	r6, #1	@ <variable>.top_field.is_long_term,
	bne	.L80	@,
	ldr	r6, [ip, #520]	@ <variable>.long_term_frame_idx, <variable>.long_term_frame_idx
	cmp	r6, r1	@ <variable>.long_term_frame_idx, long_term_frame_idx
	bne	.L96	@,
	b	.L80	@
.L115:
	ldr	r5, [ip, #400]	@ tmp295,
	bic	r5, r5, #-16777216	@ tmp296, tmp295,
	bic	r5, r5, #255	@ tmp296, tmp296,
	cmp	r5, #65536	@ tmp296,
	bne	.L85	@,
	ldr	r5, [ip, #412]	@ <variable>.frame.pic_num, <variable>.frame.pic_num
	cmp	r5, r2	@ <variable>.frame.pic_num, picNumX
	bne	.L85	@,
.L108:
	add	r4, r3, #6592	@ tmp163, i,
	str	r1, [ip, #520]	@ long_term_frame_idx, <variable>.long_term_frame_idx
	add	r3, r4, #32	@ tmp163, tmp163,
	mov	ip, #1	@ tmp169,
	mov	r2, #0	@ tmp184,
	ldr	r4, [r0, r3, asl #2]	@ tmp165, <variable>.DPB.fs_ref
	str	r1, [r4, #408]	@ long_term_frame_idx, <variable>.frame.long_term_pic_num
	ldr	r1, [r0, r3, asl #2]	@ tmp168, <variable>.DPB.fs_ref
	strb	ip, [r1, #401]	@ tmp169, <variable>.frame.is_long_term
	ldr	r1, [r0, r3, asl #2]	@ tmp173, <variable>.DPB.fs_ref
	strb	ip, [r1, #437]	@ tmp169, <variable>.top_field.is_long_term
	ldr	r1, [r0, r3, asl #2]	@ tmp178, <variable>.DPB.fs_ref
	strb	ip, [r1, #473]	@ tmp169, <variable>.bottom_field.is_long_term
	ldr	ip, [r0, r3, asl #2]	@ tmp183, <variable>.DPB.fs_ref
	strb	r2, [ip, #402]	@ tmp184, <variable>.frame.is_short_term
	ldr	r1, [r0, r3, asl #2]	@ tmp188, <variable>.DPB.fs_ref
	strb	r2, [r1, #438]	@ tmp184, <variable>.top_field.is_short_term
	ldr	r3, [r0, r3, asl #2]	@ tmp193, <variable>.DPB.fs_ref
	strb	r2, [r3, #474]	@ tmp184, <variable>.bottom_field.is_short_term
	b	.L82	@
.L116:
	ldr	r5, [ip, #400]	@ tmp299,
	bic	r5, r5, #-16777216	@ tmp300, tmp299,
	bic	r5, r5, #255	@ tmp300, tmp300,
	cmp	r5, #65536	@ tmp300,
	bne	.L87	@,
	ldr	r5, [ip, #412]	@ <variable>.frame.pic_num, <variable>.frame.pic_num
	cmp	r5, r2	@ <variable>.frame.pic_num, picNumX
	bne	.L87	@,
	b	.L108	@
	.fnend
	.size	MarkPicLTRef, .-MarkPicLTRef
	.align	2
	.global	SetFrmRepeatCount
	.type	SetFrmRepeatCount, %function
SetFrmRepeatCount:
	.fnstart
.LFB1951:
	@ args = 0, pretend = 0, frame = 0
	@ frame_needed = 0, uses_anonymous_args = 0
	@ link register save eliminated.
	str	r4, [sp, #-4]!	@,
	.save {r4}
	ldr	r3, [r0, #0]	@ <variable>.pstExtraData, <variable>.pstExtraData
	ldr	ip, [r3, #520]	@ <variable>.s32FastForwardBackwardSpeed, <variable>.s32FastForwardBackwardSpeed
	add	r2, ip, #2032	@ tmp138, <variable>.s32FastForwardBackwardSpeed,
	add	r3, r2, #15	@ tmp138, tmp138,
	cmp	r3, #4096	@ tmp138,
	bcc	.L122	@,
	movw	r3, #52864	@ tmp144,
	movw	r2, #52860	@ tmp142,
	ldr	r4, [r0, r3]	@ <variable>.PicOutCounter, <variable>.PicOutCounter
	mov	ip, #26624	@ tmp147,
	ldr	r2, [r0, r2]	@ <variable>.NewPicCounter, <variable>.NewPicCounter
	ldr	ip, [r0, ip]	@ <variable>.DPB.size, <variable>.DPB.size
	add	ip, ip, r4, lsr #1	@, D.38917, <variable>.DPB.size, <variable>.PicOutCounter,
	mov	r2, r2, lsr #1	@ D.38913, <variable>.NewPicCounter,
	add	r4, ip, #1	@ tmp149, D.38917,
	cmp	r2, r4	@ D.38913, tmp149
	bcc	.L122	@,
	mvn	ip, ip	@ tmp150, D.38917
	add	r2, ip, r2	@ tmp151, tmp150, D.38913
	cmp	r2, #1	@ tmp151,
	movhi	r2, #2	@ tmp152,
	movls	r2, #1	@ tmp157,
	strhi	r2, [r1, #84]	@ tmp152, <variable>.u32RepeatCnt
	strls	r2, [r1, #84]	@ tmp157, <variable>.u32RepeatCnt
	ldrhi	r2, [r0, r3]	@ <variable>.PicOutCounter, <variable>.PicOutCounter
	ldrls	r2, [r0, r3]	@ <variable>.PicOutCounter, <variable>.PicOutCounter
	addhi	r2, r2, #4	@ tmp156, <variable>.PicOutCounter,
	addls	r2, r2, #2	@ tmp161, <variable>.PicOutCounter,
	str	r2, [r0, r3]	@ tmp161, <variable>.PicOutCounter
	b	.L126	@
.L122:
	mov	r0, #0	@ tmp163,
	str	r0, [r1, #84]	@ tmp163, <variable>.u32RepeatCnt
.L126:
	ldmfd	sp!, {r4}
	bx	lr
	.fnend
	.size	SetFrmRepeatCount, .-SetFrmRepeatCount
	.align	2
	.global	SplitFrmToFlds
	.type	SplitFrmToFlds, %function
SplitFrmToFlds:
	.fnstart
.LFB1954:
	@ args = 0, pretend = 0, frame = 0
	@ frame_needed = 0, uses_anonymous_args = 0
	@ link register save eliminated.
	stmfd	sp!, {r4, r5}	@,
	.save {r4, r5}
	ldrb	ip, [r0, #402]	@ zero_extendqisi2	@ <variable>.frame.is_short_term, <variable>.frame.is_short_term
	ldrb	r4, [r0, #401]	@ zero_extendqisi2	@ <variable>.frame.is_long_term, <variable>.frame.is_long_term
	mov	r5, #1	@ tmp138,
	ldr	r1, [r0, #420]	@ <variable>.frame.err_level, <variable>.frame.err_level
	ldr	r2, [r0, #424]	@ <variable>.frame.pic_type, <variable>.frame.pic_type
	ldr	r3, [r0, #404]	@ <variable>.frame.frame_store, <variable>.frame.frame_store
	strb	r5, [r0, #436]	@ tmp138, <variable>.top_field.structure
	mov	r5, #2	@ tmp147,
	strb	r4, [r0, #473]	@ <variable>.frame.is_long_term, <variable>.bottom_field.is_long_term
	str	r3, [r0, #476]	@ <variable>.frame.frame_store, <variable>.bottom_field.frame_store
	strb	ip, [r0, #474]	@ <variable>.frame.is_short_term, <variable>.bottom_field.is_short_term
	strb	r5, [r0, #472]	@ tmp147, <variable>.bottom_field.structure
	str	r1, [r0, #492]	@ <variable>.frame.err_level, <variable>.bottom_field.err_level
	str	r2, [r0, #496]	@ <variable>.frame.pic_type, <variable>.bottom_field.pic_type
	strb	r4, [r0, #437]	@ <variable>.frame.is_long_term, <variable>.top_field.is_long_term
	strb	ip, [r0, #438]	@ <variable>.frame.is_short_term, <variable>.top_field.is_short_term
	str	r1, [r0, #456]	@ <variable>.frame.err_level, <variable>.top_field.err_level
	str	r2, [r0, #460]	@ <variable>.frame.pic_type, <variable>.top_field.pic_type
	str	r3, [r0, #440]	@ <variable>.frame.frame_store, <variable>.top_field.frame_store
	ldmfd	sp!, {r4, r5}
	bx	lr
	.fnend
	.size	SplitFrmToFlds, .-SplitFrmToFlds
	.align	2
	.global	CombineFldsToFrm
	.type	CombineFldsToFrm, %function
CombineFldsToFrm:
	.fnstart
.LFB1955:
	@ args = 0, pretend = 0, frame = 0
	@ frame_needed = 0, uses_anonymous_args = 0
	@ link register save eliminated.
	ldr	r1, [r0, #488]	@ <variable>.bottom_field.poc, <variable>.bottom_field.poc
	ldr	r3, [r0, #452]	@ <variable>.top_field.poc, <variable>.top_field.poc
	str	r4, [sp, #-4]!	@,
	.save {r4}
	cmp	r1, r3	@ <variable>.bottom_field.poc, <variable>.top_field.poc
	movlt	r3, r1	@ D.39026, <variable>.bottom_field.poc
	movge	r3, r3	@ D.39026, <variable>.top_field.poc
	ldr	r4, [r0, #492]	@ <variable>.bottom_field.err_level, <variable>.bottom_field.err_level
	ldr	r2, [r0, #456]	@ <variable>.top_field.err_level, <variable>.top_field.err_level
	ldrb	r1, [r0, #473]	@ zero_extendqisi2	@ <variable>.bottom_field.is_long_term, <variable>.bottom_field.is_long_term
	ldr	ip, [r0, #440]	@ <variable>.top_field.frame_store, <variable>.top_field.frame_store
	add	r2, r4, r2	@ tmp144, <variable>.bottom_field.err_level, <variable>.top_field.err_level
	cmp	r1, #0	@ <variable>.bottom_field.is_long_term,
	mov	r4, #3	@ tmp142,
	mov	r2, r2, lsr #1	@ D.39031, tmp144,
	str	r3, [r0, #524]	@ D.39026, <variable>.poc
	strb	r4, [r0, #400]	@ tmp142, <variable>.frame.structure
	str	ip, [r0, #404]	@ <variable>.top_field.frame_store, <variable>.frame.frame_store
	str	r3, [r0, #416]	@ D.39026, <variable>.frame.poc
	str	r2, [r0, #420]	@ D.39031, <variable>.frame.err_level
	beq	.L131	@,
	ldrb	ip, [r0, #437]	@ zero_extendqisi2	@ <variable>.top_field.is_long_term, <variable>.top_field.is_long_term
	subs	r1, ip, #0	@ prephitmp.1296, <variable>.top_field.is_long_term,
	movne	r1, #1	@ prephitmp.1296
.L131:
	ldr	r3, [r0, #472]	@ tmp154,
	strb	r1, [r0, #401]	@ prephitmp.1296, <variable>.frame.is_long_term
	bic	ip, r3, #-16777216	@ tmp152, tmp154,
	bic	r3, ip, #255	@ tmp152, tmp152,
	cmp	r3, #0	@ tmp152,
	beq	.L132	@,
	ldr	ip, [r0, #436]	@ tmp157,
	bic	r3, ip, #-16777216	@ tmp155, tmp157,
	bic	ip, r3, #255	@ tmp155, tmp155,
	cmp	ip, #0	@ tmp155,
	bne	.L135	@,
.L132:
	mov	r1, #0	@ prephitmp.1285,
.L133:
	ldr	ip, [r0, #496]	@ <variable>.bottom_field.pic_type, <variable>.bottom_field.pic_type
	ldr	r3, [r0, #460]	@ <variable>.top_field.pic_type, <variable>.top_field.pic_type
	str	r2, [r0, #544]	@ D.39031, <variable>.err_level
	cmp	ip, r3	@ <variable>.bottom_field.pic_type, <variable>.top_field.pic_type
	movcs	r3, ip	@ D.39055, <variable>.bottom_field.pic_type
	strb	r1, [r0, #402]	@ prephitmp.1285, <variable>.frame.is_short_term
	str	r3, [r0, #540]	@ D.39055, <variable>.pic_type
	str	r3, [r0, #424]	@ D.39055, <variable>.frame.pic_type
	ldmfd	sp!, {r4}
	bx	lr
.L135:
	rsbs	r1, r1, #1	@ prephitmp.1285, prephitmp.1296
	movcc	r1, #0	@ prephitmp.1285
	b	.L133	@
	.fnend
	.size	CombineFldsToFrm, .-CombineFldsToFrm
	.align	2
	.global	GetShortTermPicPoint
	.type	GetShortTermPicPoint, %function
GetShortTermPicPoint:
	.fnstart
.LFB1970:
	@ args = 0, pretend = 0, frame = 0
	@ frame_needed = 0, uses_anonymous_args = 0
	@ link register save eliminated.
	movw	r3, #20681	@ tmp144,
	stmfd	sp!, {r4, r5, r6}	@,
	.save {r4, r5, r6}
	ldrb	r3, [r0, r3]	@ zero_extendqisi2	@ <variable>.CurrSlice.field_pic_flag, <variable>.CurrSlice.field_pic_flag
	cmp	r3, #0	@ <variable>.CurrSlice.field_pic_flag,
	beq	.L138	@,
	movw	r2, #20682	@ tmp146,
	ldrb	r3, [r0, r2]	@ zero_extendqisi2	@ <variable>.CurrSlice.bottom_field_flag, <variable>.CurrSlice.bottom_field_flag
	cmp	r3, #0	@ <variable>.CurrSlice.bottom_field_flag,
	movne	r3, #2	@ structure,
	moveq	r3, #1	@ structure,
.L138:
	movw	ip, #26632	@ tmp148,
	ldr	r5, [r0, ip]	@ D.40019, <variable>.DPB.ref_frames_in_buffer
	cmp	r5, #0	@ D.40019,
	beq	.L140	@,
	cmp	r3, #0	@ structure,
	add	r0, r0, #26368	@ ivtmp.1323, pH264Ctx,
	sub	r2, r5, #1	@ tmp166, D.40019,
	add	r0, r0, #128	@ ivtmp.1323, ivtmp.1323,
	and	r4, r2, #1	@ tmp168, tmp166,
	bne	.L148	@,
	ldr	r2, [r0, #0]	@ D.39984, <variable>.DPB.fs_ref
	ldrb	ip, [r2, #2]	@ zero_extendqisi2	@ <variable>.is_reference, <variable>.is_reference
	cmp	ip, #3	@ <variable>.is_reference,
	bne	.L150	@,
	ldr	ip, [r2, #400]	@ tmp185,
	bic	ip, ip, #-16777216	@ tmp186, tmp185,
	bic	ip, ip, #255	@ tmp186, tmp186,
	cmp	ip, #65536	@ tmp186,
	bne	.L150	@,
	ldr	ip, [r2, #412]	@ <variable>.frame.pic_num, <variable>.frame.pic_num
	cmp	ip, r1	@ <variable>.frame.pic_num, picNum
	beq	.L167	@,
.L150:
	mov	ip, #1	@ i,
	cmp	r5, ip	@ D.40019, i
	add	r0, r0, #4	@ ivtmp.1323, ivtmp.1323,
	bls	.L140	@,
	cmp	r4, #0	@ tmp168,
	beq	.L145	@,
	cmp	r3, #0	@ structure,
	beq	.L168	@,
	ldr	r2, [r0, #0]	@ temp.1326, <variable>.DPB.fs_ref
	ldrb	r4, [r2, #2]	@ zero_extendqisi2	@ D.39997, <variable>.is_reference
	tst	r4, #1	@ D.39997,
	beq	.L153	@,
	ldr	r6, [r2, #436]	@ tmp194,
	bic	r6, r6, #-16777216	@ tmp195, tmp194,
	bic	r6, r6, #255	@ tmp195, tmp195,
	cmp	r6, #65536	@ tmp195,
	beq	.L172	@,
.L153:
	tst	r4, #2	@ D.39997,
	beq	.L154	@,
	ldr	r4, [r2, #472]	@ tmp191,
	bic	r4, r4, #-16777216	@ tmp192, tmp191,
	bic	r4, r4, #255	@ tmp192, tmp192,
	cmp	r4, #65536	@ tmp192,
	bne	.L154	@,
	ldr	r4, [r2, #484]	@ <variable>.bottom_field.pic_num, <variable>.bottom_field.pic_num
	cmp	r4, r1	@ <variable>.bottom_field.pic_num, picNum
	beq	.L165	@,
.L154:
	add	ip, ip, #1	@ i, i,
	add	r0, r0, #4	@ ivtmp.1323, ivtmp.1323,
	cmp	r5, ip	@ D.40019, i
	bhi	.L145	@,
.L140:
	mov	r0, #0	@ D.39995,
.L143:
	ldmfd	sp!, {r4, r5, r6}
	bx	lr
.L148:
	ldr	r2, [r0, #0]	@ temp.1326, <variable>.DPB.fs_ref
	ldrb	ip, [r2, #2]	@ zero_extendqisi2	@ D.39997, <variable>.is_reference
	tst	ip, #1	@ D.39997,
	beq	.L149	@,
	ldr	r6, [r2, #436]	@ tmp181,
	bic	r6, r6, #-16777216	@ tmp182, tmp181,
	bic	r6, r6, #255	@ tmp182, tmp182,
	cmp	r6, #65536	@ tmp182,
	beq	.L173	@,
.L149:
	tst	ip, #2	@ D.39997,
	beq	.L150	@,
	ldr	ip, [r2, #472]	@ tmp178,
	bic	ip, ip, #-16777216	@ tmp179, tmp178,
	bic	ip, ip, #255	@ tmp179, tmp179,
	cmp	ip, #65536	@ tmp179,
	bne	.L150	@,
	ldr	ip, [r2, #484]	@ <variable>.bottom_field.pic_num, <variable>.bottom_field.pic_num
	cmp	ip, r1	@ <variable>.bottom_field.pic_num, picNum
	bne	.L150	@,
.L165:
	add	r0, r2, #472	@ D.39995, temp.1326,
	b	.L143	@
.L174:
	ldr	r2, [r0, #0]	@ D.39984, <variable>.DPB.fs_ref
	ldrb	r4, [r2, #2]	@ zero_extendqisi2	@ <variable>.is_reference, <variable>.is_reference
	cmp	r4, #3	@ <variable>.is_reference,
	bne	.L142	@,
	ldr	r4, [r2, #400]	@ tmp153,
	bic	r4, r4, #-16777216	@ tmp151, tmp153,
	bic	r4, r4, #255	@ tmp151, tmp151,
	cmp	r4, #65536	@ tmp151,
	bne	.L142	@,
	ldr	r4, [r2, #412]	@ <variable>.frame.pic_num, <variable>.frame.pic_num
	cmp	r4, r1	@ <variable>.frame.pic_num, picNum
	beq	.L167	@,
.L142:
	cmp	r3, #0	@ structure,
	add	ip, ip, #1	@ tmp169, i,
	add	r4, r0, #4	@ tmp170, ivtmp.1323,
	bne	.L157	@,
.L176:
	ldr	r2, [r0, #4]	@ D.39984, <variable>.DPB.fs_ref
	ldrb	r0, [r2, #2]	@ zero_extendqisi2	@ <variable>.is_reference, <variable>.is_reference
	cmp	r0, #3	@ <variable>.is_reference,
	bne	.L159	@,
	ldr	r0, [r2, #400]	@ tmp211,
	bic	r0, r0, #-16777216	@ tmp212, tmp211,
	bic	r0, r0, #255	@ tmp212, tmp212,
	cmp	r0, #65536	@ tmp212,
	bne	.L159	@,
	ldr	r0, [r2, #412]	@ <variable>.frame.pic_num, <variable>.frame.pic_num
	cmp	r0, r1	@ <variable>.frame.pic_num, picNum
	beq	.L167	@,
.L159:
	add	ip, ip, #1	@ i, tmp169,
	add	r0, r4, #4	@ ivtmp.1323, tmp170,
	cmp	r5, ip	@ D.40019, i
	bls	.L140	@,
.L145:
	cmp	r3, #0	@ structure,
	beq	.L174	@,
	ldr	r2, [r0, #0]	@ temp.1326, <variable>.DPB.fs_ref
	ldrb	r4, [r2, #2]	@ zero_extendqisi2	@ D.39997, <variable>.is_reference
	tst	r4, #1	@ D.39997,
	beq	.L144	@,
	ldr	r6, [r2, #436]	@ tmp158,
	bic	r6, r6, #-16777216	@ tmp156, tmp158,
	bic	r6, r6, #255	@ tmp156, tmp156,
	cmp	r6, #65536	@ tmp156,
	beq	.L175	@,
.L144:
	tst	r4, #2	@ D.39997,
	beq	.L142	@,
	ldr	r4, [r2, #472]	@ tmp163,
	bic	r4, r4, #-16777216	@ tmp161, tmp163,
	bic	r4, r4, #255	@ tmp161, tmp161,
	cmp	r4, #65536	@ tmp161,
	bne	.L142	@,
	ldr	r4, [r2, #484]	@ <variable>.bottom_field.pic_num, <variable>.bottom_field.pic_num
	cmp	r4, r1	@ <variable>.bottom_field.pic_num, picNum
	beq	.L165	@,
	cmp	r3, #0	@ structure,
	add	ip, ip, #1	@ tmp169, i,
	add	r4, r0, #4	@ tmp170, ivtmp.1323,
	beq	.L176	@,
.L157:
	ldr	r2, [r0, #4]	@ temp.1326, <variable>.DPB.fs_ref
	ldrb	r0, [r2, #2]	@ zero_extendqisi2	@ D.39997, <variable>.is_reference
	tst	r0, #1	@ D.39997,
	beq	.L158	@,
	ldr	r6, [r2, #436]	@ tmp207,
	bic	r6, r6, #-16777216	@ tmp208, tmp207,
	bic	r6, r6, #255	@ tmp208, tmp208,
	cmp	r6, #65536	@ tmp208,
	beq	.L177	@,
.L158:
	tst	r0, #2	@ D.39997,
	beq	.L159	@,
	ldr	r0, [r2, #472]	@ tmp204,
	bic	r0, r0, #-16777216	@ tmp205, tmp204,
	bic	r0, r0, #255	@ tmp205, tmp205,
	cmp	r0, #65536	@ tmp205,
	bne	.L159	@,
	ldr	r0, [r2, #484]	@ <variable>.bottom_field.pic_num, <variable>.bottom_field.pic_num
	cmp	r0, r1	@ <variable>.bottom_field.pic_num, picNum
	bne	.L159	@,
	add	r0, r2, #472	@ D.39995, temp.1326,
	b	.L143	@
.L175:
	ldr	r6, [r2, #448]	@ <variable>.top_field.pic_num, <variable>.top_field.pic_num
	cmp	r6, r1	@ <variable>.top_field.pic_num, picNum
	bne	.L144	@,
	add	r0, r2, #436	@ D.39995, temp.1326,
	b	.L143	@
.L177:
	ldr	r6, [r2, #448]	@ <variable>.top_field.pic_num, <variable>.top_field.pic_num
	cmp	r6, r1	@ <variable>.top_field.pic_num, picNum
	bne	.L158	@,
	add	r0, r2, #436	@ D.39995, temp.1326,
	b	.L143	@
.L168:
	ldr	r2, [r0, #0]	@ D.39984, <variable>.DPB.fs_ref
	ldrb	r4, [r2, #2]	@ zero_extendqisi2	@ <variable>.is_reference, <variable>.is_reference
	cmp	r4, #3	@ <variable>.is_reference,
	bne	.L154	@,
	ldr	r4, [r2, #400]	@ tmp198,
	bic	r4, r4, #-16777216	@ tmp199, tmp198,
	bic	r4, r4, #255	@ tmp199, tmp199,
	cmp	r4, #65536	@ tmp199,
	bne	.L154	@,
	ldr	r4, [r2, #412]	@ <variable>.frame.pic_num, <variable>.frame.pic_num
	cmp	r4, r1	@ <variable>.frame.pic_num, picNum
	bne	.L154	@,
.L167:
	add	r0, r2, #400	@ D.39995, D.39984,
	b	.L143	@
.L173:
	ldr	r6, [r2, #448]	@ <variable>.top_field.pic_num, <variable>.top_field.pic_num
	cmp	r6, r1	@ <variable>.top_field.pic_num, picNum
	bne	.L149	@,
	add	r0, r2, #436	@ D.39995, temp.1326,
	b	.L143	@
.L172:
	ldr	r6, [r2, #448]	@ <variable>.top_field.pic_num, <variable>.top_field.pic_num
	cmp	r6, r1	@ <variable>.top_field.pic_num, picNum
	bne	.L153	@,
	add	r0, r2, #436	@ D.39995, temp.1326,
	b	.L143	@
	.fnend
	.size	GetShortTermPicPoint, .-GetShortTermPicPoint
	.align	2
	.global	GetLongTermPicPoint
	.type	GetLongTermPicPoint, %function
GetLongTermPicPoint:
	.fnstart
.LFB1971:
	@ args = 0, pretend = 0, frame = 0
	@ frame_needed = 0, uses_anonymous_args = 0
	@ link register save eliminated.
	movw	r3, #20681	@ tmp144,
	stmfd	sp!, {r4, r5, r6}	@,
	.save {r4, r5, r6}
	ldrb	r3, [r0, r3]	@ zero_extendqisi2	@ <variable>.CurrSlice.field_pic_flag, <variable>.CurrSlice.field_pic_flag
	cmp	r3, #0	@ <variable>.CurrSlice.field_pic_flag,
	beq	.L180	@,
	movw	r2, #20682	@ tmp146,
	ldrb	r3, [r0, r2]	@ zero_extendqisi2	@ <variable>.CurrSlice.bottom_field_flag, <variable>.CurrSlice.bottom_field_flag
	cmp	r3, #0	@ <variable>.CurrSlice.bottom_field_flag,
	movne	r3, #2	@ structure,
	moveq	r3, #1	@ structure,
.L180:
	movw	ip, #26636	@ tmp148,
	ldr	r5, [r0, ip]	@ D.40077, <variable>.DPB.ltref_frames_in_buffer
	cmp	r5, #0	@ D.40077,
	beq	.L182	@,
	cmp	r3, #0	@ structure,
	add	r0, r0, #26368	@ ivtmp.1354, pH264Ctx,
	sub	r2, r5, #1	@ tmp166, D.40077,
	add	r0, r0, #192	@ ivtmp.1354, ivtmp.1354,
	and	r4, r2, #1	@ tmp168, tmp166,
	bne	.L190	@,
	ldr	r2, [r0, #0]	@ D.40042, <variable>.DPB.fs_ltref
	ldrb	ip, [r2, #2]	@ zero_extendqisi2	@ <variable>.is_reference, <variable>.is_reference
	cmp	ip, #3	@ <variable>.is_reference,
	bne	.L192	@,
	ldr	ip, [r2, #400]	@ tmp185,
	bic	ip, ip, #-16777216	@ tmp186, tmp185,
	bic	ip, ip, #255	@ tmp186, tmp186,
	cmp	ip, #256	@ tmp186,
	bne	.L192	@,
	ldr	ip, [r2, #408]	@ <variable>.frame.long_term_pic_num, <variable>.frame.long_term_pic_num
	cmp	ip, r1	@ <variable>.frame.long_term_pic_num, LongtermPicNum
	beq	.L209	@,
.L192:
	mov	ip, #1	@ i,
	cmp	r5, ip	@ D.40077, i
	add	r0, r0, #4	@ ivtmp.1354, ivtmp.1354,
	bls	.L182	@,
	cmp	r4, #0	@ tmp168,
	beq	.L187	@,
	cmp	r3, #0	@ structure,
	beq	.L210	@,
	ldr	r2, [r0, #0]	@ temp.1357, <variable>.DPB.fs_ltref
	ldrb	r4, [r2, #2]	@ zero_extendqisi2	@ D.40055, <variable>.is_reference
	tst	r4, #1	@ D.40055,
	beq	.L195	@,
	ldr	r6, [r2, #436]	@ tmp194,
	bic	r6, r6, #-16777216	@ tmp195, tmp194,
	bic	r6, r6, #255	@ tmp195, tmp195,
	cmp	r6, #256	@ tmp195,
	beq	.L214	@,
.L195:
	tst	r4, #2	@ D.40055,
	beq	.L196	@,
	ldr	r4, [r2, #472]	@ tmp191,
	bic	r4, r4, #-16777216	@ tmp192, tmp191,
	bic	r4, r4, #255	@ tmp192, tmp192,
	cmp	r4, #256	@ tmp192,
	bne	.L196	@,
	ldr	r4, [r2, #480]	@ <variable>.bottom_field.long_term_pic_num, <variable>.bottom_field.long_term_pic_num
	cmp	r4, r1	@ <variable>.bottom_field.long_term_pic_num, LongtermPicNum
	beq	.L207	@,
.L196:
	add	ip, ip, #1	@ i, i,
	add	r0, r0, #4	@ ivtmp.1354, ivtmp.1354,
	cmp	r5, ip	@ D.40077, i
	bhi	.L187	@,
.L182:
	mov	r0, #0	@ D.40053,
.L185:
	ldmfd	sp!, {r4, r5, r6}
	bx	lr
.L190:
	ldr	r2, [r0, #0]	@ temp.1357, <variable>.DPB.fs_ltref
	ldrb	ip, [r2, #2]	@ zero_extendqisi2	@ D.40055, <variable>.is_reference
	tst	ip, #1	@ D.40055,
	beq	.L191	@,
	ldr	r6, [r2, #436]	@ tmp181,
	bic	r6, r6, #-16777216	@ tmp182, tmp181,
	bic	r6, r6, #255	@ tmp182, tmp182,
	cmp	r6, #256	@ tmp182,
	beq	.L215	@,
.L191:
	tst	ip, #2	@ D.40055,
	beq	.L192	@,
	ldr	ip, [r2, #472]	@ tmp178,
	bic	ip, ip, #-16777216	@ tmp179, tmp178,
	bic	ip, ip, #255	@ tmp179, tmp179,
	cmp	ip, #256	@ tmp179,
	bne	.L192	@,
	ldr	ip, [r2, #480]	@ <variable>.bottom_field.long_term_pic_num, <variable>.bottom_field.long_term_pic_num
	cmp	ip, r1	@ <variable>.bottom_field.long_term_pic_num, LongtermPicNum
	bne	.L192	@,
.L207:
	add	r0, r2, #472	@ D.40053, temp.1357,
	b	.L185	@
.L216:
	ldr	r2, [r0, #0]	@ D.40042, <variable>.DPB.fs_ltref
	ldrb	r4, [r2, #2]	@ zero_extendqisi2	@ <variable>.is_reference, <variable>.is_reference
	cmp	r4, #3	@ <variable>.is_reference,
	bne	.L184	@,
	ldr	r4, [r2, #400]	@ tmp153,
	bic	r4, r4, #-16777216	@ tmp151, tmp153,
	bic	r4, r4, #255	@ tmp151, tmp151,
	cmp	r4, #256	@ tmp151,
	bne	.L184	@,
	ldr	r4, [r2, #408]	@ <variable>.frame.long_term_pic_num, <variable>.frame.long_term_pic_num
	cmp	r4, r1	@ <variable>.frame.long_term_pic_num, LongtermPicNum
	beq	.L209	@,
.L184:
	cmp	r3, #0	@ structure,
	add	ip, ip, #1	@ tmp169, i,
	add	r4, r0, #4	@ tmp170, ivtmp.1354,
	bne	.L199	@,
.L218:
	ldr	r2, [r0, #4]	@ D.40042, <variable>.DPB.fs_ltref
	ldrb	r0, [r2, #2]	@ zero_extendqisi2	@ <variable>.is_reference, <variable>.is_reference
	cmp	r0, #3	@ <variable>.is_reference,
	bne	.L201	@,
	ldr	r0, [r2, #400]	@ tmp211,
	bic	r0, r0, #-16777216	@ tmp212, tmp211,
	bic	r0, r0, #255	@ tmp212, tmp212,
	cmp	r0, #256	@ tmp212,
	bne	.L201	@,
	ldr	r0, [r2, #408]	@ <variable>.frame.long_term_pic_num, <variable>.frame.long_term_pic_num
	cmp	r0, r1	@ <variable>.frame.long_term_pic_num, LongtermPicNum
	beq	.L209	@,
.L201:
	add	ip, ip, #1	@ i, tmp169,
	add	r0, r4, #4	@ ivtmp.1354, tmp170,
	cmp	r5, ip	@ D.40077, i
	bls	.L182	@,
.L187:
	cmp	r3, #0	@ structure,
	beq	.L216	@,
	ldr	r2, [r0, #0]	@ temp.1357, <variable>.DPB.fs_ltref
	ldrb	r4, [r2, #2]	@ zero_extendqisi2	@ D.40055, <variable>.is_reference
	tst	r4, #1	@ D.40055,
	beq	.L186	@,
	ldr	r6, [r2, #436]	@ tmp158,
	bic	r6, r6, #-16777216	@ tmp156, tmp158,
	bic	r6, r6, #255	@ tmp156, tmp156,
	cmp	r6, #256	@ tmp156,
	beq	.L217	@,
.L186:
	tst	r4, #2	@ D.40055,
	beq	.L184	@,
	ldr	r4, [r2, #472]	@ tmp163,
	bic	r4, r4, #-16777216	@ tmp161, tmp163,
	bic	r4, r4, #255	@ tmp161, tmp161,
	cmp	r4, #256	@ tmp161,
	bne	.L184	@,
	ldr	r4, [r2, #480]	@ <variable>.bottom_field.long_term_pic_num, <variable>.bottom_field.long_term_pic_num
	cmp	r4, r1	@ <variable>.bottom_field.long_term_pic_num, LongtermPicNum
	beq	.L207	@,
	cmp	r3, #0	@ structure,
	add	ip, ip, #1	@ tmp169, i,
	add	r4, r0, #4	@ tmp170, ivtmp.1354,
	beq	.L218	@,
.L199:
	ldr	r2, [r0, #4]	@ temp.1357, <variable>.DPB.fs_ltref
	ldrb	r0, [r2, #2]	@ zero_extendqisi2	@ D.40055, <variable>.is_reference
	tst	r0, #1	@ D.40055,
	beq	.L200	@,
	ldr	r6, [r2, #436]	@ tmp207,
	bic	r6, r6, #-16777216	@ tmp208, tmp207,
	bic	r6, r6, #255	@ tmp208, tmp208,
	cmp	r6, #256	@ tmp208,
	beq	.L219	@,
.L200:
	tst	r0, #2	@ D.40055,
	beq	.L201	@,
	ldr	r0, [r2, #472]	@ tmp204,
	bic	r0, r0, #-16777216	@ tmp205, tmp204,
	bic	r0, r0, #255	@ tmp205, tmp205,
	cmp	r0, #256	@ tmp205,
	bne	.L201	@,
	ldr	r0, [r2, #480]	@ <variable>.bottom_field.long_term_pic_num, <variable>.bottom_field.long_term_pic_num
	cmp	r0, r1	@ <variable>.bottom_field.long_term_pic_num, LongtermPicNum
	bne	.L201	@,
	add	r0, r2, #472	@ D.40053, temp.1357,
	b	.L185	@
.L217:
	ldr	r6, [r2, #444]	@ <variable>.top_field.long_term_pic_num, <variable>.top_field.long_term_pic_num
	cmp	r6, r1	@ <variable>.top_field.long_term_pic_num, LongtermPicNum
	bne	.L186	@,
	add	r0, r2, #436	@ D.40053, temp.1357,
	b	.L185	@
.L219:
	ldr	r6, [r2, #444]	@ <variable>.top_field.long_term_pic_num, <variable>.top_field.long_term_pic_num
	cmp	r6, r1	@ <variable>.top_field.long_term_pic_num, LongtermPicNum
	bne	.L200	@,
	add	r0, r2, #436	@ D.40053, temp.1357,
	b	.L185	@
.L210:
	ldr	r2, [r0, #0]	@ D.40042, <variable>.DPB.fs_ltref
	ldrb	r4, [r2, #2]	@ zero_extendqisi2	@ <variable>.is_reference, <variable>.is_reference
	cmp	r4, #3	@ <variable>.is_reference,
	bne	.L196	@,
	ldr	r4, [r2, #400]	@ tmp198,
	bic	r4, r4, #-16777216	@ tmp199, tmp198,
	bic	r4, r4, #255	@ tmp199, tmp199,
	cmp	r4, #256	@ tmp199,
	bne	.L196	@,
	ldr	r4, [r2, #408]	@ <variable>.frame.long_term_pic_num, <variable>.frame.long_term_pic_num
	cmp	r4, r1	@ <variable>.frame.long_term_pic_num, LongtermPicNum
	bne	.L196	@,
.L209:
	add	r0, r2, #400	@ D.40053, D.40042,
	b	.L185	@
.L215:
	ldr	r6, [r2, #444]	@ <variable>.top_field.long_term_pic_num, <variable>.top_field.long_term_pic_num
	cmp	r6, r1	@ <variable>.top_field.long_term_pic_num, LongtermPicNum
	bne	.L191	@,
	add	r0, r2, #436	@ D.40053, temp.1357,
	b	.L185	@
.L214:
	ldr	r6, [r2, #444]	@ <variable>.top_field.long_term_pic_num, <variable>.top_field.long_term_pic_num
	cmp	r6, r1	@ <variable>.top_field.long_term_pic_num, LongtermPicNum
	bne	.L195	@,
	add	r0, r2, #436	@ D.40053, temp.1357,
	b	.L185	@
	.fnend
	.size	GetLongTermPicPoint, .-GetLongTermPicPoint
	.align	2
	.global	ReorderSTList
	.type	ReorderSTList, %function
ReorderSTList:
	.fnstart
.LFB1972:
	@ args = 4, pretend = 0, frame = 0
	@ frame_needed = 0, uses_anonymous_args = 0
	stmfd	sp!, {r4, r5, r6, r7, r8, lr}	@,
	.save {r4, r5, r6, r7, r8, lr}
	ldr	r4, [sp, #24]	@ refIdxLX, refIdxLX
	mov	r5, r1	@ RefPicListX, RefPicListX
	mov	r1, r3	@, picNumLX
	mov	r6, r3	@ picNumLX, picNumLX
	mov	r7, r2	@ num_ref_idx_lX_active_minus1, num_ref_idx_lX_active_minus1
	bl	GetShortTermPicPoint	@
	ldr	r3, [r4, #0]	@ D.40103,* refIdxLX
	add	r8, r7, #1	@ cIdx, num_ref_idx_lX_active_minus1,
	cmp	r8, r3	@ cIdx, D.40103
	ble	.L221	@,
	add	r1, r5, r8, asl #2	@, ivtmp.1404, RefPicListX, cIdx,
	add	r2, r5, r7, asl #2	@, ivtmp.1402, RefPicListX, ivtmp.1399,
.L222:
	ldr	r3, [r2], #-4	@ tmp155,
	mov	ip, r7	@ cIdx.1406, ivtmp.1399
	sub	r7, r7, #1	@ ivtmp.1399, ivtmp.1399,
	str	r3, [r1], #-4	@ tmp155,
	ldr	r3, [r4, #0]	@ D.40103,* refIdxLX
	cmp	r3, ip	@ D.40103, cIdx.1406
	blt	.L222	@,
.L221:
	add	r1, r3, #1	@ cIdx.1405, D.40103,
	str	r0, [r5, r3, asl #2]	@ picLX,* RefPicListX
	cmp	r8, r1	@ cIdx, cIdx.1405
	str	r1, [r4, #0]	@ cIdx.1405,* refIdxLX
	ldmltfd	sp!, {r4, r5, r6, r7, r8, pc}	@
	add	r2, r5, r1, asl #2	@, ivtmp.1395, RefPicListX, cIdx.1405,
	rsb	r0, r1, r8	@ tmp159, cIdx.1405, cIdx
	and	ip, r0, #1	@ tmp160, tmp159,
	mov	r3, r1	@ nIdx, cIdx.1405
	ldr	r0, [r2, #0]	@ D.40108,* ivtmp.1395
	cmp	r0, #0	@ D.40108,
	beq	.L230	@,
	ldrb	r4, [r0, #1]	@ zero_extendqisi2	@ <variable>.is_long_term, <variable>.is_long_term
	cmp	r4, #0	@ <variable>.is_long_term,
	beq	.L243	@,
.L231:
	add	r3, r1, #1	@ nIdx, cIdx.1405,
	str	r0, [r5, r1, asl #2]	@ D.40108,* RefPicListX
.L230:
	add	r1, r1, #1	@ cIdx.1405, cIdx.1405,
	add	r2, r2, #4	@ ivtmp.1395, ivtmp.1395,
	cmp	r8, r1	@ cIdx, cIdx.1405
	ldmltfd	sp!, {r4, r5, r6, r7, r8, pc}	@
.L246:
	cmp	ip, #0	@ tmp160,
	beq	.L226	@,
	ldr	r0, [r2, #0]	@ D.40108,* ivtmp.1395
	cmp	r0, #0	@ D.40108,
	beq	.L233	@,
	ldrb	lr, [r0, #1]	@ zero_extendqisi2	@ <variable>.is_long_term, <variable>.is_long_term
	cmp	lr, #0	@ <variable>.is_long_term,
	beq	.L244	@,
.L234:
	str	r0, [r5, r3, asl #2]	@ D.40108,* RefPicListX
	add	r3, r3, #1	@ nIdx, nIdx,
.L233:
	add	r1, r1, #1	@ cIdx.1405, cIdx.1405,
	add	r2, r2, #4	@ ivtmp.1395, ivtmp.1395,
	cmp	r8, r1	@ cIdx, cIdx.1405
	ldmltfd	sp!, {r4, r5, r6, r7, r8, pc}	@
.L226:
	ldr	r0, [r2, #0]	@ D.40108,* ivtmp.1395
	add	r1, r1, #1	@ tmp161, cIdx.1405,
	add	ip, r2, #4	@ tmp162, ivtmp.1395,
	cmp	r0, #0	@ D.40108,
	beq	.L224	@,
	ldrb	r4, [r0, #1]	@ zero_extendqisi2	@ <variable>.is_long_term, <variable>.is_long_term
	cmp	r4, #0	@ <variable>.is_long_term,
	bne	.L225	@,
	ldr	r4, [r0, #12]	@ <variable>.pic_num, <variable>.pic_num
	cmp	r4, r6	@ <variable>.pic_num, picNumLX
	beq	.L224	@,
.L225:
	str	r0, [r5, r3, asl #2]	@ D.40108,* RefPicListX
	add	r3, r3, #1	@ nIdx, nIdx,
.L224:
	ldr	r2, [r2, #4]	@ D.40108,
	cmp	r2, #0	@ D.40108,
	beq	.L237	@,
	ldrb	r0, [r2, #1]	@ zero_extendqisi2	@ <variable>.is_long_term, <variable>.is_long_term
	cmp	r0, #0	@ <variable>.is_long_term,
	bne	.L238	@,
	ldr	lr, [r2, #12]	@ <variable>.pic_num, <variable>.pic_num
	cmp	lr, r6	@ <variable>.pic_num, picNumLX
	beq	.L237	@,
.L238:
	str	r2, [r5, r3, asl #2]	@ D.40108,* RefPicListX
	add	r3, r3, #1	@ nIdx, nIdx,
.L237:
	add	r1, r1, #1	@ cIdx.1405, tmp161,
	add	r2, ip, #4	@ ivtmp.1395, tmp162,
	cmp	r8, r1	@ cIdx, cIdx.1405
	bge	.L226	@,
	ldmfd	sp!, {r4, r5, r6, r7, r8, pc}	@
.L243:
	ldr	r4, [r0, #12]	@ <variable>.pic_num, <variable>.pic_num
	cmp	r4, r6	@ <variable>.pic_num, picNumLX
	bne	.L231	@,
	add	r1, r1, #1	@ cIdx.1405, cIdx.1405,
	add	r2, r2, #4	@ ivtmp.1395, ivtmp.1395,
	cmp	r8, r1	@ cIdx, cIdx.1405
	bge	.L246	@,
	ldmfd	sp!, {r4, r5, r6, r7, r8, pc}	@
.L244:
	ldr	ip, [r0, #12]	@ <variable>.pic_num, <variable>.pic_num
	cmp	ip, r6	@ <variable>.pic_num, picNumLX
	bne	.L234	@,
	b	.L233	@
	.fnend
	.size	ReorderSTList, .-ReorderSTList
	.align	2
	.global	ReorderLTList
	.type	ReorderLTList, %function
ReorderLTList:
	.fnstart
.LFB1973:
	@ args = 4, pretend = 0, frame = 0
	@ frame_needed = 0, uses_anonymous_args = 0
	stmfd	sp!, {r4, r5, r6, r7, r8, lr}	@,
	.save {r4, r5, r6, r7, r8, lr}
	ldr	r4, [sp, #24]	@ refIdxLX, refIdxLX
	mov	r5, r1	@ RefPicListX, RefPicListX
	mov	r1, r3	@, LongTermPicNum
	mov	r6, r3	@ LongTermPicNum, LongTermPicNum
	mov	r7, r2	@ num_ref_idx_lX_active_minus1, num_ref_idx_lX_active_minus1
	bl	GetLongTermPicPoint	@
	ldr	r3, [r4, #0]	@ D.40145,* refIdxLX
	add	r8, r7, #1	@ cIdx, num_ref_idx_lX_active_minus1,
	cmp	r8, r3	@ cIdx, D.40145
	ble	.L248	@,
	add	r1, r5, r8, asl #2	@, ivtmp.1452, RefPicListX, cIdx,
	add	r2, r5, r7, asl #2	@, ivtmp.1450, RefPicListX, ivtmp.1447,
.L249:
	ldr	r3, [r2], #-4	@ tmp151,
	mov	ip, r7	@ cIdx.1454, ivtmp.1447
	sub	r7, r7, #1	@ ivtmp.1447, ivtmp.1447,
	str	r3, [r1], #-4	@ tmp151,
	ldr	r3, [r4, #0]	@ D.40145,* refIdxLX
	cmp	r3, ip	@ D.40145, cIdx.1454
	blt	.L249	@,
.L248:
	add	r1, r3, #1	@ cIdx.1453, D.40145,
	str	r0, [r5, r3, asl #2]	@ picLX,* RefPicListX
	cmp	r8, r1	@ cIdx, cIdx.1453
	str	r1, [r4, #0]	@ cIdx.1453,* refIdxLX
	ldmltfd	sp!, {r4, r5, r6, r7, r8, pc}	@
	add	r2, r5, r1, asl #2	@, ivtmp.1443, RefPicListX, cIdx.1453,
	rsb	r0, r1, r8	@ tmp155, cIdx.1453, cIdx
	and	ip, r0, #1	@ tmp156, tmp155,
	mov	r3, r1	@ nIdx, cIdx.1453
	ldr	r0, [r2, #0]	@ D.40150,* ivtmp.1443
	cmp	r0, #0	@ D.40150,
	beq	.L257	@,
	ldrb	r4, [r0, #1]	@ zero_extendqisi2	@ <variable>.is_long_term, <variable>.is_long_term
	cmp	r4, #0	@ <variable>.is_long_term,
	bne	.L270	@,
.L258:
	add	r3, r1, #1	@ nIdx, cIdx.1453,
	str	r0, [r5, r1, asl #2]	@ D.40150,* RefPicListX
.L257:
	add	r1, r1, #1	@ cIdx.1453, cIdx.1453,
	add	r2, r2, #4	@ ivtmp.1443, ivtmp.1443,
	cmp	r8, r1	@ cIdx, cIdx.1453
	ldmltfd	sp!, {r4, r5, r6, r7, r8, pc}	@
.L273:
	cmp	ip, #0	@ tmp156,
	beq	.L253	@,
	ldr	r0, [r2, #0]	@ D.40150,* ivtmp.1443
	cmp	r0, #0	@ D.40150,
	beq	.L260	@,
	ldrb	lr, [r0, #1]	@ zero_extendqisi2	@ <variable>.is_long_term, <variable>.is_long_term
	cmp	lr, #0	@ <variable>.is_long_term,
	bne	.L271	@,
.L261:
	str	r0, [r5, r3, asl #2]	@ D.40150,* RefPicListX
	add	r3, r3, #1	@ nIdx, nIdx,
.L260:
	add	r1, r1, #1	@ cIdx.1453, cIdx.1453,
	add	r2, r2, #4	@ ivtmp.1443, ivtmp.1443,
	cmp	r8, r1	@ cIdx, cIdx.1453
	ldmltfd	sp!, {r4, r5, r6, r7, r8, pc}	@
.L253:
	ldr	r0, [r2, #0]	@ D.40150,* ivtmp.1443
	add	r1, r1, #1	@ tmp157, cIdx.1453,
	add	ip, r2, #4	@ tmp158, ivtmp.1443,
	cmp	r0, #0	@ D.40150,
	beq	.L251	@,
	ldrb	r4, [r0, #1]	@ zero_extendqisi2	@ <variable>.is_long_term, <variable>.is_long_term
	cmp	r4, #0	@ <variable>.is_long_term,
	beq	.L252	@,
	ldr	r4, [r0, #8]	@ <variable>.long_term_pic_num, <variable>.long_term_pic_num
	cmp	r4, r6	@ <variable>.long_term_pic_num, LongTermPicNum
	beq	.L251	@,
.L252:
	str	r0, [r5, r3, asl #2]	@ D.40150,* RefPicListX
	add	r3, r3, #1	@ nIdx, nIdx,
.L251:
	ldr	r2, [r2, #4]	@ D.40150,
	cmp	r2, #0	@ D.40150,
	beq	.L264	@,
	ldrb	r0, [r2, #1]	@ zero_extendqisi2	@ <variable>.is_long_term, <variable>.is_long_term
	cmp	r0, #0	@ <variable>.is_long_term,
	beq	.L265	@,
	ldr	lr, [r2, #8]	@ <variable>.long_term_pic_num, <variable>.long_term_pic_num
	cmp	lr, r6	@ <variable>.long_term_pic_num, LongTermPicNum
	beq	.L264	@,
.L265:
	str	r2, [r5, r3, asl #2]	@ D.40150,* RefPicListX
	add	r3, r3, #1	@ nIdx, nIdx,
.L264:
	add	r1, r1, #1	@ cIdx.1453, tmp157,
	add	r2, ip, #4	@ ivtmp.1443, tmp158,
	cmp	r8, r1	@ cIdx, cIdx.1453
	bge	.L253	@,
	ldmfd	sp!, {r4, r5, r6, r7, r8, pc}	@
.L270:
	ldr	r4, [r0, #8]	@ <variable>.long_term_pic_num, <variable>.long_term_pic_num
	cmp	r4, r6	@ <variable>.long_term_pic_num, LongTermPicNum
	bne	.L258	@,
	add	r1, r1, #1	@ cIdx.1453, cIdx.1453,
	add	r2, r2, #4	@ ivtmp.1443, ivtmp.1443,
	cmp	r8, r1	@ cIdx, cIdx.1453
	bge	.L273	@,
	ldmfd	sp!, {r4, r5, r6, r7, r8, pc}	@
.L271:
	ldr	ip, [r0, #8]	@ <variable>.long_term_pic_num, <variable>.long_term_pic_num
	cmp	ip, r6	@ <variable>.long_term_pic_num, LongTermPicNum
	bne	.L261	@,
	b	.L260	@
	.fnend
	.size	ReorderLTList, .-ReorderLTList
	.align	2
	.global	ReorderRefPiclist
	.type	ReorderRefPiclist, %function
ReorderRefPiclist:
	.fnstart
.LFB1974:
	@ args = 12, pretend = 0, frame = 16
	@ frame_needed = 0, uses_anonymous_args = 0
	stmfd	sp!, {r4, r5, r6, r7, r8, r9, sl, fp, lr}	@,
	.save {r4, r5, r6, r7, r8, r9, sl, fp, lr}
	mov	r5, r0	@ pH264Ctx, pH264Ctx
	movw	r0, #20681	@ tmp152,
	.pad #28
	sub	sp, sp, #28	@,,
	ldrb	r2, [r5, r0]	@ zero_extendqisi2	@ <variable>.CurrSlice.field_pic_flag, <variable>.CurrSlice.field_pic_flag
	mov	r6, r3	@ num_ref_idx_lX_active_minus1, num_ref_idx_lX_active_minus1
	mov	r8, r1	@ list, list
	mov	r3, #0	@ tmp151,
	cmp	r2, #0	@ <variable>.CurrSlice.field_pic_flag,
	str	r3, [sp, #20]	@ tmp151, refIdxLX
	ldr	r9, [sp, #64]	@ reordering_of_pic_nums_idc, reordering_of_pic_nums_idc
	beq	.L275	@,
	movw	r1, #20692	@ tmp155,
	movw	ip, #13584	@ tmp157,
	ldr	r3, [r5, r1]	@ <variable>.CurrSlice.pic_parameter_set_id, <variable>.CurrSlice.pic_parameter_set_id
	mov	r0, #2208	@ tmp159,
	ldr	fp, [r5, ip]	@ <variable>.PPS, <variable>.PPS
	movw	r1, #20700	@ tmp171,
	movw	r2, #13580	@ tmp163,
	ldr	r2, [r5, r2]	@ <variable>.SPS, <variable>.SPS
	mla	ip, r0, r3, fp	@ tmp160, tmp159, <variable>.CurrSlice.pic_parameter_set_id, <variable>.PPS
	ldr	fp, [r5, r1]	@ <variable>.CurrSlice.frame_num, <variable>.CurrSlice.frame_num
	mov	r0, fp, asl #1	@ tmp172, <variable>.CurrSlice.frame_num,
	mov	fp, #4000	@ tmp165,
	add	r1, r0, #1	@, tmp172,
	str	r1, [sp, #8]	@, %sfp
	ldr	r0, [ip, #28]	@ <variable>.seq_parameter_set_id, <variable>.seq_parameter_set_id
	mla	r3, fp, r0, r2	@ tmp166, tmp165, <variable>.seq_parameter_set_id, <variable>.SPS
	mov	fp, #2	@ tmp169,
	ldr	ip, [r3, #2904]	@ <variable>.log2_max_frame_num_minus4, <variable>.log2_max_frame_num_minus4
	add	r1, ip, #4	@ tmp167, <variable>.log2_max_frame_num_minus4,
	mov	fp, fp, asl r1	@ maxPicNum, tmp169,
.L285:
	adds	r3, r6, #2	@, num_ref_idx_lX_active_minus1,
	str	r3, [sp, #12]	@, %sfp
	beq	.L286	@,
	ldr	r3, [r9, #0]	@ D.40212,* reordering_of_pic_nums_idc
	cmp	r3, #3	@ D.40212,
	beq	.L286	@,
	tst	r6, #1	@ num_ref_idx_lX_active_minus1,
	mov	r2, #0	@ D.40210,
	ldr	r7, [sp, #8]	@ picNumLXPred, %sfp
	mov	r4, r2	@ i, D.40210
	add	sl, sp, #20	@ tmp198,,
	bne	.L277	@,
	cmp	r3, #1	@ D.40212,
	bls	.L300	@,
	ldr	r4, [sp, #72]	@, long_term_pic_idx
	mov	r0, r5	@, pH264Ctx
	mov	r1, r8	@, list
	mov	r2, r6	@, num_ref_idx_lX_active_minus1
	ldr	r3, [r4, #0]	@ tmp206,
	str	sl, [sp, #0]	@ tmp198,
	bl	ReorderLTList	@
.L301:
	mov	r2, #4	@ D.40210,
	mov	r4, #1	@ i,
	ldr	r3, [r9, r2]	@ D.40212,* D.40210
	cmp	r3, #3	@ D.40212,
	bne	.L277	@,
.L286:
	add	sp, sp, #28	@,,
	ldmfd	sp!, {r4, r5, r6, r7, r8, r9, sl, fp, pc}
.L278:
	ldr	r1, [sp, #72]	@, long_term_pic_idx
	mov	r0, r5	@, pH264Ctx
	ldr	r3, [r1, r2]	@ tmp179,* D.40210
	mov	r1, r8	@, list
	mov	r2, r6	@, num_ref_idx_lX_active_minus1
	str	sl, [sp, #0]	@ tmp198,
	bl	ReorderLTList	@
.L283:
	ldr	r3, [sp, #12]	@, %sfp
	add	r4, r4, #1	@ tmp202, i,
	cmp	r3, r4	@, tmp202
	bls	.L286	@,
	ldr	r3, [r9, r4, asl #2]	@ D.40212,* reordering_of_pic_nums_idc
	cmp	r3, #3	@ D.40212,
	beq	.L286	@,
	cmp	r3, #1	@ D.40212,
	bls	.L305	@,
	ldr	lr, [sp, #72]	@, long_term_pic_idx
	mov	r0, r5	@, pH264Ctx
	mov	r1, r8	@, list
	mov	r2, r6	@, num_ref_idx_lX_active_minus1
	ldr	r3, [lr, r4, asl #2]	@ tmp213,
	str	sl, [sp, #0]	@ tmp198,
	bl	ReorderLTList	@
.L306:
	add	r4, r4, #1	@ i, tmp202,
	ldr	r3, [r9, r4, asl #2]	@ D.40212,* reordering_of_pic_nums_idc
	mov	r2, r4, asl #2	@ D.40210, i,
	cmp	r3, #3	@ D.40212,
	beq	.L286	@,
.L277:
	cmp	r3, #1	@ D.40212,
	bhi	.L278	@,
	cmp	r3, #0	@ D.40212,
	bne	.L279	@,
	ldr	r0, [sp, #68]	@, abs_diff_pic_num_minus1
	ldr	lr, [r0, r2]	@ tmp175,* D.40210
	mvn	r3, lr	@ tmp174, tmp175
	adds	r7, r3, r7	@ picNumLXNoWrap, tmp174, picNumLXPred
	addmi	r7, r7, fp	@ picNumLXNoWrap, picNumLXNoWrap, maxPicNum
.L280:
	ldr	r2, [sp, #8]	@, %sfp
	mov	r0, r5	@, pH264Ctx
	mov	r1, r8	@, list
	str	sl, [sp, #0]	@ tmp198,
	cmp	r2, r7	@, picNumLXNoWrap
	mov	r2, r6	@, num_ref_idx_lX_active_minus1
	rsblt	r3, fp, r7	@ picNumLX, maxPicNum, picNumLXNoWrap
	movge	r3, r7	@ picNumLX, picNumLXNoWrap
	bl	ReorderSTList	@
	b	.L283	@
.L305:
	cmp	r3, #0	@ D.40212,
	bne	.L294	@,
	ldr	r2, [sp, #68]	@, abs_diff_pic_num_minus1
	ldr	ip, [r2, r4, asl #2]	@ tmp218,
	mvn	r1, ip	@ tmp219, tmp218
	adds	r7, r1, r7	@ picNumLXNoWrap, tmp219, picNumLXPred
	addmi	r7, r7, fp	@ picNumLXNoWrap, picNumLXNoWrap, maxPicNum
.L296:
	ldr	r3, [sp, #8]	@, %sfp
	cmp	r3, r7	@, picNumLXNoWrap
	rsblt	r3, fp, r7	@ picNumLX, maxPicNum, picNumLXNoWrap
	movge	r3, r7	@ picNumLX, picNumLXNoWrap
.L309:
	mov	r0, r5	@, pH264Ctx
	mov	r1, r8	@, list
	mov	r2, r6	@, num_ref_idx_lX_active_minus1
	str	sl, [sp, #0]	@ tmp198,
	bl	ReorderSTList	@
	b	.L306	@
.L279:
	ldr	ip, [sp, #68]	@, abs_diff_pic_num_minus1
	add	r7, r7, #1	@ tmp176, picNumLXPred,
	ldr	r3, [ip, r2]	@ tmp177,* D.40210
	add	r7, r7, r3	@ picNumLXNoWrap, tmp176, tmp177
	cmp	fp, r7	@ maxPicNum, picNumLXNoWrap
	rsble	r7, fp, r7	@ picNumLXNoWrap, maxPicNum, picNumLXNoWrap
	b	.L280	@
.L294:
	ldr	r0, [sp, #68]	@, abs_diff_pic_num_minus1
	add	r7, r7, #1	@ tmp216, picNumLXPred,
	ldr	r3, [r0, r4, asl #2]	@ tmp217,
	add	r7, r7, r3	@ picNumLXNoWrap, tmp216, tmp217
	cmp	fp, r7	@ maxPicNum, picNumLXNoWrap
	rsble	r7, fp, r7	@ picNumLXNoWrap, maxPicNum, picNumLXNoWrap
	b	.L296	@
.L275:
	movw	fp, #20692	@ tmp182,
	movw	ip, #13584	@ tmp184,
	ldr	r3, [r5, fp]	@ <variable>.CurrSlice.pic_parameter_set_id, <variable>.CurrSlice.pic_parameter_set_id
	mov	r0, #2208	@ tmp186,
	ldr	r1, [r5, ip]	@ <variable>.PPS, <variable>.PPS
	movw	fp, #20700	@ tmp197,
	movw	r2, #13580	@ tmp190,
	ldr	r2, [r5, r2]	@ <variable>.SPS, <variable>.SPS
	mla	ip, r0, r3, r1	@ tmp187, tmp186, <variable>.CurrSlice.pic_parameter_set_id, <variable>.PPS
	ldr	r0, [r5, fp]	@, <variable>.CurrSlice.frame_num
	mov	r1, #4000	@ tmp192,
	str	r0, [sp, #8]	@, %sfp
	ldr	fp, [ip, #28]	@ <variable>.seq_parameter_set_id, <variable>.seq_parameter_set_id
	mla	r3, r1, fp, r2	@ tmp193, tmp192, <variable>.seq_parameter_set_id, <variable>.SPS
	mov	fp, #1	@ tmp196,
	ldr	ip, [r3, #2904]	@ <variable>.log2_max_frame_num_minus4, <variable>.log2_max_frame_num_minus4
	add	r0, ip, #4	@ tmp194, <variable>.log2_max_frame_num_minus4,
	mov	fp, fp, asl r0	@ maxPicNum, tmp196,
	b	.L285	@
.L300:
	cmp	r3, #0	@ D.40212,
	bne	.L288	@,
	ldr	r3, [sp, #68]	@, abs_diff_pic_num_minus1
	ldr	ip, [sp, #8]	@, %sfp
	ldr	r4, [r3, #0]	@ tmp211,
	mvn	r2, r4	@ tmp212, tmp211
	adds	r7, r2, ip	@ picNumLXNoWrap, tmp212,
	addmi	r7, r7, fp	@ picNumLXNoWrap, picNumLXNoWrap, maxPicNum
.L290:
	ldr	lr, [sp, #8]	@, %sfp
	cmp	lr, r7	@, picNumLXNoWrap
	rsblt	r3, fp, r7	@ picNumLX, maxPicNum, picNumLXNoWrap
	movge	r3, r7	@ picNumLX, picNumLXNoWrap
.L304:
	mov	r0, r5	@, pH264Ctx
	mov	r1, r8	@, list
	mov	r2, r6	@, num_ref_idx_lX_active_minus1
	str	sl, [sp, #0]	@ tmp198,
	bl	ReorderSTList	@
	b	.L301	@
.L288:
	ldr	r1, [sp, #68]	@, abs_diff_pic_num_minus1
	ldr	r0, [sp, #8]	@, %sfp
	ldr	r3, [r1, #0]	@ tmp210,
	add	r7, r0, #1	@ tmp209,,
	add	r7, r7, r3	@ picNumLXNoWrap, tmp209, tmp210
	cmp	fp, r7	@ maxPicNum, picNumLXNoWrap
	rsble	r7, fp, r7	@ picNumLXNoWrap, maxPicNum, picNumLXNoWrap
	b	.L290	@
	.fnend
	.size	ReorderRefPiclist, .-ReorderRefPiclist
	.align	2
	.global	ReorderListX
	.type	ReorderListX, %function
ReorderListX:
	.fnstart
.LFB1975:
	@ args = 0, pretend = 0, frame = 0
	@ frame_needed = 0, uses_anonymous_args = 0
	movw	r1, #20680	@ tmp134,
	stmfd	sp!, {r4, r5, lr}	@,
	.save {r4, r5, lr}
	ldrb	r3, [r0, r1]	@ zero_extendqisi2	@ <variable>.CurrSlice.slice_type, <variable>.CurrSlice.slice_type
	.pad #20
	sub	sp, sp, #20	@,,
	mov	r4, r0	@ pH264Ctx, pH264Ctx
	cmp	r3, #2	@ <variable>.CurrSlice.slice_type,
	beq	.L316	@,
	movw	ip, #19888	@ tmp136,
	ldrb	r2, [r0, ip]	@ zero_extendqisi2	@ <variable>.CurrReorder.ref_pic_list_reordering_flag_l0, <variable>.CurrReorder.ref_pic_list_reordering_flag_l0
	cmp	r2, #0	@ <variable>.CurrReorder.ref_pic_list_reordering_flag_l0,
	bne	.L317	@,
.L314:
	movw	r3, #20680	@ tmp154,
	mov	r0, #20736	@ tmp151,
	ldrb	r1, [r4, r3]	@ zero_extendqisi2	@ <variable>.CurrSlice.slice_type, <variable>.CurrSlice.slice_type
	movw	ip, #20724	@ tmp150,
	ldr	r2, [r4, r0]	@ <variable>.CurrSlice.num_ref_idx_l0_active_minus1, <variable>.CurrSlice.num_ref_idx_l0_active_minus1
	cmp	r1, #1	@ <variable>.CurrSlice.slice_type,
	add	r0, r2, #1	@ tmp153, <variable>.CurrSlice.num_ref_idx_l0_active_minus1,
	str	r0, [r4, ip]	@ tmp153, <variable>.CurrSlice.listXsize
	bne	.L316	@,
	movw	r2, #19889	@ tmp156,
	ldrb	ip, [r4, r2]	@ zero_extendqisi2	@ <variable>.CurrReorder.ref_pic_list_reordering_flag_l1, <variable>.CurrReorder.ref_pic_list_reordering_flag_l1
	cmp	ip, #0	@ <variable>.CurrReorder.ref_pic_list_reordering_flag_l1,
	bne	.L318	@,
.L315:
	movw	r1, #20740	@ tmp172,
	movw	r3, #20728	@ tmp171,
	ldr	ip, [r4, r1]	@ <variable>.CurrSlice.num_ref_idx_l1_active_minus1, <variable>.CurrSlice.num_ref_idx_l1_active_minus1
	add	r2, ip, #1	@ tmp174, <variable>.CurrSlice.num_ref_idx_l1_active_minus1,
	str	r2, [r4, r3]	@ tmp174, <variable>.CurrSlice.listXsize
.L316:
	add	sp, sp, #20	@,,
	ldmfd	sp!, {r4, r5, pc}
.L317:
	add	r1, r0, #26880	@, pH264Ctx,
	add	r2, r0, #20480	@, pH264Ctx,
	mov	r3, #20736	@ tmp142,
	add	r5, r0, #19712	@ tmp144, pH264Ctx,
	ldr	r3, [r0, r3]	@ <variable>.CurrSlice.num_ref_idx_l0_active_minus1, <variable>.CurrSlice.num_ref_idx_l0_active_minus1
	add	lr, r0, #19968	@ tmp146, pH264Ctx,
	add	ip, r0, #20224	@ tmp148, pH264Ctx,
	add	r1, r1, #156	@,,
	add	r2, r2, #244	@,,
	add	r5, r5, #180	@ tmp144, tmp144,
	add	lr, lr, #188	@ tmp146, tmp146,
	stmia	sp, {r5, lr}	@ phole stm
	add	lr, ip, #196	@ tmp148, tmp148,
	str	lr, [sp, #8]	@ tmp148,
	bl	ReorderRefPiclist	@
	b	.L314	@
.L318:
	add	r5, r4, #20480	@ tmp162, pH264Ctx,
	movw	r0, #20740	@ tmp163,
	add	r1, r4, #27136	@, pH264Ctx,
	ldr	r3, [r4, r0]	@ <variable>.CurrSlice.num_ref_idx_l1_active_minus1, <variable>.CurrSlice.num_ref_idx_l1_active_minus1
	add	r2, r5, #248	@, tmp162,
	add	lr, r4, #19968	@ tmp165, pH264Ctx,
	add	ip, r4, #20224	@ tmp167, pH264Ctx,
	add	r1, r1, #32	@,,
	mov	r0, r4	@, pH264Ctx
	add	lr, lr, #56	@ tmp165, tmp165,
	add	r5, r5, #68	@ tmp169, tmp162,
	str	lr, [sp, #0]	@ tmp165,
	str	r5, [sp, #8]	@ tmp169,
	add	lr, ip, #64	@ tmp167, tmp167,
	str	lr, [sp, #4]	@ tmp167,
	bl	ReorderRefPiclist	@
	b	.L315	@
	.fnend
	.size	ReorderListX, .-ReorderListX
	.align	2
	.global	IsSTRefFlg
	.type	IsSTRefFlg, %function
IsSTRefFlg:
	.fnstart
.LFB1976:
	@ args = 0, pretend = 0, frame = 0
	@ frame_needed = 0, uses_anonymous_args = 0
	@ link register save eliminated.
	ldr	r2, [r0, #0]	@ tmp138,* s
	bic	r1, r2, #-16777216	@ tmp136, tmp138,
	bic	r0, r1, #255	@ tmp136, tmp136,
	cmp	r0, #65536	@ tmp136,
	movne	r0, #0	@,
	moveq	r0, #1	@,
	bx	lr	@
	.fnend
	.size	IsSTRefFlg, .-IsSTRefFlg
	.align	2
	.global	IsLTRefFlg
	.type	IsLTRefFlg, %function
IsLTRefFlg:
	.fnstart
.LFB1977:
	@ args = 0, pretend = 0, frame = 0
	@ frame_needed = 0, uses_anonymous_args = 0
	@ link register save eliminated.
	ldr	r2, [r0, #0]	@ tmp138,* s
	bic	r1, r2, #-16777216	@ tmp136, tmp138,
	bic	r0, r1, #255	@ tmp136, tmp136,
	cmp	r0, #256	@ tmp136,
	movne	r0, #0	@,
	moveq	r0, #1	@,
	bx	lr	@
	.fnend
	.size	IsLTRefFlg, .-IsLTRefFlg
	.align	2
	.global	compare_pic_by_pic_num_desc
	.type	compare_pic_by_pic_num_desc, %function
compare_pic_by_pic_num_desc:
	.fnstart
.LFB1978:
	@ args = 0, pretend = 0, frame = 0
	@ frame_needed = 0, uses_anonymous_args = 0
	@ link register save eliminated.
	ldr	ip, [r0, #0]	@ tmp139,* arg1
	ldr	r1, [r1, #0]	@ tmp140,* arg2
	ldr	r2, [ip, #12]	@ D.40288, <variable>.pic_num
	ldr	r3, [r1, #12]	@ D.40291, <variable>.pic_num
	cmp	r2, r3	@ D.40288, D.40291
	movlt	r0, #1	@ D.40294,
	bxlt	lr	@
	movle	r0, #0	@ D.40294,
	mvngt	r0, #0	@ D.40294,
	bx	lr	@
	.fnend
	.size	compare_pic_by_pic_num_desc, .-compare_pic_by_pic_num_desc
	.align	2
	.global	compare_pic_by_lt_pic_num_asc
	.type	compare_pic_by_lt_pic_num_asc, %function
compare_pic_by_lt_pic_num_asc:
	.fnstart
.LFB1979:
	@ args = 0, pretend = 0, frame = 0
	@ frame_needed = 0, uses_anonymous_args = 0
	@ link register save eliminated.
	ldr	ip, [r0, #0]	@ tmp139,* arg1
	ldr	r1, [r1, #0]	@ tmp140,* arg2
	ldr	r2, [ip, #8]	@ D.40303, <variable>.long_term_pic_num
	ldr	r3, [r1, #8]	@ D.40306, <variable>.long_term_pic_num
	cmp	r2, r3	@ D.40303, D.40306
	mvnlt	r0, #0	@ D.40309,
	bxlt	lr	@
	movle	r0, #0	@, D.40309
	movgt	r0, #1	@, D.40309
	bx	lr	@
	.fnend
	.size	compare_pic_by_lt_pic_num_asc, .-compare_pic_by_lt_pic_num_asc
	.align	2
	.global	compare_fs_by_frame_num_desc
	.type	compare_fs_by_frame_num_desc, %function
compare_fs_by_frame_num_desc:
	.fnstart
.LFB1980:
	@ args = 0, pretend = 0, frame = 0
	@ frame_needed = 0, uses_anonymous_args = 0
	@ link register save eliminated.
	ldr	ip, [r0, #0]	@ tmp139,* arg1
	ldr	r1, [r1, #0]	@ tmp140,* arg2
	ldr	r2, [ip, #516]	@ D.40318, <variable>.frame_num_wrap
	ldr	r3, [r1, #516]	@ D.40321, <variable>.frame_num_wrap
	cmp	r2, r3	@ D.40318, D.40321
	movlt	r0, #1	@ D.40324,
	bxlt	lr	@
	movle	r0, #0	@ D.40324,
	mvngt	r0, #0	@ D.40324,
	bx	lr	@
	.fnend
	.size	compare_fs_by_frame_num_desc, .-compare_fs_by_frame_num_desc
	.align	2
	.global	compare_fs_by_lt_pic_idx_asc
	.type	compare_fs_by_lt_pic_idx_asc, %function
compare_fs_by_lt_pic_idx_asc:
	.fnstart
.LFB1981:
	@ args = 0, pretend = 0, frame = 0
	@ frame_needed = 0, uses_anonymous_args = 0
	@ link register save eliminated.
	ldr	ip, [r0, #0]	@ tmp139,* arg1
	ldr	r1, [r1, #0]	@ tmp140,* arg2
	ldr	r2, [ip, #520]	@ D.40333, <variable>.long_term_frame_idx
	ldr	r3, [r1, #520]	@ D.40336, <variable>.long_term_frame_idx
	cmp	r2, r3	@ D.40333, D.40336
	mvncc	r0, #0	@ D.40339,
	bxcc	lr	@
	movls	r0, #0	@, D.40339
	movhi	r0, #1	@, D.40339
	bx	lr	@
	.fnend
	.size	compare_fs_by_lt_pic_idx_asc, .-compare_fs_by_lt_pic_idx_asc
	.align	2
	.global	compare_pic_by_poc_asc
	.type	compare_pic_by_poc_asc, %function
compare_pic_by_poc_asc:
	.fnstart
.LFB1982:
	@ args = 0, pretend = 0, frame = 0
	@ frame_needed = 0, uses_anonymous_args = 0
	@ link register save eliminated.
	ldr	ip, [r0, #0]	@ tmp139,* arg1
	ldr	r1, [r1, #0]	@ tmp140,* arg2
	ldr	r2, [ip, #16]	@ D.40348, <variable>.poc
	ldr	r3, [r1, #16]	@ D.40351, <variable>.poc
	cmp	r2, r3	@ D.40348, D.40351
	mvnlt	r0, #0	@ D.40354,
	bxlt	lr	@
	movle	r0, #0	@, D.40354
	movgt	r0, #1	@, D.40354
	bx	lr	@
	.fnend
	.size	compare_pic_by_poc_asc, .-compare_pic_by_poc_asc
	.align	2
	.global	compare_pic_by_poc_desc
	.type	compare_pic_by_poc_desc, %function
compare_pic_by_poc_desc:
	.fnstart
.LFB1983:
	@ args = 0, pretend = 0, frame = 0
	@ frame_needed = 0, uses_anonymous_args = 0
	@ link register save eliminated.
	ldr	ip, [r0, #0]	@ tmp139,* arg1
	ldr	r1, [r1, #0]	@ tmp140,* arg2
	ldr	r2, [ip, #16]	@ D.40363, <variable>.poc
	ldr	r3, [r1, #16]	@ D.40366, <variable>.poc
	cmp	r2, r3	@ D.40363, D.40366
	movlt	r0, #1	@ D.40369,
	bxlt	lr	@
	movle	r0, #0	@ D.40369,
	mvngt	r0, #0	@ D.40369,
	bx	lr	@
	.fnend
	.size	compare_pic_by_poc_desc, .-compare_pic_by_poc_desc
	.align	2
	.global	compare_fs_by_poc_asc
	.type	compare_fs_by_poc_asc, %function
compare_fs_by_poc_asc:
	.fnstart
.LFB1984:
	@ args = 0, pretend = 0, frame = 0
	@ frame_needed = 0, uses_anonymous_args = 0
	@ link register save eliminated.
	ldr	ip, [r0, #0]	@ tmp139,* arg1
	ldr	r1, [r1, #0]	@ tmp140,* arg2
	ldr	r2, [ip, #524]	@ D.40378, <variable>.poc
	ldr	r3, [r1, #524]	@ D.40381, <variable>.poc
	cmp	r2, r3	@ D.40378, D.40381
	mvnlt	r0, #0	@ D.40384,
	bxlt	lr	@
	movle	r0, #0	@, D.40384
	movgt	r0, #1	@, D.40384
	bx	lr	@
	.fnend
	.size	compare_fs_by_poc_asc, .-compare_fs_by_poc_asc
	.align	2
	.global	compare_fs_by_poc_desc
	.type	compare_fs_by_poc_desc, %function
compare_fs_by_poc_desc:
	.fnstart
.LFB1985:
	@ args = 0, pretend = 0, frame = 0
	@ frame_needed = 0, uses_anonymous_args = 0
	@ link register save eliminated.
	ldr	ip, [r0, #0]	@ tmp139,* arg1
	ldr	r1, [r1, #0]	@ tmp140,* arg2
	ldr	r2, [ip, #524]	@ D.40393, <variable>.poc
	ldr	r3, [r1, #524]	@ D.40396, <variable>.poc
	cmp	r2, r3	@ D.40393, D.40396
	movlt	r0, #1	@ D.40399,
	bxlt	lr	@
	movle	r0, #0	@ D.40399,
	mvngt	r0, #0	@ D.40399,
	bx	lr	@
	.fnend
	.size	compare_fs_by_poc_desc, .-compare_fs_by_poc_desc
	.align	2
	.global	GenPiclistfromFrmlist
	.type	GenPiclistfromFrmlist, %function
GenPiclistfromFrmlist:
	.fnstart
.LFB1986:
	@ args = 8, pretend = 0, frame = 16
	@ frame_needed = 0, uses_anonymous_args = 0
	stmfd	sp!, {r4, r5, r6, r7, r8, r9, sl, fp, lr}	@,
	.save {r4, r5, r6, r7, r8, r9, sl, fp, lr}
	.pad #20
	sub	sp, sp, #20	@,,
	cmp	r2, #31	@ list_idx,
	movcc	r4, r2	@ list_idx.1888, list_idx
	movcs	r4, #31	@ list_idx.1888,
	movw	ip, #:lower16:IsSTRefFlg	@ tmp218,
	ldr	r2, [sp, #60]	@ long_term, long_term
	movt	ip, #:upper16:IsSTRefFlg	@ tmp218,
	movw	r5, #:lower16:IsLTRefFlg	@ tmp217,
	movt	r5, #:upper16:IsLTRefFlg	@ tmp217,
	cmp	r2, #0	@ long_term,
	mov	r6, r1	@ fs_list, fs_list
	str	r3, [sp, #12]	@ list, %sfp
	moveq	r5, ip	@ is_ref, tmp218
	cmp	r0, #1	@ currStrcture,
	ldr	r9, [sp, #56]	@ list_size, list_size
	moveq	r8, #0	@ bot_idx,
	moveq	sl, r8	@ top_idx.1871, bot_idx
	beq	.L415	@,
	cmp	r0, #2	@ currStrcture,
	moveq	r8, #0	@ bot_idx.1866,
	moveq	sl, r8	@ top_idx, bot_idx.1866
	bne	.L370	@,
.L420:
	cmp	sl, r4	@ top_idx, list_idx.1888
	movcs	r0, #0	@,
	movcc	r0, #1	@,
	cmp	r8, r4	@ bot_idx.1866, list_idx.1888
	movcs	r3, #0	@, temp.1860
	movcc	r3, #1	@, temp.1860
	orrs	r2, r3, r0	@, temp.1860,
	str	r0, [sp, #8]	@, %sfp
	beq	.L370	@,
	cmp	r3, #0	@ temp.1860,
	beq	.L375	@,
	ldr	r0, [r6, r8, asl #2]	@ temp.1862,* fs_list
	mvn	r7, r8	@ tmp235, bot_idx.1866
	add	fp, r7, r4	@ tmp234, tmp235, list_idx.1888
	add	r7, r6, r8, asl #2	@, ivtmp.1847, fs_list, bot_idx.1866,
	and	fp, fp, #1	@ tmp236, tmp234,
	ldrb	r2, [r0, #1]	@ zero_extendqisi2	@ <variable>.is_used, <variable>.is_used
	tst	r2, #2	@ <variable>.is_used,
	bne	.L430	@,
.L404:
	add	r8, r8, #1	@ bot_idx.1866, bot_idx.1866,
	add	r7, r7, #4	@ ivtmp.1847, ivtmp.1847,
	cmp	r8, r4	@ bot_idx.1866, list_idx.1888
	bcs	.L375	@,
	cmp	fp, #0	@ tmp236,
	beq	.L374	@,
	ldr	r0, [r7, #0]	@ temp.1862,* ivtmp.1847
	ldrb	r2, [r0, #1]	@ zero_extendqisi2	@ <variable>.is_used, <variable>.is_used
	tst	r2, #2	@ <variable>.is_used,
	bne	.L431	@,
.L406:
	add	r8, r8, #1	@ bot_idx.1866, bot_idx.1866,
	add	r7, r7, #4	@ ivtmp.1847, ivtmp.1847,
	cmp	r8, r4	@ bot_idx.1866, list_idx.1888
	bcc	.L374	@,
	b	.L375	@
.L372:
	add	r7, r7, #4	@ ivtmp.1847, ivtmp.1847,
	add	r8, r8, #1	@ bot_idx.1866, bot_idx.1866,
	ldr	r0, [r7, #0]	@ temp.1862,* ivtmp.1847
	mov	r3, r8	@ tmp237, bot_idx.1866
	mov	fp, r7	@ tmp238, ivtmp.1847
	ldrb	r2, [r0, #1]	@ zero_extendqisi2	@ <variable>.is_used, <variable>.is_used
	tst	r2, #2	@ <variable>.is_used,
	bne	.L432	@,
.L409:
	add	r8, r3, #1	@ bot_idx.1866, tmp237,
	add	r7, fp, #4	@ ivtmp.1847, tmp238,
	cmp	r8, r4	@ bot_idx.1866, list_idx.1888
	bcs	.L375	@,
.L374:
	ldr	r0, [r7, #0]	@ temp.1862,* ivtmp.1847
	ldrb	ip, [r0, #1]	@ zero_extendqisi2	@ <variable>.is_used, <variable>.is_used
	tst	ip, #2	@ <variable>.is_used,
	beq	.L372	@,
	add	r0, r0, #472	@, temp.1862,
	blx	r5	@ is_ref
	cmp	r0, #0	@,
	beq	.L372	@,
.L428:
	ldr	r1, [r9, #0]	@ tmp194,* list_size
	add	r8, r8, #1	@ bot_idx.1866, bot_idx.1866,
	ldr	r0, [sp, #12]	@, %sfp
	ldr	ip, [r7, #0]	@ tmp195,* ivtmp.1847
	add	r2, ip, #472	@ tmp196, tmp195,
	str	r2, [r0, r1, asl #2]	@ tmp196,
	ldr	r3, [r9, #0]	@ tmp197,* list_size
	add	lr, r3, #1	@ tmp198, tmp197,
	str	lr, [r9, #0]	@ tmp198,* list_size
.L375:
	ldr	r3, [sp, #8]	@, %sfp
	cmp	r3, #0	@,
	beq	.L420	@,
	ldr	r0, [r6, sl, asl #2]	@ temp.1876,* fs_list
	mvn	r7, sl	@ tmp230, top_idx
	add	fp, r7, r4	@ tmp229, tmp230, list_idx.1888
	add	r7, r6, sl, asl #2	@, ivtmp.1842, fs_list, top_idx,
	and	fp, fp, #1	@ tmp231, tmp229,
	ldrb	r1, [r0, #1]	@ zero_extendqisi2	@ <variable>.is_used, <variable>.is_used
	tst	r1, #1	@ <variable>.is_used,
	bne	.L433	@,
.L397:
	add	sl, sl, #1	@ top_idx, top_idx,
	add	r7, r7, #4	@ ivtmp.1842, ivtmp.1842,
	cmp	sl, r4	@ top_idx, list_idx.1888
	bcs	.L420	@,
	cmp	fp, #0	@ tmp231,
	beq	.L377	@,
	ldr	r0, [r7, #0]	@ temp.1876,* ivtmp.1842
	ldrb	r1, [r0, #1]	@ zero_extendqisi2	@ <variable>.is_used, <variable>.is_used
	tst	r1, #1	@ <variable>.is_used,
	bne	.L434	@,
.L399:
	add	sl, sl, #1	@ top_idx, top_idx,
	add	r7, r7, #4	@ ivtmp.1842, ivtmp.1842,
	cmp	sl, r4	@ top_idx, list_idx.1888
	bcc	.L377	@,
	b	.L420	@
.L376:
	add	r7, r7, #4	@ ivtmp.1842, ivtmp.1842,
	add	sl, sl, #1	@ top_idx, top_idx,
	ldr	r0, [r7, #0]	@ temp.1876,* ivtmp.1842
	mov	r3, sl	@ tmp232, top_idx
	mov	fp, r7	@ tmp233, ivtmp.1842
	ldrb	r1, [r0, #1]	@ zero_extendqisi2	@ <variable>.is_used, <variable>.is_used
	tst	r1, #1	@ <variable>.is_used,
	bne	.L435	@,
.L402:
	add	sl, r3, #1	@ top_idx, tmp232,
	add	r7, fp, #4	@ ivtmp.1842, tmp233,
	cmp	sl, r4	@ top_idx, list_idx.1888
	bcs	.L420	@,
.L377:
	ldr	r0, [r7, #0]	@ temp.1876,* ivtmp.1842
	ldrb	ip, [r0, #1]	@ zero_extendqisi2	@ <variable>.is_used, <variable>.is_used
	tst	ip, #1	@ <variable>.is_used,
	beq	.L376	@,
	add	r0, r0, #436	@, temp.1876,
	blx	r5	@ is_ref
	cmp	r0, #0	@,
	beq	.L376	@,
.L427:
	ldr	r3, [r9, #0]	@ tmp203,* list_size
	add	sl, sl, #1	@ top_idx, top_idx,
	ldr	r1, [sp, #12]	@, %sfp
	ldr	ip, [r7, #0]	@ tmp204,* ivtmp.1842
	add	r2, ip, #436	@ tmp205, tmp204,
	str	r2, [r1, r3, asl #2]	@ tmp205,
	ldr	r0, [r9, #0]	@ tmp206,* list_size
	add	lr, r0, #1	@ tmp207, tmp206,
	str	lr, [r9, #0]	@ tmp207,* list_size
	b	.L420	@
.L442:
	add	r0, r0, #436	@, D.40441,
	blx	r5	@ is_ref
	cmp	r0, #0	@,
	beq	.L364	@,
.L426:
	ldr	r3, [r9, #0]	@ tmp169,* list_size
	add	sl, sl, #1	@ top_idx.1871, top_idx.1871,
	ldr	lr, [sp, #12]	@, %sfp
	ldr	r2, [r7, #0]	@ tmp170,* ivtmp.1837
	add	ip, r2, #436	@ tmp171, tmp170,
	str	ip, [lr, r3, asl #2]	@ tmp171,
	ldr	r1, [r9, #0]	@ tmp172,* list_size
	add	r0, r1, #1	@ tmp173, tmp172,
	str	r0, [r9, #0]	@ tmp173,* list_size
.L367:
	ldr	r0, [sp, #8]	@, %sfp
	cmp	r0, #0	@,
	beq	.L415	@,
	ldr	r0, [r6, r8, asl #2]	@ D.40458,* fs_list
	mvn	r7, r8	@ tmp220, bot_idx
	add	fp, r7, r4	@ tmp219, tmp220, list_idx.1888
	add	r7, r6, r8, asl #2	@, ivtmp.1832, fs_list, bot_idx,
	and	fp, fp, #1	@ tmp221, tmp219,
	ldrb	ip, [r0, #1]	@ zero_extendqisi2	@ <variable>.is_used, <variable>.is_used
	tst	ip, #2	@ <variable>.is_used,
	bne	.L436	@,
.L383:
	add	r8, r8, #1	@ bot_idx, bot_idx,
	add	r7, r7, #4	@ ivtmp.1832, ivtmp.1832,
	cmp	r8, r4	@ bot_idx, list_idx.1888
	bcs	.L415	@,
	cmp	fp, #0	@ tmp221,
	beq	.L369	@,
	ldr	r0, [r7, #0]	@ D.40458,* ivtmp.1832
	ldrb	r3, [r0, #1]	@ zero_extendqisi2	@ <variable>.is_used, <variable>.is_used
	tst	r3, #2	@ <variable>.is_used,
	bne	.L437	@,
.L385:
	add	r8, r8, #1	@ bot_idx, bot_idx,
	add	r7, r7, #4	@ ivtmp.1832, ivtmp.1832,
	cmp	r8, r4	@ bot_idx, list_idx.1888
	bcc	.L369	@,
	b	.L415	@
.L368:
	add	r7, r7, #4	@ ivtmp.1832, ivtmp.1832,
	add	r8, r8, #1	@ bot_idx, bot_idx,
	ldr	r0, [r7, #0]	@ D.40458,* ivtmp.1832
	mov	r3, r8	@ tmp222, bot_idx
	mov	fp, r7	@ tmp223, ivtmp.1832
	ldrb	r2, [r0, #1]	@ zero_extendqisi2	@ <variable>.is_used, <variable>.is_used
	tst	r2, #2	@ <variable>.is_used,
	bne	.L438	@,
.L388:
	add	r8, r3, #1	@ bot_idx, tmp222,
	add	r7, fp, #4	@ ivtmp.1832, tmp223,
	cmp	r8, r4	@ bot_idx, list_idx.1888
	bcs	.L415	@,
.L369:
	ldr	r0, [r7, #0]	@ D.40458,* ivtmp.1832
	ldrb	r3, [r0, #1]	@ zero_extendqisi2	@ <variable>.is_used, <variable>.is_used
	tst	r3, #2	@ <variable>.is_used,
	beq	.L368	@,
	add	r0, r0, #472	@, D.40458,
	blx	r5	@ is_ref
	cmp	r0, #0	@,
	beq	.L368	@,
.L425:
	ldr	ip, [r9, #0]	@ tmp178,* list_size
	add	r8, r8, #1	@ bot_idx, bot_idx,
	ldr	r0, [sp, #12]	@, %sfp
	ldr	r3, [r7, #0]	@ tmp179,* ivtmp.1832
	add	r1, r3, #472	@ tmp180, tmp179,
	str	r1, [r0, ip, asl #2]	@ tmp180,
	ldr	r2, [r9, #0]	@ tmp181,* list_size
	add	lr, r2, #1	@ tmp182, tmp181,
	str	lr, [r9, #0]	@ tmp182,* list_size
.L415:
	cmp	r8, r4	@ bot_idx, list_idx.1888
	movcs	r0, #0	@,
	movcc	r0, #1	@,
	cmp	sl, r4	@ top_idx.1871, list_idx.1888
	movcs	r3, #0	@, D.40468
	movcc	r3, #1	@, D.40468
	orrs	r2, r0, r3	@,, D.40468
	str	r0, [sp, #8]	@, %sfp
	beq	.L370	@,
	cmp	r3, #0	@ D.40468,
	beq	.L367	@,
	ldr	r0, [r6, sl, asl #2]	@ D.40441,* fs_list
	mvn	r7, sl	@ tmp225, top_idx.1871
	add	fp, r7, r4	@ tmp224, tmp225, list_idx.1888
	add	r7, r6, sl, asl #2	@, ivtmp.1837, fs_list, top_idx.1871,
	and	fp, fp, #1	@ tmp226, tmp224,
	ldrb	r1, [r0, #1]	@ zero_extendqisi2	@ <variable>.is_used, <variable>.is_used
	tst	r1, #1	@ <variable>.is_used,
	bne	.L439	@,
.L390:
	add	sl, sl, #1	@ top_idx.1871, top_idx.1871,
	add	r7, r7, #4	@ ivtmp.1837, ivtmp.1837,
	cmp	sl, r4	@ top_idx.1871, list_idx.1888
	bcs	.L367	@,
	cmp	fp, #0	@ tmp226,
	beq	.L366	@,
	ldr	r0, [r7, #0]	@ D.40441,* ivtmp.1837
	ldrb	ip, [r0, #1]	@ zero_extendqisi2	@ <variable>.is_used, <variable>.is_used
	tst	ip, #1	@ <variable>.is_used,
	bne	.L440	@,
.L392:
	add	sl, sl, #1	@ top_idx.1871, top_idx.1871,
	add	r7, r7, #4	@ ivtmp.1837, ivtmp.1837,
	cmp	sl, r4	@ top_idx.1871, list_idx.1888
	bcc	.L366	@,
	b	.L367	@
.L364:
	add	r7, r7, #4	@ ivtmp.1837, ivtmp.1837,
	add	sl, sl, #1	@ top_idx.1871, top_idx.1871,
	ldr	r0, [r7, #0]	@ D.40441,* ivtmp.1837
	mov	r3, sl	@ tmp228, top_idx.1871
	mov	fp, r7	@ tmp227, ivtmp.1837
	ldrb	r1, [r0, #1]	@ zero_extendqisi2	@ <variable>.is_used, <variable>.is_used
	tst	r1, #1	@ <variable>.is_used,
	bne	.L441	@,
.L395:
	add	sl, r3, #1	@ top_idx.1871, tmp228,
	add	r7, fp, #4	@ ivtmp.1837, tmp227,
	cmp	sl, r4	@ top_idx.1871, list_idx.1888
	bcs	.L367	@,
.L366:
	ldr	r0, [r7, #0]	@ D.40441,* ivtmp.1837
	ldrb	r3, [r0, #1]	@ zero_extendqisi2	@ <variable>.is_used, <variable>.is_used
	tst	r3, #1	@ <variable>.is_used,
	bne	.L442	@,
	add	r7, r7, #4	@ ivtmp.1837, ivtmp.1837,
	add	sl, sl, #1	@ top_idx.1871, top_idx.1871,
	ldr	r0, [r7, #0]	@ D.40441,* ivtmp.1837
	mov	r3, sl	@ tmp228, top_idx.1871
	mov	fp, r7	@ tmp227, ivtmp.1837
	ldrb	r1, [r0, #1]	@ zero_extendqisi2	@ <variable>.is_used, <variable>.is_used
	tst	r1, #1	@ <variable>.is_used,
	beq	.L395	@,
.L441:
	add	r0, r0, #436	@, D.40441,
	str	sl, [sp, #4]	@ tmp3,
	blx	r5	@ is_ref
	ldr	r3, [sp, #4]	@,
	cmp	r0, #0	@,
	beq	.L395	@,
	b	.L426	@
.L370:
	mov	r0, #0	@,
	add	sp, sp, #20	@,,
	ldmfd	sp!, {r4, r5, r6, r7, r8, r9, sl, fp, pc}
.L432:
	add	r0, r0, #472	@, temp.1862,
	str	r8, [sp, #4]	@ tmp3,
	blx	r5	@ is_ref
	ldr	r3, [sp, #4]	@,
	cmp	r0, #0	@,
	beq	.L409	@,
	b	.L428	@
.L435:
	add	r0, r0, #436	@, temp.1876,
	str	sl, [sp, #4]	@ tmp3,
	blx	r5	@ is_ref
	ldr	r3, [sp, #4]	@,
	cmp	r0, #0	@,
	beq	.L402	@,
	b	.L427	@
.L438:
	add	r0, r0, #472	@, D.40458,
	str	r8, [sp, #4]	@ tmp3,
	blx	r5	@ is_ref
	ldr	r3, [sp, #4]	@,
	cmp	r0, #0	@,
	beq	.L388	@,
	b	.L425	@
.L430:
	add	r0, r0, #472	@, temp.1862,
	blx	r5	@ is_ref
	cmp	r0, #0	@,
	beq	.L404	@,
	b	.L428	@
.L433:
	add	r0, r0, #436	@, temp.1876,
	blx	r5	@ is_ref
	cmp	r0, #0	@,
	beq	.L397	@,
	b	.L427	@
.L431:
	add	r0, r0, #472	@, temp.1862,
	blx	r5	@ is_ref
	cmp	r0, #0	@,
	beq	.L406	@,
	b	.L428	@
.L434:
	add	r0, r0, #436	@, temp.1876,
	blx	r5	@ is_ref
	cmp	r0, #0	@,
	beq	.L399	@,
	b	.L427	@
.L436:
	add	r0, r0, #472	@, D.40458,
	blx	r5	@ is_ref
	cmp	r0, #0	@,
	beq	.L383	@,
	b	.L425	@
.L439:
	add	r0, r0, #436	@, D.40441,
	blx	r5	@ is_ref
	cmp	r0, #0	@,
	beq	.L390	@,
	b	.L426	@
.L440:
	add	r0, r0, #436	@, D.40441,
	blx	r5	@ is_ref
	cmp	r0, #0	@,
	beq	.L392	@,
	b	.L426	@
.L437:
	add	r0, r0, #472	@, D.40458,
	blx	r5	@ is_ref
	cmp	r0, #0	@,
	beq	.L385	@,
	b	.L425	@
	.fnend
	.size	GenPiclistfromFrmlist, .-GenPiclistfromFrmlist
	.align	2
	.global	FindNearestPOCPicId
	.type	FindNearestPOCPicId, %function
FindNearestPOCPicId:
	.fnstart
.LFB1989:
	@ args = 0, pretend = 0, frame = 0
	@ frame_needed = 0, uses_anonymous_args = 0
	@ link register save eliminated.
	movw	r3, #26628	@ tmp144,
	mov	r1, r0	@ pH264Ctx, pH264Ctx
	stmfd	sp!, {r4, r5, r6, r7}	@,
	.save {r4, r5, r6, r7}
	ldr	r6, [r0, r3]	@ D.40731, <variable>.DPB.used_size
	cmp	r6, #0	@ D.40731,
	mvneq	r0, #0	@ nearest_pic_id,
	beq	.L445	@,
	movw	r4, #26432	@ tmp147,
	cmp	r6, #1	@ D.40731,
	ldr	ip, [r1, r4]	@ <variable>.DPB.fs, <variable>.DPB.fs
	movw	r2, #50132	@ tmp145,
	ldr	r4, [r1, r2]	@ curr_poc, <variable>.CurrPic.thispoc
	movls	r0, #0	@ nearest_pic_id,
	ldr	r2, [ip, #524]	@ nearest_poc, <variable>.poc
	bls	.L445	@,
	add	r0, r1, #26368	@ tmp151, pH264Ctx,
	sub	r6, r6, #1	@ tmp149, D.40731,
	add	r5, r0, #68	@ tmp151, tmp151,
	rsb	r2, r2, r4	@ tmp148, nearest_poc, curr_poc
	mov	r6, r6, asl #2	@ D.47041, tmp149,
	cmp	r2, #0	@ tmp148,
	ldr	ip, [r5, #0]	@ D.40738, <variable>.DPB.fs
	sub	r3, r6, #4	@ tmp158, D.47041,
	ubfx	r5, r3, #2, #1	@ tmp159, tmp158,,
	rsblt	r2, r2, #0	@ nearest_poc_diff, tmp148
	mov	r0, #0	@ nearest_pic_id,
	ldr	r3, [ip, #524]	@ <variable>.poc, <variable>.poc
	rsb	r3, r3, r4	@ tmp153, <variable>.poc, curr_poc
	cmp	r3, #0	@ tmp153,
	rsblt	r3, r3, #0	@ new_poc_diff, tmp153
	cmp	r3, r2	@ new_poc_diff, nearest_poc_diff
	blt	.L461	@,
.L451:
	mov	r3, #4	@ ivtmp.1923,
	cmp	r3, r6	@ ivtmp.1923, D.47041
	beq	.L445	@,
	cmp	r5, #0	@ tmp159,
	beq	.L448	@,
	add	ip, r1, r3	@ tmp177, pH264Ctx, ivtmp.1923
	add	r3, r3, #4	@ ivtmp.1923, ivtmp.1923,
	add	r5, ip, #26368	@ tmp179, tmp177,
	add	ip, r5, #68	@ tmp179, tmp179,
	ldr	r5, [ip, #0]	@ D.40738, <variable>.DPB.fs
	ldr	ip, [r5, #524]	@ <variable>.poc, <variable>.poc
	rsb	ip, ip, r4	@ tmp182, <variable>.poc, curr_poc
	cmp	ip, #0	@ tmp182,
	rsblt	ip, ip, #0	@ new_poc_diff, tmp182
	cmp	ip, r2	@ new_poc_diff, nearest_poc_diff
	ldrlt	r0, [r5, #184]	@ nearest_pic_id, <variable>.fs_image.image_id
	movlt	r2, ip	@ nearest_poc_diff, new_poc_diff
	cmp	r3, r6	@ ivtmp.1923, D.47041
	beq	.L445	@,
.L448:
	add	r5, r1, r3	@ tmp162, pH264Ctx, ivtmp.1923
	add	ip, r3, #4	@ tmp160, ivtmp.1923,
	add	r3, r5, #26368	@ tmp163, tmp162,
	add	r7, r1, ip	@ tmp170, pH264Ctx, tmp160
	add	r7, r7, #26368	@ tmp171, tmp170,
	ldr	r5, [r3, #68]	@ D.40738, <variable>.DPB.fs
	ldr	r3, [r5, #524]	@ <variable>.poc, <variable>.poc
	rsb	r3, r3, r4	@ tmp167, <variable>.poc, curr_poc
	cmp	r3, #0	@ tmp167,
	rsblt	r3, r3, #0	@ new_poc_diff, tmp167
	cmp	r3, r2	@ new_poc_diff, nearest_poc_diff
	ldrlt	r0, [r5, #184]	@ nearest_pic_id, <variable>.fs_image.image_id
	movlt	r2, r3	@ nearest_poc_diff, new_poc_diff
	ldr	r5, [r7, #68]	@ D.40738, <variable>.DPB.fs
	ldr	r3, [r5, #524]	@ <variable>.poc, <variable>.poc
	rsb	r3, r3, r4	@ tmp175, <variable>.poc, curr_poc
	cmp	r3, #0	@ tmp175,
	rsblt	r3, r3, #0	@ new_poc_diff, tmp175
	cmp	r3, r2	@ new_poc_diff, nearest_poc_diff
	ldrlt	r0, [r5, #184]	@ nearest_pic_id, <variable>.fs_image.image_id
	movlt	r2, r3	@ nearest_poc_diff, new_poc_diff
.L456:
	add	r3, ip, #4	@ ivtmp.1923, tmp160,
	cmp	r3, r6	@ ivtmp.1923, D.47041
	bne	.L448	@,
.L445:
	ldmfd	sp!, {r4, r5, r6, r7}
	bx	lr
.L461:
	ldr	r0, [ip, #184]	@ nearest_pic_id, <variable>.fs_image.image_id
	mov	r2, r3	@ nearest_poc_diff, new_poc_diff
	b	.L451	@
	.fnend
	.size	FindNearestPOCPicId, .-FindNearestPOCPicId
	.align	2
	.global	FindMinRefIdx
	.type	FindMinRefIdx, %function
FindMinRefIdx:
	.fnstart
.LFB1990:
	@ args = 0, pretend = 0, frame = 0
	@ frame_needed = 0, uses_anonymous_args = 0
	@ link register save eliminated.
	stmfd	sp!, {r4, r5, r6, r7, r8, r9, sl, fp}	@,
	.save {r4, r5, r6, r7, r8, r9, sl, fp}
	mov	r9, r0	@ pH264Ctx, pH264Ctx
	movw	r0, #20680	@ tmp154,
	ldrb	r3, [r9, r0]	@ zero_extendqisi2	@ <variable>.CurrSlice.slice_type, <variable>.CurrSlice.slice_type
	cmp	r3, #2	@ <variable>.CurrSlice.slice_type,
	beq	.L475	@,
	movw	r1, #49707	@ tmp156,
	ldrb	r0, [r9, r1]	@ zero_extendqisi2	@ <variable>.CurrPic.structure, <variable>.CurrPic.structure
	cmp	r0, #0	@ <variable>.CurrPic.structure,
	bne	.L504	@,
	add	r6, r9, #26880	@ ivtmp.1974, pH264Ctx,
	movw	ip, #20724	@ tmp160,
	mov	sl, ip	@ tmp179, tmp160
	mov	fp, r6	@ tmp180, ivtmp.1974
	add	r8, fp, #156	@ ivtmp.1966, tmp180,
	ldr	fp, [r9, ip]	@ D.40776, <variable>.CurrSlice.listXsize
	add	r6, r6, #28	@ ivtmp.1974, ivtmp.1974,
.L466:
	cmp	fp, #0	@ D.40776,
	beq	.L470	@,
	ldr	r2, [r8, #0]	@ tmp206, <variable>.pListX
	mov	r1, #32	@ minrefidx,
	ldr	r7, [r9, sl]	@ temp.1992, <variable>.CurrSlice.listXsize
	ldr	r3, [r2, #4]	@ <variable>.frame_store, <variable>.frame_store
	sub	ip, r7, #1	@ tmp189, temp.1992,
	and	ip, ip, #1	@ tmp191, tmp189,
	ldr	r2, [r3, #552]	@ <variable>.apc_idc, <variable>.apc_idc
	cmp	r2, r0	@ <variable>.apc_idc, i
	beq	.L505	@,
.L478:
	mov	r2, #1	@ j,
	cmp	r7, r2	@ temp.1992, j
	add	r3, r8, #4	@ ivtmp.1966, ivtmp.1966,
	bls	.L498	@,
	cmp	ip, #0	@ tmp191,
	beq	.L468	@,
	ldr	ip, [r8, #4]	@ tmp227, <variable>.pListX
	ldr	ip, [ip, #4]	@ <variable>.frame_store, <variable>.frame_store
	ldr	ip, [ip, #552]	@ <variable>.apc_idc, <variable>.apc_idc
	cmp	ip, r0	@ <variable>.apc_idc, i
	beq	.L506	@,
.L480:
	add	r2, r2, #1	@ j, j,
	add	r3, r3, #4	@ ivtmp.1966, ivtmp.1966,
	cmp	r7, r2	@ temp.1992, j
	bhi	.L468	@,
	b	.L498	@
.L467:
	ldr	r3, [r3, #4]	@ tmp201, <variable>.pListX
	ldr	r2, [r3, #4]	@ <variable>.frame_store, <variable>.frame_store
	ldr	r3, [r2, #552]	@ <variable>.apc_idc, <variable>.apc_idc
	cmp	r3, r0	@ <variable>.apc_idc, i
	beq	.L507	@,
.L483:
	add	r2, ip, #1	@ j, tmp192,
	add	r3, r4, #4	@ ivtmp.1966, tmp193,
	cmp	r7, r2	@ temp.1992, j
	bls	.L498	@,
.L468:
	ldr	r5, [r3, #0]	@ tmp162, <variable>.pListX
	add	ip, r2, #1	@ tmp192, j,
	add	r4, r3, #4	@ tmp193, ivtmp.1966,
	ldr	r5, [r5, #4]	@ <variable>.frame_store, <variable>.frame_store
	ldr	r5, [r5, #552]	@ <variable>.apc_idc, <variable>.apc_idc
	cmp	r5, r0	@ <variable>.apc_idc, i
	bne	.L467	@,
	ldr	r3, [r3, #4]	@ tmp201, <variable>.pListX
	cmp	r1, r2	@ minrefidx, j
	movcs	r1, r2	@ minrefidx, j
	str	r1, [r6, #0]	@ minrefidx, <variable>.APC.RefIdx
	str	r1, [r6, #4]	@ minrefidx, <variable>.APC.RefIdx
	ldr	r2, [r3, #4]	@ <variable>.frame_store, <variable>.frame_store
	ldr	r3, [r2, #552]	@ <variable>.apc_idc, <variable>.apc_idc
	cmp	r3, r0	@ <variable>.apc_idc, i
	bne	.L483	@,
.L507:
	add	r2, ip, #1	@ j, tmp192,
	cmp	r1, ip	@ minrefidx, tmp192
	movcs	r1, ip	@ minrefidx, tmp192
	cmp	r7, r2	@ temp.1992, j
	str	r1, [r6, #0]	@ minrefidx, <variable>.APC.RefIdx
	str	r1, [r6, #4]	@ minrefidx, <variable>.APC.RefIdx
	add	r3, r4, #4	@ ivtmp.1966, tmp193,
	bhi	.L468	@,
.L498:
	cmp	r1, #31	@ minrefidx,
	bls	.L469	@,
.L470:
	mov	r1, #0	@,
	str	r1, [r6, #0]	@, <variable>.APC.RefIdx
	str	r1, [r6, #4]	@, <variable>.APC.RefIdx
.L469:
	add	r0, r0, #1	@ i, i,
	add	r6, r6, #8	@ ivtmp.1974, ivtmp.1974,
	cmp	r0, #16	@ i,
	bne	.L466	@,
.L475:
	ldmfd	sp!, {r4, r5, r6, r7, r8, r9, sl, fp}
	bx	lr
.L504:
	add	r8, r9, #26880	@ ivtmp.1988, pH264Ctx,
	movw	r2, #20724	@ tmp158,
	ldr	fp, [r9, r2]	@ temp.1994, <variable>.CurrSlice.listXsize
	mov	ip, #0	@ i.1999,
	mov	sl, r8	@ tmp185, ivtmp.1988
	add	r8, r8, #28	@ ivtmp.1988, ivtmp.1988,
	add	sl, sl, #156	@ ivtmp.1980, tmp185,
.L465:
	cmp	fp, #0	@ temp.1994,
	beq	.L474	@,
	ldr	r3, [sl, #0]	@ temp.1995, <variable>.pListX
	movw	r2, #20724	@,
	ldr	r7, [r9, r2]	@ temp.1993, <variable>.CurrSlice.listXsize
	mov	r6, #32	@ minrefidx.1991,
	ldr	r0, [r3, #4]	@ <variable>.frame_store, <variable>.frame_store
	sub	r1, r7, #1	@ tmp194, temp.1993,
	ldrb	r2, [r3, #0]	@ zero_extendqisi2	@ <variable>.structure, <variable>.structure
	and	r1, r1, #1	@ tmp196, tmp194,
	ldr	r3, [r0, #552]	@ <variable>.apc_idc, <variable>.apc_idc
	mov	r3, r3, asl #1	@ tmp225, <variable>.apc_idc,
	cmp	r2, #2	@ <variable>.structure,
	orreq	r3, r3, #1	@,, tmp226, tmp225
	cmp	r3, ip	@ tmp226, i.1999
	beq	.L508	@,
.L485:
	mov	r2, #1	@ j.1998,
	cmp	r7, r2	@ temp.1993, j.1998
	add	r3, sl, #4	@ ivtmp.1980, ivtmp.1980,
	bls	.L499	@,
	cmp	r1, #0	@ tmp196,
	beq	.L472	@,
	ldr	r1, [sl, #4]	@ temp.1995, <variable>.pListX
	ldr	r4, [r1, #4]	@ <variable>.frame_store, <variable>.frame_store
	ldrb	r0, [r1, #0]	@ zero_extendqisi2	@ <variable>.structure, <variable>.structure
	ldr	r1, [r4, #552]	@ <variable>.apc_idc, <variable>.apc_idc
	mov	r1, r1, asl r2	@ tmp235, <variable>.apc_idc,
	cmp	r0, #2	@ <variable>.structure,
	orreq	r1, r1, #1	@,, tmp236, tmp235
	cmp	r1, ip	@ tmp236, i.1999
	beq	.L509	@,
.L487:
	add	r2, r2, #1	@ j.1998, j.1998,
	add	r3, r3, #4	@ ivtmp.1980, ivtmp.1980,
	cmp	r7, r2	@ temp.1993, j.1998
	bhi	.L472	@,
	b	.L499	@
.L471:
	ldr	r3, [r3, #4]	@ temp.1995, <variable>.pListX
	ldr	r1, [r3, #4]	@ <variable>.frame_store, <variable>.frame_store
	ldrb	r2, [r3, #0]	@ zero_extendqisi2	@ <variable>.structure, <variable>.structure
	ldr	r3, [r1, #552]	@ <variable>.apc_idc, <variable>.apc_idc
	mov	r3, r3, asl #1	@ tmp216, <variable>.apc_idc,
	cmp	r2, #2	@ <variable>.structure,
	orreq	r3, r3, #1	@,, tmp217, tmp216
	cmp	r3, ip	@ tmp217, i.1999
	beq	.L510	@,
	add	r2, r0, #1	@ j.1998, tmp197,
	add	r3, r4, #4	@ ivtmp.1980, tmp198,
	cmp	r7, r2	@ temp.1993, j.1998
	bls	.L499	@,
.L472:
	ldr	r1, [r3, #0]	@ temp.1995, <variable>.pListX
	add	r0, r2, #1	@ tmp197, j.1998,
	add	r4, r3, #4	@ tmp198, ivtmp.1980,
	ldr	r5, [r1, #4]	@ <variable>.frame_store, <variable>.frame_store
	ldrb	r1, [r1, #0]	@ zero_extendqisi2	@ <variable>.structure, <variable>.structure
	ldr	r5, [r5, #552]	@ <variable>.apc_idc, <variable>.apc_idc
	mov	r5, r5, asl #1	@ tmp173, <variable>.apc_idc,
	cmp	r1, #2	@ <variable>.structure,
	movne	r1, r5	@, tmp175, tmp173
	orreq	r1, r5, #1	@,, tmp175, tmp173
	cmp	r1, ip	@ tmp175, i.1999
	bne	.L471	@,
	cmp	r6, r2	@ minrefidx.1991, j.1998
	movcs	r6, r2	@ minrefidx.1991, j.1998
	str	r6, [r8, #0]	@ minrefidx.1991, <variable>.APC.RefIdx
	b	.L471	@
.L510:
	add	r2, r0, #1	@ j.1998, tmp197,
	cmp	r6, r0	@ minrefidx.1991, tmp197
	movcs	r6, r0	@ minrefidx.1991, tmp197
	cmp	r7, r2	@ temp.1993, j.1998
	str	r6, [r8, #0]	@ minrefidx.1991, <variable>.APC.RefIdx
	add	r3, r4, #4	@ ivtmp.1980, tmp198,
	bhi	.L472	@,
.L499:
	cmp	r6, #31	@ minrefidx.1991,
	bls	.L473	@,
.L474:
	mov	r0, #0	@,
	str	r0, [r8, #0]	@, <variable>.APC.RefIdx
.L473:
	add	ip, ip, #1	@ i.1999, i.1999,
	add	r8, r8, #4	@ ivtmp.1988, ivtmp.1988,
	cmp	ip, #32	@ i.1999,
	bne	.L465	@,
	b	.L475	@
.L508:
	mov	r6, #0	@ minrefidx.1991,
	str	r6, [r8, #0]	@ minrefidx.1991, <variable>.APC.RefIdx
	b	.L485	@
.L509:
	cmp	r6, r2	@ minrefidx.1991, j.1998
	movcs	r6, r2	@ minrefidx.1991, j.1998
	str	r6, [r8, #0]	@ minrefidx.1991, <variable>.APC.RefIdx
	b	.L487	@
.L505:
	mov	r1, #0	@ minrefidx,
	str	r1, [r6, #0]	@ minrefidx, <variable>.APC.RefIdx
	str	r1, [r6, #4]	@ minrefidx, <variable>.APC.RefIdx
	b	.L478	@
.L506:
	cmp	r1, r2	@ minrefidx, j
	movcs	r1, r2	@ minrefidx, j
	str	r1, [r6, #0]	@ minrefidx, <variable>.APC.RefIdx
	str	r1, [r6, #4]	@ minrefidx, <variable>.APC.RefIdx
	b	.L480	@
	.fnend
	.size	FindMinRefIdx, .-FindMinRefIdx
	.align	2
	.global	wait_vo
	.type	wait_vo, %function
wait_vo:
	.fnstart
.LFB1994:
	@ args = 0, pretend = 0, frame = 0
	@ frame_needed = 0, uses_anonymous_args = 0
	@ link register save eliminated.
	bx	lr	@
	.fnend
	.size	wait_vo, .-wait_vo
	.align	2
	.global	GetReRangeFlag
	.type	GetReRangeFlag, %function
GetReRangeFlag:
	.fnstart
.LFB1995:
	@ args = 0, pretend = 0, frame = 8
	@ frame_needed = 0, uses_anonymous_args = 0
	stmfd	sp!, {r4, r5, r6, r7, r8, lr}	@,
	.save {r4, r5, r6, r7, r8, lr}
	movw	r3, #13584	@ tmp150,
	mov	r4, r0	@ pH264Ctx, pH264Ctx
	movw	r0, #20692	@ tmp148,
	ldr	r7, [r4, r3]	@ <variable>.PPS, <variable>.PPS
	mov	r5, #2208	@ tmp152,
	ldr	r6, [r4, r0]	@ <variable>.CurrSlice.pic_parameter_set_id, <variable>.CurrSlice.pic_parameter_set_id
	movw	ip, #13580	@ tmp146,
	ldr	r3, [r4, ip]	@ <variable>.SPS, <variable>.SPS
	movw	r2, #13560	@ tmp158,
	ldr	r2, [r4, r2]	@ oldw, <variable>.CurWidthInMb
	.pad #8
	sub	sp, sp, #8	@,,
	mla	r0, r5, r6, r7	@ tmp153, tmp152, <variable>.CurrSlice.pic_parameter_set_id, <variable>.PPS
	mov	r5, #4000	@ tmp156,
	mov	r6, r1	@ p_dpb_changed, p_dpb_changed
	movw	r1, #13564	@ tmp159,
	ldr	r7, [r4, r1]	@ oldh, <variable>.CurHeightInMb
	ldr	ip, [r0, #28]	@ <variable>.seq_parameter_set_id, <variable>.seq_parameter_set_id
	mla	r5, r5, ip, r3	@ pSPS, tmp156, <variable>.seq_parameter_set_id, <variable>.SPS
	ldrb	r1, [r5, #18]	@ zero_extendqisi2	@ <variable>.frame_mbs_only_flag, <variable>.frame_mbs_only_flag
	ldr	r3, [r5, #3960]	@ <variable>.pic_height_in_map_units_minus1, <variable>.pic_height_in_map_units_minus1
	rsb	r0, r1, #2	@ tmp162, <variable>.frame_mbs_only_flag,
	ldr	ip, [r5, #3956]	@ <variable>.pic_width_in_mbs_minus1, <variable>.pic_width_in_mbs_minus1
	mla	r0, r3, r0, r0	@ newh, <variable>.pic_height_in_map_units_minus1, tmp162, tmp162
	add	ip, ip, #1	@ neww, <variable>.pic_width_in_mbs_minus1,
	cmp	ip, r2	@ neww, oldw
	cmpeq	r0, r7	@, newh, oldh
	moveq	r3, #0	@, tmp171
	movne	r3, #1	@, tmp171
	bne	.L514	@,
	mov	r8, #26624	@ tmp172,
	ldr	r1, [r5, #3980]	@ prephitmp.2036, <variable>.dpb_size_plus1
	ldr	r8, [r4, r8]	@ <variable>.DPB.size, <variable>.DPB.size
	add	r8, r8, #1	@ tmp173, <variable>.DPB.size,
	cmp	r1, r8	@ prephitmp.2036, tmp173
	bls	.L518	@,
.L514:
	movw	r1, #:lower16:g_event_report	@ tmp175,
	movt	r1, #:upper16:g_event_report	@ tmp175,
	ldr	r3, [r1, #0]	@ g_event_report.677, g_event_report
	cmp	r3, #0	@ g_event_report.677,
	beq	.L519	@,
	movw	lr, #52840	@ tmp184,
	mov	r1, r2, asl #4	@ tmp177, oldw,
	mov	ip, ip, asl #4	@ tmp181, neww,
	strh	r1, [sp, #0]	@ movhi	@ tmp177, para
	mov	r2, r0, asl #4	@ tmp183, newh,
	strh	ip, [sp, #4]	@ movhi	@ tmp181, para
	strh	r2, [sp, #6]	@ movhi	@ tmp183, para
	mov	r1, #2	@,
	mov	r7, r7, asl #4	@ tmp179, oldh,
	mov	r2, sp	@,
	strh	r7, [sp, #2]	@ movhi	@ tmp179, para
	ldr	r0, [r4, lr]	@, <variable>.ChanID
	blx	r3	@ g_event_report.677
	ldr	r1, [r5, #3980]	@ prephitmp.2036, <variable>.dpb_size_plus1
	mov	r3, #1	@ prephitmp.2048,
.L518:
	mov	r0, r3	@ ReRangeFlg, prephitmp.2048
.L515:
	movw	r2, #14332	@ tmp187,
	ldr	ip, [r5, #744]	@ <variable>.seq_parameter_set_id, <variable>.seq_parameter_set_id
	ldr	r5, [r4, r2]	@ <variable>.CurrSPS.seq_parameter_set_id, <variable>.CurrSPS.seq_parameter_set_id
	movw	r2, #17568	@ tmp192,
	ldr	r2, [r4, r2]	@ <variable>.CurrSPS.dpb_size_plus1, <variable>.CurrSPS.dpb_size_plus1
	cmp	r5, ip	@ <variable>.CurrSPS.seq_parameter_set_id, <variable>.seq_parameter_set_id
	orrne	r3, r3, #1	@,, dpb_changed, prephitmp.2048
	cmp	r2, r1	@ <variable>.CurrSPS.dpb_size_plus1, prephitmp.2036
	moveq	ip, r3	@, tmp196, dpb_changed
	orrne	ip, r3, #1	@,, tmp196, dpb_changed
	str	ip, [r6, #0]	@ tmp196,* p_dpb_changed
	add	sp, sp, #8	@,,
	ldmfd	sp!, {r4, r5, r6, r7, r8, pc}
.L519:
	mov	r3, #1	@ prephitmp.2048,
	ldr	r1, [r5, #3980]	@ prephitmp.2036, <variable>.dpb_size_plus1
	mov	r0, r3	@ ReRangeFlg, prephitmp.2048
	b	.L515	@
	.fnend
	.size	GetReRangeFlag, .-GetReRangeFlag
	.global	__aeabi_uidiv
	.global	__aeabi_uidivmod
	.align	2
	.global	DecPOC
	.type	DecPOC, %function
DecPOC:
	.fnstart
.LFB1996:
	@ args = 0, pretend = 0, frame = 0
	@ frame_needed = 0, uses_anonymous_args = 0
	movw	r2, #20692	@ tmp174,
	stmfd	sp!, {r3, r4, r5, r6, r7, lr}	@,
	.save {r3, r4, r5, r6, r7, lr}
	mov	r4, r0	@ pH264Ctx, pH264Ctx
	ldr	ip, [r0, r2]	@ <variable>.CurrSlice.pic_parameter_set_id, <variable>.CurrSlice.pic_parameter_set_id
	movw	r0, #13584	@ tmp176,
	ldr	r1, [r4, r0]	@ <variable>.PPS, <variable>.PPS
	mov	r5, #2208	@ tmp178,
	movw	r3, #13580	@ tmp172,
	movw	r2, #20683	@ tmp169,
	ldr	r3, [r4, r3]	@ <variable>.SPS, <variable>.SPS
	mla	r0, r5, ip, r1	@ tmp179, tmp178, <variable>.CurrSlice.pic_parameter_set_id, <variable>.PPS
	mov	r5, #4000	@ tmp182,
	ldrb	r1, [r4, r2]	@ zero_extendqisi2	@ <variable>.CurrSlice.nal_unit_type, <variable>.CurrSlice.nal_unit_type
	mov	r2, #1	@ tmp186,
	cmp	r1, #5	@ <variable>.CurrSlice.nal_unit_type,
	movne	r1, #0	@, tmp171
	moveq	r1, #1	@, tmp171
	ldr	ip, [r0, #28]	@ <variable>.seq_parameter_set_id, <variable>.seq_parameter_set_id
	mla	r5, r5, ip, r3	@ sps, tmp182, <variable>.seq_parameter_set_id, <variable>.SPS
	ldr	r3, [r5, #2908]	@ <variable>.pic_order_cnt_type, <variable>.pic_order_cnt_type
	ldr	r0, [r5, #2904]	@ <variable>.log2_max_frame_num_minus4, <variable>.log2_max_frame_num_minus4
	cmp	r3, r2	@ <variable>.pic_order_cnt_type,
	ldr	ip, [r5, #2912]	@ D.40989, <variable>.log2_max_pic_order_cnt_lsb_minus4
	add	r0, r0, #4	@ tmp184, <variable>.log2_max_frame_num_minus4,
	mov	r0, r2, asl r0	@ MaxFrameNum, tmp186,
	beq	.L523	@,
	bcs	.L575	@,
	cmp	r1, #0	@ tmp171,
	add	ip, ip, #4	@ tmp188, D.40989,
	mov	r2, r2, asl ip	@ MaxPicOrderCntLsb, tmp186,
	bne	.L576	@,
	movw	r3, #19820	@ tmp194,
	ldr	ip, [r4, r3]	@ <variable>.CurrPOC.last_has_mmco_5, <variable>.CurrPOC.last_has_mmco_5
	cmp	ip, #0	@ <variable>.CurrPOC.last_has_mmco_5,
	bne	.L527	@,
	movw	r1, #19804	@ tmp197,
	movw	r5, #19808	@ tmp196,
	ldr	ip, [r4, r1]	@ prephitmp.2086, <variable>.CurrPOC.PrevPicOrderCntMsb
	ldr	r1, [r4, r5]	@ prephitmp.2084, <variable>.CurrPOC.PrevPicOrderCntLsb
	mov	r5, ip	@ prephitmp.2088, prephitmp.2086
.L528:
	movw	r3, #19796	@ tmp208,
	ldr	r0, [r4, r3]	@ D.41012, <variable>.CurrPOC.pic_order_cnt_lsb
	cmp	r0, r1	@ D.41012, prephitmp.2084
	bcs	.L530	@,
	rsb	r3, r0, r1	@ tmp209, D.41012, prephitmp.2084
	cmp	r3, r2, lsr #1	@ tmp209, MaxPicOrderCntLsb,
	addcs	r3, r5, r2	@ D.41021, prephitmp.2088, MaxPicOrderCntLsb
	movwcs	r2, #19812	@ tmp212,
	strcs	r3, [r4, r2]	@ D.41021, <variable>.CurrPOC.PicOrderCntMsb
	bcs	.L533	@,
.L530:
	movw	r3, #19804	@ tmp213,
	ldr	r3, [r4, r3]	@ prephitmp.2154, <variable>.CurrPOC.PrevPicOrderCntMsb
.L532:
	cmp	r1, r0	@ prephitmp.2084, D.41012
	bcs	.L534	@,
	rsb	r1, r1, r0	@ tmp214, prephitmp.2084, D.41012
	cmp	r1, r2, lsr #1	@ tmp214, MaxPicOrderCntLsb,
	bhi	.L577	@,
.L534:
	movw	r0, #19812	@ tmp217,
	str	ip, [r4, r0]	@ prephitmp.2086, <variable>.CurrPOC.PicOrderCntMsb
.L533:
	movw	r1, #20681	@ tmp218,
	ldrb	ip, [r4, r1]	@ zero_extendqisi2	@ <variable>.CurrSlice.field_pic_flag, <variable>.CurrSlice.field_pic_flag
	cmp	ip, #0	@ <variable>.CurrSlice.field_pic_flag,
	bne	.L535	@,
	movw	r2, #19796	@ tmp220,
	movw	r0, #19800	@ tmp223,
	ldr	ip, [r4, r2]	@ <variable>.CurrPOC.pic_order_cnt_lsb, <variable>.CurrPOC.pic_order_cnt_lsb
	ldr	r1, [r4, r0]	@ <variable>.CurrPOC.delta_pic_order_cnt_bottom, <variable>.CurrPOC.delta_pic_order_cnt_bottom
	movw	r0, #19828	@ tmp222,
	add	r2, r3, ip	@ D.41035, prephitmp.2154, <variable>.CurrPOC.pic_order_cnt_lsb
	str	r2, [r4, r0]	@ D.41035, <variable>.CurrPOC.toppoc
	add	ip, r2, r1	@ D.41037, D.41035, <variable>.CurrPOC.delta_pic_order_cnt_bottom
	movw	r0, #19836	@ tmp226,
	cmp	ip, r2	@ D.41037, D.41035
	movlt	r3, ip	@ prephitmp.2079, D.41037
	movge	r3, r2	@ prephitmp.2079, D.41035
	movw	r2, #19832	@ tmp225,
	str	ip, [r4, r2]	@ D.41037, <variable>.CurrPOC.bottompoc
	movw	r2, #19840	@ tmp227,
	str	r3, [r4, r0]	@ prephitmp.2079,
	str	r3, [r4, r2]	@ prephitmp.2079, <variable>.CurrPOC.ThisPOC
.L536:
	movw	ip, #19836	@ tmp238,
	movw	r1, #19860	@ tmp239,
	movw	r2, #19856	@ tmp240,
	ldr	r1, [r4, r1]	@ D.41047, <variable>.CurrPOC.frame_num
	str	r3, [r4, ip]	@ prephitmp.2079, <variable>.CurrPOC.framepoc
	movw	ip, #20712	@ tmp243,
	ldr	r0, [r4, r2]	@ <variable>.CurrPOC.PreviousFrameNum, <variable>.CurrPOC.PreviousFrameNum
	ldr	r3, [r4, ip]	@ <variable>.CurrSlice.nal_ref_idc, <variable>.CurrSlice.nal_ref_idc
	cmp	r1, r0	@ D.41047, <variable>.CurrPOC.PreviousFrameNum
	strne	r1, [r4, r2]	@ D.41047, <variable>.CurrPOC.PreviousFrameNum
	cmp	r3, #0	@ <variable>.CurrSlice.nal_ref_idc,
	ldmeqfd	sp!, {r3, r4, r5, r6, r7, pc}	@
	movw	r2, #19796	@ tmp246,
	movw	r1, #19812	@ tmp249,
	ldr	r0, [r4, r2]	@ <variable>.CurrPOC.pic_order_cnt_lsb, <variable>.CurrPOC.pic_order_cnt_lsb
	movw	ip, #19808	@ tmp245,
	ldr	r2, [r4, r1]	@ <variable>.CurrPOC.PicOrderCntMsb, <variable>.CurrPOC.PicOrderCntMsb
	movw	r3, #19804	@ tmp248,
	str	r0, [r4, ip]	@ <variable>.CurrPOC.pic_order_cnt_lsb, <variable>.CurrPOC.PrevPicOrderCntLsb
	str	r2, [r4, r3]	@ <variable>.CurrPOC.PicOrderCntMsb,
	ldmfd	sp!, {r3, r4, r5, r6, r7, pc}	@
.L575:
	cmp	r3, #2	@ <variable>.pic_order_cnt_type,
	ldmnefd	sp!, {r3, r4, r5, r6, r7, pc}	@
	cmp	r1, #0	@ tmp171,
	bne	.L578	@,
	movw	ip, #19820	@ tmp355,
	ldr	r3, [r4, ip]	@ <variable>.CurrPOC.last_has_mmco_5, <variable>.CurrPOC.last_has_mmco_5
	cmp	r3, #0	@ <variable>.CurrPOC.last_has_mmco_5,
	bne	.L559	@,
	movw	r2, #19856	@ tmp358,
	movw	ip, #19860	@ tmp359,
	ldr	r1, [r4, r2]	@ <variable>.CurrPOC.PreviousFrameNum, <variable>.CurrPOC.PreviousFrameNum
	movw	r3, #19868	@ tmp357,
	ldr	r2, [r4, ip]	@ <variable>.CurrPOC.frame_num, <variable>.CurrPOC.frame_num
	ldr	r3, [r4, r3]	@ prephitmp.2074, <variable>.CurrPOC.PrevFrameNumOffset
	cmp	r1, r2	@ <variable>.CurrPOC.PreviousFrameNum, <variable>.CurrPOC.frame_num
	addhi	r3, r3, r0	@ prephitmp.2074, prephitmp.2074, MaxFrameNum
	movwhi	r2, #19864	@ tmp366,
	strhi	r3, [r4, r2]	@ prephitmp.2074, <variable>.CurrPOC.FrameNumOffset
	bls	.L561	@,
.L562:
	movw	r2, #19860	@ tmp368,
	movw	r1, #20712	@ tmp371,
	ldr	ip, [r4, r2]	@ <variable>.CurrPOC.frame_num, <variable>.CurrPOC.frame_num
	movw	r2, #20681	@ tmp376,
	ldr	r0, [r4, r1]	@ <variable>.CurrSlice.nal_ref_idc, <variable>.CurrSlice.nal_ref_idc
	movw	r1, #19852	@ tmp370,
	add	r3, r3, ip	@ temp.2144, prephitmp.2074, <variable>.CurrPOC.frame_num
	ldrb	ip, [r4, r2]	@ zero_extendqisi2	@ <variable>.CurrSlice.field_pic_flag, <variable>.CurrSlice.field_pic_flag
	cmp	r0, #0	@ <variable>.CurrSlice.nal_ref_idc,
	str	r3, [r4, r1]	@ temp.2144, <variable>.CurrPOC.AbsFrameNum
	mov	r3, r3, asl #1	@ tmp373, temp.2144,
	movw	r0, #19840	@ tmp375,
	subeq	r3, r3, #1	@ prephitmp.2146, tmp373,
	cmp	ip, #0	@ <variable>.CurrSlice.field_pic_flag,
	str	r3, [r4, r0]	@ prephitmp.2146, <variable>.CurrPOC.ThisPOC
	bne	.L565	@,
	movw	r2, #19836	@ tmp378,
	movw	r0, #19828	@ tmp380,
	movw	ip, #19832	@ tmp379,
	str	r3, [r4, r2]	@ prephitmp.2146, <variable>.CurrPOC.framepoc
	str	r3, [r4, r0]	@ prephitmp.2146, <variable>.CurrPOC.toppoc
	str	r3, [r4, ip]	@ prephitmp.2146,
.L558:
	movw	r2, #19860	@ tmp388,
	movw	r0, #19864	@ tmp391,
	ldr	r1, [r4, r2]	@ <variable>.CurrPOC.frame_num, <variable>.CurrPOC.frame_num
	movw	ip, #19856	@ tmp387,
	ldr	r2, [r4, r0]	@ <variable>.CurrPOC.FrameNumOffset, <variable>.CurrPOC.FrameNumOffset
	movw	r3, #19868	@ tmp390,
	str	r1, [r4, ip]	@ <variable>.CurrPOC.frame_num, <variable>.CurrPOC.PreviousFrameNum
	str	r2, [r4, r3]	@ <variable>.CurrPOC.FrameNumOffset,
	ldmfd	sp!, {r3, r4, r5, r6, r7, pc}	@
.L523:
	cmp	r1, #0	@ tmp171,
	movwne	r3, #19864	@ tmp251,
	movne	r2, #0	@ tmp252,
	strne	r2, [r4, r3]	@ tmp252, <variable>.CurrPOC.FrameNumOffset
	bne	.L540	@,
	movw	r3, #19820	@ tmp253,
	ldr	r7, [r4, r3]	@ <variable>.CurrPOC.last_has_mmco_5, <variable>.CurrPOC.last_has_mmco_5
	cmp	r7, #0	@ <variable>.CurrPOC.last_has_mmco_5,
	beq	.L541	@,
	movw	ip, #19868	@ tmp255,
	movw	r0, #19856	@ tmp257,
	mov	r3, r1	@ prephitmp.2078, tmp171
	str	r1, [r4, ip]	@ tmp171, <variable>.CurrPOC.PrevFrameNumOffset
	str	r1, [r4, r0]	@ tmp171, <variable>.CurrPOC.PreviousFrameNum
.L542:
	movw	r2, #19864	@ tmp268,
	str	r3, [r4, r2]	@ prephitmp.2078, <variable>.CurrPOC.FrameNumOffset
.L540:
	ldr	ip, [r5, #2924]	@ <variable>.num_ref_frames_in_pic_order_cnt_cycle, <variable>.num_ref_frames_in_pic_order_cnt_cycle
	movw	r0, #20712	@ tmp278,
	ldr	r3, [r4, r0]	@ <variable>.CurrSlice.nal_ref_idc, <variable>.CurrSlice.nal_ref_idc
	cmp	ip, #0	@ <variable>.num_ref_frames_in_pic_order_cnt_cycle,
	movwne	ip, #19860	@ tmp271,
	movweq	r2, #19852	@ tmp276,
	ldrne	r2, [r4, ip]	@ <variable>.CurrPOC.frame_num, <variable>.CurrPOC.frame_num
	movwne	ip, #19864	@ tmp272,
	ldrne	ip, [r4, ip]	@ <variable>.CurrPOC.FrameNumOffset, <variable>.CurrPOC.FrameNumOffset
	streq	ip, [r4, r2]	@ <variable>.num_ref_frames_in_pic_order_cnt_cycle, <variable>.CurrPOC.AbsFrameNum
	addne	r2, r2, ip	@ tmp275, <variable>.CurrPOC.frame_num, <variable>.CurrPOC.FrameNumOffset
	movwne	ip, #19852	@ tmp270,
	strne	r2, [r4, ip]	@ tmp275, <variable>.CurrPOC.AbsFrameNum
	cmp	r3, #0	@ <variable>.CurrSlice.nal_ref_idc,
	beq	.L579	@,
.L546:
	movw	ip, #19884	@ tmp283,
	mov	r3, #0	@ tmp284,
	str	r3, [r4, ip]	@ tmp284, <variable>.CurrPOC.ExpectedDeltaPerPicOrderCntCycle
	ldr	r1, [r5, #2924]	@ temp.2149, <variable>.num_ref_frames_in_pic_order_cnt_cycle
	cmp	r1, r3	@ temp.2149,
	ble	.L547	@,
	add	r0, r5, #2928	@ ivtmp.2108, sps,
	mov	r2, r3	@ i, prephitmp.2075
.L548:
	ldr	r7, [r0], #4	@ tmp285, <variable>.offset_for_ref_frame
	add	r2, r2, #1	@ i, i,
	add	r3, r3, r7	@ prephitmp.2075, prephitmp.2075, tmp285
	str	r3, [r4, ip]	@ prephitmp.2075, <variable>.CurrPOC.ExpectedDeltaPerPicOrderCntCycle
	ldr	r1, [r5, #2924]	@ temp.2149, <variable>.num_ref_frames_in_pic_order_cnt_cycle
	cmp	r1, r2	@ temp.2149, i
	bgt	.L548	@,
.L547:
	movw	r3, #19852	@ tmp287,
	ldr	r7, [r4, r3]	@ temp.2123, <variable>.CurrPOC.AbsFrameNum
	cmp	r7, #0	@ temp.2123,
	movweq	r3, #19880	@ tmp307,
	moveq	r6, r7	@ prephitmp.2127, temp.2123
	streq	r7, [r4, r3]	@ temp.2123, <variable>.CurrPOC.ExpectedPicOrderCnt
	beq	.L550	@,
	sub	r7, r7, #1	@ tmp288, temp.2123,
	mov	r0, r7	@, tmp288
	bl	__aeabi_uidiv	@
	movw	ip, #19876	@ tmp292,
	mov	r6, r0	@ tmp291,
	mov	r0, r7	@, tmp288
	str	r6, [r4, ip]	@ tmp291, <variable>.CurrPOC.PicOrderCntCycleCnt
	ldr	r1, [r5, #2924]	@, <variable>.num_ref_frames_in_pic_order_cnt_cycle
	bl	__aeabi_uidivmod	@
	movw	r2, #19884	@ tmp302,
	ldr	r0, [r4, r2]	@ <variable>.CurrPOC.ExpectedDeltaPerPicOrderCntCycle, <variable>.CurrPOC.ExpectedDeltaPerPicOrderCntCycle
	movw	ip, #19880	@ tmp304,
	movw	r2, #19872	@ tmp301,
	mul	r6, r0, r6	@ prephitmp.2127, <variable>.CurrPOC.ExpectedDeltaPerPicOrderCntCycle, tmp291
	str	r6, [r4, ip]	@ prephitmp.2127, <variable>.CurrPOC.ExpectedPicOrderCnt
	cmp	r1, #0	@ D.41088,
	str	r1, [r4, r2]	@ D.41088, <variable>.CurrPOC.FrameNumInPicOrderCntCycle
	blt	.L550	@,
	add	r2, r5, #2928	@ ivtmp.2103, sps,
	cmp	r1, #1	@ D.41088,
	and	r7, r1, #1	@ tmp399, D.41088,
	mov	r0, #1	@ i.2129,
	ldr	lr, [r2], #4	@ tmp305, <variable>.offset_for_ref_frame
	add	r6, r6, lr	@ prephitmp.2127, prephitmp.2127, tmp305
	str	r6, [r4, ip]	@ prephitmp.2127, <variable>.CurrPOC.ExpectedPicOrderCnt
	blt	.L550	@,
	cmp	r7, #0	@ tmp399,
	beq	.L551	@,
	ldr	lr, [r2], #4	@ tmp411, <variable>.offset_for_ref_frame
	mov	r0, #2	@ i.2129,
	cmp	r1, r0	@ D.41088, i.2129
	add	r6, r6, lr	@ prephitmp.2127, prephitmp.2127, tmp411
	str	r6, [r4, ip]	@ prephitmp.2127, <variable>.CurrPOC.ExpectedPicOrderCnt
	blt	.L550	@,
.L551:
	mov	r3, r2	@ tmp401, ivtmp.2103
	add	r0, r0, #2	@ i.2129, i.2129,
	ldr	r7, [r3], #4	@ tmp404, <variable>.offset_for_ref_frame
	cmp	r1, r0	@ D.41088, i.2129
	add	r6, r6, r7	@ prephitmp.2127, prephitmp.2127, tmp404
	str	r6, [r4, ip]	@ prephitmp.2127, <variable>.CurrPOC.ExpectedPicOrderCnt
	ldr	r7, [r2, #4]	@ tmp409, <variable>.offset_for_ref_frame
	add	r2, r3, #4	@ ivtmp.2103, tmp401,
	add	r6, r6, r7	@ prephitmp.2127, prephitmp.2127, tmp409
	str	r6, [r4, ip]	@ prephitmp.2127, <variable>.CurrPOC.ExpectedPicOrderCnt
	bge	.L551	@,
.L550:
	movw	r3, #20712	@ tmp309,
	movw	r0, #20681	@ tmp314,
	ldr	ip, [r4, r3]	@ <variable>.CurrSlice.nal_ref_idc, <variable>.CurrSlice.nal_ref_idc
	ldrb	r1, [r4, r0]	@ zero_extendqisi2	@ <variable>.CurrSlice.field_pic_flag, <variable>.CurrSlice.field_pic_flag
	cmp	ip, #0	@ <variable>.CurrSlice.nal_ref_idc,
	ldreq	ip, [r5, #2916]	@ <variable>.offset_for_non_ref_pic, <variable>.offset_for_non_ref_pic
	movwne	ip, #19880	@ tmp311,
	ldrne	r6, [r4, ip]	@ prephitmp.2131, <variable>.CurrPOC.ExpectedPicOrderCnt
	addeq	r6, r6, ip	@ prephitmp.2131, prephitmp.2127, <variable>.offset_for_non_ref_pic
	movweq	ip, #19880	@ tmp313,
	streq	r6, [r4, ip]	@ prephitmp.2131, <variable>.CurrPOC.ExpectedPicOrderCnt
	cmp	r1, #0	@ <variable>.CurrSlice.field_pic_flag,
	beq	.L580	@,
	movw	ip, #20682	@ tmp326,
	ldrb	r0, [r4, ip]	@ zero_extendqisi2	@ <variable>.CurrSlice.bottom_field_flag, <variable>.CurrSlice.bottom_field_flag
	cmp	r0, #0	@ <variable>.CurrSlice.bottom_field_flag,
	movwne	r2, #19844	@ tmp332,
	ldrne	r0, [r5, #2920]	@ <variable>.offset_for_top_to_bottom_field, <variable>.offset_for_top_to_bottom_field
	movweq	r0, #19844	@ tmp328,
	ldrne	r2, [r4, r2]	@ <variable>.CurrPOC.delta_pic_order_cnt, <variable>.CurrPOC.delta_pic_order_cnt
	ldreq	r0, [r4, r0]	@ <variable>.CurrPOC.delta_pic_order_cnt, <variable>.CurrPOC.delta_pic_order_cnt
	addne	r0, r2, r0	@ tmp333, <variable>.CurrPOC.delta_pic_order_cnt, <variable>.offset_for_top_to_bottom_field
	movw	r2, #19840	@ tmp337,
	addeq	r6, r6, r0	@ prephitmp.2136, prephitmp.2131, <variable>.CurrPOC.delta_pic_order_cnt
	addne	r6, r0, r6	@ prephitmp.2136, tmp333, prephitmp.2131
	movweq	r0, #19828	@ tmp330,
	movwne	r0, #19832	@ tmp336,
	str	r6, [r4, r0]	@ prephitmp.2136,
	str	r6, [r4, r2]	@ prephitmp.2136, <variable>.CurrPOC.ThisPOC
.L555:
	movw	r2, #19860	@ tmp340,
	movw	r1, #19864	@ tmp343,
	ldr	r0, [r4, r2]	@ <variable>.CurrPOC.frame_num, <variable>.CurrPOC.frame_num
	movw	ip, #19836	@ tmp338,
	ldr	r2, [r4, r1]	@ <variable>.CurrPOC.FrameNumOffset, <variable>.CurrPOC.FrameNumOffset
	movw	r3, #19856	@ tmp339,
	movw	r1, #19868	@ tmp342,
	str	r6, [r4, ip]	@ prephitmp.2136, <variable>.CurrPOC.framepoc
	str	r0, [r4, r3]	@ <variable>.CurrPOC.frame_num, <variable>.CurrPOC.PreviousFrameNum
	str	r2, [r4, r1]	@ <variable>.CurrPOC.FrameNumOffset,
	ldmfd	sp!, {r3, r4, r5, r6, r7, pc}	@
.L580:
	movw	r3, #19844	@ tmp316,
	movw	r1, #19848	@ tmp319,
	ldr	ip, [r4, r3]	@ <variable>.CurrPOC.delta_pic_order_cnt, <variable>.CurrPOC.delta_pic_order_cnt
	movw	r0, #19828	@ tmp318,
	ldr	r2, [r4, r1]	@ <variable>.CurrPOC.delta_pic_order_cnt, <variable>.CurrPOC.delta_pic_order_cnt
	add	r6, r6, ip	@ D.41102, prephitmp.2131, <variable>.CurrPOC.delta_pic_order_cnt
	str	r6, [r4, r0]	@ D.41102, <variable>.CurrPOC.toppoc
	ldr	r1, [r5, #2920]	@ <variable>.offset_for_top_to_bottom_field, <variable>.offset_for_top_to_bottom_field
	movw	ip, #19832	@ tmp323,
	add	r3, r2, r1	@ tmp320, <variable>.CurrPOC.delta_pic_order_cnt, <variable>.offset_for_top_to_bottom_field
	movw	r1, #19836	@ tmp324,
	add	r0, r3, r6	@ D.41106, tmp320, D.41102
	movw	r2, #19840	@ tmp325,
	cmp	r0, r6	@ D.41106, D.41102
	movlt	r6, r0	@ prephitmp.2136, D.41106
	movge	r6, r6	@ prephitmp.2136, D.41102
	str	r0, [r4, ip]	@ D.41106, <variable>.CurrPOC.bottompoc
	str	r6, [r4, r1]	@ prephitmp.2136,
	str	r6, [r4, r2]	@ prephitmp.2136, <variable>.CurrPOC.ThisPOC
	b	.L555	@
.L579:
	movw	r1, #19852	@ tmp280,
	ldr	r2, [r4, r1]	@ D.41073, <variable>.CurrPOC.AbsFrameNum
	cmp	r2, #0	@ D.41073,
	subne	r2, r2, #1	@ tmp282, D.41073,
	strne	r2, [r4, r1]	@ tmp282, <variable>.CurrPOC.AbsFrameNum
	b	.L546	@
.L578:
	movw	r0, #19840	@ tmp353,
	mov	r3, #0	@ tmp346,
	movw	r2, #19864	@ tmp345,
	str	r3, [r4, r0]	@ tmp346, <variable>.CurrPOC.ThisPOC
	movw	r1, #19832	@ tmp347,
	movw	ip, #19828	@ tmp349,
	movw	r0, #19836	@ tmp351,
	str	r3, [r4, r2]	@ tmp346, <variable>.CurrPOC.FrameNumOffset
	str	r3, [r4, r1]	@ tmp346, <variable>.CurrPOC.bottompoc
	str	r3, [r4, ip]	@ tmp346,
	str	r3, [r4, r0]	@ tmp346,
	b	.L558	@
.L576:
	movw	r0, #19808	@ tmp192,
	movw	r1, #19804	@ tmp190,
	mov	r3, #0	@ tmp191,
	str	r3, [r4, r0]	@ tmp191, <variable>.CurrPOC.PrevPicOrderCntLsb
	str	r3, [r4, r1]	@ tmp191, <variable>.CurrPOC.PrevPicOrderCntMsb
.L526:
	movw	ip, #19796	@ tmp393,
	movw	r1, #19804	@ tmp394,
	mov	r3, #0	@ prephitmp.2154,
	ldr	r0, [r4, ip]	@ D.41012, <variable>.CurrPOC.pic_order_cnt_lsb
	ldr	ip, [r4, r1]	@ prephitmp.2086, <variable>.CurrPOC.PrevPicOrderCntMsb
	mov	r1, r3	@ prephitmp.2084, prephitmp.2154
	b	.L532	@
.L535:
	movw	r1, #20682	@ tmp228,
	movw	r0, #19796	@ tmp230,
	ldrb	r2, [r4, r1]	@ zero_extendqisi2	@ <variable>.CurrSlice.bottom_field_flag, <variable>.CurrSlice.bottom_field_flag
	movw	r1, #19840	@ tmp237,
	ldr	ip, [r4, r0]	@ <variable>.CurrPOC.pic_order_cnt_lsb, <variable>.CurrPOC.pic_order_cnt_lsb
	cmp	r2, #0	@ <variable>.CurrSlice.bottom_field_flag,
	add	r3, r3, ip	@ prephitmp.2079, prephitmp.2154, <variable>.CurrPOC.pic_order_cnt_lsb
	movweq	ip, #19828	@ tmp232,
	movwne	ip, #19832	@ tmp236,
	str	r3, [r4, ip]	@ prephitmp.2079,
	str	r3, [r4, r1]	@ prephitmp.2079, <variable>.CurrPOC.ThisPOC
	b	.L536	@
.L527:
	movw	r0, #19824	@ tmp198,
	ldr	r3, [r4, r0]	@ <variable>.CurrPOC.last_pic_bottom_field, <variable>.CurrPOC.last_pic_bottom_field
	cmp	r3, #0	@ <variable>.CurrPOC.last_pic_bottom_field,
	beq	.L529	@,
	movw	r3, #19808	@ tmp202,
	movw	ip, #19804	@ tmp200,
	str	r1, [r4, r3]	@ tmp171, <variable>.CurrPOC.PrevPicOrderCntLsb
	str	r1, [r4, ip]	@ tmp171, <variable>.CurrPOC.PrevPicOrderCntMsb
	b	.L526	@
.L559:
	movw	r3, #19856	@ tmp362,
	movw	r0, #19868	@ tmp364,
	str	r1, [r4, r3]	@ tmp171, <variable>.CurrPOC.PreviousFrameNum
	mov	r3, r1	@ prephitmp.2074, tmp171
	str	r1, [r4, r0]	@ tmp171, <variable>.CurrPOC.PrevFrameNumOffset
.L561:
	movw	r1, #19864	@ tmp367,
	str	r3, [r4, r1]	@ prephitmp.2074, <variable>.CurrPOC.FrameNumOffset
	b	.L562	@
.L565:
	movw	r0, #20682	@ tmp381,
	movw	r1, #19836	@ tmp385,
	ldrb	ip, [r4, r0]	@ zero_extendqisi2	@ <variable>.CurrSlice.bottom_field_flag, <variable>.CurrSlice.bottom_field_flag
	cmp	ip, #0	@ <variable>.CurrSlice.bottom_field_flag,
	movweq	ip, #19828	@ tmp384,
	movwne	ip, #19832	@ tmp386,
	str	r3, [r4, ip]	@ prephitmp.2146,
	str	r3, [r4, r1]	@ prephitmp.2146,
	b	.L558	@
.L541:
	movw	r3, #19860	@ tmp259,
	movw	r7, #19856	@ tmp260,
	ldr	r2, [r4, r3]	@ <variable>.CurrPOC.frame_num, <variable>.CurrPOC.frame_num
	ldr	r1, [r4, r7]	@ <variable>.CurrPOC.PreviousFrameNum, <variable>.CurrPOC.PreviousFrameNum
	cmp	r2, r1	@ <variable>.CurrPOC.frame_num, <variable>.CurrPOC.PreviousFrameNum
	bcs	.L543	@,
	movw	r7, #19868	@ tmp264,
	movw	ip, #19864	@ tmp263,
	ldr	r1, [r4, r7]	@ <variable>.CurrPOC.PrevFrameNumOffset, <variable>.CurrPOC.PrevFrameNumOffset
	add	r0, r0, r1	@ tmp266, MaxFrameNum, <variable>.CurrPOC.PrevFrameNumOffset
	str	r0, [r4, ip]	@ tmp266, <variable>.CurrPOC.FrameNumOffset
	b	.L540	@
.L577:
	rsb	r3, r2, r3	@ D.41028, MaxPicOrderCntLsb, prephitmp.2154
	movw	r2, #19812	@ tmp216,
	str	r3, [r4, r2]	@ D.41028, <variable>.CurrPOC.PicOrderCntMsb
	b	.L533	@
.L529:
	movw	r1, #19828	@ tmp206,
	movw	r0, #19804	@ tmp204,
	ldr	r1, [r4, r1]	@ prephitmp.2084, <variable>.CurrPOC.toppoc
	mov	r5, r3	@ prephitmp.2088, <variable>.CurrPOC.last_pic_bottom_field
	str	r3, [r4, r0]	@ <variable>.CurrPOC.last_pic_bottom_field, <variable>.CurrPOC.PrevPicOrderCntMsb
	movw	r0, #19808	@ tmp207,
	mov	ip, r3	@ prephitmp.2086, prephitmp.2088
	str	r1, [r4, r0]	@ prephitmp.2084, <variable>.CurrPOC.PrevPicOrderCntLsb
	b	.L528	@
.L543:
	movw	r2, #19868	@ tmp267,
	ldr	r3, [r4, r2]	@ prephitmp.2078, <variable>.CurrPOC.PrevFrameNumOffset
	b	.L542	@
	.fnend
	.size	DecPOC, .-DecPOC
	.align	2
	.global	CalcPicNum
	.type	CalcPicNum, %function
CalcPicNum:
	.fnstart
.LFB1997:
	@ args = 0, pretend = 0, frame = 0
	@ frame_needed = 0, uses_anonymous_args = 0
	@ link register save eliminated.
	movw	r3, #20692	@ tmp158,
	movw	r2, #13584	@ tmp160,
	stmfd	sp!, {r4, r5, r6, r7, r8, sl}	@,
	.save {r4, r5, r6, r7, r8, sl}
	ldr	r6, [r0, r2]	@ <variable>.PPS, <variable>.PPS
	ldr	r4, [r0, r3]	@ <variable>.CurrSlice.pic_parameter_set_id, <variable>.CurrSlice.pic_parameter_set_id
	mov	ip, #2208	@ tmp162,
	movw	r1, #13580	@ tmp166,
	movw	r2, #49707	@ tmp173,
	ldr	r1, [r0, r1]	@ <variable>.SPS, <variable>.SPS
	mla	r3, ip, r4, r6	@ tmp163, tmp162, <variable>.CurrSlice.pic_parameter_set_id, <variable>.PPS
	mov	ip, #4000	@ tmp168,
	ldrb	r2, [r0, r2]	@ zero_extendqisi2	@ D.41166, <variable>.CurrPic.structure
	cmp	r2, #0	@ D.41166,
	ldr	r6, [r3, #28]	@ <variable>.seq_parameter_set_id, <variable>.seq_parameter_set_id
	mov	r3, #1	@ tmp172,
	mla	r4, ip, r6, r1	@ tmp169, tmp168, <variable>.seq_parameter_set_id, <variable>.SPS
	ldr	r1, [r4, #2904]	@ <variable>.log2_max_frame_num_minus4, <variable>.log2_max_frame_num_minus4
	add	r6, r1, #4	@ tmp170, <variable>.log2_max_frame_num_minus4,
	mov	r6, r3, asl r6	@ MaxFrameNum, tmp172,
	beq	.L582	@,
	movw	r7, #26632	@ tmp176,
	cmp	r2, #2	@ D.41166,
	movne	r4, #0	@, add_bottom
	moveq	r4, #1	@, add_bottom
	ldr	ip, [r0, r7]	@ <variable>.DPB.ref_frames_in_buffer, <variable>.DPB.ref_frames_in_buffer
	cmp	r2, #1	@ D.41166,
	movne	r5, #0	@, add_top
	moveq	r5, #1	@, add_top
	cmp	ip, #0	@ <variable>.DPB.ref_frames_in_buffer,
	beq	.L584	@,
	add	r8, r0, #26368	@ ivtmp.2222, pH264Ctx,
	mov	r2, #0	@ i,
	add	r3, r8, #128	@ ivtmp.2222, ivtmp.2222,
	movw	r8, #50120	@ tmp245,
.L597:
	ldr	r1, [r3, #0]	@ temp.2230, <variable>.DPB.fs_ref
	ldrb	ip, [r1, #2]	@ zero_extendqisi2	@ <variable>.is_reference, <variable>.is_reference
	cmp	ip, #0	@ <variable>.is_reference,
	beq	.L593	@,
	ldr	ip, [r1, #512]	@ temp.2232, <variable>.frame_num
	ldr	sl, [r0, r8]	@ <variable>.CurrPic.frame_num, <variable>.CurrPic.frame_num
	cmp	ip, sl	@ temp.2232, <variable>.CurrPic.frame_num
	rsbhi	ip, r6, ip	@ tmp205, MaxFrameNum, temp.2232
	str	ip, [r1, #516]	@ temp.2232, <variable>.frame_num_wrap
	ldr	r1, [r3, #0]	@ prephitmp.2190, <variable>.DPB.fs_ref
	ldrb	ip, [r1, #2]	@ zero_extendqisi2	@ prephitmp.2194, <variable>.is_reference
	tst	ip, #1	@ prephitmp.2194,
	beq	.L596	@,
	ldr	sl, [r1, #436]	@ tmp209,
	bic	sl, sl, #-16777216	@ tmp207, tmp209,
	bic	sl, sl, #255	@ tmp207, tmp207,
	cmp	sl, #65536	@ tmp207,
	ldreq	ip, [r1, #516]	@ <variable>.frame_num_wrap, <variable>.frame_num_wrap
	addeq	ip, r5, ip, asl #1	@, tmp212, add_top, <variable>.frame_num_wrap,
	streq	ip, [r1, #448]	@ tmp212, <variable>.top_field.pic_num
	ldreq	r1, [r3, #0]	@ prephitmp.2190, <variable>.DPB.fs_ref
	ldreqb	ip, [r1, #2]	@ zero_extendqisi2	@ prephitmp.2194, <variable>.is_reference
.L596:
	tst	ip, #2	@ prephitmp.2194,
	beq	.L593	@,
	ldr	ip, [r1, #472]	@ tmp216,
	bic	ip, ip, #-16777216	@ tmp214, tmp216,
	bic	ip, ip, #255	@ tmp214, tmp214,
	cmp	ip, #65536	@ tmp214,
	ldreq	ip, [r1, #516]	@ <variable>.frame_num_wrap, <variable>.frame_num_wrap
	addeq	ip, r4, ip, asl #1	@, tmp219, add_bottom, <variable>.frame_num_wrap,
	streq	ip, [r1, #484]	@ tmp219, <variable>.bottom_field.pic_num
.L593:
	ldr	r1, [r0, r7]	@ <variable>.DPB.ref_frames_in_buffer, <variable>.DPB.ref_frames_in_buffer
	add	r2, r2, #1	@ i, i,
	add	r3, r3, #4	@ ivtmp.2222, ivtmp.2222,
	cmp	r1, r2	@ <variable>.DPB.ref_frames_in_buffer, i
	bhi	.L597	@,
.L584:
	movw	r6, #26636	@ tmp222,
	ldr	r2, [r0, r6]	@ <variable>.DPB.ltref_frames_in_buffer, <variable>.DPB.ltref_frames_in_buffer
	cmp	r2, #0	@ <variable>.DPB.ltref_frames_in_buffer,
	beq	.L601	@,
	add	r3, r0, #26368	@ ivtmp.2217, pH264Ctx,
	mov	r2, #0	@ i.2234,
	add	r3, r3, #192	@ ivtmp.2217, ivtmp.2217,
.L600:
	ldr	ip, [r3, #0]	@ prephitmp.2183, <variable>.DPB.fs_ltref
	add	r2, r2, #1	@ i.2234, i.2234,
	ldrb	r1, [ip, #2]	@ zero_extendqisi2	@ temp.2244, <variable>.is_reference
	cmp	r1, #0	@ temp.2244,
	beq	.L598	@,
	tst	r1, #1	@ prephitmp.2187,
	beq	.L599	@,
	ldr	r7, [ip, #436]	@ tmp228,
	bic	r7, r7, #-16777216	@ tmp226, tmp228,
	bic	r7, r7, #255	@ tmp226, tmp226,
	cmp	r7, #256	@ tmp226,
	ldreq	r1, [ip, #520]	@ <variable>.long_term_frame_idx, <variable>.long_term_frame_idx
	addeq	r1, r5, r1, asl #1	@, tmp231, add_top, <variable>.long_term_frame_idx,
	streq	r1, [ip, #444]	@ tmp231, <variable>.top_field.long_term_pic_num
	ldreq	ip, [r3, #0]	@ prephitmp.2183, <variable>.DPB.fs_ltref
	ldreqb	r1, [ip, #2]	@ zero_extendqisi2	@ prephitmp.2187, <variable>.is_reference
.L599:
	tst	r1, #2	@ prephitmp.2187,
	beq	.L598	@,
	ldr	r1, [ip, #472]	@ tmp235,
	bic	r1, r1, #-16777216	@ tmp233, tmp235,
	bic	r1, r1, #255	@ tmp233, tmp233,
	cmp	r1, #256	@ tmp233,
	ldreq	r1, [ip, #520]	@ <variable>.long_term_frame_idx, <variable>.long_term_frame_idx
	addeq	r1, r4, r1, asl #1	@, tmp238, add_bottom, <variable>.long_term_frame_idx,
	streq	r1, [ip, #480]	@ tmp238, <variable>.bottom_field.long_term_pic_num
.L598:
	ldr	ip, [r0, r6]	@ <variable>.DPB.ltref_frames_in_buffer, <variable>.DPB.ltref_frames_in_buffer
	add	r3, r3, #4	@ ivtmp.2217, ivtmp.2217,
	cmp	ip, r2	@ <variable>.DPB.ltref_frames_in_buffer, i.2234
	bhi	.L600	@,
.L601:
	ldmfd	sp!, {r4, r5, r6, r7, r8, sl}
	bx	lr
.L582:
	movw	r4, #26632	@ tmp178,
	ldr	r1, [r0, r4]	@ <variable>.DPB.ref_frames_in_buffer, <variable>.DPB.ref_frames_in_buffer
	cmp	r1, #0	@ <variable>.DPB.ref_frames_in_buffer,
	beq	.L585	@,
	add	r5, r0, #26368	@ ivtmp.2212, pH264Ctx,
	add	r3, r5, #128	@ ivtmp.2212, ivtmp.2212,
	movw	r5, #50120	@ tmp242,
	b	.L589	@
.L586:
	ldr	r1, [r0, r4]	@ <variable>.DPB.ref_frames_in_buffer, <variable>.DPB.ref_frames_in_buffer
	add	r2, r2, #1	@ i.2227, i.2227,
	add	r3, r3, #4	@ ivtmp.2212, ivtmp.2212,
	cmp	r1, r2	@ <variable>.DPB.ref_frames_in_buffer, i.2227
	bls	.L585	@,
.L589:
	ldr	r1, [r3, #0]	@ D.41170, <variable>.DPB.fs_ref
	ldrb	ip, [r1, #2]	@ zero_extendqisi2	@ <variable>.is_reference, <variable>.is_reference
	cmp	ip, #3	@ <variable>.is_reference,
	bne	.L586	@,
	ldr	ip, [r1, #400]	@ tmp184,
	bic	ip, ip, #-16777216	@ tmp182, tmp184,
	bic	ip, ip, #255	@ tmp182, tmp182,
	cmp	ip, #65536	@ tmp182,
	bne	.L586	@,
	ldr	ip, [r1, #512]	@ D.41178, <variable>.frame_num
	add	r2, r2, #1	@ i.2227, i.2227,
	ldr	r7, [r0, r5]	@ <variable>.CurrPic.frame_num, <variable>.CurrPic.frame_num
	cmp	ip, r7	@ D.41178, <variable>.CurrPic.frame_num
	rsb	r7, r6, ip	@ tmp187, MaxFrameNum, D.41178
	strls	ip, [r1, #516]	@ D.41178, <variable>.frame_num_wrap
	strhi	r7, [r1, #516]	@ tmp187, <variable>.frame_num_wrap
	ldr	r1, [r3, #0]	@ temp.2226, <variable>.DPB.fs_ref
	add	r3, r3, #4	@ ivtmp.2212, ivtmp.2212,
	ldr	ip, [r1, #516]	@ <variable>.frame_num_wrap, <variable>.frame_num_wrap
	str	ip, [r1, #412]	@ <variable>.frame_num_wrap, <variable>.frame.pic_num
	ldr	r1, [r0, r4]	@ <variable>.DPB.ref_frames_in_buffer, <variable>.DPB.ref_frames_in_buffer
	cmp	r1, r2	@ <variable>.DPB.ref_frames_in_buffer, i.2227
	bhi	.L589	@,
.L585:
	movw	r4, #26636	@ tmp191,
	ldr	r2, [r0, r4]	@ <variable>.DPB.ltref_frames_in_buffer, <variable>.DPB.ltref_frames_in_buffer
	cmp	r2, #0	@ <variable>.DPB.ltref_frames_in_buffer,
	beq	.L601	@,
	add	r3, r0, #26368	@ ivtmp.2207, pH264Ctx,
	mov	r2, #0	@ i.2228,
	add	r3, r3, #192	@ ivtmp.2207, ivtmp.2207,
	b	.L592	@
.L591:
	ldr	r1, [r0, r4]	@ <variable>.DPB.ltref_frames_in_buffer, <variable>.DPB.ltref_frames_in_buffer
	cmp	r1, r2	@ <variable>.DPB.ltref_frames_in_buffer, i.2228
	bls	.L601	@,
.L592:
	ldr	r1, [r3, #0]	@ D.41188, <variable>.DPB.fs_ltref
	add	r2, r2, #1	@ i.2228, i.2228,
	add	r3, r3, #4	@ ivtmp.2207, ivtmp.2207,
	ldrb	ip, [r1, #2]	@ zero_extendqisi2	@ <variable>.is_reference, <variable>.is_reference
	cmp	ip, #3	@ <variable>.is_reference,
	bne	.L591	@,
	ldr	ip, [r1, #400]	@ tmp197,
	bic	ip, ip, #-16777216	@ tmp195, tmp197,
	bic	ip, ip, #255	@ tmp195, tmp195,
	cmp	ip, #256	@ tmp195,
	ldreq	ip, [r1, #520]	@ <variable>.long_term_frame_idx, <variable>.long_term_frame_idx
	streq	ip, [r1, #408]	@ <variable>.long_term_frame_idx, <variable>.frame.long_term_pic_num
	b	.L591	@
	.fnend
	.size	CalcPicNum, .-CalcPicNum
	.align	2
	.global	IsOutDPB
	.type	IsOutDPB, %function
IsOutDPB:
	.fnstart
.LFB1998:
	@ args = 0, pretend = 0, frame = 0
	@ frame_needed = 0, uses_anonymous_args = 0
	@ link register save eliminated.
	cmp	r1, #0	@ pFrameStore
	str	r4, [sp, #-4]!	@,
	.save {r4}
	beq	.L607	@,
	movw	r3, #26628	@ tmp141,
	ldr	r4, [r0, r3]	@ D.41264, <variable>.DPB.used_size
	cmp	r4, #0	@ D.41264,
	beq	.L607	@,
	movw	ip, #26432	@ tmp142,
	ldr	r2, [r0, ip]	@ <variable>.DPB.fs, <variable>.DPB.fs
	cmp	r2, r1	@ <variable>.DPB.fs, pFrameStore
	beq	.L608	@,
	tst	r4, #1	@ D.41264,
	add	r3, r0, #26368	@ tmp144, pH264Ctx,
	add	r2, r3, #68	@ ivtmp.2276, tmp144,
	mov	r0, #0	@ i,
	bne	.L609	@,
	ldr	ip, [r2, #0]	@ D.41261, <variable>.DPB.fs
	mov	r0, #1	@ i,
	add	r2, r3, #72	@ ivtmp.2276, tmp144,
	cmp	ip, r1	@ D.41261, pFrameStore
	bne	.L609	@,
.L608:
	mov	r0, #0	@ D.41259,
	b	.L611	@
.L610:
	ldr	ip, [r3], #4	@ D.41261, <variable>.DPB.fs
	cmp	ip, r1	@ D.41261, pFrameStore
	beq	.L608	@,
	ldr	ip, [r2, #4]	@ D.41261, <variable>.DPB.fs
	add	r2, r3, #4	@ ivtmp.2276, tmp150,
	cmp	ip, r1	@ D.41261, pFrameStore
	beq	.L608	@,
.L609:
	add	r0, r0, #1	@ tmp149, i,
	mov	r3, r2	@ tmp150, ivtmp.2276
	cmp	r0, r4	@ tmp149, D.41264
	add	r0, r0, #1	@ i, tmp149,
	bcc	.L610	@,
.L607:
	mov	r0, #1	@ D.41259,
.L611:
	ldmfd	sp!, {r4}
	bx	lr
	.fnend
	.size	IsOutDPB, .-IsOutDPB
	.align	2
	.global	UpdatePicQpInf
	.type	UpdatePicQpInf, %function
UpdatePicQpInf:
	.fnstart
.LFB2003:
	@ args = 0, pretend = 0, frame = 0
	@ frame_needed = 0, uses_anonymous_args = 0
	@ link register save eliminated.
	ldr	r2, [r1, #28]	@ <variable>.MaxQp, <variable>.MaxQp
	ldr	r3, [r1, #32]	@ <variable>.MinQp, <variable>.MinQp
	cmp	r2, r0	@ <variable>.MaxQp, SlcQp
	strge	r2, [r1, #28]	@, <variable>.MaxQp, <variable>.MaxQp
	strlt	r0, [r1, #28]	@, SlcQp, <variable>.MaxQp
	cmp	r3, r0	@ <variable>.MinQp, SlcQp
	strle	r3, [r1, #32]	@, <variable>.MinQp, <variable>.MinQp
	strgt	r0, [r1, #32]	@, SlcQp, <variable>.MinQp
	bx	lr	@
	.fnend
	.size	UpdatePicQpInf, .-UpdatePicQpInf
	.align	2
	.global	H264_GetPicStreamSize
	.type	H264_GetPicStreamSize, %function
H264_GetPicStreamSize:
	.fnstart
.LFB2006:
	@ args = 0, pretend = 0, frame = 0
	@ frame_needed = 0, uses_anonymous_args = 0
	@ link register save eliminated.
	movw	r3, #52492	@ tmp138,
	ldr	r3, [r0, r3]	@ pH264SliceParam, <variable>.DecPicPara.pFirstSlice
	cmp	r3, #0	@ pH264SliceParam,
	moveq	r0, r3	@ TotalSize, pH264SliceParam
	bxeq	lr	@
	mov	r0, #0	@ TotalSize,
.L623:
	ldr	r2, [r3, #12]	@ <variable>.valid_bitlen, <variable>.valid_bitlen
	ldr	r1, [r3, #8]	@ <variable>.valid_bitlen, <variable>.valid_bitlen
	ldr	r3, [r3, #4056]	@ pH264SliceParam, <variable>.pNextSlice
	add	ip, r1, r2	@ tmp139, <variable>.valid_bitlen, <variable>.valid_bitlen
	add	r2, ip, #7	@ tmp142, tmp139,
	cmp	r3, #0	@ pH264SliceParam,
	add	r0, r0, r2, lsr #3	@, TotalSize, TotalSize, tmp142,
	bne	.L623	@,
	bx	lr	@
	.fnend
	.size	H264_GetPicStreamSize, .-H264_GetPicStreamSize
	.align	2
	.global	ExitSlice
	.type	ExitSlice, %function
ExitSlice:
	.fnstart
.LFB2017:
	@ args = 0, pretend = 0, frame = 0
	@ frame_needed = 0, uses_anonymous_args = 0
	@ link register save eliminated.
	stmfd	sp!, {r4, r5, r6}	@,
	.save {r4, r5, r6}
	movw	ip, #13584	@ tmp140,
	movw	r4, #20692	@ tmp137,
	ldr	r3, [r0, ip]	@ <variable>.PPS, <variable>.PPS
	ldr	r1, [r0, r4]	@ D.42999, <variable>.CurrSlice.pic_parameter_set_id
	movw	r6, #13580	@ tmp138,
	mov	r2, #2208	@ tmp142,
	ldr	ip, [r0, r6]	@ <variable>.SPS, <variable>.SPS
	movw	r5, #20681	@ tmp158,
	movw	r4, #20732	@ tmp152,
	mla	r6, r2, r1, r3	@ tmp143, tmp142, D.42999, <variable>.PPS
	ldrb	r3, [r0, r5]	@ zero_extendqisi2	@ <variable>.CurrSlice.field_pic_flag, <variable>.CurrSlice.field_pic_flag
	ldr	r5, [r0, r4]	@ <variable>.CurrSlice.first_mb_in_slice, <variable>.CurrSlice.first_mb_in_slice
	movw	r4, #20700	@ tmp155,
	ldr	r4, [r0, r4]	@ <variable>.CurrSlice.frame_num, <variable>.CurrSlice.frame_num
	cmp	r3, #0	@ <variable>.CurrSlice.field_pic_flag,
	ldr	r2, [r6, #28]	@ <variable>.seq_parameter_set_id, <variable>.seq_parameter_set_id
	movw	r6, #22336	@ tmp148,
	str	r1, [r0, r6]	@ D.42999, <variable>.PrevSlice.pic_parameter_set_id
	mov	r1, #4000	@ tmp146,
	mla	r2, r1, r2, ip	@ sps, tmp146, <variable>.seq_parameter_set_id, <variable>.SPS
	movw	r1, #22368	@ tmp151,
	ldr	ip, [r2, #744]	@ <variable>.seq_parameter_set_id, <variable>.seq_parameter_set_id
	str	r5, [r0, r1]	@ <variable>.CurrSlice.first_mb_in_slice, <variable>.PrevSlice.first_mb_in_slice
	movw	r1, #22344	@ tmp154,
	str	r4, [r0, r1]	@ <variable>.CurrSlice.frame_num, <variable>.PrevSlice.frame_num
	movw	r1, #22332	@ tmp149,
	str	ip, [r0, r1]	@ <variable>.seq_parameter_set_id, <variable>.PrevSlice.seq_parameter_set_id
	movw	ip, #22328	@ tmp157,
	strb	r3, [r0, ip]	@ <variable>.CurrSlice.field_pic_flag, <variable>.PrevSlice.field_pic_flag
	movwne	r3, #20682	@ tmp164,
	ldrneb	ip, [r0, r3]	@ zero_extendqisi2	@ <variable>.CurrSlice.bottom_field_flag, <variable>.CurrSlice.bottom_field_flag
	movwne	r3, #22329	@ tmp163,
	movw	r1, #20712	@ tmp168,
	ldr	r1, [r0, r1]	@ <variable>.CurrSlice.nal_ref_idc, <variable>.CurrSlice.nal_ref_idc
	strneb	ip, [r0, r3]	@ <variable>.CurrSlice.bottom_field_flag, <variable>.PrevSlice.bottom_field_flag
	movw	r3, #20683	@ tmp171,
	ldrb	r3, [r0, r3]	@ zero_extendqisi2	@ <variable>.CurrSlice.nal_unit_type, <variable>.CurrSlice.nal_unit_type
	movw	ip, #22330	@ tmp170,
	cmp	r3, #5	@ <variable>.CurrSlice.nal_unit_type,
	strb	r3, [r0, ip]	@ <variable>.CurrSlice.nal_unit_type, <variable>.PrevSlice.nal_unit_type
	movw	r3, #22340	@ tmp167,
	str	r1, [r0, r3]	@ <variable>.CurrSlice.nal_ref_idc, <variable>.PrevSlice.nal_ref_idc
	movweq	r3, #20720	@ tmp177,
	ldreq	r1, [r0, r3]	@ <variable>.CurrSlice.idr_pic_id, <variable>.CurrSlice.idr_pic_id
	movweq	r3, #22348	@ tmp176,
	streq	r1, [r0, r3]	@ <variable>.CurrSlice.idr_pic_id, <variable>.PrevSlice.idr_pic_id
	ldr	r3, [r2, #2908]	@ prephitmp.2344, <variable>.pic_order_cnt_type
	cmp	r3, #0	@ prephitmp.2344,
	bne	.L629	@,
	movw	r1, #19796	@ tmp180,
	movw	r3, #19800	@ tmp183,
	ldr	ip, [r0, r1]	@ <variable>.CurrPOC.pic_order_cnt_lsb, <variable>.CurrPOC.pic_order_cnt_lsb
	ldr	r1, [r0, r3]	@ <variable>.CurrPOC.delta_pic_order_cnt_bottom, <variable>.CurrPOC.delta_pic_order_cnt_bottom
	movw	r3, #22352	@ tmp179,
	str	ip, [r0, r3]	@ <variable>.CurrPOC.pic_order_cnt_lsb, <variable>.PrevSlice.pic_oder_cnt_lsb
	movw	r3, #22356	@ tmp182,
	str	r1, [r0, r3]	@ <variable>.CurrPOC.delta_pic_order_cnt_bottom, <variable>.PrevSlice.delta_pic_oder_cnt_bottom
	ldr	r3, [r2, #2908]	@ prephitmp.2344, <variable>.pic_order_cnt_type
.L629:
	cmp	r3, #1	@ prephitmp.2344,
	bne	.L630	@,
	movw	r2, #19844	@ tmp186,
	movw	ip, #19848	@ tmp189,
	ldr	r1, [r0, r2]	@ <variable>.CurrPOC.delta_pic_order_cnt, <variable>.CurrPOC.delta_pic_order_cnt
	movw	r3, #22360	@ tmp185,
	ldr	r2, [r0, ip]	@ <variable>.CurrPOC.delta_pic_order_cnt, <variable>.CurrPOC.delta_pic_order_cnt
	movw	ip, #22364	@ tmp188,
	str	r1, [r0, r3]	@ <variable>.CurrPOC.delta_pic_order_cnt, <variable>.PrevSlice.delta_pic_order_cnt
	str	r2, [r0, ip]	@ <variable>.CurrPOC.delta_pic_order_cnt, <variable>.PrevSlice.delta_pic_order_cnt
.L630:
	movw	r3, #52796	@ tmp191,
	ldr	ip, [r0, r3]	@ <variable>.TotalSlice, <variable>.TotalSlice
	add	r1, ip, #1	@ tmp194, <variable>.TotalSlice,
	str	r1, [r0, r3]	@ tmp194, <variable>.TotalSlice
	ldmfd	sp!, {r4, r5, r6}
	bx	lr
	.fnend
	.size	ExitSlice, .-ExitSlice
	.align	2
	.global	PicTypeStatistic
	.type	PicTypeStatistic, %function
PicTypeStatistic:
	.fnstart
.LFB2018:
	@ args = 0, pretend = 0, frame = 0
	@ frame_needed = 0, uses_anonymous_args = 0
	@ link register save eliminated.
	movw	r3, #20680	@ tmp134,
	ldrb	r3, [r0, r3]	@ zero_extendqisi2	@ <variable>.CurrSlice.slice_type, <variable>.CurrSlice.slice_type
	cmp	r3, #1	@ <variable>.CurrSlice.slice_type,
	beq	.L635	@,
	bcs	.L640	@,
	movw	r1, #50148	@ tmp140,
	ldr	r2, [r0, r1]	@ <variable>.CurrPic.pic_type, <variable>.CurrPic.pic_type
	cmp	r2, #2	@ <variable>.CurrPic.pic_type,
	movne	r2, #1	@ tmp143,
	strne	r2, [r0, r1]	@ tmp143, <variable>.CurrPic.pic_type
	movw	r1, #50152	@ tmp150,
	mov	r2, #0	@ tmp151,
	str	r2, [r0, r1]	@ tmp151, <variable>.CurrPic.is_idr_pic
	bx	lr	@
.L640:
	cmp	r3, #2	@ <variable>.CurrSlice.slice_type,
	bxne	lr	@
	movw	r3, #20683	@ tmp146,
	ldrb	ip, [r0, r3]	@ zero_extendqisi2	@ <variable>.CurrSlice.nal_unit_type, <variable>.CurrSlice.nal_unit_type
	cmp	ip, #5	@ <variable>.CurrSlice.nal_unit_type,
	movweq	ip, #50152	@ tmp148,
	moveq	r2, #1	@ tmp149,
	streq	r2, [r0, ip]	@ tmp149, <variable>.CurrPic.is_idr_pic
	movwne	r1, #50152	@ tmp150,
	movne	r2, #0	@ tmp151,
	strne	r2, [r0, r1]	@ tmp151, <variable>.CurrPic.is_idr_pic
	bx	lr	@
.L635:
	movw	r3, #50148	@ tmp136,
	movw	r1, #50152	@ tmp138,
	mov	ip, #2	@ tmp137,
	mov	r2, #0	@ tmp139,
	str	ip, [r0, r3]	@ tmp137, <variable>.CurrPic.pic_type
	str	r2, [r0, r1]	@ tmp139, <variable>.CurrPic.is_idr_pic
	bx	lr	@
	.fnend
	.size	PicTypeStatistic, .-PicTypeStatistic
	.align	2
	.global	PassBytes
	.type	PassBytes, %function
PassBytes:
	.fnstart
.LFB2030:
	@ args = 0, pretend = 0, frame = 0
	@ frame_needed = 0, uses_anonymous_args = 0
	@ link register save eliminated.
	stmfd	sp!, {r4, r5, r6}	@,
	.save {r4, r5, r6}
	ldr	r3, [r0, #368]	@ D.44396, <variable>.pCurrNal
	cmp	r3, #0	@ D.44396,
	cmpne	r1, #0	@, len,
	bne	.L648	@,
.L642:
	mvn	r0, #0	@ D.44402,
.L644:
	ldmfd	sp!, {r4, r5, r6}
	bx	lr
.L648:
	ldrb	r2, [r3, #0]	@ zero_extendqisi2	@ D.44403, <variable>.nal_used_segment
	rsb	ip, r2, r2, asl #3	@, tmp155, D.44403, D.44403,
	add	ip, r3, ip, asl #2	@, tmp157, D.44396, tmp155,
	ldr	ip, [ip, #8]	@ <variable>.streamBuffer, <variable>.streamBuffer
	cmp	ip, #0	@ <variable>.streamBuffer,
	beq	.L642	@,
	ldr	ip, [r3, #68]	@ D.44410, <variable>.nal_segment
	cmp	ip, #2	@ D.44410,
	bhi	.L642	@,
	cmp	r2, #1	@ D.44403,
	bhi	.L642	@,
	cmp	ip, r2	@ D.44410, segment_idx
	bls	.L642	@,
	mov	r4, r1, asl #3	@ len.2411, len,
	mov	r6, #28	@ tmp188,
.L646:
	mla	r3, r6, r2, r3	@ tmp163, tmp188, segment_idx, D.44396
	add	r2, r2, #1	@ segment_idx, segment_idx,
	add	r5, r3, #24	@ tmp164, tmp163,
	ldr	r1, [r3, #12]	@ <variable>.bitstream_length, <variable>.bitstream_length
	ldr	ip, [r3, #24]	@ <variable>.bitsoffset, <variable>.bitsoffset
	mov	r1, r1, asl #3	@ D.44418, <variable>.bitstream_length,
	add	ip, r4, ip	@ D.44416, len.2411, <variable>.bitsoffset
	cmp	ip, r1	@ D.44416, D.44418
	rsb	r4, r1, ip	@ len.2411, D.44418, D.44416
	bls	.L649	@,
	str	r1, [r3, #24]	@ D.44418, <variable>.bitsoffset
	ldr	r3, [r0, #368]	@ temp.2412, <variable>.pCurrNal
	ldrb	r1, [r3, #0]	@ zero_extendqisi2	@ <variable>.nal_used_segment, <variable>.nal_used_segment
	add	ip, r1, #1	@ tmp184, <variable>.nal_used_segment,
	strb	ip, [r3, #0]	@ tmp184, <variable>.nal_used_segment
	ldr	r3, [r0, #368]	@ D.44396, <variable>.pCurrNal
	ldr	r1, [r3, #68]	@ <variable>.nal_segment, <variable>.nal_segment
	cmp	r1, r2	@ <variable>.nal_segment, segment_idx
	bhi	.L646	@,
	mov	r0, #0	@ D.44402,
	b	.L644	@
.L649:
	str	ip, [r5, #0]	@ D.44416, <variable>.bitsoffset
	mov	r0, #1	@ D.44402,
	b	.L644	@
	.fnend
	.size	PassBytes, .-PassBytes
	.align	2
	.global	GetBytes
	.type	GetBytes, %function
GetBytes:
	.fnstart
.LFB2031:
	@ args = 0, pretend = 0, frame = 0
	@ frame_needed = 0, uses_anonymous_args = 0
	@ link register save eliminated.
	cmp	r1, #0	@ pdes
	mov	r3, r0	@ pH264Ctx, pH264Ctx
	stmfd	sp!, {r4, r5, r6, r7, r8, r9, sl}	@,
	.save {r4, r5, r6, r7, r8, r9, sl}
	bne	.L658	@,
.L651:
	mvn	r2, #0	@ len,
.L653:
	mov	r0, r2	@, len
	ldmfd	sp!, {r4, r5, r6, r7, r8, r9, sl}
	bx	lr
.L658:
	ldr	r0, [r0, #368]	@ D.44440, <variable>.pCurrNal
	cmp	r0, #0	@ D.44440,
	cmpne	r2, #0	@, len,
	movgt	ip, #0	@, tmp184
	movle	ip, #1	@, tmp184
	ble	.L651	@,
	ldrb	r4, [r0, #0]	@ zero_extendqisi2	@ D.44445, <variable>.nal_used_segment
	rsb	r5, r4, r4, asl #3	@, tmp188, D.44445, D.44445,
	add	r5, r0, r5, asl #2	@, tmp190, D.44440, tmp188,
	ldr	r5, [r5, #8]	@ <variable>.streamBuffer, <variable>.streamBuffer
	cmp	r5, #0	@ <variable>.streamBuffer,
	beq	.L651	@,
	ldr	r5, [r0, #68]	@ D.44452, <variable>.nal_segment
	cmp	r5, #2	@ D.44452,
	bhi	.L651	@,
	cmp	r4, #1	@ D.44445,
	bhi	.L651	@,
	cmp	r5, r4	@ D.44452, segment_idx
	bls	.L651	@,
	mov	r6, #28	@ tmp234,
.L656:
	mul	r7, r6, r4	@ tmp194, tmp234, segment_idx
	mov	r5, #0	@ ivtmp.2442,
	add	r0, r7, r0	@ tmp196, tmp194, D.44440
	ldr	r9, [r0, #24]	@, <variable>.bitsoffset
	mov	r8, r7	@ tmp233, tmp194
	ldr	sl, [r0, #12]	@ <variable>.bitstream_length, <variable>.bitstream_length
	add	r7, r9, #7	@ tmp203,,
	ldr	r0, [r0, #8]	@ D.44457, <variable>.streamBuffer
	add	sl, r0, sl	@ end_byte, D.44457, <variable>.bitstream_length
	add	r0, r0, r7, lsr #3	@, byte_pos, D.44457, tmp203,
.L652:
	add	r9, r5, r0	@ D.47589, ivtmp.2442, byte_pos
	add	r7, r5, r1	@ D.47587, ivtmp.2442, pdes
	cmp	sl, r9	@ end_byte, D.47589
	bls	.L659	@,
	ldrb	r9, [r0, r5]	@ zero_extendqisi2	@ tmp212,* ivtmp.2442
	add	ip, ip, #1	@ cnt, cnt,
	cmp	ip, r2	@ cnt, len
	strb	r9, [r1, r5]	@ tmp212,* ivtmp.2442
	add	r5, r5, #1	@ ivtmp.2442, ivtmp.2442,
	ldr	r7, [r3, #368]	@ temp.2460, <variable>.pCurrNal
	add	r7, r8, r7	@ tmp217, tmp233, temp.2460
	ldr	r9, [r7, #24]	@ <variable>.bitsoffset, <variable>.bitsoffset
	add	r9, r9, #8	@ tmp225, <variable>.bitsoffset,
	str	r9, [r7, #24]	@ tmp225, <variable>.bitsoffset
	bcc	.L652	@,
	b	.L653	@
.L659:
	ldr	r1, [r3, #368]	@ temp.2462, <variable>.pCurrNal
	add	r4, r4, #1	@ segment_idx, segment_idx,
	ldrb	r0, [r1, #0]	@ zero_extendqisi2	@ <variable>.nal_used_segment, <variable>.nal_used_segment
	add	r0, r0, #1	@ tmp228, <variable>.nal_used_segment,
	strb	r0, [r1, #0]	@ tmp228, <variable>.nal_used_segment
	ldr	r0, [r3, #368]	@ D.44440, <variable>.pCurrNal
	ldr	r1, [r0, #68]	@ <variable>.nal_segment, <variable>.nal_segment
	cmp	r1, r4	@ <variable>.nal_segment, segment_idx
	movhi	r1, r7	@ pdes, D.47587
	bhi	.L656	@
.L655:
	mov	r2, ip	@ len, cnt
	b	.L653	@
	.fnend
	.size	GetBytes, .-GetBytes
	.align	2
	.global	InitOldSlice
	.type	InitOldSlice, %function
InitOldSlice:
	.fnstart
.LFB2035:
	@ args = 0, pretend = 0, frame = 0
	@ frame_needed = 0, uses_anonymous_args = 0
	@ link register save eliminated.
	movw	r1, #13576	@ tmp135,
	movw	r3, #22336	@ tmp134,
	ldr	r2, [r0, r1]	@ <variable>.MaxPpsNum, <variable>.MaxPpsNum
	movw	ip, #22364	@ tmp156,
	movw	r1, #22328	@ tmp139,
	str	r2, [r0, r3]	@ <variable>.MaxPpsNum, <variable>.PrevSlice.pic_parameter_set_id
	mov	r3, #0	@ tmp140,
	str	r3, [r0, ip]	@ tmp140, <variable>.PrevSlice.delta_pic_order_cnt
	movw	ip, #22344	@ tmp137,
	movw	r2, #:lower16:88888	@ tmp160,
	movt	r2, #:upper16:88888	@ tmp160,
	str	r2, [r0, ip]	@ tmp160, <variable>.PrevSlice.frame_num
	movw	r2, #22329	@ tmp142,
	movw	ip, #22340	@ tmp145,
	strb	r3, [r0, r1]	@ tmp140, <variable>.PrevSlice.field_pic_flag
	mov	r1, #2	@ tmp143,
	strb	r1, [r0, r2]	@ tmp143, <variable>.PrevSlice.bottom_field_flag
	movw	r2, #22330	@ tmp147,
	mov	r1, #7	@ tmp146,
	str	r1, [r0, ip]	@ tmp146, <variable>.PrevSlice.nal_ref_idc
	mov	ip, #32	@ tmp148,
	movw	r1, #22352	@ tmp150,
	strb	ip, [r0, r2]	@ tmp148, <variable>.PrevSlice.nal_unit_type
	movw	r2, #22356	@ tmp152,
	mov	ip, #3	@ tmp151,
	str	ip, [r0, r1]	@ tmp151, <variable>.PrevSlice.pic_oder_cnt_lsb
	mvn	r1, #0	@ tmp153,
	movw	ip, #22368	@ tmp158,
	str	r1, [r0, r2]	@ tmp153, <variable>.PrevSlice.delta_pic_oder_cnt_bottom
	movw	r2, #22360	@ tmp154,
	mov	r1, #262144	@ tmp159,
	str	r3, [r0, r2]	@ tmp140, <variable>.PrevSlice.delta_pic_order_cnt
	str	r1, [r0, ip]	@ tmp159, <variable>.PrevSlice.first_mb_in_slice
	bx	lr	@
	.fnend
	.size	InitOldSlice, .-InitOldSlice
	.align	2
	.global	FindNaluArraySlot
	.type	FindNaluArraySlot, %function
FindNaluArraySlot:
	.fnstart
.LFB2042:
	@ args = 0, pretend = 0, frame = 0
	@ frame_needed = 0, uses_anonymous_args = 0
	@ link register save eliminated.
	ldrb	r2, [r0, #377]	@ zero_extendqisi2	@ <variable>.is_valid, <variable>.is_valid
	mov	r3, #0	@ Pos,
	cmp	r2, r3	@ <variable>.is_valid,
	addne	r2, r0, #96	@ ivtmp.2520, pH264Ctx,
	movne	r3, #1	@ Pos,
	bne	.L664	@,
	b	.L663	@
.L673:
	ldrb	ip, [r2, #473]	@ zero_extendqisi2	@ <variable>.is_valid, <variable>.is_valid
	add	r3, r3, #1	@ Pos, Pos,
	add	r2, r2, #192	@ ivtmp.2520, ivtmp.2520,
	cmp	ip, #0	@ <variable>.is_valid,
	beq	.L663	@,
	add	r3, r3, #1	@ Pos, Pos,
	cmp	r3, #137	@ Pos,
	beq	.L665	@,
.L664:
	ldrb	r1, [r2, #377]	@ zero_extendqisi2	@ <variable>.is_valid, <variable>.is_valid
	cmp	r1, #0	@ <variable>.is_valid,
	bne	.L673	@,
.L663:
	cmp	r3, #136	@ Pos,
	bhi	.L665	@,
	add	r1, r3, r3, asl #1	@, tmp155, Pos, Pos,
	mov	r2, #1	@ tmp159,
	add	r0, r0, r1, asl #5	@, tmp157, pH264Ctx, tmp155,
	strb	r2, [r0, #377]	@ tmp159, <variable>.is_valid
	mov	r0, r3	@, D.45298
	bx	lr	@
.L665:
	mvn	r3, #0	@ D.45298,
	mov	r0, r3	@, D.45298
	bx	lr	@
	.fnend
	.size	FindNaluArraySlot, .-FindNaluArraySlot
	.align	2
	.global	HaveSliceToDec
	.type	HaveSliceToDec, %function
HaveSliceToDec:
	.fnstart
.LFB2044:
	@ args = 0, pretend = 0, frame = 0
	@ frame_needed = 0, uses_anonymous_args = 0
	@ link register save eliminated.
	movw	r1, #52764	@ tmp136,
	ldr	r3, [r0, r1]	@ <variable>.SliceParaNum, <variable>.SliceParaNum
	cmp	r3, #0	@ <variable>.SliceParaNum,
	mvneq	r0, #0	@,,
	movne	r0, #0	@,,
	bx	lr	@
	.fnend
	.size	HaveSliceToDec, .-HaveSliceToDec
	.global	__aeabi_idiv
	.align	2
	.global	H264GetDar
	.type	H264GetDar, %function
H264GetDar:
	.fnstart
.LFB2027:
	@ args = 4, pretend = 0, frame = 0
	@ frame_needed = 0, uses_anonymous_args = 0
	cmp	r0, #0	@ ar_idc
	mov	ip, r1	@ sar_width, sar_width
	stmfd	sp!, {r3, r4, r5, lr}	@,
	.save {r3, r4, r5, lr}
	mov	r4, r3	@ img_width, img_width
	beq	.L679	@,
	subs	r3, r0, #255	@ D.43908, ar_idc,
	movne	r3, #1	@ D.43908
	cmp	r0, #255	@ ar_idc,
	cmpne	r0, #16	@, ar_idc,
	bgt	.L679	@,
	cmp	r1, #0	@ sar_width,
	cmpne	r2, #0	@, sar_height,
	beq	.L696	@,
.L680:
	cmp	r0, #1	@ ar_idc,
	moveq	r4, #5	@ final_dar,
	beq	.L682	@,
	cmp	r3, #0	@ D.43908,
	movwne	r3, #:lower16:.LANCHOR0	@ tmp162,
	movtne	r3, #:upper16:.LANCHOR0	@ tmp162,
	addne	r2, r3, r0, asl #3	@, tmp165, tmp162, ar_idc,
	ldrne	ip, [r3, r0, asl #3]	@ sar_width, SarTable
	ldrne	r2, [r2, #4]	@ sar_height, SarTable
	mov	r0, ip, asl #10	@, sar_width,
	mov	r1, r2	@, sar_height
	bl	__aeabi_idiv	@
	ldr	r1, [sp, #16]	@, img_height
	mov	r5, r0	@ tmp170,
	mov	r0, r4, asl #10	@, img_width,
	bl	__aeabi_idiv	@
	mul	r5, r0, r5	@ tmp176,, tmp170
	add	ip, r5, #1020	@ tmp178, tmp176,
	cmp	r5, #0	@ tmp176,
	add	r1, ip, #3	@ tmp178, tmp178,
	movlt	r5, r1	@ tmp177, tmp178
	mov	r5, r5, asr #10	@ dar, tmp177,
	sub	r0, r5, #2400	@ iftmp.790, dar,
	sub	r3, r5, #2256	@ iftmp.2570, dar,
	sub	r2, r0, #6	@ iftmp.790, iftmp.790,
	sub	r3, r3, #7	@ iftmp.2570, iftmp.2570,
	cmp	r2, #0	@ iftmp.790,
	rsblt	r2, r5, #2400	@ tmp182, dar,
	addlt	r2, r2, #6	@ iftmp.790, tmp182,
	cmp	r3, #0	@ iftmp.2570,
	rsblt	r1, r5, #2256	@ tmp184, dar,
	addlt	r1, r1, #7	@ iftmp.791, tmp184,
	movge	r1, r3	@ iftmp.791, iftmp.2570
	cmp	r2, r1	@ iftmp.790, iftmp.791
	movlt	r4, #4	@ final_dar,
	blt	.L682	@,
	cmp	r3, #0	@ iftmp.2570,
	sub	lr, r5, #1808	@ iftmp.2571, dar,
	rsblt	r3, r5, #2256	@ tmp185, dar,
	sub	r2, lr, #12	@ iftmp.2571, iftmp.2571,
	addlt	r3, r3, #7	@ iftmp.2570, tmp185,
	cmp	r2, #0	@ iftmp.2571,
	rsblt	r1, r5, #1808	@ tmp187, dar,
	addlt	r1, r1, #12	@ iftmp.793, tmp187,
	movge	r1, r2	@ iftmp.793, iftmp.2571
	cmp	r3, r1	@ iftmp.2570, iftmp.793
	movlt	r4, #3	@ final_dar,
	blt	.L682	@,
	cmp	r2, #0	@ iftmp.2571,
	sub	r4, r5, #1360	@ iftmp.795, dar,
	sub	r4, r4, #5	@ iftmp.795, iftmp.795,
	rsblt	r2, r5, #1808	@ tmp188, dar,
	addlt	r2, r2, #12	@ iftmp.2571, tmp188,
	cmp	r4, #0	@ iftmp.795,
	rsblt	r4, r5, #1360	@ tmp190, dar,
	addlt	r4, r4, #5	@ iftmp.795, tmp190,
	cmp	r2, r4	@ iftmp.2571, iftmp.795
	movlt	r4, #2	@ final_dar,
	movge	r4, #1	@ final_dar,
	bl	vfmw_dprint_nothing	@
	mov	r0, r4	@, final_dar
	ldmfd	sp!, {r3, r4, r5, pc}	@
.L696:
	cmp	r0, #255	@ ar_idc,
	bne	.L680	@,
.L679:
	mov	r4, #0	@ final_dar,
.L682:
	bl	vfmw_dprint_nothing	@
	mov	r0, r4	@, final_dar
	ldmfd	sp!, {r3, r4, r5, pc}	@
	.fnend
	.size	H264GetDar, .-H264GetDar
	.align	2
	.global	SPSEqual
	.type	SPSEqual, %function
SPSEqual:
	.fnstart
.LFB2026:
	@ args = 0, pretend = 0, frame = 8
	@ frame_needed = 0, uses_anonymous_args = 0
	cmp	r0, #0	@ pSPS1
	stmfd	sp!, {r4, r5, r6, r7, r8, r9, sl, fp, lr}	@,
	.save {r4, r5, r6, r7, r8, r9, sl, fp, lr}
	.pad #12
	sub	sp, sp, #12	@,,
	beq	.L729	@,
	cmp	r1, #0	@ pSPS2,
	beq	.L729	@,
	ldr	r6, [r0, #736]	@ <variable>.profile_idc, <variable>.profile_idc
	ldr	r4, [r1, #736]	@ <variable>.profile_idc, <variable>.profile_idc
	ldrb	r7, [r0, #0]	@ zero_extendqisi2	@ <variable>.constrained_set0_flag, <variable>.constrained_set0_flag
	ldrb	r3, [r1, #0]	@ zero_extendqisi2	@ <variable>.constrained_set0_flag, <variable>.constrained_set0_flag
	ldrb	r5, [r0, #1]	@ zero_extendqisi2	@ <variable>.constrained_set1_flag, <variable>.constrained_set1_flag
	cmp	r6, r4	@ <variable>.profile_idc, <variable>.profile_idc
	cmpeq	r7, r3	@, <variable>.constrained_set0_flag, <variable>.constrained_set0_flag
	ldrb	r2, [r1, #1]	@ zero_extendqisi2	@ <variable>.constrained_set1_flag, <variable>.constrained_set1_flag
	ldrb	r4, [r0, #2]	@ zero_extendqisi2	@ <variable>.constrained_set2_flag, <variable>.constrained_set2_flag
	ldrb	r7, [r1, #2]	@ zero_extendqisi2	@ <variable>.constrained_set2_flag, <variable>.constrained_set2_flag
	movne	ip, #0	@, equal.2668
	moveq	ip, #1	@, equal.2668
	ldr	r6, [r1, #740]	@ <variable>.level_idc, <variable>.level_idc
	cmp	r5, r2	@ <variable>.constrained_set1_flag, <variable>.constrained_set1_flag
	movne	r2, #0	@, equal.2669
	andeq	r2, ip, #1	@,, equal.2669, equal.2668
	ldr	r5, [r0, #740]	@ <variable>.level_idc, <variable>.level_idc
	cmp	r4, r7	@ <variable>.constrained_set2_flag, <variable>.constrained_set2_flag
	movne	r3, #0	@, equal.2670
	andeq	r3, r2, #1	@,, equal.2670, equal.2669
	ldr	r4, [r0, #744]	@ <variable>.seq_parameter_set_id, <variable>.seq_parameter_set_id
	ldr	r7, [r1, #744]	@ <variable>.seq_parameter_set_id, <variable>.seq_parameter_set_id
	cmp	r5, r6	@ <variable>.level_idc, <variable>.level_idc
	movne	ip, #0	@, equal.2671
	andeq	ip, r3, #1	@,, equal.2671, equal.2670
	ldrb	r3, [r0, #25]	@ zero_extendqisi2	@ D.43800, <variable>.seq_scaling_matrix_present_flag
	ldrb	r6, [r1, #25]	@ zero_extendqisi2	@ <variable>.seq_scaling_matrix_present_flag, <variable>.seq_scaling_matrix_present_flag
	cmp	r4, r7	@ <variable>.seq_parameter_set_id, <variable>.seq_parameter_set_id
	movne	r2, #0	@, equal.2672
	andeq	r2, ip, #1	@,, equal.2672, equal.2671
	cmp	r6, r3	@ <variable>.seq_scaling_matrix_present_flag, D.43800
	movne	r6, #0	@, equal
	andeq	r6, r2, #1	@,, equal, equal.2672
	cmp	r3, #0	@ D.43800,
	beq	.L701	@,
	mov	r9, r0	@ ivtmp.2632, pSPS1
	mov	fp, r1	@ ivtmp.2634, pSPS2
	mov	r8, #0	@ i,
	str	r0, [sp, #0]	@ pSPS1, %sfp
	mov	sl, r1	@ pSPS2, pSPS2
	b	.L705	@
.L731:
	mov	r3, r8, asl #6	@ tmp285, i,
	ldr	r4, [r9, #768]	@ tmp229, <variable>.ScalingList4x4
	ldr	r7, [fp, #768]	@ tmp230, <variable>.ScalingList4x4
	add	r2, r3, sl	@, tmp285, pSPS2
	str	r2, [sp, #4]	@, %sfp
	add	r3, r3, r1	@ tmp286, tmp285,
	ldr	r0, [r9, #764]	@ tmp233, <variable>.ScalingList4x4
	ldr	r1, [fp, #764]	@ tmp234, <variable>.ScalingList4x4
	ldr	r5, [fp, #772]	@ tmp238, <variable>.ScalingList4x4
	cmp	r4, r7	@ tmp229, tmp230
	cmpeq	r0, r1	@, tmp233, tmp234
	ldr	r2, [r9, #772]	@ tmp237, <variable>.ScalingList4x4
	ldr	r4, [r9, #776]	@ tmp241, <variable>.ScalingList4x4
	ldr	r7, [fp, #776]	@ tmp242, <variable>.ScalingList4x4
	movne	ip, #0	@, equal.2689
	moveq	ip, #1	@, equal.2689
	ldr	r1, [fp, #780]	@ tmp246, <variable>.ScalingList4x4
	cmp	r2, r5	@ tmp237, tmp238
	movne	r2, #0	@, equal.2693
	andeq	r2, ip, #1	@,, equal.2693, equal.2689
	ldr	r5, [r9, #780]	@ tmp245, <variable>.ScalingList4x4
	cmp	r4, r7	@ tmp241, tmp242
	movne	r0, #0	@, equal.2697
	andeq	r0, r2, #1	@,, equal.2697, equal.2693
	ldr	r7, [r9, #784]	@ tmp249, <variable>.ScalingList4x4
	ldr	r2, [fp, #784]	@ tmp250, <variable>.ScalingList4x4
	cmp	r5, r1	@ tmp245, tmp246
	movne	ip, #0	@, equal.2701
	andeq	ip, r0, #1	@,, equal.2701, equal.2697
	ldr	r5, [r9, #788]	@ tmp253, <variable>.ScalingList4x4
	ldr	r1, [fp, #788]	@ tmp254, <variable>.ScalingList4x4
	cmp	r7, r2	@ tmp249, tmp250
	movne	r4, #0	@, equal.2705
	andeq	r4, ip, #1	@,, equal.2705, equal.2701
	ldr	r7, [r9, #792]	@ tmp257, <variable>.ScalingList4x4
	ldr	r2, [fp, #792]	@ tmp258, <variable>.ScalingList4x4
	cmp	r5, r1	@ tmp253, tmp254
	movne	r0, #0	@, equal.2709
	andeq	r0, r4, #1	@,, equal.2709, equal.2705
	ldr	r5, [r9, #796]	@ tmp261, <variable>.ScalingList4x4
	ldr	r1, [fp, #796]	@ tmp262, <variable>.ScalingList4x4
	cmp	r7, r2	@ tmp257, tmp258
	movne	ip, #0	@, equal.2713
	andeq	ip, r0, #1	@,, equal.2713, equal.2709
	ldr	r7, [r9, #800]	@ tmp265, <variable>.ScalingList4x4
	ldr	r2, [fp, #800]	@ tmp266, <variable>.ScalingList4x4
	cmp	r5, r1	@ tmp261, tmp262
	movne	r4, #0	@, equal.2717
	andeq	r4, ip, #1	@,, equal.2717, equal.2713
	ldr	r5, [r9, #804]	@ tmp269, <variable>.ScalingList4x4
	ldr	r1, [fp, #804]	@ tmp270, <variable>.ScalingList4x4
	cmp	r7, r2	@ tmp265, tmp266
	movne	r0, #0	@, equal.2721
	andeq	r0, r4, #1	@,, equal.2721, equal.2717
	ldr	r7, [r9, #808]	@ tmp273, <variable>.ScalingList4x4
	ldr	r2, [fp, #808]	@ tmp274, <variable>.ScalingList4x4
	cmp	r5, r1	@ tmp269, tmp270
	movne	ip, #0	@, equal.2725
	andeq	ip, r0, #1	@,, equal.2725, equal.2721
	ldr	r0, [r9, #812]	@ tmp277, <variable>.ScalingList4x4
	ldr	r5, [fp, #812]	@ tmp278, <variable>.ScalingList4x4
	cmp	r7, r2	@ tmp273, tmp274
	movne	r4, #0	@, equal.2729
	andeq	r4, ip, #1	@,, equal.2729, equal.2725
	ldr	r7, [fp, #816]	@ tmp282, <variable>.ScalingList4x4
	cmp	r0, r5	@ tmp277, tmp278
	movne	r1, #0	@, equal.2733
	andeq	r1, r4, #1	@,, equal.2733, equal.2729
	ldr	r5, [sp, #4]	@, %sfp
	ldr	ip, [r9, #816]	@ tmp281, <variable>.ScalingList4x4
	ldr	r0, [r3, #760]	@ tmp293, <variable>.ScalingList4x4
	cmp	ip, r7	@ tmp281, tmp282
	movne	r2, #0	@, equal.2737
	andeq	r2, r1, #1	@,, equal.2737, equal.2733
	ldr	r4, [r5, #760]	@ tmp294, <variable>.ScalingList4x4
	and	r6, r6, r2	@ equal.2741, equal, equal.2737
	ldr	r1, [r9, #820]	@ tmp297, <variable>.ScalingList4x4
	ldr	r7, [fp, #820]	@ tmp298, <variable>.ScalingList4x4
	cmp	r0, r4	@ tmp293, tmp294
	movne	r3, #0	@, equal.2745
	andeq	r3, r6, #1	@,, equal.2745, equal.2741
	cmp	r1, r7	@ tmp297, tmp298
	movne	r6, #0	@, equal
	andeq	r6, r3, #1	@,, equal, equal.2745
.L702:
	add	r8, r8, #1	@ i, i,
	add	r9, r9, #64	@ ivtmp.2632, ivtmp.2632,
	cmp	r8, #8	@ i,
	add	fp, fp, #64	@ ivtmp.2634, ivtmp.2634,
	beq	.L730	@,
.L705:
	ldr	r1, [sp, #0]	@, %sfp
	add	r5, sl, r8	@ tmp223, pSPS2, i
	add	ip, r1, r8	@ tmp222,, i
	ldrb	r2, [r5, #4]	@ zero_extendqisi2	@ D.43806, <variable>.seq_scaling_list_present_flag
	ldrb	r0, [ip, #4]	@ zero_extendqisi2	@ D.43806, <variable>.seq_scaling_list_present_flag
	cmp	r0, r2	@ D.43806, D.43806
	movne	r6, #0	@, equal
	andeq	r6, r6, #1	@,, equal, equal
	cmp	r0, #0	@ D.43806,
	beq	.L702	@,
	cmp	r8, #5	@ i,
	bls	.L731	@,
	mov	r4, r8, asl #8	@ tmp300, i,
	ldr	r0, [sp, #0]	@, %sfp
	ldr	r7, [sp, #0]	@, %sfp
	sub	r1, r4, #392	@ tmp301, tmp300,
	add	r2, r0, r1	@ ivtmp.2616,, tmp301
	add	r3, sl, r1	@ ivtmp.2619, pSPS2, tmp301
	ldr	r5, [sl, r1]	@ tmp308, <variable>.ScalingList8x8
	add	r0, r2, #8	@ ivtmp.2616, ivtmp.2616,
	ldr	r4, [r7, r1]	@ tmp307, <variable>.ScalingList8x8
	add	r1, r3, #8	@ ivtmp.2619, ivtmp.2619,
	ldr	r7, [r2, #4]	@ tmp436, <variable>.ScalingList8x8
	mov	ip, #2	@ j,
	ldr	r3, [r3, #4]	@ tmp437, <variable>.ScalingList8x8
	cmp	r4, r5	@ tmp307, tmp308
	movne	r6, #0	@, equal
	andeq	r6, r6, #1	@,, equal, equal
	cmp	r7, r3	@ tmp436, tmp437
	movne	r6, #0	@, equal
	andeq	r6, r6, #1	@,, equal, equal
.L704:
	mov	r2, r0	@ tmp403, ivtmp.2616
	mov	r3, r1	@ tmp404, ivtmp.2619
	ldr	r7, [r2], #4	@ tmp408, <variable>.ScalingList8x8
	add	ip, ip, #2	@ j, j,
	ldr	r5, [r3], #4	@ tmp409, <variable>.ScalingList8x8
	ldr	r4, [r0, #4]	@ tmp415, <variable>.ScalingList8x8
	add	r0, r2, #4	@ ivtmp.2616, tmp403,
	ldr	r2, [r1, #4]	@ tmp416, <variable>.ScalingList8x8
	cmp	r7, r5	@ tmp408, tmp409
	movne	r6, #0	@, equal
	andeq	r6, r6, #1	@,, equal, equal
	add	r1, r3, #4	@ ivtmp.2619, tmp404,
	cmp	r4, r2	@ tmp415, tmp416
	movne	r6, #0	@, equal
	andeq	r6, r6, #1	@,, equal, equal
	cmp	ip, #64	@ j,
	bne	.L704	@,
	add	r8, r8, #1	@ i, i,
	add	r9, r9, #64	@ ivtmp.2632, ivtmp.2632,
	cmp	r8, #8	@ i,
	add	fp, fp, #64	@ ivtmp.2634, ivtmp.2634,
	bne	.L705	@,
.L730:
	ldr	r0, [sp, #0]	@ pSPS1, %sfp
	mov	r1, sl	@ pSPS2, pSPS2
.L701:
	ldr	r3, [r0, #2908]	@ D.43825, <variable>.pic_order_cnt_type
	ldr	r4, [r1, #2908]	@ <variable>.pic_order_cnt_type, <variable>.pic_order_cnt_type
	ldr	r5, [r0, #2904]	@ <variable>.log2_max_frame_num_minus4, <variable>.log2_max_frame_num_minus4
	ldr	r7, [r1, #2904]	@ <variable>.log2_max_frame_num_minus4, <variable>.log2_max_frame_num_minus4
	cmp	r3, r4	@ D.43825, <variable>.pic_order_cnt_type
	cmpeq	r5, r7	@, <variable>.log2_max_frame_num_minus4, <variable>.log2_max_frame_num_minus4
	movne	ip, #0	@, equal.2673
	moveq	ip, #1	@, equal.2673
	cmp	r3, #0	@ D.43825,
	and	r6, ip, r6	@ equal.2664, equal.2673, equal
	bne	.L732	@,
	ldr	r2, [r0, #2912]	@ <variable>.log2_max_pic_order_cnt_lsb_minus4, <variable>.log2_max_pic_order_cnt_lsb_minus4
	ldr	r3, [r1, #2912]	@ <variable>.log2_max_pic_order_cnt_lsb_minus4, <variable>.log2_max_pic_order_cnt_lsb_minus4
	cmp	r2, r3	@ <variable>.log2_max_pic_order_cnt_lsb_minus4, <variable>.log2_max_pic_order_cnt_lsb_minus4
	movne	r6, #0	@, equal.2664
	andeq	r6, r6, #1	@,, equal.2664, equal.2664
.L706:
	ldrb	r3, [r1, #17]	@ zero_extendqisi2	@ <variable>.gaps_in_frame_num_value_allowed_flag, <variable>.gaps_in_frame_num_value_allowed_flag
	ldr	r5, [r0, #3952]	@ <variable>.num_ref_frames, <variable>.num_ref_frames
	ldr	r2, [r1, #3952]	@ <variable>.num_ref_frames, <variable>.num_ref_frames
	ldrb	r7, [r0, #17]	@ zero_extendqisi2	@ <variable>.gaps_in_frame_num_value_allowed_flag, <variable>.gaps_in_frame_num_value_allowed_flag
	ldr	ip, [r1, #3956]	@ <variable>.pic_width_in_mbs_minus1, <variable>.pic_width_in_mbs_minus1
	cmp	r7, r3	@ <variable>.gaps_in_frame_num_value_allowed_flag, <variable>.gaps_in_frame_num_value_allowed_flag
	cmpeq	r5, r2	@, <variable>.num_ref_frames, <variable>.num_ref_frames
	ldr	r4, [r0, #3956]	@ <variable>.pic_width_in_mbs_minus1, <variable>.pic_width_in_mbs_minus1
	ldr	r5, [r0, #3960]	@ <variable>.pic_height_in_map_units_minus1, <variable>.pic_height_in_map_units_minus1
	ldr	r2, [r1, #3960]	@ <variable>.pic_height_in_map_units_minus1, <variable>.pic_height_in_map_units_minus1
	movne	r3, #0	@, equal.2677
	moveq	r3, #1	@, equal.2677
	cmp	r4, ip	@ <variable>.pic_width_in_mbs_minus1, <variable>.pic_width_in_mbs_minus1
	movne	r4, #0	@, equal.2678
	andeq	r4, r3, #1	@,, equal.2678, equal.2677
	ldrb	r3, [r0, #18]	@ zero_extendqisi2	@ D.43858, <variable>.frame_mbs_only_flag
	ldrb	ip, [r1, #18]	@ zero_extendqisi2	@ <variable>.frame_mbs_only_flag, <variable>.frame_mbs_only_flag
	cmp	r5, r2	@ <variable>.pic_height_in_map_units_minus1, <variable>.pic_height_in_map_units_minus1
	movne	r2, #0	@, equal.2679
	andeq	r2, r4, #1	@,, equal.2679, equal.2678
	cmp	ip, r3	@ <variable>.frame_mbs_only_flag, D.43858
	movne	r2, #0	@, equal.2680
	andeq	r2, r2, #1	@,, equal.2680, equal.2679
	cmp	r3, #0	@ D.43858,
	and	r6, r2, r6	@ equal.2665, equal.2680, equal.2664
	bne	.L710	@,
	ldrb	r4, [r0, #19]	@ zero_extendqisi2	@ <variable>.mb_adaptive_frame_field_flag, <variable>.mb_adaptive_frame_field_flag
	ldrb	ip, [r1, #19]	@ zero_extendqisi2	@ <variable>.mb_adaptive_frame_field_flag, <variable>.mb_adaptive_frame_field_flag
	cmp	r4, ip	@ <variable>.mb_adaptive_frame_field_flag, <variable>.mb_adaptive_frame_field_flag
	movne	r6, #0	@, equal.2665
	andeq	r6, r6, #1	@,, equal.2665, equal.2665
.L710:
	ldrb	r3, [r0, #21]	@ zero_extendqisi2	@ D.43869, <variable>.frame_cropping_flag
	ldrb	r2, [r0, #20]	@ zero_extendqisi2	@ <variable>.direct_8x8_inference_flag, <variable>.direct_8x8_inference_flag
	ldrb	r4, [r1, #21]	@ zero_extendqisi2	@ <variable>.frame_cropping_flag, <variable>.frame_cropping_flag
	ldrb	ip, [r1, #20]	@ zero_extendqisi2	@ <variable>.direct_8x8_inference_flag, <variable>.direct_8x8_inference_flag
	cmp	r4, r3	@ <variable>.frame_cropping_flag, D.43869
	cmpeq	r2, ip	@, <variable>.direct_8x8_inference_flag, <variable>.direct_8x8_inference_flag
	movne	r2, #0	@, equal.2681
	moveq	r2, #1	@, equal.2681
	cmp	r3, #0	@ D.43869,
	and	r3, r2, r6	@ equal.2666, equal.2681, equal.2665
	beq	.L711	@,
	ldr	r5, [r1, #3968]	@ <variable>.frame_crop_right_offset, <variable>.frame_crop_right_offset
	ldr	r4, [r0, #3964]	@ <variable>.frame_crop_left_offset, <variable>.frame_crop_left_offset
	ldr	r2, [r1, #3964]	@ <variable>.frame_crop_left_offset, <variable>.frame_crop_left_offset
	ldr	r7, [r0, #3968]	@ <variable>.frame_crop_right_offset, <variable>.frame_crop_right_offset
	ldr	r6, [r0, #3972]	@ <variable>.frame_crop_top_offset, <variable>.frame_crop_top_offset
	cmp	r7, r5	@ <variable>.frame_crop_right_offset, <variable>.frame_crop_right_offset
	cmpeq	r4, r2	@, <variable>.frame_crop_left_offset, <variable>.frame_crop_left_offset
	ldr	ip, [r1, #3972]	@ <variable>.frame_crop_top_offset, <variable>.frame_crop_top_offset
	ldr	r4, [r0, #3976]	@ <variable>.frame_crop_bottom_offset, <variable>.frame_crop_bottom_offset
	ldr	r2, [r1, #3976]	@ <variable>.frame_crop_bottom_offset, <variable>.frame_crop_bottom_offset
	movne	r5, #0	@, equal.2682
	moveq	r5, #1	@, equal.2682
	cmp	r6, ip	@ <variable>.frame_crop_top_offset, <variable>.frame_crop_top_offset
	movne	ip, #0	@, equal.2683
	andeq	ip, r5, #1	@,, equal.2683, equal.2682
	cmp	r4, r2	@ <variable>.frame_crop_bottom_offset, <variable>.frame_crop_bottom_offset
	movne	r2, #0	@, equal.2684
	andeq	r2, ip, #1	@,, equal.2684, equal.2683
	and	r3, r3, r2	@ equal.2666, equal.2666, equal.2684
.L711:
	ldrb	r0, [r0, #22]	@ zero_extendqisi2	@ <variable>.vui_parameters_present_flag, <variable>.vui_parameters_present_flag
	ldrb	ip, [r1, #22]	@ zero_extendqisi2	@ <variable>.vui_parameters_present_flag, <variable>.vui_parameters_present_flag
	cmp	r0, ip	@ <variable>.vui_parameters_present_flag, <variable>.vui_parameters_present_flag
	movne	r3, #0	@, tmp392
	andeq	r3, r3, #1	@,, tmp392, equal.2666
	cmp	r3, #0	@ tmp392,
	movne	r0, #0	@, ret,
	mvneq	r0, #0	@, ret,
.L699:
	add	sp, sp, #12	@,,
	ldmfd	sp!, {r4, r5, r6, r7, r8, r9, sl, fp, pc}
.L732:
	cmp	r3, #1	@ D.43825,
	bne	.L706	@,
	ldr	r5, [r0, #2916]	@ <variable>.offset_for_non_ref_pic, <variable>.offset_for_non_ref_pic
	ldr	r7, [r1, #2916]	@ <variable>.offset_for_non_ref_pic, <variable>.offset_for_non_ref_pic
	ldrb	r8, [r1, #16]	@ zero_extendqisi2	@ <variable>.delta_pic_order_always_zero_flag, <variable>.delta_pic_order_always_zero_flag
	ldrb	r2, [r0, #16]	@ zero_extendqisi2	@ <variable>.delta_pic_order_always_zero_flag, <variable>.delta_pic_order_always_zero_flag
	ldr	r4, [r0, #2920]	@ <variable>.offset_for_top_to_bottom_field, <variable>.offset_for_top_to_bottom_field
	cmp	r5, r7	@ <variable>.offset_for_non_ref_pic, <variable>.offset_for_non_ref_pic
	cmpeq	r2, r8	@, <variable>.delta_pic_order_always_zero_flag, <variable>.delta_pic_order_always_zero_flag
	ldr	r3, [r1, #2920]	@ <variable>.offset_for_top_to_bottom_field, <variable>.offset_for_top_to_bottom_field
	ldr	r8, [r0, #2924]	@ D.43840, <variable>.num_ref_frames_in_pic_order_cnt_cycle
	ldr	r7, [r1, #2924]	@ <variable>.num_ref_frames_in_pic_order_cnt_cycle, <variable>.num_ref_frames_in_pic_order_cnt_cycle
	movne	ip, #0	@, equal.2674
	moveq	ip, #1	@, equal.2674
	cmp	r4, r3	@ <variable>.offset_for_top_to_bottom_field, <variable>.offset_for_top_to_bottom_field
	movne	r5, #0	@, equal.2675
	andeq	r5, ip, #1	@,, equal.2675, equal.2674
	cmp	r8, r7	@ D.43840, <variable>.num_ref_frames_in_pic_order_cnt_cycle
	movne	r5, #0	@, equal.2676
	andeq	r5, r5, #1	@,, equal.2676, equal.2675
	cmp	r8, #0	@ D.43840,
	and	r6, r6, r5	@ equal.2664, equal.2664, equal.2676
	beq	.L706	@,
	ldr	r4, [r0, #2928]	@ tmp339, <variable>.offset_for_ref_frame
	mov	r8, r8, asl #2	@ D.47748, D.43840,
	ldr	ip, [r1, #2928]	@ tmp340, <variable>.offset_for_ref_frame
	mov	r3, #4	@ ivtmp.2607,
	sub	r2, r8, #4	@ tmp397, D.47748,
	cmp	r4, ip	@ tmp339, tmp340
	movne	r6, #0	@, equal.2664
	andeq	r6, r6, #1	@,, equal.2664, equal.2664
	cmp	r3, r8	@ ivtmp.2607, D.47748
	ubfx	r2, r2, #2, #1	@ tmp398, tmp397,,
	beq	.L706	@,
	cmp	r2, #0	@ tmp398,
	beq	.L709	@,
	ldr	r2, [r0, #2932]	@ tmp433, <variable>.offset_for_ref_frame
	mov	r3, #8	@ ivtmp.2607,
	ldr	r7, [r1, #2932]	@ tmp434, <variable>.offset_for_ref_frame
	cmp	r2, r7	@ tmp433, tmp434
	movne	r6, #0	@, equal.2664
	andeq	r6, r6, #1	@,, equal.2664, equal.2664
	cmp	r3, r8	@ ivtmp.2607, D.47748
	beq	.L706	@,
.L709:
	add	r2, r3, #4	@ tmp399, ivtmp.2607,
	add	r4, r0, r3	@ tmp419, pSPS1, ivtmp.2607
	add	r3, r1, r3	@ tmp420, pSPS2, ivtmp.2607
	add	ip, r0, r2	@ tmp426, pSPS1, tmp399
	add	r7, r1, r2	@ tmp427, pSPS2, tmp399
	ldr	r5, [r4, #2928]	@ tmp421, <variable>.offset_for_ref_frame
	ldr	r4, [r3, #2928]	@ tmp422, <variable>.offset_for_ref_frame
	add	r3, r2, #4	@ ivtmp.2607, tmp399,
	ldr	ip, [ip, #2928]	@ tmp428, <variable>.offset_for_ref_frame
	ldr	r2, [r7, #2928]	@ tmp429, <variable>.offset_for_ref_frame
	cmp	r5, r4	@ tmp421, tmp422
	movne	r6, #0	@, equal.2664
	andeq	r6, r6, #1	@,, equal.2664, equal.2664
	cmp	ip, r2	@ tmp428, tmp429
	movne	r6, #0	@, equal.2664
	andeq	r6, r6, #1	@,, equal.2664, equal.2664
	cmp	r3, r8	@ ivtmp.2607, D.47748
	bne	.L709	@,
	b	.L706	@
.L729:
	bl	vfmw_dprint_nothing	@
	mvn	r0, #0	@ ret,
	b	.L699	@
	.fnend
	.size	SPSEqual, .-SPSEqual
	.align	2
	.global	PPSEqual
	.type	PPSEqual, %function
PPSEqual:
	.fnstart
.LFB2024:
	@ args = 0, pretend = 0, frame = 8
	@ frame_needed = 0, uses_anonymous_args = 0
	stmfd	sp!, {r4, r5, r6, r7, r8, r9, sl, fp, lr}	@,
	.save {r4, r5, r6, r7, r8, r9, sl, fp, lr}
	subs	fp, r0, #0	@ pPPS1, pPPS1
	.pad #12
	sub	sp, sp, #12	@,,
	beq	.L754	@,
	cmp	r1, #0	@ pPPS2,
	beq	.L754	@,
	ldr	r5, [fp, #24]	@ <variable>.pic_parameter_set_id, <variable>.pic_parameter_set_id
	ldr	r3, [r1, #24]	@ <variable>.pic_parameter_set_id, <variable>.pic_parameter_set_id
	ldr	r4, [fp, #28]	@ <variable>.seq_parameter_set_id, <variable>.seq_parameter_set_id
	ldr	r2, [r1, #28]	@ <variable>.seq_parameter_set_id, <variable>.seq_parameter_set_id
	ldrb	ip, [r1, #0]	@ zero_extendqisi2	@ <variable>.entropy_coding_mode_flag, <variable>.entropy_coding_mode_flag
	cmp	r5, r3	@ <variable>.pic_parameter_set_id, <variable>.pic_parameter_set_id
	cmpeq	r4, r2	@, <variable>.seq_parameter_set_id, <variable>.seq_parameter_set_id
	ldrb	r0, [fp, #0]	@ zero_extendqisi2	@ <variable>.entropy_coding_mode_flag, <variable>.entropy_coding_mode_flag
	ldrb	r5, [fp, #1]	@ zero_extendqisi2	@ <variable>.pic_order_present_flag, <variable>.pic_order_present_flag
	ldrb	r4, [r1, #1]	@ zero_extendqisi2	@ <variable>.pic_order_present_flag, <variable>.pic_order_present_flag
	movne	r3, #0	@, equal.2828
	moveq	r3, #1	@, equal.2828
	cmp	r0, ip	@ <variable>.entropy_coding_mode_flag, <variable>.entropy_coding_mode_flag
	movne	r0, #0	@, equal.2829
	andeq	r0, r3, #1	@,, equal.2829, equal.2828
	ldr	ip, [r1, #36]	@ <variable>.num_ref_idx_l0_active_minus1, <variable>.num_ref_idx_l0_active_minus1
	ldr	r3, [fp, #36]	@ <variable>.num_ref_idx_l0_active_minus1, <variable>.num_ref_idx_l0_active_minus1
	cmp	r5, r4	@ <variable>.pic_order_present_flag, <variable>.pic_order_present_flag
	movne	r2, #0	@, equal.2830
	andeq	r2, r0, #1	@,, equal.2830, equal.2829
	ldr	r5, [fp, #40]	@ <variable>.num_ref_idx_l1_active_minus1, <variable>.num_ref_idx_l1_active_minus1
	ldr	r4, [r1, #40]	@ <variable>.num_ref_idx_l1_active_minus1, <variable>.num_ref_idx_l1_active_minus1
	cmp	r3, ip	@ <variable>.num_ref_idx_l0_active_minus1, <variable>.num_ref_idx_l0_active_minus1
	movne	r3, #0	@, equal.2831
	andeq	r3, r2, #1	@,, equal.2831, equal.2830
	ldrb	ip, [r1, #2]	@ zero_extendqisi2	@ <variable>.weighted_pred_flag, <variable>.weighted_pred_flag
	ldrb	r2, [fp, #2]	@ zero_extendqisi2	@ <variable>.weighted_pred_flag, <variable>.weighted_pred_flag
	cmp	r5, r4	@ <variable>.num_ref_idx_l1_active_minus1, <variable>.num_ref_idx_l1_active_minus1
	movne	r0, #0	@, equal.2832
	andeq	r0, r3, #1	@,, equal.2832, equal.2831
	ldr	r5, [fp, #44]	@ <variable>.weighted_bipred_idc, <variable>.weighted_bipred_idc
	ldr	r4, [r1, #44]	@ <variable>.weighted_bipred_idc, <variable>.weighted_bipred_idc
	cmp	r2, ip	@ <variable>.weighted_pred_flag, <variable>.weighted_pred_flag
	movne	r2, #0	@, equal.2833
	andeq	r2, r0, #1	@,, equal.2833, equal.2832
	ldr	ip, [r1, #48]	@ <variable>.pic_init_qp_minus26, <variable>.pic_init_qp_minus26
	ldr	r0, [fp, #48]	@ <variable>.pic_init_qp_minus26, <variable>.pic_init_qp_minus26
	cmp	r5, r4	@ <variable>.weighted_bipred_idc, <variable>.weighted_bipred_idc
	movne	r3, #0	@, equal.2834
	andeq	r3, r2, #1	@,, equal.2834, equal.2833
	ldr	r5, [fp, #52]	@ <variable>.chroma_qp_index_offset, <variable>.chroma_qp_index_offset
	ldr	r4, [r1, #52]	@ <variable>.chroma_qp_index_offset, <variable>.chroma_qp_index_offset
	cmp	r0, ip	@ <variable>.pic_init_qp_minus26, <variable>.pic_init_qp_minus26
	movne	r0, #0	@, equal.2835
	andeq	r0, r3, #1	@,, equal.2835, equal.2834
	ldrb	ip, [r1, #3]	@ zero_extendqisi2	@ <variable>.deblocking_filter_control_present_flag, <variable>.deblocking_filter_control_present_flag
	ldrb	r3, [fp, #3]	@ zero_extendqisi2	@ <variable>.deblocking_filter_control_present_flag, <variable>.deblocking_filter_control_present_flag
	cmp	r5, r4	@ <variable>.chroma_qp_index_offset, <variable>.chroma_qp_index_offset
	movne	r2, #0	@, equal.2836
	andeq	r2, r0, #1	@,, equal.2836, equal.2835
	ldrb	r5, [fp, #4]	@ zero_extendqisi2	@ <variable>.constrained_intra_pred_flag, <variable>.constrained_intra_pred_flag
	ldrb	r4, [r1, #4]	@ zero_extendqisi2	@ <variable>.constrained_intra_pred_flag, <variable>.constrained_intra_pred_flag
	cmp	r3, ip	@ <variable>.deblocking_filter_control_present_flag, <variable>.deblocking_filter_control_present_flag
	movne	r3, #0	@, equal.2837
	andeq	r3, r2, #1	@,, equal.2837, equal.2836
	ldr	r2, [fp, #60]	@ D.43555, <variable>.transform_8x8_mode_flag
	ldr	ip, [r1, #60]	@ <variable>.transform_8x8_mode_flag, <variable>.transform_8x8_mode_flag
	cmp	r5, r4	@ <variable>.constrained_intra_pred_flag, <variable>.constrained_intra_pred_flag
	movne	r0, #0	@, equal.2838
	andeq	r0, r3, #1	@,, equal.2838, equal.2837
	ldrb	r3, [fp, #18]	@ zero_extendqisi2	@ D.43558, <variable>.pic_scaling_matrix_present_flag
	ldrb	r5, [r1, #18]	@ zero_extendqisi2	@ <variable>.pic_scaling_matrix_present_flag, <variable>.pic_scaling_matrix_present_flag
	cmp	r2, ip	@ D.43555, <variable>.transform_8x8_mode_flag
	movne	r0, #0	@, equal.2839
	andeq	r0, r0, #1	@,, equal.2839, equal.2838
	cmp	r5, r3	@ <variable>.pic_scaling_matrix_present_flag, D.43558
	movne	r5, #0	@, equal
	andeq	r5, r0, #1	@,, equal, equal.2839
	cmp	r3, #0	@ D.43558,
	beq	.L737	@,
	mov	ip, r2, asl #1	@ tmp231, D.43555,
	adds	r0, ip, #6	@, tmp231,
	str	r0, [sp, #4]	@, %sfp
	beq	.L737	@,
	mov	r9, fp	@ ivtmp.2795, pPPS1
	str	fp, [sp, #0]	@ pPPS1, %sfp
	mov	sl, r1	@ ivtmp.2797, pPPS2
	mov	r8, #0	@ i,
	mov	fp, r1	@ pPPS2, pPPS2
	b	.L741	@
.L752:
	cmp	r8, #5	@ i,
	bhi	.L739	@,
	ldr	r0, [r9, #72]	@ tmp239, <variable>.ScalingList4x4
	add	r8, r8, #1	@ i, i,
	ldr	ip, [sl, #72]	@ tmp240, <variable>.ScalingList4x4
	ldr	r6, [r9, #68]	@ tmp243, <variable>.ScalingList4x4
	ldr	r2, [sl, #68]	@ tmp244, <variable>.ScalingList4x4
	ldr	r3, [r9, #76]	@ tmp247, <variable>.ScalingList4x4
	cmp	r0, ip	@ tmp239, tmp240
	cmpeq	r6, r2	@, tmp243, tmp244
	ldr	r4, [sl, #76]	@ tmp248, <variable>.ScalingList4x4
	ldr	r7, [r9, #80]	@ tmp251, <variable>.ScalingList4x4
	ldr	r6, [sl, #80]	@ tmp252, <variable>.ScalingList4x4
	movne	r1, #0	@, equal.2844
	moveq	r1, #1	@, equal.2844
	ldr	r0, [r9, #84]	@ tmp255, <variable>.ScalingList4x4
	cmp	r3, r4	@ tmp247, tmp248
	movne	ip, #0	@, equal.2848
	andeq	ip, r1, #1	@,, equal.2848, equal.2844
	ldr	r2, [sl, #84]	@ tmp256, <variable>.ScalingList4x4
	cmp	r7, r6	@ tmp251, tmp252
	movne	r6, #0	@, equal.2852
	andeq	r6, ip, #1	@,, equal.2852, equal.2848
	ldr	r3, [sl, #88]	@ tmp260, <variable>.ScalingList4x4
	ldr	ip, [r9, #88]	@ tmp259, <variable>.ScalingList4x4
	cmp	r0, r2	@ tmp255, tmp256
	movne	r1, #0	@, equal.2856
	andeq	r1, r6, #1	@,, equal.2856, equal.2852
	ldr	r7, [r9, #92]	@ tmp263, <variable>.ScalingList4x4
	ldr	r2, [sl, #92]	@ tmp264, <variable>.ScalingList4x4
	cmp	ip, r3	@ tmp259, tmp260
	movne	r0, #0	@, equal.2860
	andeq	r0, r1, #1	@,, equal.2860, equal.2856
	ldr	r3, [sl, #96]	@ tmp268, <variable>.ScalingList4x4
	ldr	r1, [r9, #96]	@ tmp267, <variable>.ScalingList4x4
	cmp	r7, r2	@ tmp263, tmp264
	movne	ip, #0	@, equal.2864
	andeq	ip, r0, #1	@,, equal.2864, equal.2860
	ldr	r7, [r9, #100]	@ tmp271, <variable>.ScalingList4x4
	ldr	r2, [sl, #100]	@ tmp272, <variable>.ScalingList4x4
	cmp	r1, r3	@ tmp267, tmp268
	movne	r1, #0	@, equal.2868
	andeq	r1, ip, #1	@,, equal.2868, equal.2864
	ldr	r3, [sl, #104]	@ tmp276, <variable>.ScalingList4x4
	ldr	ip, [r9, #104]	@ tmp275, <variable>.ScalingList4x4
	cmp	r7, r2	@ tmp271, tmp272
	movne	r0, #0	@, equal.2872
	andeq	r0, r1, #1	@,, equal.2872, equal.2868
	ldr	r1, [r9, #108]	@ tmp279, <variable>.ScalingList4x4
	ldr	r7, [sl, #108]	@ tmp280, <variable>.ScalingList4x4
	cmp	ip, r3	@ tmp275, tmp276
	movne	ip, #0	@, equal.2876
	andeq	ip, r0, #1	@,, equal.2876, equal.2872
	ldr	r3, [sl, #112]	@ tmp284, <variable>.ScalingList4x4
	ldr	r0, [r9, #112]	@ tmp283, <variable>.ScalingList4x4
	cmp	r1, r7	@ tmp279, tmp280
	movne	r2, #0	@, equal.2880
	andeq	r2, ip, #1	@,, equal.2880, equal.2876
	ldr	ip, [r9, #116]	@ tmp287, <variable>.ScalingList4x4
	ldr	r7, [sl, #116]	@ tmp288, <variable>.ScalingList4x4
	cmp	r0, r3	@ tmp283, tmp284
	movne	r0, #0	@, equal.2884
	andeq	r0, r2, #1	@,, equal.2884, equal.2880
	ldr	r3, [sl, #120]	@ tmp292, <variable>.ScalingList4x4
	cmp	ip, r7	@ tmp287, tmp288
	movne	r1, #0	@, equal.2888
	andeq	r1, r0, #1	@,, equal.2888, equal.2884
	ldr	r7, [sp, #0]	@, %sfp
	ldr	r2, [r9, #120]	@ tmp291, <variable>.ScalingList4x4
	ldr	ip, [fp, r8, asl #6]	@ tmp298, <variable>.ScalingList4x4
	cmp	r2, r3	@ tmp291, tmp292
	movne	r2, #0	@, equal.2892
	andeq	r2, r1, #1	@,, equal.2892, equal.2888
	ldr	r0, [r7, r8, asl #6]	@ tmp297, <variable>.ScalingList4x4
	and	r5, r5, r2	@ equal.2896, equal, equal.2892
	ldr	r1, [r9, #124]	@ tmp301, <variable>.ScalingList4x4
	cmp	r0, ip	@ tmp297, tmp298
	movne	r3, #0	@, equal.2900
	andeq	r3, r5, #1	@,, equal.2900, equal.2896
	ldr	r2, [sl, #124]	@ tmp302, <variable>.ScalingList4x4
	ldr	ip, [sp, #4]	@, %sfp
	add	r9, r9, #64	@ ivtmp.2795, ivtmp.2795,
	cmp	r1, r2	@ tmp301, tmp302
	movne	r5, #0	@, equal
	andeq	r5, r3, #1	@,, equal, equal.2900
	add	sl, sl, #64	@ ivtmp.2797, ivtmp.2797,
	cmp	ip, r8	@, i
	bls	.L755	@,
.L741:
	ldr	ip, [sp, #0]	@, %sfp
	add	r0, fp, r8	@ tmp233, pPPS2, i
	add	r3, ip, r8	@ tmp232,, i
	ldrb	r2, [r0, #5]	@ zero_extendqisi2	@ D.43564, <variable>.pic_scaling_list_present_flag
	ldrb	r1, [r3, #5]	@ zero_extendqisi2	@ D.43564, <variable>.pic_scaling_list_present_flag
	cmp	r1, r2	@ D.43564, D.43564
	movne	r5, #0	@, equal
	andeq	r5, r5, #1	@,, equal, equal
	cmp	r1, #0	@ D.43564,
	bne	.L752	@,
	add	r8, r8, #1	@ i, i,
.L756:
	ldr	ip, [sp, #4]	@, %sfp
	add	r9, r9, #64	@ ivtmp.2795, ivtmp.2795,
	add	sl, sl, #64	@ ivtmp.2797, ivtmp.2797,
	cmp	ip, r8	@, i
	bhi	.L741	@,
.L755:
	mov	r1, fp	@ pPPS2, pPPS2
	ldr	fp, [sp, #0]	@ pPPS1, %sfp
.L737:
	ldr	r0, [fp, #56]	@ <variable>.second_chroma_qp_index_offset, <variable>.second_chroma_qp_index_offset
	ldr	r3, [r1, #56]	@ <variable>.second_chroma_qp_index_offset, <variable>.second_chroma_qp_index_offset
	cmp	r0, r3	@ <variable>.second_chroma_qp_index_offset, <variable>.second_chroma_qp_index_offset
	movne	r5, #0	@, tmp316
	andeq	r5, r5, #1	@,, tmp316, equal
	cmp	r5, #0	@ tmp316,
	movne	r0, #0	@, ret,
	mvneq	r0, #0	@, ret,
.L735:
	add	sp, sp, #12	@,,
	ldmfd	sp!, {r4, r5, r6, r7, r8, r9, sl, fp, pc}
.L739:
	mov	r4, r8, asl #8	@ tmp304, i,
	ldr	r0, [sp, #0]	@, %sfp
	ldr	r7, [sp, #0]	@, %sfp
	sub	r1, r4, #1088	@ tmp305, tmp304,
	add	r2, r0, r1	@ ivtmp.2782,, tmp305
	add	r3, fp, r1	@ ivtmp.2785, pPPS2, tmp305
	ldr	r6, [fp, r1]	@ tmp310, <variable>.ScalingList8x8
	add	r0, r2, #8	@ ivtmp.2782, ivtmp.2782,
	ldr	r4, [r7, r1]	@ tmp309, <variable>.ScalingList8x8
	add	r1, r3, #8	@ ivtmp.2785, ivtmp.2785,
	ldr	r7, [r2, #4]	@ tmp338, <variable>.ScalingList8x8
	mov	ip, #2	@ j,
	ldr	r3, [r3, #4]	@ tmp339, <variable>.ScalingList8x8
	cmp	r4, r6	@ tmp309, tmp310
	movne	r5, #0	@, equal
	andeq	r5, r5, #1	@,, equal, equal
	cmp	r7, r3	@ tmp338, tmp339
	movne	r5, #0	@, equal
	andeq	r5, r5, #1	@,, equal, equal
.L740:
	mov	r2, r0	@ tmp323, ivtmp.2782
	mov	r3, r1	@ tmp324, ivtmp.2785
	ldr	r7, [r2], #4	@ tmp328, <variable>.ScalingList8x8
	add	ip, ip, #2	@ j, j,
	ldr	r6, [r3], #4	@ tmp329, <variable>.ScalingList8x8
	ldr	r4, [r0, #4]	@ tmp335, <variable>.ScalingList8x8
	add	r0, r2, #4	@ ivtmp.2782, tmp323,
	ldr	r2, [r1, #4]	@ tmp336, <variable>.ScalingList8x8
	cmp	r7, r6	@ tmp328, tmp329
	movne	r5, #0	@, equal
	andeq	r5, r5, #1	@,, equal, equal
	add	r1, r3, #4	@ ivtmp.2785, tmp324,
	cmp	r4, r2	@ tmp335, tmp336
	movne	r5, #0	@, equal
	andeq	r5, r5, #1	@,, equal, equal
	cmp	ip, #64	@ j,
	bne	.L740	@,
	add	r8, r8, #1	@ i, i,
	b	.L756	@
.L754:
	bl	vfmw_dprint_nothing	@
	mvn	r0, #0	@ ret,
	b	.L735	@
	.fnend
	.size	PPSEqual, .-PPSEqual
	.align	2
	.global	CalcStreamBits
	.type	CalcStreamBits, %function
CalcStreamBits:
	.fnstart
.LFB2019:
	@ args = 0, pretend = 0, frame = 0
	@ frame_needed = 0, uses_anonymous_args = 0
	stmfd	sp!, {r4, r5, r6, lr}	@,
	.save {r4, r5, r6, lr}
	mov	r4, r0	@ pH264Ctx, pH264Ctx
	movw	r0, #17588	@ tmp167,
	ldrb	r3, [r4, r0]	@ zero_extendqisi2	@ <variable>.CurrPPS.entropy_coding_mode_flag, <variable>.CurrPPS.entropy_coding_mode_flag
	cmp	r3, #0	@ <variable>.CurrPPS.entropy_coding_mode_flag,
	beq	.L758	@,
	ldr	lr, [r4, #368]	@ D.43067, <variable>.pCurrNal
	ldr	r0, [lr, #64]	@ <variable>.nal_bitoffset, <variable>.nal_bitoffset
	add	r3, r0, #7	@ tmp169, <variable>.nal_bitoffset,
	bic	ip, r3, #7	@ tmp171, tmp169,
	str	ip, [lr, #64]	@ tmp171, <variable>.nal_bitoffset
	ldr	r1, [r4, #368]	@ temp.2942, <variable>.pCurrNal
	ldr	r5, [r1, #72]	@ <variable>.nal_trail_zero_bit_num, <variable>.nal_trail_zero_bit_num
	sub	r2, r5, #1	@ tmp173, <variable>.nal_trail_zero_bit_num,
	str	r2, [r1, #72]	@ tmp173, <variable>.nal_trail_zero_bit_num
.L758:
	ldr	r3, [r4, #368]	@ temp.2983, <variable>.pCurrNal
	ldrb	r5, [r3, #0]	@ zero_extendqisi2	@ D.43076, <variable>.nal_used_segment
	cmp	r5, #0	@ D.43076,
	beq	.L760	@,
	rsb	lr, r5, r5, asl #3	@, tmp176, D.43076, D.43076,
	mov	r2, #28	@ ivtmp.2940,
	ldr	r5, [r3, #12]	@ code_len_byte, <variable>.bitstream_length
	add	r1, r3, r2	@ ivtmp.2941, temp.2983,
	mov	r0, lr, asl #2	@ D.48090, tmp176,
	cmp	r2, r0	@ ivtmp.2940, D.48090
	sub	ip, r0, #28	@ tmp406, D.48090,
	ubfx	ip, ip, #2, #1	@ tmp410, tmp406,,
	beq	.L760	@,
	cmp	ip, #0	@ tmp410,
	beq	.L761	@,
	ldr	ip, [r1, #12]	@ <variable>.bitstream_length, <variable>.bitstream_length
	mov	r2, #56	@ ivtmp.2940,
	cmp	r2, r0	@ ivtmp.2940, D.48090
	add	r1, r3, r2	@ ivtmp.2941, temp.2983,
	add	r5, r5, ip	@ code_len_byte, code_len_byte, <variable>.bitstream_length
	beq	.L760	@,
.L761:
	ldr	ip, [r1, #12]	@ <variable>.bitstream_length, <variable>.bitstream_length
	add	r2, r2, #56	@ ivtmp.2940, ivtmp.2940,
	ldr	r3, [r1, #40]	@ <variable>.bitstream_length, <variable>.bitstream_length
	cmp	r2, r0	@ ivtmp.2940, D.48090
	add	r5, r5, ip	@ code_len_byte, code_len_byte, <variable>.bitstream_length
	add	r1, r1, #56	@ ivtmp.2941, ivtmp.2941,
	add	r5, r5, r3	@ code_len_byte, code_len_byte, <variable>.bitstream_length
	bne	.L761	@,
.L760:
	bl	vfmw_dprint_nothing	@
	ldr	r3, [r4, #368]	@ temp.2943, <variable>.pCurrNal
	ldrb	ip, [r3, #0]	@ zero_extendqisi2	@ <variable>.nal_used_segment, <variable>.nal_used_segment
	ldr	r1, [r3, #64]	@ <variable>.nal_bitoffset, <variable>.nal_bitoffset
	rsb	r2, ip, ip, asl #3	@, tmp183, <variable>.nal_used_segment, <variable>.nal_used_segment,
	and	ip, r1, #7	@ tmp188, <variable>.nal_bitoffset,
	add	r0, r3, r2, asl #2	@, tmp185, temp.2943, tmp183,
	str	ip, [r0, #24]	@ tmp188, <variable>.bitsoffset
	ldr	r1, [r4, #368]	@ temp.2945, <variable>.pCurrNal
	ldrb	r3, [r1, #0]	@ zero_extendqisi2	@ temp.2948, <variable>.nal_used_segment
	ldr	r0, [r1, #64]	@ <variable>.nal_bitoffset, <variable>.nal_bitoffset
	rsb	r2, r3, r3, asl #3	@, tmp192, temp.2948, temp.2948,
	add	r3, r1, r2, asl #2	@, tmp194, temp.2945, tmp192,
	ldr	ip, [r3, #16]	@ <variable>.stream_phy_addr, <variable>.stream_phy_addr
	add	r2, ip, r0, lsr #3	@, tmp205, <variable>.stream_phy_addr, <variable>.nal_bitoffset,
	rsb	r1, r5, r2	@ tmp207, code_len_byte, tmp205
	str	r1, [r3, #28]	@ tmp207, <variable>.bytespos
	ldr	r3, [r4, #368]	@ temp.2949, <variable>.pCurrNal
	ldrb	r0, [r3, #0]	@ zero_extendqisi2	@ temp.2951, <variable>.nal_used_segment
	ldr	r1, [r3, #64]	@ <variable>.nal_bitoffset, <variable>.nal_bitoffset
	rsb	ip, r0, r0, asl #3	@, tmp211, temp.2951, temp.2951,
	add	r0, r3, ip, asl #2	@, tmp213, temp.2949, tmp211,
	ldr	r2, [r0, #12]	@ <variable>.bitstream_length, <variable>.bitstream_length
	add	r5, r5, r2	@ tmp222, code_len_byte, <variable>.bitstream_length
	rsb	r5, r1, r5, asl #3	@, tmp226, <variable>.nal_bitoffset, tmp222,
	str	r5, [r0, #20]	@ tmp226, <variable>.valid_bitlen
	b	.L786	@
.L788:
	rsb	r0, r2, r1	@ tmp239, temp.2980, tmp397
	add	r3, r3, r0, asl #2	@, tmp241, temp.2978, tmp239,
	ldr	lr, [r3, #24]	@ <variable>.bitsoffset, <variable>.bitsoffset
	add	r1, lr, #8	@ tmp251, <variable>.bitsoffset,
	str	r1, [r3, #24]	@ tmp251, <variable>.bitsoffset
	ldr	ip, [r4, #368]	@ temp.2955, <variable>.pCurrNal
	ldrb	r2, [ip, #0]	@ zero_extendqisi2	@ temp.2957, <variable>.nal_used_segment
	rsb	r0, r2, r2, asl #3	@, tmp255, temp.2957, temp.2957,
	add	lr, ip, r0, asl #2	@, tmp257, temp.2955, tmp255,
	add	r3, lr, #24	@ tmp258, tmp257,
	ldr	r1, [r3, #4]	@ <variable>.bytespos, <variable>.bytespos
	sub	r2, r1, #1	@ tmp267, <variable>.bytespos,
	str	r2, [r3, #4]	@ tmp267, <variable>.bytespos
.L786:
	ldr	r3, [r4, #368]	@ temp.2978, <variable>.pCurrNal
	ldrb	r2, [r3, #0]	@ zero_extendqisi2	@ temp.2980, <variable>.nal_used_segment
	mov	r1, r2, asl #3	@ tmp397, temp.2980,
	rsb	ip, r2, r1	@ tmp230, temp.2980, tmp397
	add	r0, r3, ip, asl #2	@, tmp232, temp.2978, tmp230,
	ldr	lr, [r0, #28]	@ <variable>.bytespos, <variable>.bytespos
	tst	lr, #3	@ <variable>.bytespos,
	bne	.L788	@,
	bl	vfmw_dprint_nothing	@
	ldr	r3, [r4, #368]	@ temp.2959, <variable>.pCurrNal
	ldr	r1, [r3, #68]	@ temp.2960, <variable>.nal_segment
	sub	r2, r1, #1	@ prephitmp.2919, temp.2960,
	cmp	r2, #1	@ prephitmp.2919,
	bhi	.L789	@,
	ldrb	lr, [r3, #0]	@ zero_extendqisi2	@ <variable>.nal_used_segment, <variable>.nal_used_segment
	add	ip, lr, #1	@ tmp278, <variable>.nal_used_segment,
	cmp	r1, ip	@ temp.2960, tmp278
	bls	.L765	@,
	mov	r5, #1	@ i,
	mov	r6, #0	@ tmp403,
.L768:
	rsb	r2, r5, r5, asl #3	@, tmp282, i, i,
	mov	r2, r2, asl #2	@ tmp283, tmp282,
	add	r0, r2, r3	@ tmp284, tmp283, temp.2959
	str	r6, [r0, #24]	@ tmp403, <variable>.bitsoffset
	ldr	r3, [r4, #368]	@ temp.2965, <variable>.pCurrNal
	add	r1, r2, r3	@ tmp292, tmp283, temp.2965
	ldr	lr, [r1, #16]	@ <variable>.stream_phy_addr, <variable>.stream_phy_addr
	str	lr, [r1, #28]	@ <variable>.stream_phy_addr, <variable>.bytespos
	ldr	ip, [r4, #368]	@ temp.2966, <variable>.pCurrNal
	add	r3, r2, ip	@ tmp307, tmp283, temp.2966
	ldr	r0, [r3, #12]	@ <variable>.bitstream_length, <variable>.bitstream_length
	mov	r1, r0, asl #3	@ tmp317, <variable>.bitstream_length,
	str	r1, [r3, #20]	@ tmp317, <variable>.valid_bitlen
	b	.L787	@
.L790:
	add	r3, r2, r3	@ tmp332, tmp402, temp.2975
	ldr	r0, [r3, #24]	@ <variable>.bitsoffset, <variable>.bitsoffset
	add	r1, r0, #8	@ tmp342, <variable>.bitsoffset,
	str	r1, [r3, #24]	@ tmp342, <variable>.bitsoffset
	ldr	lr, [r4, #368]	@ temp.2968, <variable>.pCurrNal
	add	ip, r2, lr	@ tmp348, tmp402, temp.2968
	add	r3, ip, #24	@ tmp349, tmp348,
	ldr	r0, [r3, #4]	@ <variable>.bytespos, <variable>.bytespos
	sub	r1, r0, #1	@ tmp358, <variable>.bytespos,
	str	r1, [r3, #4]	@ tmp358, <variable>.bytespos
.L787:
	ldr	r3, [r4, #368]	@ temp.2975, <variable>.pCurrNal
	add	lr, r2, r3	@ tmp323, tmp283, temp.2975
	ldr	ip, [lr, #28]	@ <variable>.bytespos, <variable>.bytespos
	tst	ip, #3	@ <variable>.bytespos,
	bne	.L790	@,
	bl	vfmw_dprint_nothing	@
	ldr	r3, [r4, #368]	@ temp.2959, <variable>.pCurrNal
	add	r5, r5, #1	@ i, i,
	ldr	r2, [r3, #68]	@ D.43092, <variable>.nal_segment
	cmp	r2, r5	@ D.43092, i
	bhi	.L768	@,
	sub	r2, r2, #1	@ prephitmp.2919, D.43092,
.L765:
	rsb	r0, r2, r2, asl #3	@, tmp371, prephitmp.2919, prephitmp.2919,
	ldr	r1, [r3, #72]	@ <variable>.nal_trail_zero_bit_num, <variable>.nal_trail_zero_bit_num
	add	r3, r3, r0, asl #2	@, tmp373, temp.2959, tmp371,
	add	ip, r3, #16	@ tmp374, tmp373,
	ldr	lr, [ip, #4]	@ <variable>.valid_bitlen, <variable>.valid_bitlen
	rsb	r2, r1, lr	@ tmp384, <variable>.nal_trail_zero_bit_num, <variable>.valid_bitlen
	str	r2, [ip, #4]	@ tmp384, <variable>.valid_bitlen
	ldr	r2, [r4, #368]	@ temp.2971, <variable>.pCurrNal
	ldrb	r3, [r2, #0]	@ zero_extendqisi2	@ i.2954, <variable>.nal_used_segment
	ldr	r1, [r2, #68]	@ <variable>.nal_segment, <variable>.nal_segment
	cmp	r1, r3	@ <variable>.nal_segment, i.2954
	ldmlsfd	sp!, {r4, r5, r6, pc}	@
	mov	r5, #50176	@ tmp400,
.L773:
	rsb	lr, r3, r3, asl #3	@, tmp389, i.2954, i.2954,
	ldr	ip, [r4, r5]	@ <variable>.CurrPic.stream_base_addr, <variable>.CurrPic.stream_base_addr
	add	r3, r3, #1	@ i.2954, i.2954,
	add	r0, r2, lr, asl #2	@, tmp391, temp.2971, tmp389,
	ldr	lr, [r0, #28]	@ temp.2974, <variable>.bytespos
	cmp	lr, ip	@ temp.2974, <variable>.CurrPic.stream_base_addr
	strcc	lr, [r4, r5]	@ temp.2974, <variable>.CurrPic.stream_base_addr
	ldrcc	r1, [r2, #68]	@ <variable>.nal_segment, <variable>.nal_segment
	cmp	r1, r3	@ <variable>.nal_segment, i.2954
	bhi	.L773	@,
	ldmfd	sp!, {r4, r5, r6, pc}	@
.L789:
	ldmfd	sp!, {r4, r5, r6, lr}	@
	b	vfmw_dprint_nothing	@
	.fnend
	.size	CalcStreamBits, .-CalcStreamBits
	.align	2
	.global	IsNewPic
	.type	IsNewPic, %function
IsNewPic:
	.fnstart
.LFB2010:
	@ args = 0, pretend = 0, frame = 0
	@ frame_needed = 0, uses_anonymous_args = 0
	stmfd	sp!, {r4, lr}	@,
	.save {r4, lr}
	movw	ip, #22332	@ tmp151,
	movw	r1, #14332	@ tmp152,
	movw	lr, #22336	@ tmp157,
	movw	r3, #20692	@ tmp158,
	ldr	r4, [r0, ip]	@ <variable>.PrevSlice.seq_parameter_set_id, <variable>.PrevSlice.seq_parameter_set_id
	ldr	r3, [r0, r3]	@ <variable>.CurrSlice.pic_parameter_set_id, <variable>.CurrSlice.pic_parameter_set_id
	movw	r2, #22344	@ tmp163,
	ldr	ip, [r0, r1]	@ <variable>.CurrSPS.seq_parameter_set_id, <variable>.CurrSPS.seq_parameter_set_id
	ldr	r1, [r0, lr]	@ <variable>.PrevSlice.pic_parameter_set_id, <variable>.PrevSlice.pic_parameter_set_id
	movw	lr, #20700	@ tmp164,
	ldr	r2, [r0, r2]	@ <variable>.PrevSlice.frame_num, <variable>.PrevSlice.frame_num
	cmp	r1, r3	@ <variable>.PrevSlice.pic_parameter_set_id, <variable>.CurrSlice.pic_parameter_set_id
	cmpeq	r4, ip	@, <variable>.PrevSlice.seq_parameter_set_id, <variable>.CurrSPS.seq_parameter_set_id
	ldr	lr, [r0, lr]	@ <variable>.CurrSlice.frame_num, <variable>.CurrSlice.frame_num
	movw	r4, #22328	@ tmp169,
	movw	r1, #20681	@ tmp170,
	ldrb	r3, [r0, r4]	@ zero_extendqisi2	@ D.42373, <variable>.PrevSlice.field_pic_flag
	moveq	ip, #0	@, result.3010
	movne	ip, #1	@, result.3010
	ldrb	r1, [r0, r1]	@ zero_extendqisi2	@ D.42374, <variable>.CurrSlice.field_pic_flag
	cmp	r2, lr	@ <variable>.PrevSlice.frame_num, <variable>.CurrSlice.frame_num
	moveq	r2, ip	@, result.3011, result.3010
	orrne	r2, ip, #1	@,, result.3011, result.3010
	cmp	r3, r1	@ D.42373, D.42374
	orrne	r2, r2, #1	@,, result, result.3011
	cmp	r3, #0	@ D.42373,
	beq	.L792	@,
	cmp	r1, #0	@ D.42374,
	bne	.L800	@,
.L792:
	movw	r4, #22340	@ tmp179,
	movw	ip, #20712	@ tmp180,
	ldr	r3, [r0, r4]	@ D.42387, <variable>.PrevSlice.nal_ref_idc
	ldr	r4, [r0, ip]	@ D.42388, <variable>.CurrSlice.nal_ref_idc
	cmp	r3, r4	@ D.42387, D.42388
	moveq	r4, #0	@ prephitmp.2998,
	beq	.L794	@,
	cmp	r3, #0	@ D.42387,
	moveq	r4, #1	@ prephitmp.2998,
	bne	.L801	@,
.L794:
	movw	r1, #20683	@ tmp184,
	movw	lr, #22330	@ tmp183,
	ldrb	r3, [r0, r1]	@ zero_extendqisi2	@ D.42393, <variable>.CurrSlice.nal_unit_type
	ldrb	r1, [r0, lr]	@ zero_extendqisi2	@ D.42392, <variable>.PrevSlice.nal_unit_type
	cmp	r1, r3	@ D.42392, D.42393
	orrne	r2, r2, #1	@,, result.3012, result
	cmp	r3, #5	@ D.42393,
	orr	r4, r2, r4	@ result.3009, result.3012, prephitmp.2998
	beq	.L802	@,
.L796:
	movw	r1, #16496	@ tmp193,
	ldr	r3, [r0, r1]	@ D.42402, <variable>.CurrSPS.pic_order_cnt_type
	cmp	r3, #0	@ D.42402,
	bne	.L797	@,
	movw	r3, #22356	@ tmp194,
	movw	lr, #19800	@ tmp195,
	movw	r1, #22352	@ tmp200,
	movw	r2, #19796	@ tmp201,
	ldr	ip, [r0, r3]	@ <variable>.PrevSlice.delta_pic_oder_cnt_bottom, <variable>.PrevSlice.delta_pic_oder_cnt_bottom
	ldr	r3, [r0, lr]	@ <variable>.CurrPOC.delta_pic_order_cnt_bottom, <variable>.CurrPOC.delta_pic_order_cnt_bottom
	ldr	lr, [r0, r1]	@ <variable>.PrevSlice.pic_oder_cnt_lsb, <variable>.PrevSlice.pic_oder_cnt_lsb
	ldr	r1, [r0, r2]	@ <variable>.CurrPOC.pic_order_cnt_lsb,
	cmp	lr, r1	@ <variable>.PrevSlice.pic_oder_cnt_lsb, <variable>.CurrPOC.pic_order_cnt_lsb
	cmpeq	ip, r3	@, <variable>.PrevSlice.delta_pic_oder_cnt_bottom, <variable>.CurrPOC.delta_pic_order_cnt_bottom
	moveq	r2, #0	@, result.3013
	movne	r2, #1	@, result.3013
	orr	r4, r4, r2	@ result.3009, result.3009, result.3013
.L798:
	movw	ip, #20732	@ tmp218,
	ldr	lr, [r0, ip]	@ <variable>.CurrSlice.first_mb_in_slice, <variable>.CurrSlice.first_mb_in_slice
	cmp	lr, #0	@ <variable>.CurrSlice.first_mb_in_slice,
	orreq	r4, r4, #1	@,, result.3015, result.3009
	bl	vfmw_dprint_nothing	@
	mov	r0, r4	@, result.3015
	ldmfd	sp!, {r4, pc}	@
.L797:
	cmp	r3, #1	@ D.42402,
	bne	.L798	@,
	movw	r1, #22364	@ tmp206,
	movw	r2, #22360	@ tmp212,
	ldr	ip, [r0, r1]	@ <variable>.PrevSlice.delta_pic_order_cnt, <variable>.PrevSlice.delta_pic_order_cnt
	movw	r3, #19848	@ tmp207,
	ldr	r1, [r0, r2]	@ <variable>.PrevSlice.delta_pic_order_cnt, <variable>.PrevSlice.delta_pic_order_cnt
	movw	r2, #19844	@ tmp213,
	ldr	lr, [r0, r3]	@ <variable>.CurrPOC.delta_pic_order_cnt, <variable>.CurrPOC.delta_pic_order_cnt
	ldr	r2, [r0, r2]	@ <variable>.CurrPOC.delta_pic_order_cnt,
	cmp	r1, r2	@ <variable>.PrevSlice.delta_pic_order_cnt, <variable>.CurrPOC.delta_pic_order_cnt
	cmpeq	ip, lr	@, <variable>.PrevSlice.delta_pic_order_cnt, <variable>.CurrPOC.delta_pic_order_cnt
	moveq	ip, #0	@, result.3014
	movne	ip, #1	@, result.3014
	orr	r4, r4, ip	@ result.3009, result.3009, result.3014
	b	.L798	@
.L801:
	rsbs	r4, r4, #1	@ prephitmp.2998, D.42388
	movcc	r4, #0	@ prephitmp.2998
	b	.L794	@
.L800:
	movw	r1, #22329	@ tmp173,
	movw	lr, #20682	@ tmp174,
	ldrb	r4, [r0, r1]	@ zero_extendqisi2	@ <variable>.PrevSlice.bottom_field_flag, <variable>.PrevSlice.bottom_field_flag
	ldrb	r3, [r0, lr]	@ zero_extendqisi2	@ <variable>.CurrSlice.bottom_field_flag, <variable>.CurrSlice.bottom_field_flag
	cmp	r4, r3	@ <variable>.PrevSlice.bottom_field_flag, <variable>.CurrSlice.bottom_field_flag
	orrne	r2, r2, #1	@,, result, result
	b	.L792	@
.L802:
	cmp	r1, #5	@ D.42392,
	bne	.L796	@,
	movw	lr, #22348	@ tmp187,
	movw	r3, #20720	@ tmp188,
	ldr	r2, [r0, lr]	@ <variable>.PrevSlice.idr_pic_id, <variable>.PrevSlice.idr_pic_id
	ldr	ip, [r0, r3]	@ <variable>.CurrSlice.idr_pic_id, <variable>.CurrSlice.idr_pic_id
	cmp	r2, ip	@ <variable>.PrevSlice.idr_pic_id, <variable>.CurrSlice.idr_pic_id
	orrne	r4, r4, #1	@,, result.3009, result.3009
	b	.L796	@
	.fnend
	.size	IsNewPic, .-IsNewPic
	.align	2
	.global	PPSSPSCheckTmpId
	.type	PPSSPSCheckTmpId, %function
PPSSPSCheckTmpId:
	.fnstart
.LFB2009:
	@ args = 0, pretend = 0, frame = 0
	@ frame_needed = 0, uses_anonymous_args = 0
	stmfd	sp!, {r3, r4, r5, lr}	@,
	.save {r3, r4, r5, lr}
	mov	r5, r1	@ tmp_pic_parameter_set_id, tmp_pic_parameter_set_id
	mov	r4, r0	@ pH264Ctx, pH264Ctx
	bl	vfmw_dprint_nothing	@
	movw	r2, #13584	@ tmp139,
	mov	r1, #2208	@ tmp141,
	ldr	r0, [r4, r2]	@ <variable>.PPS, <variable>.PPS
	mla	r1, r1, r5, r0	@ pPPS, tmp141, tmp_pic_parameter_set_id, <variable>.PPS
	ldrb	r3, [r1, #19]	@ zero_extendqisi2	@ <variable>.is_valid, <variable>.is_valid
	cmp	r3, #0	@ <variable>.is_valid,
	beq	.L809	@,
	ldr	r3, [r1, #28]	@ D.42349, <variable>.seq_parameter_set_id
	movw	r1, #13572	@ tmp144,
	ldr	lr, [r4, r1]	@ <variable>.MaxSpsNum, <variable>.MaxSpsNum
	sub	ip, lr, #1	@ tmp145, <variable>.MaxSpsNum,
	cmp	r3, ip	@ D.42349, tmp145
	bhi	.L809	@,
	movw	r1, #13580	@ tmp148,
	mov	lr, #4000	@ tmp150,
	ldr	r2, [r4, r1]	@ <variable>.SPS, <variable>.SPS
	mla	ip, lr, r3, r2	@ tmp151, tmp150, D.42349, <variable>.SPS
	ldrb	r3, [ip, #23]	@ zero_extendqisi2	@ <variable>.is_valid, <variable>.is_valid
	cmp	r3, #0	@ <variable>.is_valid,
	movne	r0, #0	@ D.42348,
	ldmnefd	sp!, {r3, r4, r5, pc}	@
	bl	vfmw_dprint_nothing	@
	mvn	r0, #0	@ D.42348,
	ldmfd	sp!, {r3, r4, r5, pc}	@
.L809:
	bl	vfmw_dprint_nothing	@
	mvn	r0, #0	@ D.42348,
	ldmfd	sp!, {r3, r4, r5, pc}	@
	.fnend
	.size	PPSSPSCheckTmpId, .-PPSSPSCheckTmpId
	.align	2
	.global	PPSSPSCheck
	.type	PPSSPSCheck, %function
PPSSPSCheck:
	.fnstart
.LFB2008:
	@ args = 0, pretend = 0, frame = 0
	@ frame_needed = 0, uses_anonymous_args = 0
	stmfd	sp!, {r4, lr}	@,
	.save {r4, lr}
	mov	r4, r0	@ pH264Ctx, pH264Ctx
	bl	vfmw_dprint_nothing	@
	movw	r2, #20692	@ tmp138,
	movw	ip, #13584	@ tmp137,
	ldr	r3, [r4, r2]	@ <variable>.CurrSlice.pic_parameter_set_id, <variable>.CurrSlice.pic_parameter_set_id
	mov	r1, #2208	@ tmp141,
	ldr	r0, [r4, ip]	@ <variable>.PPS, <variable>.PPS
	mla	r3, r1, r3, r0	@ pPPS, tmp141, <variable>.CurrSlice.pic_parameter_set_id, <variable>.PPS
	ldrb	r2, [r3, #19]	@ zero_extendqisi2	@ <variable>.is_valid, <variable>.is_valid
	cmp	r2, #0	@ <variable>.is_valid,
	beq	.L815	@,
	movw	lr, #13580	@ tmp146,
	ldr	ip, [r3, #28]	@ <variable>.seq_parameter_set_id, <variable>.seq_parameter_set_id
	ldr	r2, [r4, lr]	@ <variable>.SPS, <variable>.SPS
	mov	r1, #4000	@ tmp148,
	mla	r3, r1, ip, r2	@ tmp149, tmp148, <variable>.seq_parameter_set_id, <variable>.SPS
	ldrb	lr, [r3, #23]	@ zero_extendqisi2	@ <variable>.is_valid, <variable>.is_valid
	cmp	lr, #0	@ <variable>.is_valid,
	movne	r0, #0	@ D.42330,
	ldmnefd	sp!, {r4, pc}	@
	bl	vfmw_dprint_nothing	@
	mvn	r0, #0	@ D.42330,
	ldmfd	sp!, {r4, pc}	@
.L815:
	bl	vfmw_dprint_nothing	@
	mvn	r0, #0	@ D.42330,
	ldmfd	sp!, {r4, pc}	@
	.fnend
	.size	PPSSPSCheck, .-PPSSPSCheck
	.align	2
	.global	DumpList
	.type	DumpList, %function
DumpList:
	.fnstart
.LFB1988:
	@ args = 0, pretend = 0, frame = 0
	@ frame_needed = 0, uses_anonymous_args = 0
	movw	r1, #:lower16:g_PrintEnable	@ tmp141,
	movt	r1, #:upper16:g_PrintEnable	@ tmp141,
	stmfd	sp!, {r4, r5, r6, r7, r8, lr}	@,
	.save {r4, r5, r6, r7, r8, lr}
	ldr	r3, [r1, #0]	@ g_PrintEnable, g_PrintEnable
	mov	r6, r0	@ pH264Ctx, pH264Ctx
	tst	r3, #8192	@ g_PrintEnable,
	addne	r5, r0, #20480	@ ivtmp.3105, pH264Ctx,
	movne	r7, #0	@ j,
	addne	r5, r5, #244	@ ivtmp.3105, ivtmp.3105,
	ldmeqfd	sp!, {r4, r5, r6, r7, r8, pc}	@
.L818:
	ldr	r2, [r5, #0]	@ tmp146, <variable>.CurrSlice.listXsize
	cmp	r2, #0	@ tmp146,
	movne	r4, #0	@ i,
	beq	.L822	@,
.L819:
	bl	vfmw_dprint_nothing	@
	ldr	r0, [r5, #0]	@ tmp145, <variable>.CurrSlice.listXsize
	add	r4, r4, #1	@ i, i,
	cmp	r0, r4	@ tmp145, i
	bhi	.L819	@,
.L822:
	add	r7, r7, #1	@ j, j,
	add	r5, r5, #4	@ ivtmp.3105, ivtmp.3105,
	cmp	r7, #2	@ j,
	bne	.L818	@,
	movw	r7, #20724	@ tmp147,
	ldr	ip, [r6, r7]	@ <variable>.CurrSlice.listXsize, <variable>.CurrSlice.listXsize
	cmp	ip, #0	@ <variable>.CurrSlice.listXsize,
	bne	.L840	@,
	movw	r7, #20728	@ tmp156,
	ldr	r0, [r6, r7]	@ <variable>.CurrSlice.listXsize, <variable>.CurrSlice.listXsize
	cmp	r0, #0	@ <variable>.CurrSlice.listXsize,
	ldmeqfd	sp!, {r4, r5, r6, r7, r8, pc}	@
.L843:
	bl	vfmw_dprint_nothing	@
	ldr	r2, [r6, r7]	@ <variable>.CurrSlice.listXsize, <variable>.CurrSlice.listXsize
	cmp	r2, #0	@ <variable>.CurrSlice.listXsize,
	beq	.L830	@,
	add	r5, r6, #27136	@ ivtmp.3090, pH264Ctx,
	add	r4, r5, #32	@ ivtmp.3090, ivtmp.3090,
	mov	r5, #0	@ i.3111,
	b	.L835	@
.L841:
	cmp	r3, #2	@ <variable>.structure,
	beq	.L834	@,
	ldr	r3, [r6, r7]	@ <variable>.CurrSlice.listXsize, <variable>.CurrSlice.listXsize
	add	r5, r5, #1	@ i.3111, i.3111,
	add	r4, r4, #4	@ ivtmp.3090, ivtmp.3090,
	cmp	r3, r5	@ <variable>.CurrSlice.listXsize, i.3111
	bls	.L830	@,
.L835:
	ldr	ip, [r4, #0]	@ tmp161, <variable>.pListX
	ldrb	r3, [ip, #0]	@ zero_extendqisi2	@ <variable>.structure, <variable>.structure
	cmp	r3, #1	@ <variable>.structure,
	beq	.L834	@,
	bcs	.L841	@,
.L834:
	bl	vfmw_dprint_nothing	@
	ldr	r3, [r6, r7]	@ <variable>.CurrSlice.listXsize, <variable>.CurrSlice.listXsize
	add	r5, r5, #1	@ i.3111, i.3111,
	add	r4, r4, #4	@ ivtmp.3090, ivtmp.3090,
	cmp	r3, r5	@ <variable>.CurrSlice.listXsize, i.3111
	bhi	.L835	@,
.L830:
	ldmfd	sp!, {r4, r5, r6, r7, r8, lr}	@
	b	vfmw_dprint_nothing	@
.L840:
	bl	vfmw_dprint_nothing	@
	ldr	r3, [r6, r7]	@ <variable>.CurrSlice.listXsize, <variable>.CurrSlice.listXsize
	cmp	r3, #0	@ <variable>.CurrSlice.listXsize,
	beq	.L824	@,
	add	r4, r6, #26880	@ ivtmp.3095, pH264Ctx,
	mov	r5, #0	@ i.3109,
	add	r4, r4, #156	@ ivtmp.3095, ivtmp.3095,
	b	.L829	@
.L842:
	cmp	r3, #2	@ <variable>.structure,
	beq	.L828	@,
	ldr	r1, [r6, r7]	@ <variable>.CurrSlice.listXsize, <variable>.CurrSlice.listXsize
	add	r5, r5, #1	@ i.3109, i.3109,
	add	r4, r4, #4	@ ivtmp.3095, ivtmp.3095,
	cmp	r1, r5	@ <variable>.CurrSlice.listXsize, i.3109
	bls	.L824	@,
.L829:
	ldr	lr, [r4, #0]	@ tmp152, <variable>.pListX
	ldrb	r3, [lr, #0]	@ zero_extendqisi2	@ <variable>.structure, <variable>.structure
	cmp	r3, #1	@ <variable>.structure,
	beq	.L828	@,
	bcs	.L842	@,
.L828:
	bl	vfmw_dprint_nothing	@
	ldr	r1, [r6, r7]	@ <variable>.CurrSlice.listXsize, <variable>.CurrSlice.listXsize
	add	r5, r5, #1	@ i.3109, i.3109,
	add	r4, r4, #4	@ ivtmp.3095, ivtmp.3095,
	cmp	r1, r5	@ <variable>.CurrSlice.listXsize, i.3109
	bhi	.L829	@,
.L824:
	movw	r7, #20728	@ tmp156,
	bl	vfmw_dprint_nothing	@
	ldr	r0, [r6, r7]	@ <variable>.CurrSlice.listXsize, <variable>.CurrSlice.listXsize
	cmp	r0, #0	@ <variable>.CurrSlice.listXsize,
	ldmeqfd	sp!, {r4, r5, r6, r7, r8, pc}	@
	b	.L843	@
	.fnend
	.size	DumpList, .-DumpList
	.align	2
	.global	IsRefListWrong
	.type	IsRefListWrong, %function
IsRefListWrong:
	.fnstart
.LFB2045:
	@ args = 0, pretend = 0, frame = 0
	@ frame_needed = 0, uses_anonymous_args = 0
	stmfd	sp!, {r4, r5, r6, r7, r8, lr}	@,
	.save {r4, r5, r6, r7, r8, lr}
	movw	r8, #20724	@ tmp143,
	ldr	r3, [r0, r8]	@ <variable>.CurrSlice.listXsize, <variable>.CurrSlice.listXsize
	mov	r4, r0	@ pH264Ctx, pH264Ctx
	cmp	r3, #0	@ <variable>.CurrSlice.listXsize,
	beq	.L845	@,
	add	r5, r0, #26880	@ ivtmp.3153, pH264Ctx,
	mov	r6, #0	@ i.3157,
	add	r5, r5, #156	@ ivtmp.3153, ivtmp.3153,
	movw	r7, #52840	@ tmp167,
	b	.L847	@
.L854:
	ldr	ip, [r0, #408]	@ <variable>.pstDecodeFs, <variable>.pstDecodeFs
	cmp	ip, #0	@ <variable>.pstDecodeFs,
	beq	.L846	@,
	ldr	r3, [r4, r8]	@ D.45372, <variable>.CurrSlice.listXsize
	cmp	r3, r6	@ D.45372, i.3157
	bls	.L853	@,
.L847:
	ldr	r1, [r5, #0]	@ tmp148, <variable>.pListX
	add	r6, r6, #1	@ i.3157, i.3157,
	ldr	r0, [r4, r7]	@, <variable>.ChanID
	add	r5, r5, #4	@ ivtmp.3153, ivtmp.3153,
	ldr	r2, [r1, #4]	@ <variable>.frame_store, <variable>.frame_store
	ldr	r1, [r2, #508]	@, <variable>.logic_fs_id
	bl	FSP_GetLogicFs	@
	cmp	r0, #0	@ pstLogicFs
	bne	.L854	@,
.L846:
	mvn	r0, #0	@ ret,
	ldmfd	sp!, {r4, r5, r6, r7, r8, pc}	@
.L845:
	mov	r0, #0	@ ret,
	ldmfd	sp!, {r4, r5, r6, r7, r8, pc}	@
.L853:
	cmp	r3, #0	@ D.45372,
	beq	.L845	@,
	movw	r8, #20728	@ tmp153,
	ldr	r0, [r4, r8]	@ <variable>.CurrSlice.listXsize, <variable>.CurrSlice.listXsize
	cmp	r0, #0	@ <variable>.CurrSlice.listXsize,
	beq	.L845	@,
	add	r6, r4, #27136	@ ivtmp.3148, pH264Ctx,
	movw	r7, #52840	@ tmp165,
	add	r5, r6, #32	@ ivtmp.3148, ivtmp.3148,
	mov	r6, #0	@ i,
	b	.L848	@
.L855:
	ldr	r2, [r0, #408]	@ <variable>.pstDecodeFs, <variable>.pstDecodeFs
	cmp	r2, #0	@ <variable>.pstDecodeFs,
	beq	.L846	@,
	ldr	r1, [r4, r8]	@ <variable>.CurrSlice.listXsize, <variable>.CurrSlice.listXsize
	cmp	r1, r6	@ <variable>.CurrSlice.listXsize, i
	bls	.L845	@,
.L848:
	ldr	r3, [r5, #0]	@ tmp158, <variable>.pListX
	add	r6, r6, #1	@ i, i,
	ldr	r0, [r4, r7]	@, <variable>.ChanID
	add	r5, r5, #4	@ ivtmp.3148, ivtmp.3148,
	ldr	lr, [r3, #4]	@ <variable>.frame_store, <variable>.frame_store
	ldr	r1, [lr, #508]	@, <variable>.logic_fs_id
	bl	FSP_GetLogicFs	@
	cmp	r0, #0	@ pstLogicFs.3160
	bne	.L855	@,
	b	.L846	@
	.fnend
	.size	IsRefListWrong, .-IsRefListWrong
	.align	2
	.global	WriteSliceMsg
	.type	WriteSliceMsg, %function
WriteSliceMsg:
	.fnstart
.LFB2004:
	@ args = 0, pretend = 0, frame = 16
	@ frame_needed = 0, uses_anonymous_args = 0
	movw	r3, #52764	@ tmp196,
	movw	r1, #4060	@ tmp200,
	stmfd	sp!, {r4, r5, r6, r7, r8, r9, sl, fp, lr}	@,
	.save {r4, r5, r6, r7, r8, r9, sl, fp, lr}
	ldr	r2, [r0, r3]	@, <variable>.SliceParaNum
	.pad #20
	sub	sp, sp, #20	@,,
	mov	r4, #13568	@ tmp201,
	mov	r5, r0	@ pH264Ctx, pH264Ctx
	str	r2, [sp, #8]	@, %sfp
	ldr	ip, [sp, #8]	@, %sfp
	ldr	r0, [r0, r4]	@ <variable>.MaxSliceNum, <variable>.MaxSliceNum
	add	r2, ip, #1	@ D.41951,,
	str	r2, [r5, r3]	@ D.41951, <variable>.SliceParaNum
	sub	r7, r0, #1	@ tmp202, <variable>.MaxSliceNum,
	movw	r0, #52760	@ tmp198,
	cmp	ip, r7	@, tmp202
	mul	r4, r1, ip	@ tmp199, tmp200,
	ldr	ip, [r5, r0]	@ D.41952, <variable>.DecSlicePara
	movcs	r3, #0	@ tmp207,
	mlacc	r2, r1, r2, ip	@ tmp206, tmp200, D.41951, D.41952
	add	r7, ip, r4	@ pCurrSlicePara, D.41952, tmp199
	strcs	r3, [r7, #4056]	@ tmp207, <variable>.pNextSlice
	strcc	r2, [r7, #4056]	@ tmp206, <variable>.pNextSlice
	ldr	r1, [r5, #368]	@ D.41963, <variable>.pCurrNal
	ldrb	r3, [r1, #0]	@ zero_extendqisi2	@ i.3364, <variable>.nal_used_segment
	ldr	r0, [r1, #68]	@ i.3510, <variable>.nal_segment
	cmp	r3, #1	@ i.3364,
	cmpls	r3, r0	@, i.3364, i.3510
	bcs	.L859	@,
	add	r6, r3, #4	@ tmp215, i.3364,
	add	r2, r7, r6, asl #2	@, ivtmp.3356, pCurrSlicePara, tmp215,
.L860:
	rsb	r0, r3, r3, asl #3	@, tmp220, i.3364, i.3364,
	add	r3, r3, #1	@ i.3364, i.3364,
	mov	r6, r0, asl #2	@ tmp221, tmp220,
	add	r1, r6, r1	@ tmp222, tmp221, D.41963
	ldr	r1, [r1, #24]	@ <variable>.bitsoffset, <variable>.bitsoffset
	str	r1, [r2, #0]	@ <variable>.bitsoffset, <variable>.bitsoffset
	ldr	r1, [r5, #368]	@ <variable>.pCurrNal, <variable>.pCurrNal
	add	r1, r6, r1	@ tmp231, tmp221, <variable>.pCurrNal
	ldr	r1, [r1, #20]	@ <variable>.valid_bitlen, <variable>.valid_bitlen
	str	r1, [r2, #-8]	@ <variable>.valid_bitlen, <variable>.valid_bitlen
	ldr	r1, [r5, #368]	@ <variable>.pCurrNal, <variable>.pCurrNal
	add	r0, r6, r1	@ tmp240, tmp221, <variable>.pCurrNal
	cmp	r3, #1	@ i.3364,
	movhi	r6, #0	@, tmp249
	movls	r6, #1	@, tmp249
	ldr	r1, [r0, #28]	@ <variable>.bytespos, <variable>.bytespos
	str	r1, [r2, #8]	@ <variable>.bytespos, <variable>.bytespos
	add	r2, r2, #4	@ ivtmp.3356, ivtmp.3356,
	ldr	r1, [r5, #368]	@ D.41963, <variable>.pCurrNal
	ldr	r0, [r1, #68]	@ i.3510, <variable>.nal_segment
	cmp	r0, r3	@ i.3510, i.3364
	movls	r6, #0	@, tmp249,
	cmp	r6, #0	@ tmp249,
	bne	.L860	@,
.L859:
	cmp	r0, #1	@ i.3510,
	bhi	.L861	@,
	add	r3, r0, #4	@ tmp250, i.3510,
	add	r1, r7, #24	@ D.48527, pCurrSlicePara,
	mov	r2, #0	@ tmp589,
	add	r0, r7, r3, asl #2	@, ivtmp.3349, pCurrSlicePara, tmp250,
	add	r3, r0, #4	@ ivtmp.3349, ivtmp.3349,
	rsb	r6, r0, r1	@ tmp602, ivtmp.3349, D.48527
	cmp	r3, r1	@ ivtmp.3349, D.48527
	sub	r6, r6, #4	@ tmp603, tmp602,
	ubfx	r6, r6, #2, #1	@ tmp604, tmp603,,
	str	r2, [r0, #0]	@ tmp589, <variable>.bitsoffset
	str	r2, [r0, #-8]	@ tmp589, <variable>.valid_bitlen
	str	r2, [r0, #8]	@ tmp589, <variable>.bytespos
	beq	.L861	@,
	cmp	r6, #0	@ tmp604,
	beq	.L862	@,
	str	r2, [r3, #0]	@ tmp589, <variable>.bitsoffset
	str	r2, [r3, #-8]	@ tmp589, <variable>.valid_bitlen
	str	r2, [r3, #8]	@ tmp589, <variable>.bytespos
	add	r3, r3, #4	@ ivtmp.3349, ivtmp.3349,
	cmp	r3, r1	@ ivtmp.3349, D.48527
	beq	.L861	@,
.L862:
	add	r0, r3, #4	@ tmp605, ivtmp.3349,
	str	r2, [r3, #-8]	@ tmp589, <variable>.valid_bitlen
	str	r2, [r3, #8]	@ tmp589, <variable>.bytespos
	str	r2, [r3, #4]	@ tmp589, <variable>.bitsoffset
	str	r2, [r3, #0]	@ tmp589, <variable>.bitsoffset
	add	r3, r0, #4	@ ivtmp.3349, tmp605,
	cmp	r3, r1	@ ivtmp.3349, D.48527
	str	r2, [r0, #-8]	@ tmp589, <variable>.valid_bitlen
	str	r2, [r0, #8]	@ tmp589, <variable>.bytespos
	bne	.L862	@,
.L861:
	movw	r0, #49713	@ tmp255,
	ldr	r2, [sp, #8]	@, %sfp
	ldrb	r3, [r5, r0]	@ zero_extendqisi2	@ <variable>.CurrPic.MbaffFrameFlag, <variable>.CurrPic.MbaffFrameFlag
	movw	r1, #17636	@ tmp258,
	movw	r0, #22292	@ tmp259,
	cmp	r2, #0	@,
	strb	r3, [r7, #1]	@ <variable>.CurrPic.MbaffFrameFlag, <variable>.MbaffFrameFlag
	ldr	r3, [r5, r0]	@ <variable>.CurrSlice.slice_qp_delta, <variable>.CurrSlice.slice_qp_delta
	ldr	r2, [r5, r1]	@ <variable>.CurrPPS.pic_init_qp_minus26, <variable>.CurrPPS.pic_init_qp_minus26
	add	r1, r2, r3	@ tmp260, <variable>.CurrPPS.pic_init_qp_minus26, <variable>.CurrSlice.slice_qp_delta
	add	r3, r1, #26	@ D.41977, tmp260,
	str	r3, [r7, #32]	@ D.41977, <variable>.SliceQPy
	bne	.L863	@,
	movw	r2, #50112	@ tmp264,
	ldr	r0, [r5, r2]	@ <variable>.CurrPic.frame_store, <variable>.CurrPic.frame_store
	str	r3, [r0, #428]	@ D.41977, <variable>.frame.MaxQp
	ldr	r3, [r5, r2]	@ <variable>.CurrPic.frame_store, <variable>.CurrPic.frame_store
	ldr	r1, [r7, #32]	@ <variable>.SliceQPy, <variable>.SliceQPy
	str	r1, [r3, #432]	@ <variable>.SliceQPy, <variable>.frame.MinQp
.L864:
	movw	r3, #22288	@ tmp273,
	movw	r1, #20740	@ tmp275,
	ldr	r2, [r5, r3]	@ <variable>.CurrSlice.cabac_init_idc, <variable>.CurrSlice.cabac_init_idc
	movw	r3, #20680	@ tmp279,
	str	r2, [r7, #36]	@ <variable>.CurrSlice.cabac_init_idc, <variable>.cabac_init_idc
	mov	r2, #20736	@ tmp277,
	ldr	r0, [r5, r1]	@ <variable>.CurrSlice.num_ref_idx_l1_active_minus1, <variable>.CurrSlice.num_ref_idx_l1_active_minus1
	str	r0, [r7, #40]	@ <variable>.CurrSlice.num_ref_idx_l1_active_minus1, <variable>.num_ref_idx_l1_active_minus1
	ldr	r1, [r5, r2]	@ <variable>.CurrSlice.num_ref_idx_l0_active_minus1, <variable>.CurrSlice.num_ref_idx_l0_active_minus1
	movw	r2, #20732	@ tmp282,
	str	r1, [r7, #44]	@ <variable>.CurrSlice.num_ref_idx_l0_active_minus1, <variable>.num_ref_idx_l0_active_minus1
	movw	r1, #20686	@ tmp284,
	ldrb	r0, [r5, r3]	@ zero_extendqisi2	@ <variable>.CurrSlice.slice_type, <variable>.CurrSlice.slice_type
	strb	r0, [ip, r4]	@ <variable>.CurrSlice.slice_type, <variable>.slice_type
	ldr	ip, [r5, r2]	@ <variable>.CurrSlice.first_mb_in_slice, <variable>.CurrSlice.first_mb_in_slice
	movw	r2, #13608	@ tmp287,
	str	ip, [r7, #48]	@ <variable>.CurrSlice.first_mb_in_slice, <variable>.first_mb_in_slice
	ldrb	r0, [r5, r1]	@ zero_extendqisi2	@ <variable>.CurrSlice.direct_spatial_mv_pred_flag, <variable>.CurrSlice.direct_spatial_mv_pred_flag
	movw	r1, #20724	@ tmp290,
	strb	r0, [r7, #2]	@ <variable>.CurrSlice.direct_spatial_mv_pred_flag, <variable>.direct_spatial_mv_pred_flag
	ldrb	ip, [r5, r2]	@ zero_extendqisi2	@ <variable>.CurrSPS.direct_8x8_inference_flag, <variable>.CurrSPS.direct_8x8_inference_flag
	movw	r2, #20728	@ tmp292,
	strb	ip, [r7, #3]	@ <variable>.CurrSPS.direct_8x8_inference_flag, <variable>.direct_8x8_inference_flag
	ldr	r0, [r5, r1]	@ <variable>.CurrSlice.listXsize, <variable>.CurrSlice.listXsize
	str	r0, [r7, #52]	@ <variable>.CurrSlice.listXsize, <variable>.listXsize
	ldr	ip, [r5, r2]	@ <variable>.CurrSlice.listXsize, <variable>.CurrSlice.listXsize
	str	ip, [r7, #56]	@ <variable>.CurrSlice.listXsize, <variable>.listXsize
	ldrb	r3, [r5, r3]	@ zero_extendqisi2	@ temp.3371, <variable>.CurrSlice.slice_type
	cmp	r3, #1	@ temp.3371,
	beq	.L948	@,
	cmp	r3, #0	@ temp.3371,
	movweq	r3, #17590	@ tmp298,
	movne	r3, #0	@ tmp301,
	ldreqb	r3, [r5, r3]	@ zero_extendqisi2	@ <variable>.CurrPPS.weighted_pred_flag, <variable>.CurrPPS.weighted_pred_flag
	strb	r3, [r7, #4]	@ tmp301, <variable>.weight_flag
.L866:
	movw	r2, #17640	@ tmp303,
	movw	r0, #17644	@ tmp305,
	ldr	r1, [r5, r2]	@ <variable>.CurrPPS.chroma_qp_index_offset, <variable>.CurrPPS.chroma_qp_index_offset
	movw	r3, #22300	@ tmp307,
	str	r1, [r7, #60]	@ <variable>.CurrPPS.chroma_qp_index_offset, <variable>.chroma_qp_index_offset
	movw	r1, #22304	@ tmp309,
	ldr	ip, [r5, r0]	@ <variable>.CurrPPS.second_chroma_qp_index_offset, <variable>.CurrPPS.second_chroma_qp_index_offset
	str	ip, [r7, #64]	@ <variable>.CurrPPS.second_chroma_qp_index_offset, <variable>.second_chroma_qp_index_offset
	movw	ip, #22296	@ tmp311,
	ldr	r2, [r5, r3]	@ <variable>.CurrSlice.slice_alpha_c0_offset_div2, <variable>.CurrSlice.slice_alpha_c0_offset_div2
	str	r2, [r7, #68]	@ <variable>.CurrSlice.slice_alpha_c0_offset_div2, <variable>.slice_alpha_c0_offset_div2
	movw	r2, #20680	@ tmp313,
	ldr	r0, [r5, r1]	@ <variable>.CurrSlice.slice_beta_offset_div2, <variable>.CurrSlice.slice_beta_offset_div2
	str	r0, [r7, #72]	@ <variable>.CurrSlice.slice_beta_offset_div2, <variable>.slice_beta_offset_div2
	ldr	r3, [r5, ip]	@ <variable>.CurrSlice.disable_deblocking_filter_idc, <variable>.CurrSlice.disable_deblocking_filter_idc
	str	r3, [r7, #76]	@ <variable>.CurrSlice.disable_deblocking_filter_idc, <variable>.disable_deblocking_filter_idc
	ldrb	r1, [r5, r2]	@ zero_extendqisi2	@ <variable>.CurrSlice.slice_type, <variable>.CurrSlice.slice_type
	cmp	r1, #2	@ <variable>.CurrSlice.slice_type,
	beq	.L868	@,
	movw	r3, #20724	@ tmp315,
	ldr	r4, [r5, r3]	@ temp.3528, <variable>.CurrSlice.listXsize
	cmp	r4, #0	@ temp.3528,
	beq	.L869	@,
	movw	r1, #27036	@ tmp317,
	ldr	r0, [r5, r1]	@ <variable>.pListX, <variable>.pListX
	ldr	r3, [r0, #4]	@ temp.3505, <variable>.frame_store
	ldrb	ip, [r3, #0]	@ zero_extendqisi2	@ <variable>.non_existing, <variable>.non_existing
	cmp	ip, #0	@ <variable>.non_existing,
	beq	.L870	@,
	tst	r4, #1	@ temp.3528,
	add	r3, r5, #26880	@ tmp325, pH264Ctx,
	add	r1, r3, #160	@ ivtmp.3343, tmp325,
	mov	r0, #0	@ i.3374,
	bne	.L872	@,
	ldr	ip, [r1, #0]	@ tmp624, <variable>.pListX
	add	r1, r3, #164	@ ivtmp.3343, tmp325,
	mov	r0, #1	@ i.3374,
	ldr	r3, [ip, #4]	@ temp.3505, <variable>.frame_store
	ldrb	r2, [r3, #0]	@ zero_extendqisi2	@ <variable>.non_existing, <variable>.non_existing
	cmp	r2, #0	@ <variable>.non_existing,
	bne	.L872	@,
.L870:
	movw	lr, #52840	@ tmp321,
	ldr	r1, [r3, #508]	@, <variable>.logic_fs_id
	ldr	r0, [r5, lr]	@, <variable>.ChanID
	bl	FSP_GetLogicFs	@
	cmp	r0, #0	@ pstLogicFs
	beq	.L947	@,
	ldr	r2, [r0, #408]	@ <variable>.pstDecodeFs, <variable>.pstDecodeFs
	ldr	r4, [r2, #4]	@, <variable>.PhyFsID
	str	r4, [sp, #4]	@, %sfp
	b	.L874	@
.L875:
	ldr	r3, [r2], #4	@ tmp319, <variable>.pListX
	ldr	r3, [r3, #4]	@ temp.3505, <variable>.frame_store
	ldrb	ip, [r3, #0]	@ zero_extendqisi2	@ <variable>.non_existing, <variable>.non_existing
	cmp	ip, #0	@ <variable>.non_existing,
	beq	.L870	@,
	ldr	r3, [r1, #4]	@ tmp626, <variable>.pListX
	add	r1, r2, #4	@ ivtmp.3343, tmp600,
	ldr	r3, [r3, #4]	@ temp.3505, <variable>.frame_store
	ldrb	r2, [r3, #0]	@ zero_extendqisi2	@ <variable>.non_existing, <variable>.non_existing
	cmp	r2, #0	@ <variable>.non_existing,
	beq	.L870	@,
.L872:
	add	ip, r0, #1	@ tmp599, i.3374,
	mov	r2, r1	@ tmp600, ivtmp.3343
	cmp	ip, r4	@ tmp599, temp.3528
	add	r0, ip, #1	@ i.3374, tmp599,
	bcc	.L875	@,
.L869:
	mov	r0, #0	@,
	str	r0, [sp, #4]	@, %sfp
.L874:
	movw	r1, #20728	@ tmp326,
	ldr	r4, [r5, r1]	@ temp.3377, <variable>.CurrSlice.listXsize
	cmp	r4, #0	@ temp.3377,
	beq	.L876	@,
	movw	ip, #27168	@ tmp328,
	ldr	r3, [r5, ip]	@ <variable>.pListX, <variable>.pListX
	ldr	r3, [r3, #4]	@ temp.3506, <variable>.frame_store
	ldrb	r2, [r3, #0]	@ zero_extendqisi2	@ <variable>.non_existing, <variable>.non_existing
	cmp	r2, #0	@ <variable>.non_existing,
	beq	.L877	@,
	tst	r4, #1	@ temp.3377,
	add	r3, r5, #27136	@ tmp336, pH264Ctx,
	add	r1, r3, #36	@ ivtmp.3338, tmp336,
	mov	r0, #0	@ i.3381,
	bne	.L879	@,
	ldr	r2, [r1, #0]	@ tmp620, <variable>.pListX
	add	r1, r3, #40	@ ivtmp.3338, tmp336,
	mov	r0, #1	@ i.3381,
	ldr	r3, [r2, #4]	@ temp.3506, <variable>.frame_store
	ldrb	ip, [r3, #0]	@ zero_extendqisi2	@ <variable>.non_existing, <variable>.non_existing
	cmp	ip, #0	@ <variable>.non_existing,
	bne	.L879	@,
	b	.L877	@
.L882:
	ldr	r3, [r2], #4	@ tmp330, <variable>.pListX
	ldr	r3, [r3, #4]	@ temp.3506, <variable>.frame_store
	ldrb	ip, [r3, #0]	@ zero_extendqisi2	@ <variable>.non_existing, <variable>.non_existing
	cmp	ip, #0	@ <variable>.non_existing,
	beq	.L877	@,
	ldr	r3, [r1, #4]	@ tmp622, <variable>.pListX
	add	r1, r2, #4	@ ivtmp.3338, tmp595,
	ldr	r3, [r3, #4]	@ temp.3506, <variable>.frame_store
	ldrb	ip, [r3, #0]	@ zero_extendqisi2	@ <variable>.non_existing, <variable>.non_existing
	cmp	ip, #0	@ <variable>.non_existing,
	beq	.L877	@,
.L879:
	add	ip, r0, #1	@ tmp594, i.3381,
	mov	r2, r1	@ tmp595, ivtmp.3338
	cmp	r4, ip	@ temp.3377, tmp594
	add	r0, ip, #1	@ i.3381, tmp594,
	bhi	.L882	@,
.L876:
	mov	r0, #0	@,
	str	r0, [sp, #12]	@, %sfp
.L881:
	movw	r2, #49707	@ tmp337,
	ldrb	r8, [r5, r2]	@ zero_extendqisi2	@ <variable>.CurrPic.structure, <variable>.CurrPic.structure
	cmp	r8, #0	@ <variable>.CurrPic.structure,
	beq	.L883	@,
	movw	r9, #20724	@ tmp339,
	ldr	r3, [r5, r9]	@ <variable>.CurrSlice.listXsize, <variable>.CurrSlice.listXsize
	cmp	r3, #0	@ <variable>.CurrSlice.listXsize,
	beq	.L885	@,
	add	r4, r5, #26880	@ ivtmp.3318, pH264Ctx,
	mov	r6, r7	@ ivtmp.3323, pCurrSlicePara
	add	r4, r4, #156	@ ivtmp.3318, ivtmp.3318,
	mov	r8, #0	@ i.3470,
	movw	sl, #52840	@ tmp586,
	b	.L901	@
.L899:
	strb	r3, [r6, #1630]	@ temp.3464, <variable>.btm_structure
	add	r8, r8, #1	@ i.3470, i.3470,
	ldr	ip, [r4, #0]	@ tmp471, <variable>.pListX
	ldrb	r0, [ip, #1]	@ zero_extendqisi2	@ <variable>.is_long_term, <variable>.is_long_term
	strb	r0, [r6, #1631]	@ <variable>.is_long_term, <variable>.btm_is_long_term
	ldr	r1, [r4, #0]	@ tmp474, <variable>.pListX
	add	r4, r4, #4	@ ivtmp.3318, ivtmp.3318,
	ldr	lr, [r1, #16]	@ <variable>.poc, <variable>.poc
	str	lr, [r6, #1656]	@ <variable>.poc, <variable>.btm_poc
	add	r6, r6, #36	@ ivtmp.3323, ivtmp.3323,
	ldr	r2, [r5, r9]	@ <variable>.CurrSlice.listXsize, <variable>.CurrSlice.listXsize
	cmp	r2, r8	@ <variable>.CurrSlice.listXsize, i.3470
	bls	.L885	@,
.L901:
	ldr	r1, [r4, #0]	@ tmp435, <variable>.pListX
	ldr	r0, [r5, sl]	@, <variable>.ChanID
	ldr	lr, [r1, #4]	@ <variable>.frame_store, <variable>.frame_store
	ldr	r1, [lr, #508]	@, <variable>.logic_fs_id
	bl	FSP_GetLogicFs	@
	ldr	r3, [r4, #0]	@ tmp438, <variable>.pListX
	ldr	r2, [r3, #4]	@ <variable>.frame_store, <variable>.frame_store
	ldr	ip, [r2, #548]	@ <variable>.pmv_address_idc, <variable>.pmv_address_idc
	str	ip, [r6, #1636]	@ <variable>.pmv_address_idc, <variable>.pmv_address_idc
	ldr	r1, [r4, #0]	@ tmp441, <variable>.pListX
	ldr	r3, [r1, #4]	@ <variable>.frame_store, <variable>.frame_store
	ldrb	r2, [r3, #1]	@ zero_extendqisi2	@ <variable>.is_used, <variable>.is_used
	strb	r2, [r6, #1625]	@ <variable>.is_used, <variable>.is_used
	ldr	ip, [r4, #0]	@ tmp445, <variable>.pListX
	ldr	r1, [ip, #4]	@ <variable>.frame_store, <variable>.frame_store
	ldrb	r3, [r1, #0]	@ zero_extendqisi2	@ <variable>.non_existing, <variable>.non_existing
	cmp	r3, #1	@ <variable>.non_existing,
	ldreq	r0, [sp, #4]	@ ExistImgIdc_0.3360, %sfp
	beq	.L897	@,
	cmp	r0, #0	@ pstLogicFs.3441,
	ldrne	r3, [r0, #408]	@ <variable>.pstDecodeFs, <variable>.pstDecodeFs
	ldrne	r0, [r3, #4]	@ ExistImgIdc_0.3360, <variable>.PhyFsID
.L897:
	str	r0, [r6, #1640]	@ ExistImgIdc_0.3360, <variable>.img_idc
	ldr	r1, [r4, #0]	@ tmp449, <variable>.pListX
	ldr	lr, [r1, #4]	@ <variable>.frame_store, <variable>.frame_store
	ldr	r3, [lr, #552]	@ <variable>.apc_idc, <variable>.apc_idc
	str	r3, [r6, #1644]	@ <variable>.apc_idc, <variable>.apc_idc
	ldr	r2, [r4, #0]	@ tmp452, <variable>.pListX
	ldr	ip, [r2, #4]	@ <variable>.frame_store, <variable>.frame_store
	ldr	r0, [ip, #524]	@ <variable>.poc, <variable>.poc
	str	r0, [r6, #1632]	@ <variable>.poc, <variable>.poc
	ldr	r1, [r4, #0]	@ tmp455, <variable>.pListX
	ldrb	lr, [r1, #0]	@ zero_extendqisi2	@ <variable>.structure, <variable>.structure
	strb	lr, [r6, #1624]	@ <variable>.structure, <variable>.list_structure
	ldr	r3, [r4, #0]	@ tmp458, <variable>.pListX
	ldr	r2, [r3, #4]	@ <variable>.frame_store, <variable>.frame_store
	ldrb	ip, [r2, #400]	@ zero_extendqisi2	@ <variable>.frame.structure, <variable>.frame.structure
	strb	ip, [r6, #1626]	@ <variable>.frame.structure, <variable>.frame_structure
	ldr	r0, [r4, #0]	@ tmp462, <variable>.pListX
	ldrb	r3, [r0, #0]	@ zero_extendqisi2	@ temp.3464, <variable>.structure
	cmp	r3, #1	@ temp.3464,
	bne	.L899	@,
	strb	r3, [r6, #1628]	@ temp.3464, <variable>.top_structure
	add	r8, r8, #1	@ i.3470, i.3470,
	ldr	r3, [r4, #0]	@ tmp465, <variable>.pListX
	ldrb	r2, [r3, #1]	@ zero_extendqisi2	@ <variable>.is_long_term, <variable>.is_long_term
	strb	r2, [r6, #1629]	@ <variable>.is_long_term, <variable>.top_is_long_term
	ldr	ip, [r4, #0]	@ tmp468, <variable>.pListX
	add	r4, r4, #4	@ ivtmp.3318, ivtmp.3318,
	ldr	r0, [ip, #16]	@ <variable>.poc, <variable>.poc
	str	r0, [r6, #1652]	@ <variable>.poc, <variable>.top_poc
	add	r6, r6, #36	@ ivtmp.3323, ivtmp.3323,
	ldr	r2, [r5, r9]	@ <variable>.CurrSlice.listXsize, <variable>.CurrSlice.listXsize
	cmp	r2, r8	@ <variable>.CurrSlice.listXsize, i.3470
	bhi	.L901	@,
.L885:
	movw	r1, #20680	@ tmp478,
	ldrb	r3, [r5, r1]	@ zero_extendqisi2	@ <variable>.CurrSlice.slice_type, <variable>.CurrSlice.slice_type
	cmp	r3, #1	@ <variable>.CurrSlice.slice_type,
	beq	.L949	@,
.L891:
	mov	r3, #0	@ ivtmp.3256,
.L908:
	add	r0, r5, r3	@ tmp530, pH264Ctx, ivtmp.3256
	add	r2, r3, #4	@ tmp590, ivtmp.3256,
	add	ip, r0, #26880	@ tmp532, tmp530,
	add	r1, r5, r2	@ tmp616, pH264Ctx, tmp590
	add	r0, r7, r3	@ tmp529, pCurrSlicePara, ivtmp.3256
	add	r1, r1, #26880	@ tmp617, tmp616,
	ldr	ip, [ip, #28]	@ tmp533, <variable>.APC.RefIdx
	add	r3, r2, #4	@ ivtmp.3256, tmp590,
	cmp	r3, #128	@ ivtmp.3256,
	add	r2, r7, r2	@ tmp615, pCurrSlicePara, tmp590
	str	ip, [r0, #3928]	@ tmp533, <variable>.Apc2RefIdx
	ldr	r1, [r1, #28]	@ tmp619, <variable>.APC.RefIdx
	str	r1, [r2, #3928]	@ tmp619, <variable>.Apc2RefIdx
	bne	.L908	@,
	movw	r2, #17590	@ tmp534,
	movw	r0, #17632	@ tmp537,
	ldrb	r1, [r5, r2]	@ zero_extendqisi2	@ temp.3515, <variable>.CurrPPS.weighted_pred_flag
	movw	ip, #51652	@ tmp535,
	ldr	r2, [r5, r0]	@ <variable>.CurrPPS.weighted_bipred_idc, <variable>.CurrPPS.weighted_bipred_idc
	movw	r3, #51656	@ tmp536,
	cmp	r1, #0	@ temp.3515,
	str	r1, [r5, ip]	@ temp.3515, <variable>.DecPicPara.weighted_pred_flag
	str	r2, [r5, r3]	@ <variable>.CurrPPS.weighted_bipred_idc, <variable>.DecPicPara.weighted_bipred_idc
	beq	.L909	@,
	movw	ip, #20680	@ tmp539,
	ldrb	r3, [r5, ip]	@ zero_extendqisi2	@ <variable>.CurrSlice.slice_type, <variable>.CurrSlice.slice_type
	cmp	r3, #0	@ <variable>.CurrSlice.slice_type,
	bne	.L909	@,
.L910:
	movw	r0, #20744	@ tmp545,
	movw	ip, #20748	@ tmp547,
	ldr	r4, [r5, r0]	@ <variable>.CurrSlice.luma_log2_weight_denom, <variable>.CurrSlice.luma_log2_weight_denom
	add	r1, r5, #20736	@ ivtmp.3235, pH264Ctx,
	add	r3, r1, #16	@ ivtmp.3235, ivtmp.3235,
	mov	r0, r7	@ ivtmp.3527, pCurrSlicePara
	mov	r2, r7	@ ivtmp.3239, ivtmp.3527
	mov	r1, #0	@ i,
	str	r4, [r7, #80]	@ <variable>.CurrSlice.luma_log2_weight_denom, <variable>.luma_log2_weight_denom
	mov	r4, #20736	@ tmp574,
	ldr	ip, [r5, ip]	@ <variable>.CurrSlice.chroma_log2_weight_denom, <variable>.CurrSlice.chroma_log2_weight_denom
	str	ip, [r7, #84]	@ <variable>.CurrSlice.chroma_log2_weight_denom, <variable>.chroma_log2_weight_denom
.L911:
	ldr	ip, [r3, #0]	@ tmp550, <variable>.CurrSlice.wp_weight_l0_y
	add	r1, r1, #1	@ i, i,
	str	ip, [r2, #88]	@ tmp550, <variable>.wp_weight_l0_y
	ldr	ip, [r3, #128]	@ tmp551, <variable>.CurrSlice.wp_weight_l0_u
	str	ip, [r2, #216]	@ tmp551, <variable>.wp_weight_l0_u
	ldr	ip, [r3, #256]	@ tmp552, <variable>.CurrSlice.wp_weight_l0_v
	str	ip, [r2, #344]	@ tmp552, <variable>.wp_weight_l0_v
	ldr	ip, [r3, #768]	@ tmp553, <variable>.CurrSlice.wp_offset_l0_y
	str	ip, [r2, #856]	@ tmp553, <variable>.wp_offset_l0_y
	ldr	ip, [r3, #896]	@ tmp554, <variable>.CurrSlice.wp_offset_l0_u
	str	ip, [r2, #984]	@ tmp554, <variable>.wp_offset_l0_u
	ldr	ip, [r3, #1024]	@ tmp555, <variable>.CurrSlice.wp_offset_l0_v
	add	r3, r3, #4	@ ivtmp.3235, ivtmp.3235,
	str	ip, [r2, #1112]	@ tmp555, <variable>.wp_offset_l0_v
	add	r2, r2, #4	@ ivtmp.3239, ivtmp.3239,
	ldr	ip, [r5, r4]	@ <variable>.CurrSlice.num_ref_idx_l0_active_minus1, <variable>.CurrSlice.num_ref_idx_l0_active_minus1
	cmp	ip, r1	@ <variable>.CurrSlice.num_ref_idx_l0_active_minus1, i
	bcs	.L911	@,
	movw	r3, #20680	@ tmp558,
	ldrb	r2, [r5, r3]	@ zero_extendqisi2	@ <variable>.CurrSlice.slice_type, <variable>.CurrSlice.slice_type
	cmp	r2, #1	@ <variable>.CurrSlice.slice_type,
	beq	.L950	@,
.L868:
	ldr	r1, [sp, #8]	@, %sfp
	mov	r0, #0	@ tmp572,
	ldr	ip, [r5, #368]	@ <variable>.pCurrNal, <variable>.pCurrNal
	add	r3, r1, #12672	@ tmp569,,
	add	r2, r3, #4	@ tmp569, tmp569,
	str	ip, [r5, r2, asl #2]	@ <variable>.pCurrNal, <variable>.pSliceNal
	str	r0, [r5, #368]	@ tmp572, <variable>.pCurrNal
	add	sp, sp, #20	@,,
	ldmfd	sp!, {r4, r5, r6, r7, r8, r9, sl, fp, pc}
.L863:
	movw	r1, #50112	@ tmp268,
	ldr	r2, [r5, r1]	@ temp.3369, <variable>.CurrPic.frame_store
	ldr	r0, [r2, #428]	@ <variable>.frame.MaxQp, <variable>.frame.MaxQp
	ldr	r1, [r2, #432]	@ <variable>.frame.MinQp, <variable>.frame.MinQp
	cmp	r0, r3	@ <variable>.frame.MaxQp, D.41977
	strge	r0, [r2, #428]	@, <variable>.frame.MaxQp, <variable>.frame.MaxQp
	strlt	r3, [r2, #428]	@, D.41977, <variable>.frame.MaxQp
	cmp	r1, r3	@ <variable>.frame.MinQp, D.41977
	strle	r1, [r2, #432]	@, <variable>.frame.MinQp, <variable>.frame.MinQp
	strgt	r3, [r2, #432]	@, D.41977, <variable>.frame.MinQp
	b	.L864	@
.L909:
	movw	r0, #17632	@ tmp541,
	ldr	r1, [r5, r0]	@ <variable>.CurrPPS.weighted_bipred_idc, <variable>.CurrPPS.weighted_bipred_idc
	cmp	r1, #1	@ <variable>.CurrPPS.weighted_bipred_idc,
	bne	.L868	@,
	movw	r3, #20680	@ tmp543,
	ldrb	r2, [r5, r3]	@ zero_extendqisi2	@ <variable>.CurrSlice.slice_type, <variable>.CurrSlice.slice_type
	cmp	r2, #1	@ <variable>.CurrSlice.slice_type,
	bne	.L868	@,
	b	.L910	@
.L883:
	movw	fp, #20724	@ tmp341,
	ldr	r1, [r5, fp]	@ <variable>.CurrSlice.listXsize, <variable>.CurrSlice.listXsize
	cmp	r1, #0	@ <variable>.CurrSlice.listXsize,
	beq	.L886	@,
	add	r9, r5, #26880	@ ivtmp.3280, pH264Ctx,
	mov	r4, r7	@ ivtmp.3285, pCurrSlicePara
	add	r6, r9, #156	@ ivtmp.3280, ivtmp.3280,
	mov	sl, r8	@ tmp581, i.3372
	movw	r9, #52840	@ tmp579,
.L890:
	ldr	ip, [r6, #0]	@ tmp346, <variable>.pListX
	ldr	r0, [r5, r9]	@, <variable>.ChanID
	ldr	lr, [ip, #4]	@ <variable>.frame_store, <variable>.frame_store
	ldr	r1, [lr, #508]	@, <variable>.logic_fs_id
	bl	FSP_GetLogicFs	@
	ldr	r1, [r6, #0]	@ tmp349, <variable>.pListX
	ldr	r3, [r1, #4]	@ <variable>.frame_store, <variable>.frame_store
	ldr	r2, [r3, #548]	@ <variable>.pmv_address_idc, <variable>.pmv_address_idc
	str	r2, [r4, #1636]	@ <variable>.pmv_address_idc, <variable>.pmv_address_idc
	ldr	ip, [r6, #0]	@ tmp352, <variable>.pListX
	ldr	r1, [ip, #4]	@ <variable>.frame_store, <variable>.frame_store
	ldrb	r3, [r1, #1]	@ zero_extendqisi2	@ <variable>.is_used, <variable>.is_used
	strb	r3, [r4, #1625]	@ <variable>.is_used, <variable>.is_used
	ldr	r2, [r6, #0]	@ tmp356, <variable>.pListX
	ldr	ip, [r2, #4]	@ <variable>.frame_store, <variable>.frame_store
	ldrb	r3, [ip, #0]	@ zero_extendqisi2	@ <variable>.non_existing, <variable>.non_existing
	cmp	r3, #1	@ <variable>.non_existing,
	ldreq	r0, [sp, #4]	@ ExistImgIdc_0, %sfp
	beq	.L888	@,
	cmp	r0, #0	@ pstLogicFs.3386,
	ldrne	r3, [r0, #408]	@ <variable>.pstDecodeFs, <variable>.pstDecodeFs
	ldrne	r0, [r3, #4]	@ ExistImgIdc_0, <variable>.PhyFsID
.L888:
	str	r0, [r4, #1640]	@ ExistImgIdc_0, <variable>.img_idc
	add	r8, r8, #1	@ i.3372, i.3372,
	ldr	r2, [r6, #0]	@ tmp360, <variable>.pListX
	ldr	r0, [r2, #4]	@ <variable>.frame_store, <variable>.frame_store
	ldr	ip, [r0, #552]	@ <variable>.apc_idc, <variable>.apc_idc
	str	ip, [r4, #1644]	@ <variable>.apc_idc, <variable>.apc_idc
	ldr	lr, [r6, #0]	@ tmp363, <variable>.pListX
	ldr	r1, [lr, #4]	@ <variable>.frame_store, <variable>.frame_store
	ldr	r3, [r1, #524]	@ <variable>.poc, <variable>.poc
	str	r3, [r4, #1632]	@ <variable>.poc, <variable>.poc
	ldr	r2, [r6, #0]	@ tmp366, <variable>.pListX
	ldrb	r0, [r2, #1]	@ zero_extendqisi2	@ <variable>.is_long_term, <variable>.is_long_term
	strb	r0, [r4, #1627]	@ <variable>.is_long_term, <variable>.frame_is_long_term
	ldr	ip, [r6, #0]	@ tmp369, <variable>.pListX
	ldrb	lr, [ip, #0]	@ zero_extendqisi2	@ <variable>.structure, <variable>.structure
	strb	lr, [r4, #1626]	@ <variable>.structure, <variable>.frame_structure
	ldr	r1, [r6, #0]	@ tmp372, <variable>.pListX
	ldr	r3, [r1, #4]	@ <variable>.frame_store, <variable>.frame_store
	ldr	r2, [r3, #416]	@ <variable>.frame.poc, <variable>.frame.poc
	str	r2, [r4, #1648]	@ <variable>.frame.poc, <variable>.frame_poc
	ldr	r0, [r6, #0]	@ tmp375, <variable>.pListX
	ldr	ip, [r0, #4]	@ <variable>.frame_store, <variable>.frame_store
	ldr	lr, [ip, #452]	@ <variable>.top_field.poc, <variable>.top_field.poc
	str	lr, [r4, #1652]	@ <variable>.top_field.poc, <variable>.top_poc
	ldr	r1, [r6], #4	@ tmp378, <variable>.pListX
	ldr	r3, [r1, #4]	@ <variable>.frame_store, <variable>.frame_store
	ldr	r2, [r3, #488]	@ <variable>.bottom_field.poc, <variable>.bottom_field.poc
	strb	sl, [r4, #1624]	@ tmp581, <variable>.list_structure
	str	r2, [r4, #1656]	@ <variable>.bottom_field.poc, <variable>.btm_poc
	add	r4, r4, #36	@ ivtmp.3285, ivtmp.3285,
	ldr	r0, [r5, fp]	@ <variable>.CurrSlice.listXsize, <variable>.CurrSlice.listXsize
	cmp	r0, r8	@ <variable>.CurrSlice.listXsize, i.3372
	bhi	.L890	@,
.L886:
	movw	r1, #20680	@ tmp385,
	ldrb	r3, [r5, r1]	@ zero_extendqisi2	@ <variable>.CurrSlice.slice_type, <variable>.CurrSlice.slice_type
	cmp	r3, #1	@ <variable>.CurrSlice.slice_type,
	bne	.L891	@,
	movw	fp, #20728	@ tmp387,
	ldr	ip, [r5, fp]	@ <variable>.CurrSlice.listXsize, <variable>.CurrSlice.listXsize
	cmp	ip, #0	@ <variable>.CurrSlice.listXsize,
	beq	.L891	@,
	add	r6, r5, #27136	@ ivtmp.3262, pH264Ctx,
	add	sl, r7, #1632	@ ivtmp.3269, pCurrSlicePara,
	mov	r8, #0	@ i.3435,
	add	r6, r6, #32	@ ivtmp.3262, ivtmp.3262,
	add	r4, sl, #8	@ ivtmp.3269, ivtmp.3269,
	movw	r9, #52840	@ tmp575,
	mov	sl, r8	@ tmp577, i.3435
.L895:
	ldr	r2, [r6, #0]	@ tmp393, <variable>.pListX
	ldr	r0, [r5, r9]	@, <variable>.ChanID
	ldr	lr, [r2, #4]	@ <variable>.frame_store, <variable>.frame_store
	ldr	r1, [lr, #508]	@, <variable>.logic_fs_id
	bl	FSP_GetLogicFs	@
	ldr	ip, [r6, #0]	@ tmp396, <variable>.pListX
	ldr	r1, [ip, #4]	@ <variable>.frame_store, <variable>.frame_store
	ldr	r3, [r1, #548]	@ <variable>.pmv_address_idc, <variable>.pmv_address_idc
	str	r3, [r4, #1148]	@ <variable>.pmv_address_idc, <variable>.pmv_address_idc
	ldr	r2, [r6, #0]	@ tmp399, <variable>.pListX
	ldr	ip, [r2, #4]	@ <variable>.frame_store, <variable>.frame_store
	ldrb	r1, [ip, #1]	@ zero_extendqisi2	@ <variable>.is_used, <variable>.is_used
	strb	r1, [r4, #1137]	@ <variable>.is_used, <variable>.is_used
	ldr	r3, [r6, #0]	@ tmp403, <variable>.pListX
	ldr	r2, [r3, #4]	@ <variable>.frame_store, <variable>.frame_store
	ldrb	r3, [r2, #0]	@ zero_extendqisi2	@ <variable>.non_existing, <variable>.non_existing
	cmp	r3, #1	@ <variable>.non_existing,
	ldreq	r0, [sp, #12]	@ ExistImgIdc_1, %sfp
	beq	.L893	@,
	cmp	r0, #0	@ pstLogicFs.3413,
	ldrne	r3, [r0, #408]	@ <variable>.pstDecodeFs, <variable>.pstDecodeFs
	ldrne	r0, [r3, #4]	@ ExistImgIdc_1, <variable>.PhyFsID
.L893:
	str	r0, [r4, #0]	@ ExistImgIdc_1, <variable>.img_idc
	add	r8, r8, #1	@ i.3435, i.3435,
	ldr	r3, [r6, #0]	@ tmp407, <variable>.pListX
	ldr	r0, [r3, #4]	@ <variable>.frame_store, <variable>.frame_store
	ldr	r2, [r0, #552]	@ <variable>.apc_idc, <variable>.apc_idc
	str	r2, [r4, #1156]	@ <variable>.apc_idc, <variable>.apc_idc
	ldr	lr, [r6, #0]	@ tmp410, <variable>.pListX
	ldr	ip, [lr, #4]	@ <variable>.frame_store, <variable>.frame_store
	ldr	r1, [ip, #524]	@ <variable>.poc, <variable>.poc
	str	r1, [r4, #1144]	@ <variable>.poc, <variable>.poc
	ldr	r3, [r6, #0]	@ tmp413, <variable>.pListX
	ldrb	r0, [r3, #1]	@ zero_extendqisi2	@ <variable>.is_long_term, <variable>.is_long_term
	strb	r0, [r4, #1139]	@ <variable>.is_long_term, <variable>.frame_is_long_term
	ldr	r2, [r6, #0]	@ tmp416, <variable>.pListX
	ldrb	lr, [r2, #0]	@ zero_extendqisi2	@ <variable>.structure, <variable>.structure
	strb	lr, [r4, #1138]	@ <variable>.structure, <variable>.frame_structure
	ldr	ip, [r6, #0]	@ tmp419, <variable>.pListX
	ldr	r1, [ip, #4]	@ <variable>.frame_store, <variable>.frame_store
	ldr	r3, [r1, #416]	@ <variable>.frame.poc, <variable>.frame.poc
	str	r3, [r4, #1160]	@ <variable>.frame.poc, <variable>.frame_poc
	ldr	r0, [r6, #0]	@ tmp422, <variable>.pListX
	ldr	r2, [r0, #4]	@ <variable>.frame_store, <variable>.frame_store
	ldr	lr, [r2, #452]	@ <variable>.top_field.poc, <variable>.top_field.poc
	str	lr, [r4, #1164]	@ <variable>.top_field.poc, <variable>.top_poc
	ldr	ip, [r6], #4	@ tmp425, <variable>.pListX
	ldr	r1, [ip, #4]	@ <variable>.frame_store, <variable>.frame_store
	ldr	r3, [r1, #488]	@ <variable>.bottom_field.poc, <variable>.bottom_field.poc
	strb	sl, [r4, #1136]	@ tmp577, <variable>.list_structure
	str	r3, [r4, #1168]	@ <variable>.bottom_field.poc, <variable>.btm_poc
	add	r4, r4, #36	@ ivtmp.3269, ivtmp.3269,
	ldr	r0, [r5, fp]	@ <variable>.CurrSlice.listXsize, <variable>.CurrSlice.listXsize
	cmp	r0, r8	@ <variable>.CurrSlice.listXsize, i.3435
	bhi	.L895	@,
	b	.L891	@
.L877:
	movw	lr, #52840	@ tmp332,
	ldr	r1, [r3, #508]	@, <variable>.logic_fs_id
	ldr	r0, [r5, lr]	@, <variable>.ChanID
	bl	FSP_GetLogicFs	@
	cmp	r0, #0	@ pstLogicFs.3378
	beq	.L947	@,
	ldr	r1, [r0, #408]	@ <variable>.pstDecodeFs, <variable>.pstDecodeFs
	ldr	r8, [r1, #4]	@, <variable>.PhyFsID
	str	r8, [sp, #12]	@, %sfp
	b	.L881	@
.L948:
	movw	r0, #17632	@ tmp295,
	ldr	ip, [r5, r0]	@ <variable>.CurrPPS.weighted_bipred_idc, <variable>.CurrPPS.weighted_bipred_idc
	strb	ip, [r7, #4]	@ <variable>.CurrPPS.weighted_bipred_idc, <variable>.weight_flag
	b	.L866	@
.L949:
	movw	r9, #20728	@ tmp480,
	ldr	r0, [r5, r9]	@ <variable>.CurrSlice.listXsize, <variable>.CurrSlice.listXsize
	cmp	r0, #0	@ <variable>.CurrSlice.listXsize,
	beq	.L891	@,
	add	sl, r5, #27136	@ ivtmp.3298, pH264Ctx,
	add	r8, r7, #2800	@ ivtmp.3307, pCurrSlicePara,
	add	r4, sl, #32	@ ivtmp.3298, ivtmp.3298,
	add	r6, r8, #4	@ ivtmp.3307, ivtmp.3307,
	movw	sl, #52840	@ tmp583,
	mov	r8, #0	@ i.3466,
	b	.L907	@
.L905:
	strb	r3, [r6, #-22]	@ temp.3504, <variable>.btm_structure
	ldr	r2, [r4, #0]	@ tmp522, <variable>.pListX
	ldrb	r0, [r2, #1]	@ zero_extendqisi2	@ <variable>.is_long_term, <variable>.is_long_term
	strb	r0, [r6, #-21]	@ <variable>.is_long_term, <variable>.btm_is_long_term
	ldr	ip, [r4, #0]	@ tmp525, <variable>.pListX
	ldr	lr, [ip, #16]	@ <variable>.poc, <variable>.poc
	str	lr, [r6, #4]	@ <variable>.poc, <variable>.btm_poc
.L906:
	ldr	r3, [r5, r9]	@ <variable>.CurrSlice.listXsize, <variable>.CurrSlice.listXsize
	add	r8, r8, #1	@ i.3466, i.3466,
	add	r4, r4, #4	@ ivtmp.3298, ivtmp.3298,
	add	r6, r6, #36	@ ivtmp.3307, ivtmp.3307,
	cmp	r3, r8	@ <variable>.CurrSlice.listXsize, i.3466
	bls	.L891	@,
.L907:
	ldr	ip, [r4, #0]	@ tmp486, <variable>.pListX
	ldr	r0, [r5, sl]	@, <variable>.ChanID
	ldr	lr, [ip, #4]	@ <variable>.frame_store, <variable>.frame_store
	ldr	r1, [lr, #508]	@, <variable>.logic_fs_id
	bl	FSP_GetLogicFs	@
	ldr	r1, [r4, #0]	@ tmp489, <variable>.pListX
	ldr	r3, [r1, #4]	@ <variable>.frame_store, <variable>.frame_store
	ldr	r2, [r3, #548]	@ <variable>.pmv_address_idc, <variable>.pmv_address_idc
	str	r2, [r6, #-16]	@ <variable>.pmv_address_idc, <variable>.pmv_address_idc
	ldr	ip, [r4, #0]	@ tmp492, <variable>.pListX
	ldr	r1, [ip, #4]	@ <variable>.frame_store, <variable>.frame_store
	ldrb	r3, [r1, #1]	@ zero_extendqisi2	@ <variable>.is_used, <variable>.is_used
	strb	r3, [r6, #-27]	@ <variable>.is_used, <variable>.is_used
	ldr	r2, [r4, #0]	@ tmp496, <variable>.pListX
	ldr	ip, [r2, #4]	@ <variable>.frame_store, <variable>.frame_store
	ldrb	r3, [ip, #0]	@ zero_extendqisi2	@ <variable>.non_existing, <variable>.non_existing
	cmp	r3, #1	@ <variable>.non_existing,
	ldreq	r0, [sp, #12]	@ ExistImgIdc_1.3361, %sfp
	beq	.L903	@,
	cmp	r0, #0	@ pstLogicFs.3481,
	ldrne	r3, [r0, #408]	@ <variable>.pstDecodeFs, <variable>.pstDecodeFs
	ldrne	r0, [r3, #4]	@ ExistImgIdc_1.3361, <variable>.PhyFsID
.L903:
	str	r0, [r6, #-12]	@ ExistImgIdc_1.3361, <variable>.img_idc
	ldr	ip, [r4, #0]	@ tmp500, <variable>.pListX
	ldr	lr, [ip, #4]	@ <variable>.frame_store, <variable>.frame_store
	ldr	r1, [lr, #552]	@ <variable>.apc_idc, <variable>.apc_idc
	str	r1, [r6, #-8]	@ <variable>.apc_idc, <variable>.apc_idc
	ldr	r3, [r4, #0]	@ tmp503, <variable>.pListX
	ldr	r2, [r3, #4]	@ <variable>.frame_store, <variable>.frame_store
	ldr	r0, [r2, #524]	@ <variable>.poc, <variable>.poc
	str	r0, [r6, #-20]	@ <variable>.poc, <variable>.poc
	ldr	ip, [r4, #0]	@ tmp506, <variable>.pListX
	ldrb	lr, [ip, #0]	@ zero_extendqisi2	@ <variable>.structure, <variable>.structure
	strb	lr, [r6, #-28]	@ <variable>.structure, <variable>.list_structure
	ldr	r1, [r4, #0]	@ tmp509, <variable>.pListX
	ldr	r3, [r1, #4]	@ <variable>.frame_store, <variable>.frame_store
	ldrb	r2, [r3, #400]	@ zero_extendqisi2	@ <variable>.frame.structure, <variable>.frame.structure
	strb	r2, [r6, #-26]	@ <variable>.frame.structure, <variable>.frame_structure
	ldr	r0, [r4, #0]	@ tmp513, <variable>.pListX
	ldrb	r3, [r0, #0]	@ zero_extendqisi2	@ temp.3504, <variable>.structure
	cmp	r3, #1	@ temp.3504,
	bne	.L905	@,
	strb	r3, [r6, #-24]	@ temp.3504, <variable>.top_structure
	ldr	r1, [r4, #0]	@ tmp516, <variable>.pListX
	ldrb	r3, [r1, #1]	@ zero_extendqisi2	@ <variable>.is_long_term, <variable>.is_long_term
	strb	r3, [r6, #-23]	@ <variable>.is_long_term, <variable>.top_is_long_term
	ldr	r2, [r4, #0]	@ tmp519, <variable>.pListX
	ldr	r0, [r2, #16]	@ <variable>.poc, <variable>.poc
	str	r0, [r6, #0]	@ <variable>.poc, <variable>.top_poc
	b	.L906	@
.L950:
	add	r1, r5, #20992	@ ivtmp.3218, pH264Ctx,
	mov	r2, #0	@ i.3367,
	add	r3, r1, #144	@ ivtmp.3218, ivtmp.3218,
	movw	ip, #20740	@ tmp573,
.L912:
	ldr	r1, [r3, #0]	@ tmp561, <variable>.CurrSlice.wp_weight_l1_y
	add	r2, r2, #1	@ i.3367, i.3367,
	str	r1, [r0, #472]	@ tmp561, <variable>.wp_weight_l1_y
	ldr	r1, [r3, #128]	@ tmp562, <variable>.CurrSlice.wp_weight_l1_u
	str	r1, [r0, #600]	@ tmp562, <variable>.wp_weight_l1_u
	ldr	r1, [r3, #256]	@ tmp563, <variable>.CurrSlice.wp_weight_l1_v
	str	r1, [r0, #728]	@ tmp563, <variable>.wp_weight_l1_v
	ldr	r1, [r3, #768]	@ tmp564, <variable>.CurrSlice.wp_offset_l1_y
	str	r1, [r0, #1240]	@ tmp564, <variable>.wp_offset_l1_y
	ldr	r1, [r3, #896]	@ tmp565, <variable>.CurrSlice.wp_offset_l1_u
	str	r1, [r0, #1368]	@ tmp565, <variable>.wp_offset_l1_u
	ldr	r1, [r3, #1024]	@ tmp566, <variable>.CurrSlice.wp_offset_l1_v
	add	r3, r3, #4	@ ivtmp.3218, ivtmp.3218,
	str	r1, [r0, #1496]	@ tmp566, <variable>.wp_offset_l1_v
	add	r0, r0, #4	@ ivtmp.3527, ivtmp.3527,
	ldr	r1, [r5, ip]	@ <variable>.CurrSlice.num_ref_idx_l1_active_minus1, <variable>.CurrSlice.num_ref_idx_l1_active_minus1
	cmp	r1, r2	@ <variable>.CurrSlice.num_ref_idx_l1_active_minus1, i.3367
	bcs	.L912	@,
	b	.L868	@
.L947:
	add	sp, sp, #20	@,,
	ldmfd	sp!, {r4, r5, r6, r7, r8, r9, sl, fp, lr}
	b	vfmw_dprint_nothing	@
	.fnend
	.size	WriteSliceMsg, .-WriteSliceMsg
	.align	2
	.global	GetAPC
	.type	GetAPC, %function
GetAPC:
	.fnstart
.LFB1956:
	@ args = 0, pretend = 0, frame = 0
	@ frame_needed = 0, uses_anonymous_args = 0
	stmfd	sp!, {r3, r4, r5, r6, r7, r8, sl, lr}	@,
	.save {r3, r4, r5, r6, r7, r8, sl, lr}
	subs	r5, r1, #0	@ pFrameStore, pFrameStore
	mov	r4, r0	@ pH264Ctx, pH264Ctx
	beq	.L962	@,
	cmp	r2, #1	@ structure,
	beq	.L955	@,
	cmp	r2, #2	@ structure,
	beq	.L976	@,
	ldr	r7, [r5, #452]	@ toppoc, <variable>.top_field.poc
	ldr	r8, [r5, #488]	@ bottompoc, <variable>.bottom_field.poc
.L957:
	movw	r3, #26900	@ tmp147,
	ldr	r0, [r4, r3]	@ D.39098, <variable>.APC.size
	cmp	r0, #0	@ D.39098,
	beq	.L958	@,
	movw	r1, #26644	@ tmp148,
	ldr	r6, [r4, r1]	@ <variable>.APC.is_used, <variable>.APC.is_used
	cmp	r6, #0	@ <variable>.APC.is_used,
	beq	.L960	@,
	tst	r0, #1	@ D.39098,
	add	r3, r4, #26624	@ tmp183, pH264Ctx,
	add	r2, r3, #24	@ ivtmp.3560, tmp183,
	mov	r6, #0	@ i,
	bne	.L961	@,
	ldr	r1, [r2, #0]	@ D.39079, <variable>.APC.is_used
	mov	r6, #1	@ i,
	add	r2, r3, #28	@ ivtmp.3560, tmp183,
	cmp	r1, #0	@ D.39079,
	bne	.L961	@,
	b	.L960	@
.L965:
	ldr	ip, [r3], #4	@ D.39079, <variable>.APC.is_used
	cmp	ip, #0	@ D.39079,
	beq	.L960	@,
	ldr	ip, [r2, #4]	@ D.39079, <variable>.APC.is_used
	add	r6, r6, #1	@ i, i,
	add	r2, r3, #4	@ ivtmp.3560, tmp189,
	cmp	ip, #0	@ D.39079,
	beq	.L960	@,
.L961:
	add	r6, r6, #1	@ i, i,
	mov	r3, r2	@ tmp189, ivtmp.3560
	cmp	r6, r0	@ i, D.39098
	bcc	.L965	@,
.L958:
	mvn	r0, #0	@ D.39077,
	ldmfd	sp!, {r3, r4, r5, r6, r7, r8, sl, pc}	@
.L976:
	ldr	r7, [r5, #488]	@ toppoc, <variable>.bottom_field.poc
	mov	r8, r7	@ bottompoc, toppoc
	b	.L957	@
.L960:
	movw	r2, #52840	@ tmp150,
	ldr	r1, [r5, #508]	@, <variable>.logic_fs_id
	ldr	r0, [r4, r2]	@, <variable>.ChanID
	bl	FSP_GetLogicFs	@
	cmp	r0, #0	@ pstLogicFs
	beq	.L962	@,
	ldr	lr, [r0, #408]	@ <variable>.pstDecodeFs, <variable>.pstDecodeFs
	cmp	lr, #0	@ <variable>.pstDecodeFs,
	beq	.L962	@,
	add	r2, r6, #6656	@ tmp155, i,
	movw	sl, #26904	@ tmp181,
	add	lr, r4, r2, asl #2	@, tmp158, pH264Ctx, tmp155,
	ldr	r2, [r4, sl]	@ D.39094, <variable>.APC.used_size
	mov	sl, #1	@ tmp160,
	str	sl, [lr, #20]	@ tmp160, <variable>.APC.is_used
	mov	ip, lr	@ tmp179, tmp158
	ldr	r0, [r0, #408]	@ <variable>.pstDecodeFs, <variable>.pstDecodeFs
	cmp	r2, #15	@ D.39094,
	addls	r2, r2, #1	@ iftmp.562, D.39094,
	movhi	r2, #16	@ iftmp.562,
	ldr	lr, [r0, #4]	@ <variable>.PhyFsID, <variable>.PhyFsID
	movw	r0, #26904	@ tmp182,
	str	r2, [r4, r0]	@ iftmp.562, <variable>.APC.used_size
	str	r7, [ip, #148]	@ toppoc, <variable>.APC.poc
	str	r8, [ip, #212]	@ bottompoc, <variable>.APC.poc
	str	lr, [ip, #84]	@ <variable>.PhyFsID, <variable>.APC.idc
	bl	vfmw_dprint_nothing	@
	str	r6, [r5, #552]	@ i, <variable>.apc_idc
	mov	r0, #0	@ D.39077,
	ldmfd	sp!, {r3, r4, r5, r6, r7, r8, sl, pc}	@
.L955:
	ldr	r7, [r5, #452]	@ toppoc, <variable>.top_field.poc
	mov	r8, r7	@ bottompoc, toppoc
	b	.L957	@
.L962:
	bl	vfmw_dprint_nothing	@
	mvn	r0, #0	@ D.39077,
	ldmfd	sp!, {r3, r4, r5, r6, r7, r8, sl, pc}	@
	.fnend
	.size	GetAPC, .-GetAPC
	.align	2
	.global	ExchangePts
	.type	ExchangePts, %function
ExchangePts:
	.fnstart
.LFB1949:
	@ args = 0, pretend = 0, frame = 16
	@ frame_needed = 0, uses_anonymous_args = 0
	stmfd	sp!, {r4, r5, r6, r7, r8, r9, sl, fp, lr}	@,
	.save {r4, r5, r6, r7, r8, r9, sl, fp, lr}
	ldrd	r2, [r1, #16]	@ <variable>.fs_image.PTS, pFrameStore,
	mov	fp, r1	@ pFrameStore, pFrameStore
	mov	r8, r0	@ pH264Ctx, pH264Ctx
	mvn	r1, #0	@,
	mvn	r0, #0	@ tmp144,
	cmp	r3, r1	@ <variable>.fs_image.PTS, tmp144
	cmpeq	r2, r0	@ <variable>.fs_image.PTS, tmp144
	.pad #20
	sub	sp, sp, #20	@,,
	beq	.L983	@,
	movw	sl, #26628	@ tmp145,
	ldr	r3, [r8, sl]	@ <variable>.DPB.used_size, <variable>.DPB.used_size
	cmp	r3, #0	@ <variable>.DPB.used_size,
	beq	.L983	@,
	add	r4, r8, #26368	@ ivtmp.3592, pH264Ctx,
	mvn	r6, #1	@ MinPts.3598,
	add	r4, r4, #64	@ ivtmp.3592, ivtmp.3592,
	mvn	r7, #0	@ MinPts.3598,
	mov	r5, #0	@ i,
	movw	r9, #52840	@ tmp168,
	mvn	r0, #0	@,
	str	r0, [sp, #12]	@, %sfp
.L982:
	ldr	r3, [r4, #0]	@ D.38734, <variable>.DPB.fs
	cmp	r3, #0	@ D.38734,
	beq	.L979	@,
	ldr	r1, [r3, #508]	@, <variable>.logic_fs_id
	ldr	r0, [r8, r9]	@, <variable>.ChanID
	bl	FSP_GetLogicFs	@
	cmp	r0, #0	@ pstLogicFs
	beq	.L979	@,
	ldrsb	r1, [r0, #1]	@ D.38742, <variable>.s32DispState
	cmp	r1, #3	@ D.38742,
	cmpne	r1, #0	@, D.38742,
	beq	.L979	@,
	ldr	r3, [r4, #0]	@ tmp160, <variable>.DPB.fs
	ldrd	r2, [r3, #16]	@ MinPts, tmp160,
	cmp	r3, r7	@ MinPts, MinPts.3598
	cmpeq	r2, r6	@ MinPts, MinPts.3598
	strcc	r5, [sp, #12]	@ i, %sfp
	bcc	.L980	@,
.L979:
	mov	r2, r6	@ MinPts, MinPts.3598
	mov	r3, r7	@ MinPts, MinPts.3598
.L980:
	ldr	ip, [r8, sl]	@ <variable>.DPB.used_size, <variable>.DPB.used_size
	add	r5, r5, #1	@ i, i,
	mov	r6, r2	@ MinPts.3598, MinPts
	mov	r7, r3	@ MinPts.3598, MinPts
	cmp	r5, ip	@ i, <variable>.DPB.used_size
	add	r4, r4, #4	@ ivtmp.3592, ivtmp.3592,
	bcc	.L982	@,
	ldr	r0, [sp, #12]	@, %sfp
	cmn	r0, #1	@,
	beq	.L983	@,
	ldrd	r0, [fp, #16]	@ <variable>.fs_image.PTS, pFrameStore,
	cmp	r3, r1	@ MinPts, <variable>.fs_image.PTS
	cmpeq	r2, r0	@ MinPts, <variable>.fs_image.PTS
	bcc	.L984	@,
.L983:
	add	sp, sp, #20	@,,
	ldmfd	sp!, {r4, r5, r6, r7, r8, r9, sl, fp, pc}
.L984:
	str	r2, [sp, #8]	@,
	str	r3, [sp, #4]	@,
	bl	vfmw_dprint_nothing	@
	ldr	r4, [sp, #12]	@, %sfp
	add	r5, r4, #6592	@ tmp164,,
	add	r3, r5, #16	@ tmp164, tmp164,
	ldrd	r4, [fp, #16]	@ <variable>.fs_image.PTS, pFrameStore,
	ldr	r2, [r8, r3, asl #2]	@ tmp166, <variable>.DPB.fs
	strd	r4, [r2, #16]	@ <variable>.fs_image.PTS, tmp166,
	ldr	r2, [sp, #8]	@,
	ldr	r3, [sp, #4]	@,
	strd	r2, [fp, #16]	@ MinPts, pFrameStore,
	b	.L983	@
	.fnend
	.size	ExchangePts, .-ExchangePts
	.align	2
	.global	CheckFrameStore
	.type	CheckFrameStore, %function
CheckFrameStore:
	.fnstart
.LFB1948:
	@ args = 0, pretend = 0, frame = 0
	@ frame_needed = 0, uses_anonymous_args = 0
	stmfd	sp!, {r3, r4, r5, lr}	@,
	.save {r3, r4, r5, lr}
	mov	r5, r0	@ pH264Ctx, pH264Ctx
	movw	r0, #51332	@ tmp140,
	mov	r4, r1	@ pFrameStore, pFrameStore
	ldr	r3, [r5, r0]	@ <variable>.IDRFound, <variable>.IDRFound
	cmp	r3, #0	@ <variable>.IDRFound,
	bne	.L986	@,
	ldr	r1, [r1, #528]	@ <variable>.eFoState, <variable>.eFoState
	cmp	r1, #1	@ <variable>.eFoState,
	beq	.L987	@,
	movw	ip, #52768	@ tmp143,
	ldr	r2, [r5, ip]	@ <variable>.OldDecMode, <variable>.OldDecMode
	cmp	r2, #0	@ <variable>.OldDecMode,
	beq	.L1005	@,
.L987:
	movw	r1, #51332	@ tmp147,
	mov	lr, #1	@ tmp148,
	str	lr, [r5, r1]	@ tmp148, <variable>.IDRFound
.L986:
	movw	r2, #52840	@ tmp149,
	ldr	r1, [r4, #508]	@, <variable>.logic_fs_id
	ldr	r0, [r5, r2]	@, <variable>.ChanID
	bl	FSP_GetLogicFs	@
	cmp	r0, #0	@ pstLogicFs
	beq	.L989	@,
	ldrsb	ip, [r0, #1]	@ D.38680, <variable>.s32DispState
	cmp	ip, #3	@ D.38680,
	cmpne	ip, #0	@, D.38680,
	beq	.L989	@,
	ldrb	r1, [r4, #1]	@ zero_extendqisi2	@ D.38693, <variable>.is_used
	cmp	r1, #0	@ D.38693,
	beq	.L1004	@,
	ldrb	lr, [r4, #0]	@ zero_extendqisi2	@ <variable>.non_existing, <variable>.non_existing
	cmp	lr, #1	@ <variable>.non_existing,
	beq	.L1004	@,
	ldr	lr, [r4, #0]	@ tmp166,* pFrameStore
	movw	ip, #:lower16:50332416	@ tmp167,
	movt	ip, #:upper16:50332416	@ tmp167,
	bic	r3, lr, #16711680	@ tmp164, tmp166,
	bic	r2, r3, #255	@ tmp164, tmp164,
	cmp	r2, ip	@ tmp164, tmp167
	beq	.L1004	@,
	cmp	r1, #1	@ D.38693,
	beq	.L1006	@,
	cmp	r1, #2	@ D.38693,
	beq	.L1007	@,
.L996:
	ldr	lr, [r5, #0]	@ <variable>.pstExtraData, <variable>.pstExtraData
	ldr	ip, [r0, #188]	@ <variable>.stDispImg.error_level, <variable>.stDispImg.error_level
	ldr	r3, [lr, #4]	@ <variable>.s32OutErrThr, <variable>.s32OutErrThr
	cmp	ip, r3	@ <variable>.stDispImg.error_level, <variable>.s32OutErrThr
	movls	r0, #0	@ D.38674,
	ldmlsfd	sp!, {r3, r4, r5, pc}	@
	bl	vfmw_dprint_nothing	@
	mvn	r0, #0	@ D.38674,
	ldmfd	sp!, {r3, r4, r5, pc}	@
.L1007:
	ldrb	r2, [r4, #3]	@ zero_extendqisi2	@ <variable>.mode_skip_flag, <variable>.mode_skip_flag
	tst	r2, #2	@ <variable>.mode_skip_flag,
	beq	.L996	@,
	bl	vfmw_dprint_nothing	@
	b	.L1002	@
.L989:
	bl	vfmw_dprint_nothing	@
	ldr	r3, [r4, #528]	@ <variable>.eFoState, <variable>.eFoState
	mvn	r0, #2	@ D.38674,
	cmp	r3, #1	@ <variable>.eFoState,
	moveq	r3, #2	@ tmp162,
	streq	r3, [r4, #528]	@ tmp162, <variable>.eFoState
	ldmfd	sp!, {r3, r4, r5, pc}	@
.L1006:
	ldrb	r1, [r4, #3]	@ zero_extendqisi2	@ <variable>.mode_skip_flag, <variable>.mode_skip_flag
	tst	r1, #1	@ <variable>.mode_skip_flag,
	beq	.L996	@,
.L1004:
	bl	vfmw_dprint_nothing	@
	mvn	r0, #0	@ D.38674,
	ldmfd	sp!, {r3, r4, r5, pc}	@
.L1005:
	ldr	r0, [r5, #0]	@ <variable>.pstExtraData, <variable>.pstExtraData
	ldr	r3, [r0, #12]	@ <variable>.s32DecOrderOutput, <variable>.s32DecOrderOutput
	cmp	r3, #0	@ <variable>.s32DecOrderOutput,
	bne	.L987	@,
.L1002:
	mvn	r0, #0	@ D.38674,
	ldmfd	sp!, {r3, r4, r5, pc}	@
	.fnend
	.size	CheckFrameStore, .-CheckFrameStore
	.align	2
	.global	H264DEC_RecycleImage
	.type	H264DEC_RecycleImage, %function
H264DEC_RecycleImage:
	.fnstart
.LFB2048:
	@ args = 0, pretend = 0, frame = 0
	@ frame_needed = 0, uses_anonymous_args = 0
	stmfd	sp!, {r3, r4, r5, r6, r7, lr}	@,
	.save {r3, r4, r5, r6, r7, lr}
	mov	r4, r0	@ pH264Ctx, pH264Ctx
	mov	r5, r1	@ PicID, PicID
	movw	r6, #52840	@ tmp143,
	bl	vfmw_dprint_nothing	@
	ldr	r0, [r4, r6]	@, <variable>.ChanID
	mov	r1, r5	@, PicID
	bl	FSP_GetLogicFs	@
	subs	r7, r0, #0	@ pstLogicFs,
	bne	.L1016	@,
.L1009:
	mvn	r0, #0	@ D.45629,
	ldmfd	sp!, {r3, r4, r5, r6, r7, pc}	@
.L1016:
	ldrsb	r3, [r7, #1]	@ <variable>.s32DispState, <variable>.s32DispState
	cmp	r3, #0	@ <variable>.s32DispState,
	beq	.L1009	@,
	ldr	r1, [r7, #200]	@ D.45631, <variable>.stDispImg.p_usrdat
	cmp	r1, #0	@ D.45631,
	beq	.L1010	@,
	ldr	r0, [r4, r6]	@, <variable>.ChanID
	bl	FreeUsdByDec	@
	mov	r0, #0	@ tmp148,
	str	r0, [r7, #200]	@ tmp148, <variable>.stDispImg.p_usrdat
.L1010:
	ldr	r1, [r7, #204]	@ temp.3658, <variable>.stDispImg.p_usrdat
	cmp	r1, #0	@ temp.3658,
	beq	.L1011	@,
	movw	r2, #52840	@ tmp149,
	ldr	r0, [r4, r2]	@, <variable>.ChanID
	bl	FreeUsdByDec	@
	mov	r1, #0	@ tmp151,
	str	r1, [r7, #204]	@ tmp151, <variable>.stDispImg.p_usrdat
.L1011:
	ldr	r1, [r7, #208]	@ temp.3660, <variable>.stDispImg.p_usrdat
	cmp	r1, #0	@ temp.3660,
	beq	.L1012	@,
	movw	lr, #52840	@ tmp152,
	ldr	r0, [r4, lr]	@, <variable>.ChanID
	bl	FreeUsdByDec	@
	mov	ip, #0	@ tmp154,
	str	ip, [r7, #208]	@ tmp154, <variable>.stDispImg.p_usrdat
.L1012:
	ldr	r1, [r7, #212]	@ temp.3654, <variable>.stDispImg.p_usrdat
	cmp	r1, #0	@ temp.3654,
	beq	.L1013	@,
	movw	r2, #52840	@ tmp155,
	ldr	r0, [r4, r2]	@, <variable>.ChanID
	bl	FreeUsdByDec	@
	mov	r3, #0	@ tmp157,
	str	r3, [r7, #212]	@ tmp157, <variable>.stDispImg.p_usrdat
.L1013:
	movw	ip, #52840	@ tmp158,
	mov	r1, r5	@, PicID
	ldr	r0, [r4, ip]	@, <variable>.ChanID
	mov	r2, #0	@,
	bl	FSP_SetDisplay	@
	mov	r0, #0	@ D.45629,
	ldmfd	sp!, {r3, r4, r5, r6, r7, pc}	@
	.fnend
	.size	H264DEC_RecycleImage, .-H264DEC_RecycleImage
	.align	2
	.global	u_1
	.type	u_1, %function
u_1:
	.fnstart
.LFB1920:
	@ args = 0, pretend = 0, frame = 0
	@ frame_needed = 0, uses_anonymous_args = 0
	add	r1, r0, #13504	@, pH264Ctx,
	stmfd	sp!, {r3, r4, r5, lr}	@,
	.save {r3, r4, r5, lr}
