	.arch armv7-a
	.fpu softvfp
	.eabi_attribute 20, 1
	.eabi_attribute 21, 1
	.eabi_attribute 23, 3
	.eabi_attribute 24, 1
	.eabi_attribute 25, 1
	.eabi_attribute 26, 2
	.eabi_attribute 30, 2
	.eabi_attribute 18, 4
	.file	"vp6.c"
@ GNU C (Hisilicon_v200(gcc4.4-290+glibc-2.11+eabi+nptl)) version 4.4.1 (arm-hisiv200-linux-gnueabi)
@	compiled by GNU C version 4.1.1 20061011 (Red Hat 4.1.1-30), GMP version 4.3.1, MPFR version 2.4.2.
@ GGC heuristics: --param ggc-min-expand=100 --param ggc-min-heapsize=131072
@ options passed:  -nostdinc -I./arch/arm/include
@ -Iarch/arm/include/generated -Iinclude -I./arch/arm/include/uapi
@ -Iarch/arm/include/generated/uapi -I./include/uapi
@ -Iinclude/generated/uapi -Iarch/arm/mach-hi3716mv310/include
@ -I/home/f00136911/v1r4/615/work/source/kernel/linux-3.18.y/../../../source/common/include
@ -I/home/f00136911/v1r4/615/work/source/kernel/linux-3.18.y/../../../source/common/drv/include
@ -I/home/f00136911/v1r4/615/work/source/kernel/linux-3.18.y/../../../source/msp/drv/vfmw/vfmw_v4.0/drv/memmap
@ -I/home/f00136911/v1r4/615/work/source/kernel/linux-3.18.y/../../../source/msp/drv/vfmw/vfmw_v4.0/model/scd
@ -I/home/f00136911/v1r4/615/work/source/kernel/linux-3.18.y/../../../source/msp/drv/vfmw/vfmw_v4.0/firmware/common/softlib
@ -I/home/f00136911/v1r4/615/work/source/kernel/linux-3.18.y/../../../source/msp/drv/vfmw/vfmw_v4.0/firmware/common
@ -I/home/f00136911/v1r4/615/work/source/kernel/linux-3.18.y/../../../source/msp/drv/vfmw/vfmw_v4.0/firmware/common/syntax
@ -I/home/f00136911/v1r4/615/work/source/kernel/linux-3.18.y/../../../source/msp/drv/vfmw/vfmw_v4.0/firmware/driver/HiSCDV200
@ -I/home/f00136911/v1r4/615/work/source/kernel/linux-3.18.y/../../../source/msp/drv/vfmw/vfmw_v4.0/firmware/driver/HiVDHV100
@ -I/home/f00136911/v1r4/615/work/source/kernel/linux-3.18.y/../../../source/msp/drv/vfmw/vfmw_v4.0/firmware/driver/HiVDHV200R001
@ -I/home/f00136911/v1r4/615/work/source/kernel/linux-3.18.y/../../../source/msp/drv/vfmw/vfmw_v4.0/firmware/driver/HiVDHV200R002
@ -I/home/f00136911/v1r4/615/work/source/kernel/linux-3.18.y/../../../source/msp/drv/vfmw/vfmw_v4.0/firmware/driver/HiVDHV200R003
@ -I/home/f00136911/v1r4/615/work/source/kernel/linux-3.18.y/../../../source/msp/drv/vfmw/vfmw_v4.0/firmware/driver/HiVDHV200R004
@ -I/home/f00136911/v1r4/615/work/source/kernel/linux-3.18.y/../../../source/msp/drv/vfmw/vfmw_v4.0/model/rawpacket
@ -I/home/f00136911/v1r4/615/work/source/kernel/linux-3.18.y/../../../source/msp/drv/vfmw/vfmw_v4.0/firmware/product/Hi3716MV310_advca/osal/linux_kernel
@ -I/home/f00136911/v1r4/615/work/source/kernel/linux-3.18.y/../../../source/msp/drv/vfmw/vfmw_v4.0/firmware/product/Hi3716MV310_advca
@ -I/home/f00136911/v1r4/615/work/source/kernel/linux-3.18.y/../../../source/msp/drv/vfmw/vfmw_v4.0/firmware/driver/HiDNR
@ -I/home/f00136911/v1r4/615/work/source/kernel/linux-3.18.y/../../../source/msp/drv/vfmw/vfmw_v4.0/firmware/driver/HiBTLV100
@ -I/home/f00136911/v1r4/615/work/source/kernel/linux-3.18.y/../../../source/msp/drv/vfmw/vfmw_v4.0/firmware/common_test/vdecko
@ -iprefix
@ /opt/hisi-linux/x86-arm/arm-hisiv200-linux/bin/../lib/gcc/arm-hisiv200-linux-gnueabi/4.4.1/
@ -isysroot /opt/hisi-linux/x86-arm/arm-hisiv200-linux/bin/../target
@ -D__KERNEL__ -D__LINUX_ARM_ARCH__=7 -Uarm -DHi3716MV310
@ -DENV_ARMLINUX_KERNEL -DOFF_LINE_DNR_ENABLE -DSCD_MP4_SLICE_ENABLE
@ -DSUPPORT_JPEG_444 -DVFMW_EXTRA_TYPE_DEFINE -DPRODUCT_STB
@ -D__VFMW_REGISTER_ISR__ -DVFMW_VDH_V200R004_SUPPORT -DVFMW_H264_SUPPORT
@ -DVFMW_MPEG2_SUPPORT -DVFMW_MPEG4_SUPPORT -DVFMW_AVS_SUPPORT
@ -DVFMW_VC1_SUPPORT -DVFMW_BPD_H_SUPPORT -DVFMW_REAL8_SUPPORT
@ -DVFMW_REAL9_SUPPORT -DVFMW_VP6_SUPPORT -DVFMW_VP8_SUPPORT
@ -DVFMW_DIVX3_SUPPORT -DVFMW_DNR_SUPPORT -DVFMW_H263_SUPPORT
@ -DVFMW_JPEG_SUPPORT -DVFMW_RAW_SUPPORT -DVFMW_USER_SUPPORT
@ -DCFG_MAX_CHAN_NUM=4 -DCFG_MAX_CHAN_NUM=4 -DVFMW_DPRINT_SUPPORT
@ -DVFMW_AVSPLUS_SUPPORT -DVFMW_SYSTEM_REG_DISABLE -DREPAIR_ENABLE
@ -DCHIP_TYPE_hi3716mv310 -DSDK_VERSION=HiSTBLinuxV100R006C00SPC050
@ -DHI_LOG_SUPPORT=0 -DHI_PROC_SUPPORT=0 -DHI_PNG_DECODER_SUPPORT
@ -DHI_KEYLED_SUPPORT -DHI_HDCP_SUPPORT -DHI_SCI_SUPPORT
@ -DHI_GPIOI2C_SUPPORT -DHI_IR_S2_SUPPORT -DHI_DSC_SUPPORT
@ -DHI_ADVCA_SUPPORT -DHI_ADVCA_TYPE_CONAX -DHI_ADVCA_FUNCTION_RELEASE
@ -DMODULE -DKBUILD_STR(s)=#s -DKBUILD_BASENAME=KBUILD_STR(vp6)
@ -DKBUILD_MODNAME=KBUILD_STR(hi_vfmw) -isystem
@ /opt/hisi-linux/x86-arm/arm-hisiv200-linux/bin/../lib/gcc/arm-hisiv200-linux-gnueabi/4.4.1/include
@ -include ./include/linux/kconfig.h -MD
@ /home/f00136911/v1r4/615/work/source/msp/drv/vfmw/vfmw_v4.0/firmware/common/syntax/.vp6.o.d
@ /home/f00136911/v1r4/615/work/source/msp/drv/vfmw/vfmw_v4.0/firmware/common/syntax/vp6.c
@ -mlittle-endian -mabi=aapcs-linux -mno-thumb-interwork -mfpu=vfp -marm
@ -march=armv7-a -msoft-float -auxbase-strip
@ /home/f00136911/v1r4/615/work/source/msp/drv/vfmw/vfmw_v4.0/firmware/common/syntax/vp6.o
@ -O2 -Wall -Wundef -Wstrict-prototypes -Wno-trigraphs
@ -Werror-implicit-function-declaration -Wno-format-security
@ -Wframe-larger-than=1024 -Wdeclaration-after-statement -Wno-pointer-sign
@ -Werror=implicit-int -Werror=strict-prototypes -std=gnu89
@ -fno-strict-aliasing -fno-common -fno-dwarf2-cfi-asm -funwind-tables
@ -fno-delete-null-pointer-checks -fstack-protector -fomit-frame-pointer
@ -fno-strict-overflow -fconserve-stack -fno-pic -fverbose-asm
@ options enabled:  -falign-loops -fargument-alias -fauto-inc-dec
@ -fbranch-count-reg -fcaller-saves -fcprop-registers -fcrossjumping
@ -fcse-follow-jumps -fdefer-pop -fearly-inlining
@ -feliminate-unused-debug-types -fexpensive-optimizations
@ -fforward-propagate -ffunction-cse -fgcse -fgcse-lm
@ -fguess-branch-probability -fident -fif-conversion -fif-conversion2
@ -findirect-inlining -finline -finline-functions-called-once
@ -finline-small-functions -fipa-cp -fipa-pure-const -fipa-reference
@ -fira-share-save-slots -fira-share-spill-slots -fivopts
@ -fkeep-static-consts -fleading-underscore -fmath-errno -fmerge-constants
@ -fmerge-debug-strings -fmove-loop-invariants -fomit-frame-pointer
@ -foptimize-register-move -foptimize-sibling-calls -fpeephole -fpeephole2
@ -fpromote-loop-indices -freg-struct-return -fregmove -frename-registers
@ -freorder-blocks -freorder-functions -frerun-cse-after-loop
@ -fsched-interblock -fsched-spec -fsched-stalled-insns-dep
@ -fschedule-insns -fschedule-insns2 -fsection-anchors -fsigned-zeros
@ -fsplit-ivs-in-unroller -fsplit-wide-types -fstack-protector
@ -fthread-jumps -ftoplevel-reorder -ftrapping-math -ftree-builtin-call-dce
@ -ftree-ccp -ftree-ch -ftree-copy-prop -ftree-copyrename -ftree-cselim
@ -ftree-dce -ftree-dominator-opts -ftree-dse -ftree-fre -ftree-loop-im
@ -ftree-loop-ivcanon -ftree-loop-optimize -ftree-parallelize-loops=
@ -ftree-pre -ftree-reassoc -ftree-scev-cprop -ftree-sink -ftree-sra
@ -ftree-switch-conversion -ftree-ter -ftree-vect-loop-version -ftree-vrp
@ -funit-at-a-time -funroll-loops -funwind-tables -fverbose-asm -fweb
@ -fzero-initialized-in-bss -mglibc -mlittle-endian -msched-prolog

@ Compiler executable checksum: fa59e0bd179ef45b3a3c3e6f3383fdac

	.text
	.align	2
	.global	VP6_BuildScanOrder
	.type	VP6_BuildScanOrder, %function
VP6_BuildScanOrder:
	.fnstart
.LFB1924:
	@ args = 0, pretend = 0, frame = 0
	@ frame_needed = 0, uses_anonymous_args = 0
	@ link register save eliminated.
	stmfd	sp!, {r4, r5, r6, r7}	@,
	.save {r4, r5, r6, r7}
	mov	r6, r1	@ pbi, pbi
	mov	r5, #1	@ ScanOrderIndex,
	mov	r3, #0	@ tmp199,
	strb	r3, [r0, #960]	@ tmp199, <variable>.ModifiedScanOrder
.L2:
	ldrb	r1, [r0, #1089]	@ zero_extendqisi2	@ tmp229, <variable>.ScanBands
	cmp	r1, r3	@ tmp229, i
	beq	.L31	@,
.L17:
	mov	ip, #0	@ tmp221,
	cmp	ip, ip	@ tmp221,
	mov	r2, #2	@ j,
	add	ip, r0, #1	@ ivtmp.641, pVp6CodecInfo,
	beq	.L4	@,
	ldrb	r1, [ip, #1089]	@ zero_extendqisi2	@ tmp241, <variable>.ScanBands
	add	ip, ip, #1	@ ivtmp.641, ivtmp.641,
	cmp	r1, r3	@ tmp241, i
	addeq	r1, r5, r0	@ tmp242, ScanOrderIndex, pVp6CodecInfo
	addeq	r5, r5, #1	@ ScanOrderIndex, ScanOrderIndex,
	streqb	r2, [r1, #960]	@ j, <variable>.ModifiedScanOrder
	add	r2, r2, #1	@ j, j,
	cmp	r2, #64	@ j,
	bne	.L4	@,
	b	.L29	@
.L22:
	add	r2, ip, #1	@ j, tmp222,
	add	ip, r1, #1	@ ivtmp.641, tmp223,
	cmp	r2, #64	@ j,
	beq	.L29	@,
.L4:
	ldrb	r4, [ip, #1089]	@ zero_extendqisi2	@ tmp201, <variable>.ScanBands
	add	r1, ip, #1	@ tmp223, ivtmp.641,
	add	ip, r2, #1	@ tmp222, j,
	cmp	r4, r3	@ tmp201, i
	addeq	r4, r5, r0	@ tmp203, ScanOrderIndex, pVp6CodecInfo
	addeq	r5, r5, #1	@ ScanOrderIndex, ScanOrderIndex,
	streqb	r2, [r4, #960]	@ j, <variable>.ModifiedScanOrder
	ldrb	r2, [r1, #1089]	@ zero_extendqisi2	@ tmp226, <variable>.ScanBands
	cmp	r2, r3	@ tmp226, i
	bne	.L22	@,
	add	r2, ip, #1	@ j, tmp222,
	add	r7, r5, r0	@ tmp244, ScanOrderIndex, pVp6CodecInfo
	cmp	r2, #64	@ j,
	add	r5, r5, #1	@ ScanOrderIndex, ScanOrderIndex,
	strb	ip, [r7, #960]	@ tmp222, <variable>.ModifiedScanOrder
	add	ip, r1, #1	@ ivtmp.641, tmp223,
	bne	.L4	@,
.L29:
	add	r3, r3, #1	@ i, i,
	cmp	r3, #16	@ i,
	bne	.L2	@,
	mov	r7, r0	@ ivtmp.650, pVp6CodecInfo
	mov	r5, #0	@ i.649,
.L5:
	ldrb	ip, [r0, #960]	@ zero_extendqisi2	@ tmp237, <variable>.ModifiedScanOrder
	mov	r2, #1	@ j.648,
	and	r1, r5, r2	@ tmp217, i.649,
	add	r3, r0, r2	@ ivtmp.647, pVp6CodecInfo,
	cmp	ip, #0	@ tmp237,
	movcc	ip, #0	@ MaxOffset,
	cmp	r2, r5	@ j.648, i.649
	bhi	.L28	@,
	cmp	r1, #0	@ tmp217,
	beq	.L6	@,
	ldrb	r1, [r0, #961]	@ zero_extendqisi2	@ tmp238, <variable>.ModifiedScanOrder
	mov	r2, #2	@ j.648,
	add	r3, r3, #1	@ ivtmp.647, ivtmp.647,
	cmp	ip, r1	@ MaxOffset, tmp238
	movcc	ip, r1	@ MaxOffset, tmp238
	cmp	r2, r5	@ j.648, i.649
	bhi	.L28	@,
.L6:
	ldrb	r4, [r3, #960]	@ zero_extendqisi2	@ tmp206, <variable>.ModifiedScanOrder
	add	r2, r2, #2	@ j.648, j.648,
	ldrb	r1, [r3, #961]	@ zero_extendqisi2	@ tmp233, <variable>.ModifiedScanOrder
	add	r3, r3, #2	@ ivtmp.647, ivtmp.647,
	cmp	ip, r4	@ MaxOffset, tmp206
	movcc	ip, r4	@ MaxOffset, tmp206
	cmp	ip, r1	@ MaxOffset, tmp233
	movcc	ip, r1	@ MaxOffset, tmp233
	cmp	r2, r5	@ j.648, i.649
	bls	.L6	@,
.L28:
	uxtb	ip, ip	@ D.38072, MaxOffset
	strb	ip, [r7, #1024]	@ D.38072, <variable>.EobOffsetTable
	ldr	r3, [r6, #12]	@ <variable>.Vp3VersionNo, <variable>.Vp3VersionNo
	add	r5, r5, #1	@ i.649, i.649,
	cmp	r3, #6	@ <variable>.Vp3VersionNo,
	addhi	ip, ip, #1	@ tmp209, D.38072,
	strhib	ip, [r7, #1024]	@ tmp209, <variable>.EobOffsetTable
	cmp	r5, #64	@ i.649,
	add	r7, r7, #1	@ ivtmp.650, ivtmp.650,
	bne	.L5	@,
	ldmfd	sp!, {r4, r5, r6, r7}
	bx	lr
.L31:
	add	r2, r5, r0	@ tmp239, ScanOrderIndex, pVp6CodecInfo
	mov	r7, #1	@ j,
	add	r5, r5, #1	@ ScanOrderIndex, ScanOrderIndex,
	strb	r7, [r2, #960]	@ j, <variable>.ModifiedScanOrder
	b	.L17	@
	.fnend
	.size	VP6_BuildScanOrder, .-VP6_BuildScanOrder
	.global	__aeabi_idiv
	.global	__aeabi_uidiv
	.align	2
	.global	VP6_BuildModeTree
	.type	VP6_BuildModeTree, %function
VP6_BuildModeTree:
	.fnstart
.LFB1925:
	@ args = 0, pretend = 0, frame = 80
	@ frame_needed = 0, uses_anonymous_args = 0
	stmfd	sp!, {r4, r5, r6, r7, r8, r9, sl, fp, lr}	@,
	.save {r4, r5, r6, r7, r8, r9, sl, fp, lr}
	mov	r8, #0	@ ivtmp.754,
	.pad #84
	sub	sp, sp, #84	@,,
	mov	r6, r0	@ pVp6CodecInfo, pVp6CodecInfo
	mov	sl, r0	@ ivtmp.739, pVp6CodecInfo
	mov	r4, r0	@ ivtmp.948, pVp6CodecInfo
	mov	r5, r8	@ i, ivtmp.754
	mov	r7, #100	@ tmp771,
	b	.L33	@
.L129:
	ldrb	fp, [r6, #404]	@ zero_extendqisi2	@ <variable>.probXmitted, <variable>.probXmitted
	cmp	r5, #1	@ i,
	mul	r3, r7, fp	@ prephitmp.820, tmp771, <variable>.probXmitted
	str	r3, [sp, #40]	@ prephitmp.820, Counts
	beq	.L100	@,
	ldrb	r2, [r6, #405]	@ zero_extendqisi2	@ <variable>.probXmitted, <variable>.probXmitted
	cmp	r5, #2	@ i,
	mul	ip, r7, r2	@ temp.805, tmp771, <variable>.probXmitted
	add	r3, ip, r3	@ total.839, temp.805, prephitmp.820
	str	ip, [sp, #44]	@ temp.805, Counts
	beq	.L101	@,
.L58:
	ldrb	lr, [r6, #406]	@ zero_extendqisi2	@ <variable>.probXmitted, <variable>.probXmitted
	cmp	r5, #3	@ i,
	mul	fp, r7, lr	@ D.38103, tmp771, <variable>.probXmitted
	add	r1, fp, r3	@ total.1075, D.38103, total.839
	str	fp, [sp, #48]	@ D.38103, Counts
	beq	.L102	@,
	ldrb	r0, [r6, #407]	@ zero_extendqisi2	@ <variable>.probXmitted, <variable>.probXmitted
	cmp	r5, #4	@ i,
	mul	r3, r7, r0	@ temp.843, tmp771, <variable>.probXmitted
	add	r1, r3, r1	@ total.1076, temp.843, total.1075
	str	r3, [sp, #52]	@ temp.843, Counts
	beq	.L103	@,
.L62:
	ldrb	r2, [r6, #408]	@ zero_extendqisi2	@ <variable>.probXmitted, <variable>.probXmitted
	cmp	r5, #5	@ i,
	mul	r9, r7, r2	@ temp.848, tmp771, <variable>.probXmitted
	add	r2, r9, r1	@ total.1077, temp.848, total.1076
	str	r9, [sp, #56]	@ temp.848, Counts
	beq	.L104	@,
	ldrb	lr, [r6, #409]	@ zero_extendqisi2	@ <variable>.probXmitted, <variable>.probXmitted
	cmp	r5, #6	@ i,
	mul	r1, r7, lr	@ temp.853, tmp771, <variable>.probXmitted
	add	r2, r1, r2	@ total.1078, temp.853, total.1077
	str	r1, [sp, #60]	@ temp.853, Counts
	beq	.L105	@,
.L66:
	ldrb	fp, [r6, #410]	@ zero_extendqisi2	@ <variable>.probXmitted, <variable>.probXmitted
	cmp	r5, #7	@ i,
	mul	r0, r7, fp	@ temp.858, tmp771, <variable>.probXmitted
	add	r2, r0, r2	@ total.1079, temp.858, total.1078
	str	r0, [sp, #64]	@ temp.858, Counts
	beq	.L106	@,
	ldrb	r3, [r6, #411]	@ zero_extendqisi2	@ <variable>.probXmitted, <variable>.probXmitted
	cmp	r5, #8	@ i,
	mul	r9, r7, r3	@ temp.863, tmp771, <variable>.probXmitted
	add	r2, r9, r2	@ total.1080, temp.863, total.1079
	str	r9, [sp, #68]	@ temp.863, Counts
	beq	.L107	@,
.L70:
	ldrb	lr, [r6, #412]	@ zero_extendqisi2	@ <variable>.probXmitted, <variable>.probXmitted
	cmp	r5, #9	@ i,
	mul	ip, r7, lr	@ temp.868, tmp771, <variable>.probXmitted
	add	r2, ip, r2	@, temp.868, total.1080
	str	r2, [sp, #16]	@, %sfp
	str	ip, [sp, #72]	@ temp.868, Counts
	beq	.L108	@,
.L72:
	ldrb	r2, [r6, #413]	@ zero_extendqisi2	@ <variable>.probXmitted, <variable>.probXmitted
	mul	r9, r7, r2	@ prephitmp.871, tmp771, <variable>.probXmitted
	str	r9, [sp, #76]	@ prephitmp.871, Counts
.L73:
	ldrb	ip, [sl, #404]	@ zero_extendqisi2	@ tmp492, <variable>.probXmitted
	add	fp, r6, r5	@ tmp488, pVp6CodecInfo, i
	ldrb	r0, [sl, #414]	@ zero_extendqisi2	@ temp.877, <variable>.probXmitted
	add	lr, r0, ip	@ tmp493, temp.877, tmp492
	add	r1, lr, #1	@, tmp493,
	rsb	r0, r0, r0, asl #8	@,, temp.877, temp.877,
	bl	__aeabi_idiv	@
	ldr	r3, [sp, #16]	@, %sfp
	add	r1, r9, r3	@ tmp507, prephitmp.871,
	add	r1, r1, #1	@, tmp507,
	mvn	r9, r0	@ tmp500,
	strb	r9, [fp, #4]	@ tmp500, <variable>.probModeSame
	ldr	r2, [sp, #52]	@, Counts
	ldr	ip, [sp, #40]	@, Counts
	ldr	r3, [sp, #56]	@ Counts, Counts
	str	r2, [sp, #20]	@, %sfp
	ldr	lr, [sp, #20]	@, %sfp
	ldr	fp, [sp, #48]	@ Counts, Counts
	add	r0, lr, r3	@,, Counts
	str	r0, [sp, #36]	@, %sfp
	add	fp, ip, fp	@ temp.888,, Counts
	str	ip, [sp, #24]	@, %sfp
	add	r9, r0, fp	@ temp.892,, temp.888
	rsb	r0, r9, r9, asl #8	@,, temp.892, temp.892,
	bl	__aeabi_uidiv	@
	add	r1, r9, #1	@, temp.892,
	add	r2, r0, #1	@ tmp514,,
	rsb	r0, fp, fp, asl #8	@,, temp.888, temp.888,
	strb	r2, [r4, #44]	@ tmp514, <variable>.probMode
	bl	__aeabi_uidiv	@
	add	ip, r0, #1	@ tmp525,,
	strb	ip, [r4, #45]	@ tmp525, <variable>.probMode
	ldr	ip, [sp, #60]	@ temp.907, Counts
	ldr	r0, [sp, #72]	@, Counts
	ldr	r3, [sp, #64]	@ Counts, Counts
	ldr	r1, [sp, #76]	@ Counts, Counts
	ldr	r2, [sp, #44]	@ temp.903, Counts
	add	r3, ip, r3	@ temp.911, temp.907, Counts
	ldr	r9, [sp, #68]	@ Counts, Counts
	add	r1, r0, r1	@,, Counts
	str	r1, [sp, #28]	@, %sfp
	add	r1, r3, #1	@, temp.911,
	str	r0, [sp, #16]	@, %sfp
	add	r9, r2, r9	@ temp.905, temp.903, Counts
	ldr	r0, [sp, #28]	@, %sfp
	str	r1, [sp, #32]	@, %sfp
	ldr	lr, [sp, #32]	@, %sfp
	add	r1, r0, r9	@ tmp533,, temp.905
	rsb	r0, r9, r9, asl #8	@,, temp.905, temp.905,
	str	r2, [sp, #12]	@,
	add	r1, r1, lr	@, tmp533,
	ldr	lr, [sp, #28]	@, %sfp
	str	ip, [sp, #4]	@,
	add	lr, lr, #1	@,,
	str	r3, [sp, #8]	@,
	str	lr, [sp, #28]	@, %sfp
	bl	__aeabi_uidiv	@
	add	r1, fp, #1	@, temp.888,
	add	r0, r0, #1	@ tmp540,,
	strb	r0, [r4, #46]	@ tmp540, <variable>.probMode
	ldr	r3, [sp, #24]	@, %sfp
	rsb	r0, r3, r3, asl #8	@,,,,
	bl	__aeabi_uidiv	@
	ldr	r2, [sp, #36]	@, %sfp
	add	r1, r2, #1	@,,
	add	ip, r0, #1	@ tmp551,,
	strb	ip, [r4, #47]	@ tmp551, <variable>.probMode
	ldr	fp, [sp, #20]	@, %sfp
	rsb	r0, fp, fp, asl #8	@,,,,
	bl	__aeabi_uidiv	@
	add	r1, r9, #1	@, temp.905,
	add	r0, r0, #1	@ tmp562,,
	strb	r0, [r4, #48]	@ tmp562, <variable>.probMode
	ldr	r3, [sp, #12]	@,
	rsb	r0, r3, r3, asl #8	@,, temp.903, temp.903,
	bl	__aeabi_uidiv	@
	ldr	r2, [sp, #8]	@,
	ldr	r9, [sp, #28]	@, %sfp
	add	r1, r9, r2	@,, temp.911
	add	lr, r0, #1	@ tmp573,,
	rsb	r0, r2, r2, asl #8	@,, temp.911, temp.911,
	strb	lr, [r4, #49]	@ tmp573, <variable>.probMode
	bl	__aeabi_uidiv	@
	ldr	r1, [sp, #32]	@, %sfp
	add	ip, r0, #1	@ tmp584,,
	strb	ip, [r4, #50]	@ tmp584, <variable>.probMode
	ldr	fp, [sp, #4]	@,
	rsb	r0, fp, fp, asl #8	@,, temp.907, temp.907,
	bl	__aeabi_uidiv	@
	ldr	r1, [sp, #28]	@, %sfp
	add	r0, r0, #1	@ tmp594,,
	strb	r0, [r4, #51]	@ tmp594, <variable>.probMode
	ldr	r3, [sp, #16]	@, %sfp
	rsb	r0, r3, r3, asl #8	@,,,,
	bl	__aeabi_uidiv	@
	cmp	r5, #0	@ i,
	add	r9, r0, #1	@ tmp604,,
	strb	r9, [r4, #52]	@ tmp604, <variable>.probMode
	beq	.L74	@,
	ldrb	r2, [r6, #424]	@ zero_extendqisi2	@ <variable>.probXmitted, <variable>.probXmitted
	cmp	r5, #1	@ i,
	mul	r3, r7, r2	@ prephitmp.952, tmp771, <variable>.probXmitted
	str	r3, [sp, #40]	@ prephitmp.952, Counts
	beq	.L109	@,
.L76:
	ldrb	r1, [r6, #425]	@ zero_extendqisi2	@ <variable>.probXmitted, <variable>.probXmitted
	cmp	r5, #2	@ i,
	mul	fp, r7, r1	@ temp.956, tmp771, <variable>.probXmitted
	add	r3, fp, r3	@ total.1088, temp.956, prephitmp.952
	str	fp, [sp, #44]	@ temp.956, Counts
	beq	.L110	@,
.L78:
	ldrb	r9, [r6, #426]	@ zero_extendqisi2	@ <variable>.probXmitted, <variable>.probXmitted
	cmp	r5, #3	@ i,
	mul	r2, r7, r9	@ temp.961, tmp771, <variable>.probXmitted
	add	fp, r2, r3	@ total.1087, temp.961, total.1088
	str	r2, [sp, #48]	@ temp.961, Counts
	beq	.L111	@,
.L80:
	ldrb	r0, [r6, #427]	@ zero_extendqisi2	@ <variable>.probXmitted, <variable>.probXmitted
	cmp	r5, #4	@ i,
	mul	r3, r7, r0	@ temp.966, tmp771, <variable>.probXmitted
	add	fp, r3, fp	@ total.1086, temp.966, total.1087
	str	r3, [sp, #52]	@ temp.966, Counts
	beq	.L112	@,
.L82:
	ldrb	r1, [r6, #428]	@ zero_extendqisi2	@ <variable>.probXmitted, <variable>.probXmitted
	cmp	r5, #5	@ i,
	mul	lr, r7, r1	@ temp.971, tmp771, <variable>.probXmitted
	add	fp, lr, fp	@ total.1085, temp.971, total.1086
	str	lr, [sp, #56]	@ temp.971, Counts
	beq	.L113	@,
.L84:
	ldrb	r9, [r6, #429]	@ zero_extendqisi2	@ <variable>.probXmitted, <variable>.probXmitted
	cmp	r5, #6	@ i,
	mul	r2, r7, r9	@ temp.976, tmp771, <variable>.probXmitted
	add	fp, r2, fp	@ total.1084, temp.976, total.1085
	str	r2, [sp, #60]	@ temp.976, Counts
	beq	.L114	@,
.L86:
	ldrb	ip, [r6, #430]	@ zero_extendqisi2	@ <variable>.probXmitted, <variable>.probXmitted
	cmp	r5, #7	@ i,
	mul	r0, r7, ip	@ temp.981, tmp771, <variable>.probXmitted
	add	fp, r0, fp	@ total.1083, temp.981, total.1084
	str	r0, [sp, #64]	@ temp.981, Counts
	beq	.L115	@,
.L88:
	ldrb	r3, [r6, #431]	@ zero_extendqisi2	@ <variable>.probXmitted, <variable>.probXmitted
	cmp	r5, #8	@ i,
	mul	r1, r7, r3	@ temp.986, tmp771, <variable>.probXmitted
	add	fp, r1, fp	@ total.819, temp.986, total.1083
	str	r1, [sp, #68]	@ temp.986, Counts
	beq	.L116	@,
.L90:
	ldrb	lr, [r6, #432]	@ zero_extendqisi2	@ <variable>.probXmitted, <variable>.probXmitted
	cmp	r5, #9	@ i,
	mul	r9, r7, lr	@ temp.991, tmp771, <variable>.probXmitted
	add	fp, r9, fp	@ total.1082, temp.991, total.819
	str	r9, [sp, #72]	@ temp.991, Counts
	beq	.L117	@,
.L92:
	ldrb	r9, [r6, #433]	@ zero_extendqisi2	@ <variable>.probXmitted, <variable>.probXmitted
	mul	r9, r7, r9	@ prephitmp.993, tmp771, <variable>.probXmitted
	str	r9, [sp, #76]	@ prephitmp.993, Counts
.L93:
	ldrb	lr, [sl, #424]	@ zero_extendqisi2	@ tmp657, <variable>.probXmitted
	ldrb	r0, [sl, #434]	@ zero_extendqisi2	@ temp.999, <variable>.probXmitted
	add	r3, r0, lr	@ tmp658, temp.999, tmp657
	add	r1, r3, #1	@, tmp658,
	rsb	r0, r0, r0, asl #8	@,, temp.999, temp.999,
	bl	__aeabi_idiv	@
	add	r1, r9, fp	@ tmp672, prephitmp.993, total.1082
	add	r1, r1, #1	@, tmp672,
	mvn	r9, r0	@ tmp665,
	strb	r9, [sl, #14]	@ tmp665, <variable>.probModeSame
	ldr	r2, [sp, #52]	@, Counts
	ldr	ip, [sp, #40]	@, Counts
	ldr	r3, [sp, #56]	@ Counts, Counts
	str	r2, [sp, #20]	@, %sfp
	ldr	lr, [sp, #20]	@, %sfp
	ldr	fp, [sp, #48]	@ Counts, Counts
	add	r0, lr, r3	@,, Counts
	str	r0, [sp, #36]	@, %sfp
	add	fp, ip, fp	@ temp.1010,, Counts
	str	ip, [sp, #24]	@, %sfp
	add	r9, r0, fp	@ temp.1014,, temp.1010
	rsb	r0, r9, r9, asl #8	@,, temp.1014, temp.1014,
	bl	__aeabi_uidiv	@
	add	r1, r9, #1	@, temp.1014,
	add	r2, r0, #1	@ tmp679,,
	rsb	r0, fp, fp, asl #8	@,, temp.1010, temp.1010,
	strb	r2, [r4, #134]	@ tmp679, <variable>.probMode
	bl	__aeabi_uidiv	@
	add	ip, r0, #1	@ tmp690,,
	strb	ip, [r4, #135]	@ tmp690, <variable>.probMode
	ldr	ip, [sp, #60]	@ temp.1029, Counts
	ldr	r0, [sp, #72]	@, Counts
	ldr	r3, [sp, #64]	@ Counts, Counts
	ldr	r1, [sp, #76]	@ Counts, Counts
	ldr	r2, [sp, #44]	@ temp.1025, Counts
	add	r3, ip, r3	@ temp.1033, temp.1029, Counts
	ldr	r9, [sp, #68]	@ Counts, Counts
	add	r1, r0, r1	@,, Counts
	str	r1, [sp, #28]	@, %sfp
	add	r1, r3, #1	@, temp.1033,
	str	r0, [sp, #16]	@, %sfp
	add	r9, r2, r9	@ temp.1027, temp.1025, Counts
	ldr	r0, [sp, #28]	@, %sfp
	str	r1, [sp, #32]	@, %sfp
	ldr	lr, [sp, #32]	@, %sfp
	add	r1, r0, r9	@ tmp698,, temp.1027
	rsb	r0, r9, r9, asl #8	@,, temp.1027, temp.1027,
	str	r2, [sp, #12]	@,
	add	r1, r1, lr	@, tmp698,
	ldr	lr, [sp, #28]	@, %sfp
	str	ip, [sp, #4]	@,
	add	lr, lr, #1	@,,
	str	r3, [sp, #8]	@,
	str	lr, [sp, #28]	@, %sfp
	bl	__aeabi_uidiv	@
	add	r1, fp, #1	@, temp.1010,
	add	r3, r0, #1	@ tmp705,,
	strb	r3, [r4, #136]	@ tmp705, <variable>.probMode
	ldr	fp, [sp, #24]	@, %sfp
	rsb	r0, fp, fp, asl #8	@,,,,
	bl	__aeabi_uidiv	@
	ldr	lr, [sp, #36]	@, %sfp
	add	r1, lr, #1	@,,
	add	r2, r0, #1	@ tmp716,,
	strb	r2, [r4, #137]	@ tmp716, <variable>.probMode
	ldr	ip, [sp, #20]	@, %sfp
	rsb	r0, ip, ip, asl #8	@,,,,
	bl	__aeabi_uidiv	@
	add	r1, r9, #1	@, temp.1027,
	add	r0, r0, #1	@ tmp727,,
	strb	r0, [r4, #138]	@ tmp727, <variable>.probMode
	ldr	r3, [sp, #12]	@,
	rsb	r0, r3, r3, asl #8	@,, temp.1025, temp.1025,
	bl	__aeabi_uidiv	@
	ldr	r9, [sp, #8]	@,
	ldr	fp, [sp, #28]	@, %sfp
	add	r1, fp, r9	@,, temp.1033
	add	lr, r0, #1	@ tmp738,,
	rsb	r0, r9, r9, asl #8	@,, temp.1033, temp.1033,
	strb	lr, [r4, #139]	@ tmp738, <variable>.probMode
	bl	__aeabi_uidiv	@
	ldr	r1, [sp, #32]	@, %sfp
	add	r2, r0, #1	@ tmp749,,
	strb	r2, [r4, #140]	@ tmp749, <variable>.probMode
	ldr	ip, [sp, #4]	@,
	rsb	r0, ip, ip, asl #8	@,, temp.1029, temp.1029,
	bl	__aeabi_uidiv	@
	ldr	r1, [sp, #28]	@, %sfp
	add	r0, r0, #1	@ tmp759,,
	strb	r0, [r4, #141]	@ tmp759, <variable>.probMode
	ldr	r3, [sp, #16]	@, %sfp
	rsb	r0, r3, r3, asl #8	@,,,,
	bl	__aeabi_uidiv	@
	cmp	r5, #0	@ i,
	add	fp, r0, #1	@ tmp769,,
	strb	fp, [r4, #142]	@ tmp769, <variable>.probMode
	beq	.L118	@,
	ldrb	fp, [r6, #444]	@ zero_extendqisi2	@ <variable>.probXmitted, <variable>.probXmitted
	cmp	r5, #1	@ i,
	mul	r3, r7, fp	@ prephitmp.785, tmp771, <variable>.probXmitted
	str	r3, [sp, #40]	@ prephitmp.785, Counts
	beq	.L119	@,
.L37:
	ldrb	r9, [r6, #445]	@ zero_extendqisi2	@ <variable>.probXmitted, <variable>.probXmitted
	cmp	r5, #2	@ i,
	mul	r2, r7, r9	@ temp.791, tmp771, <variable>.probXmitted
	add	r3, r2, r3	@ total.870, temp.791, prephitmp.785
	str	r2, [sp, #44]	@ temp.791, Counts
	beq	.L120	@,
.L39:
	ldrb	fp, [r6, #446]	@ zero_extendqisi2	@ <variable>.probXmitted, <variable>.probXmitted
	cmp	r5, #3	@ i,
	mul	ip, r7, fp	@ temp.797, tmp771, <variable>.probXmitted
	add	fp, ip, r3	@ total.780, temp.797, total.870
	str	ip, [sp, #48]	@ temp.797, Counts
	beq	.L121	@,
.L41:
	ldrb	r0, [r6, #447]	@ zero_extendqisi2	@ <variable>.probXmitted, <variable>.probXmitted
	cmp	r5, #4	@ i,
	mul	r3, r7, r0	@ temp.803, tmp771, <variable>.probXmitted
	add	fp, fp, r3	@ total.1070, total.780, temp.803
	str	r3, [sp, #52]	@ temp.803, Counts
	beq	.L122	@,
.L43:
	ldrb	r1, [r6, #448]	@ zero_extendqisi2	@ <variable>.probXmitted, <variable>.probXmitted
	cmp	r5, #5	@ i,
	mul	r9, r7, r1	@ temp.811, tmp771, <variable>.probXmitted
	add	fp, r9, fp	@ total.1071, temp.811, total.1070
	str	r9, [sp, #56]	@ temp.811, Counts
	beq	.L123	@,
.L45:
	ldrb	r2, [r6, #449]	@ zero_extendqisi2	@ <variable>.probXmitted, <variable>.probXmitted
	cmp	r5, #6	@ i,
	mul	ip, r7, r2	@ temp.817, tmp771, <variable>.probXmitted
	add	fp, ip, fp	@ total.1072, temp.817, total.1071
	str	ip, [sp, #60]	@ temp.817, Counts
	beq	.L124	@,
.L47:
	ldrb	lr, [r6, #450]	@ zero_extendqisi2	@ <variable>.probXmitted, <variable>.probXmitted
	cmp	r5, #7	@ i,
	mul	r0, r7, lr	@ temp.824, tmp771, <variable>.probXmitted
	add	fp, r0, fp	@ total.1073, temp.824, total.1072
	str	r0, [sp, #64]	@ temp.824, Counts
	beq	.L125	@,
.L49:
	ldrb	r3, [r6, #451]	@ zero_extendqisi2	@ <variable>.probXmitted, <variable>.probXmitted
	cmp	r5, #8	@ i,
	mul	r1, r7, r3	@ temp.831, tmp771, <variable>.probXmitted
	add	fp, r1, fp	@ total.1074, temp.831, total.1073
	str	r1, [sp, #68]	@ temp.831, Counts
	beq	.L126	@,
.L51:
	ldrb	r9, [r6, #452]	@ zero_extendqisi2	@ <variable>.probXmitted, <variable>.probXmitted
	cmp	r5, #9	@ i,
	mul	r2, r7, r9	@ temp.837, tmp771, <variable>.probXmitted
	add	fp, r2, fp	@ total.781, temp.837, total.1074
	str	r2, [sp, #72]	@ temp.837, Counts
	beq	.L127	@,
.L53:
	ldrb	r9, [r6, #453]	@ zero_extendqisi2	@ <variable>.probXmitted, <variable>.probXmitted
	mul	r9, r7, r9	@ prephitmp.719, tmp771, <variable>.probXmitted
	str	r9, [sp, #76]	@ prephitmp.719, Counts
.L34:
	ldrb	lr, [sl, #444]	@ zero_extendqisi2	@ tmp282, <variable>.probXmitted
	add	r5, r5, #1	@ i, i,
	ldrb	r0, [sl, #454]	@ zero_extendqisi2	@ D.38107, <variable>.probXmitted
	add	r8, r8, #4	@ ivtmp.754, ivtmp.754,
	add	r3, r0, lr	@ tmp283, D.38107, tmp282
	add	r1, r3, #1	@, tmp283,
	rsb	r0, r0, r0, asl #8	@,, D.38107, D.38107,
	bl	__aeabi_idiv	@
	add	r1, r9, fp	@ tmp297, prephitmp.719, total.781
	add	r1, r1, #1	@, tmp297,
	mvn	r9, r0	@ tmp290,
	strb	r9, [sl, #24]	@ tmp290, <variable>.probModeSame
	ldr	r2, [sp, #52]	@, Counts
	add	sl, sl, #1	@ ivtmp.739, ivtmp.739,
	ldr	ip, [sp, #40]	@, Counts
	ldr	r3, [sp, #56]	@ Counts, Counts
	str	r2, [sp, #20]	@, %sfp
	ldr	lr, [sp, #20]	@, %sfp
	ldr	fp, [sp, #48]	@ Counts, Counts
	add	r0, lr, r3	@,, Counts
	str	r0, [sp, #36]	@, %sfp
	add	fp, ip, fp	@ D.38118,, Counts
	str	ip, [sp, #24]	@, %sfp
	add	r9, r0, fp	@ D.38122,, D.38118
	rsb	r0, r9, r9, asl #8	@,, D.38122, D.38122,
	bl	__aeabi_uidiv	@
	add	r1, r9, #1	@, D.38122,
	add	r2, r0, #1	@ tmp304,,
	rsb	r0, fp, fp, asl #8	@,, D.38118, D.38118,
	strb	r2, [r4, #224]	@ tmp304, <variable>.probMode
	bl	__aeabi_uidiv	@
	add	ip, r0, #1	@ tmp315,,
	strb	ip, [r4, #225]	@ tmp315, <variable>.probMode
	ldr	ip, [sp, #60]	@ D.38137, Counts
	ldr	r0, [sp, #72]	@, Counts
	ldr	r3, [sp, #64]	@ Counts, Counts
	ldr	r1, [sp, #76]	@ Counts, Counts
	ldr	r2, [sp, #44]	@ D.38133, Counts
	add	r3, ip, r3	@ D.38138, D.38137, Counts
	ldr	r9, [sp, #68]	@ Counts, Counts
	add	r1, r0, r1	@,, Counts
	str	r1, [sp, #28]	@, %sfp
	add	r1, r3, #1	@, D.38138,
	str	r0, [sp, #16]	@, %sfp
	add	r9, r2, r9	@ D.38135, D.38133, Counts
	ldr	r0, [sp, #28]	@, %sfp
	str	r1, [sp, #32]	@, %sfp
	ldr	lr, [sp, #32]	@, %sfp
	add	r1, r0, r9	@ tmp323,, D.38135
	rsb	r0, r9, r9, asl #8	@,, D.38135, D.38135,
	str	r3, [sp, #8]	@,
	add	r1, r1, lr	@, tmp323,
	ldr	lr, [sp, #28]	@, %sfp
	str	r2, [sp, #12]	@,
	add	lr, lr, #1	@,,
	str	ip, [sp, #4]	@,
	str	lr, [sp, #28]	@, %sfp
	bl	__aeabi_uidiv	@
	add	r1, fp, #1	@, D.38118,
	add	r2, r0, #1	@ tmp330,,
	strb	r2, [r4, #226]	@ tmp330, <variable>.probMode
	ldr	ip, [sp, #24]	@, %sfp
	rsb	r0, ip, ip, asl #8	@,,,,
	bl	__aeabi_uidiv	@
	ldr	r3, [sp, #36]	@, %sfp
	add	r1, r3, #1	@,,
	add	fp, r0, #1	@ tmp341,,
	strb	fp, [r4, #227]	@ tmp341, <variable>.probMode
	ldr	fp, [sp, #20]	@, %sfp
	rsb	r0, fp, fp, asl #8	@,,,,
	bl	__aeabi_uidiv	@
	add	r1, r9, #1	@, D.38135,
	add	r0, r0, #1	@ tmp352,,
	strb	r0, [r4, #228]	@ tmp352, <variable>.probMode
	ldr	r2, [sp, #12]	@,
	rsb	r0, r2, r2, asl #8	@,, D.38133, D.38133,
	bl	__aeabi_uidiv	@
	ldr	r3, [sp, #8]	@,
	ldr	ip, [sp, #28]	@, %sfp
	add	r1, ip, r3	@,, D.38138
	add	lr, r0, #1	@ tmp363,,
	rsb	r0, r3, r3, asl #8	@,, D.38138, D.38138,
	strb	lr, [r4, #229]	@ tmp363, <variable>.probMode
	bl	__aeabi_uidiv	@
	ldr	r1, [sp, #32]	@, %sfp
	add	r0, r0, #1	@ tmp374,,
	strb	r0, [r4, #230]	@ tmp374, <variable>.probMode
	ldr	r2, [sp, #4]	@,
	rsb	r0, r2, r2, asl #8	@,, D.38137, D.38137,
	bl	__aeabi_uidiv	@
	ldr	r1, [sp, #28]	@, %sfp
	add	ip, r0, #1	@ tmp384,,
	strb	ip, [r4, #231]	@ tmp384, <variable>.probMode
	ldr	r3, [sp, #16]	@, %sfp
	rsb	r0, r3, r3, asl #8	@,,,,
	bl	__aeabi_uidiv	@
	cmp	r5, #10	@ i,
	add	r2, r0, #1	@ tmp394,,
	strb	r2, [r4, #232]	@ tmp394, <variable>.probMode
	add	r4, r4, #9	@ ivtmp.948, ivtmp.948,
	beq	.L128	@,
.L33:
	cmp	r5, #0	@ i,
	bne	.L129	@,
	add	lr, sp, #40	@,,
	cmp	r5, #2	@ i,
	str	r5, [lr, r8]	@ i, Counts
	ldrb	r2, [r6, #405]	@ zero_extendqisi2	@ <variable>.probXmitted, <variable>.probXmitted
	ldr	r3, [sp, #40]	@ prephitmp.820, Counts
	mul	ip, r7, r2	@ temp.805, tmp771, <variable>.probXmitted
	add	r3, ip, r3	@ total.839, temp.805, prephitmp.820
	str	ip, [sp, #44]	@ temp.805, Counts
	bne	.L58	@,
.L101:
	add	r9, sp, #40	@,,
	mov	r2, #0	@,
	cmp	r5, #4	@ i,
	str	r2, [r9, r8]	@, Counts
	ldrb	r0, [r6, #407]	@ zero_extendqisi2	@ <variable>.probXmitted, <variable>.probXmitted
	ldr	ip, [sp, #48]	@ Counts, Counts
	add	r1, r3, ip	@ total.1075, total.839, Counts
	mul	r3, r7, r0	@ temp.843, tmp771, <variable>.probXmitted
	add	r1, r3, r1	@ total.1076, temp.843, total.1075
	str	r3, [sp, #52]	@ temp.843, Counts
	bne	.L62	@,
.L103:
	add	fp, sp, #40	@,,
	mov	r0, #0	@,
	cmp	r5, #6	@ i,
	str	r0, [fp, r8]	@, Counts
	ldrb	lr, [r6, #409]	@ zero_extendqisi2	@ <variable>.probXmitted, <variable>.probXmitted
	ldr	r3, [sp, #56]	@ Counts, Counts
	add	r2, r1, r3	@ total.1077, total.1076, Counts
	mul	r1, r7, lr	@ temp.853, tmp771, <variable>.probXmitted
	add	r2, r1, r2	@ total.1078, temp.853, total.1077
	str	r1, [sp, #60]	@ temp.853, Counts
	bne	.L66	@,
.L105:
	add	ip, sp, #40	@,,
	mov	lr, #0	@,
	cmp	r5, #8	@ i,
	str	lr, [ip, r8]	@, Counts
	ldrb	r3, [r6, #411]	@ zero_extendqisi2	@ <variable>.probXmitted, <variable>.probXmitted
	ldr	r1, [sp, #64]	@ Counts, Counts
	mul	r9, r7, r3	@ temp.863, tmp771, <variable>.probXmitted
	add	r2, r2, r1	@ total.1079, total.1078, Counts
	add	r2, r9, r2	@ total.1080, temp.863, total.1079
	str	r9, [sp, #68]	@ temp.863, Counts
	bne	.L70	@,
.L107:
	add	r0, sp, #40	@,,
	mov	fp, #0	@,
	str	fp, [r0, r8]	@, Counts
	ldr	r3, [sp, #72]	@ Counts, Counts
	add	r9, r2, r3	@, total.1080, Counts
	str	r9, [sp, #16]	@, %sfp
	b	.L72	@
.L127:
	add	r0, sp, #40	@,,
	mov	r1, #0	@,
	str	r1, [r0, r8]	@, Counts
	ldr	r9, [sp, #76]	@ prephitmp.719, Counts
	b	.L34	@
.L126:
	add	r0, sp, #40	@,,
	mov	r3, #0	@,
	str	r3, [r0, r8]	@, Counts
	ldr	r1, [sp, #72]	@ Counts, Counts
	add	fp, fp, r1	@ total.781, total.1074, Counts
	b	.L53	@
.L125:
	add	lr, sp, #40	@,,
	mov	ip, #0	@,
	str	ip, [lr, r8]	@, Counts
	ldr	r0, [sp, #68]	@ Counts, Counts
	add	fp, fp, r0	@ total.1074, total.1073, Counts
	b	.L51	@
.L124:
	add	r2, sp, #40	@,,
	mov	r9, #0	@,
	str	r9, [r2, r8]	@, Counts
	ldr	ip, [sp, #64]	@ Counts, Counts
	add	fp, fp, ip	@ total.1073, total.1072, Counts
	b	.L49	@
.L123:
	add	r1, sp, #40	@,,
	mov	r3, #0	@,
	str	r3, [r1, r8]	@, Counts
	ldr	r9, [sp, #60]	@ Counts, Counts
	add	fp, fp, r9	@ total.1072, total.1071, Counts
	b	.L47	@
.L122:
	add	lr, sp, #40	@,,
	mov	r0, #0	@,
	str	r0, [lr, r8]	@, Counts
	ldr	r3, [sp, #56]	@ Counts, Counts
	add	fp, fp, r3	@ total.1071, total.1070, Counts
	b	.L45	@
.L121:
	add	ip, sp, #40	@,,
	mov	r2, #0	@,
	str	r2, [ip, r8]	@, Counts
	ldr	lr, [sp, #52]	@ Counts, Counts
	add	fp, fp, lr	@ total.1070, total.780, Counts
	b	.L43	@
.L120:
	add	r9, sp, #40	@,,
	mov	r1, #0	@,
	str	r1, [r9, r8]	@, Counts
	ldr	r2, [sp, #48]	@ Counts, Counts
	add	fp, r3, r2	@ total.780, total.870, Counts
	b	.L41	@
.L119:
	add	r0, sp, #40	@,,
	mov	lr, #0	@,
	str	lr, [r0, r8]	@, Counts
	ldr	r1, [sp, #44]	@ Counts, Counts
	add	r3, r3, r1	@ total.870, prephitmp.785, Counts
	b	.L39	@
.L118:
	add	ip, sp, #40	@,,
	str	r5, [ip, r8]	@ i, Counts
	ldr	r3, [sp, #40]	@ prephitmp.785, Counts
	b	.L37	@
.L117:
	add	r2, sp, #40	@,,
	mov	ip, #0	@,
	str	ip, [r2, r8]	@, Counts
	ldr	r9, [sp, #76]	@ prephitmp.993, Counts
	b	.L93	@
.L116:
	add	r0, sp, #40	@,,
	mov	r3, #0	@,
	str	r3, [r0, r8]	@, Counts
	ldr	r1, [sp, #72]	@ Counts, Counts
	add	fp, fp, r1	@ total.1082, total.819, Counts
	b	.L92	@
.L115:
	add	ip, sp, #40	@,,
	mov	r2, #0	@,
	str	r2, [ip, r8]	@, Counts
	ldr	r0, [sp, #68]	@ Counts, Counts
	add	fp, fp, r0	@ total.819, total.1083, Counts
	b	.L90	@
.L114:
	add	r9, sp, #40	@,,
	mov	lr, #0	@,
	str	lr, [r9, r8]	@, Counts
	ldr	r2, [sp, #64]	@ Counts, Counts
	add	fp, fp, r2	@ total.1083, total.1084, Counts
	b	.L88	@
.L113:
	add	r1, sp, #40	@,,
	mov	r3, #0	@,
	str	r3, [r1, r8]	@, Counts
	ldr	lr, [sp, #60]	@ Counts, Counts
	add	fp, fp, lr	@ total.1084, total.1085, Counts
	b	.L86	@
.L112:
	add	ip, sp, #40	@,,
	mov	r0, #0	@,
	str	r0, [ip, r8]	@, Counts
	ldr	r3, [sp, #56]	@ Counts, Counts
	add	fp, fp, r3	@ total.1085, total.1086, Counts
	b	.L84	@
.L111:
	add	r2, sp, #40	@,,
	mov	r9, #0	@,
	str	r9, [r2, r8]	@, Counts
	ldr	ip, [sp, #52]	@ Counts, Counts
	add	fp, fp, ip	@ total.1086, total.1087, Counts
	b	.L82	@
.L110:
	add	lr, sp, #40	@,,
	mov	r1, #0	@,
	str	r1, [lr, r8]	@, Counts
	ldr	fp, [sp, #48]	@ Counts, Counts
	add	fp, r3, fp	@ total.1087, total.1088, Counts
	b	.L80	@
.L109:
	add	r0, sp, #40	@,,
	mov	ip, #0	@,
	str	ip, [r0, r8]	@, Counts
	ldr	lr, [sp, #44]	@ Counts, Counts
	add	r3, r3, lr	@ total.1088, prephitmp.952, Counts
	b	.L78	@
.L74:
	add	r9, sp, #40	@,,
	str	r5, [r9, r8]	@ i, Counts
	ldr	r3, [sp, #40]	@ prephitmp.952, Counts
	b	.L76	@
.L108:
	add	ip, sp, #40	@,,
	mov	r1, #0	@,
	str	r1, [ip, r8]	@, Counts
	ldr	r9, [sp, #76]	@ prephitmp.871, Counts
	b	.L73	@
.L106:
	add	fp, sp, #40	@,,
	mov	r1, #0	@,
	str	r1, [fp, r8]	@, Counts
	ldr	r0, [sp, #68]	@ Counts, Counts
	add	r2, r2, r0	@ total.1080, total.1079, Counts
	b	.L70	@
.L104:
	add	r9, sp, #40	@,,
	mov	r3, #0	@,
	str	r3, [r9, r8]	@, Counts
	ldr	ip, [sp, #60]	@ Counts, Counts
	add	r2, r2, ip	@ total.1078, total.1077, Counts
	b	.L66	@
.L102:
	add	lr, sp, #40	@,,
	mov	ip, #0	@,
	str	ip, [lr, r8]	@, Counts
	ldr	fp, [sp, #52]	@ Counts, Counts
	add	r1, r1, fp	@ total.1076, total.1075, Counts
	b	.L62	@
.L100:
	add	r0, sp, #40	@,,
	mov	r1, #0	@,
	str	r1, [r0, r8]	@, Counts
	ldr	r9, [sp, #44]	@ Counts, Counts
	add	r3, r3, r9	@ total.839, prephitmp.820, Counts
	b	.L58	@
.L128:
	add	sp, sp, #84	@,,
	ldmfd	sp!, {r4, r5, r6, r7, r8, r9, sl, fp, pc}
	.fnend
	.size	VP6_BuildModeTree, .-VP6_BuildModeTree
	.align	2
	.global	VP6_ConfigureContexts
	.type	VP6_ConfigureContexts, %function
VP6_ConfigureContexts:
	.fnstart
.LFB1926:
	@ args = 0, pretend = 0, frame = 184
	@ frame_needed = 0, uses_anonymous_args = 0
	@ link register save eliminated.
	movw	r3, #:lower16:.LANCHOR0	@ tmp196,
	movt	r3, #:upper16:.LANCHOR0	@ tmp196,
	stmfd	sp!, {r4, r5, r6, r7, r8, r9, sl, fp}	@,
	.save {r4, r5, r6, r7, r8, r9, sl, fp}
	ldr	r9, [r3, #24]	@, <variable>.M
	ldr	r7, [r3, #48]	@, <variable>.M
	.pad #184
	sub	sp, sp, #184	@,,
	ldr	sl, [r3, #72]	@, <variable>.M
	ldr	r8, [r3, #96]	@, <variable>.M
	str	r9, [sp, #52]	@, %sfp
	str	r7, [sp, #60]	@, %sfp
	ldrb	r4, [r0, #516]	@ zero_extendqisi2	@ <variable>.DcProbs, <variable>.DcProbs
	ldrb	r5, [r0, #515]	@ zero_extendqisi2	@ <variable>.DcProbs, <variable>.DcProbs
	ldmib	r3, {r9, fp}	@ phole ldm
	str	sl, [sp, #68]	@, %sfp
	str	r8, [sp, #72]	@, %sfp
	ldr	sl, [r3, #28]	@, <variable>.C
	ldr	r7, [sp, #52]	@, %sfp
	ldr	r8, [sp, #60]	@, %sfp
	ldrb	ip, [r0, #517]	@ zero_extendqisi2	@ <variable>.DcProbs, <variable>.DcProbs
	ldrb	r1, [r0, #518]	@ zero_extendqisi2	@ <variable>.DcProbs, <variable>.DcProbs
	str	fp, [sp, #124]	@, %sfp
	str	r9, [sp, #44]	@, %sfp
	ldr	fp, [sp, #68]	@, %sfp
	mul	r9, r7, r5	@ tmp207,, <variable>.DcProbs
	str	sl, [sp, #56]	@, %sfp
	ldr	r7, [sp, #72]	@, %sfp
	mul	sl, r8, r4	@ tmp217,, <variable>.DcProbs
	ldrb	r6, [r0, #514]	@ zero_extendqisi2	@ <variable>.DcProbs, <variable>.DcProbs
	ldr	r2, [r3, #0]	@, <variable>.M
	add	r9, r9, #128	@ tmp209, tmp207,
	mul	r8, fp, ip	@ tmp227,, <variable>.DcProbs
	mul	fp, r7, r1	@ tmp237,, <variable>.DcProbs
	add	r7, sl, #128	@, tmp217,
	ldr	sl, [sp, #124]	@, %sfp
	add	r8, r8, #128	@ tmp229, tmp227,
	str	r2, [sp, #48]	@, %sfp
	mul	r2, r2, r6	@ tmp197,, <variable>.DcProbs
	str	r7, [sp, #76]	@, %sfp
	mul	r7, sl, r6	@ tmp259,, <variable>.DcProbs
	add	sl, fp, #128	@, tmp237,
	ldr	fp, [r3, #52]	@, <variable>.C
	add	r2, r2, #128	@ tmp199, tmp197,
	str	sl, [sp, #96]	@, %sfp
	ldr	sl, [r3, #76]	@, <variable>.C
	str	fp, [sp, #64]	@, %sfp
	ldr	fp, [sp, #44]	@, %sfp
	str	sl, [sp, #84]	@, %sfp
	add	sl, fp, r2, asr #8	@,,, tmp199,
	add	r2, r7, #128	@, tmp259,
	str	sl, [sp, #80]	@, %sfp
	ldr	r7, [r3, #100]	@, <variable>.C
	ldr	fp, [r3, #12]	@, <variable>.C
	ldr	sl, [sp, #56]	@, %sfp
	str	r7, [sp, #88]	@, %sfp
	ldr	r7, [sp, #76]	@, %sfp
	str	r2, [sp, #100]	@, %sfp
	add	r2, sl, r9, asr #8	@,,, tmp209,
	str	fp, [sp, #128]	@, %sfp
	ldrb	sl, [r0, #520]	@ zero_extendqisi2	@, <variable>.DcProbs
	ldr	fp, [sp, #64]	@, %sfp
	str	r2, [sp, #92]	@, %sfp
	add	r9, fp, r7, asr #8	@,,,,
	ldrb	fp, [r0, #521]	@ zero_extendqisi2	@, <variable>.DcProbs
	str	r9, [sp, #104]	@, %sfp
	ldr	r9, [sp, #96]	@, %sfp
	ldr	r7, [sp, #84]	@, %sfp
	str	sl, [sp, #108]	@, %sfp
	ldr	sl, [sp, #88]	@, %sfp
	add	r8, r7, r8, asr #8	@, Temp.1377,, tmp229,
	str	fp, [sp, #112]	@, %sfp
	cmp	r8, #255	@ Temp.1377,
	movge	r8, #255	@ Temp.1378,
	add	fp, sl, r9, asr #8	@, Temp.1388,,,
	ldrb	r7, [r0, #522]	@ zero_extendqisi2	@, <variable>.DcProbs
	ldr	sl, [sp, #100]	@, %sfp
	cmp	fp, #255	@ Temp.1388,
	movge	fp, #255	@ Temp.1389,
	ldr	r9, [sp, #128]	@, %sfp
	cmp	r8, #1	@ Temp.1378,
	movlt	r8, #1	@ tmp233,
	str	r7, [sp, #116]	@, %sfp
	cmp	fp, #1	@ Temp.1389,
	movlt	fp, #1	@ tmp243,
	add	r7, r9, sl, asr #8	@, Temp.1405,,,
	ldr	r9, [sp, #80]	@, %sfp
	ldrb	sl, [r0, #523]	@ zero_extendqisi2	@, <variable>.DcProbs
	cmp	r7, #255	@ Temp.1405,
	movge	r7, #255	@ Temp.1405,
	cmp	r9, #255	@,
	movge	r9, #255	@,
	str	r9, [sp, #76]	@, %sfp
	ldr	r9, [sp, #92]	@ Temp.1356, %sfp
	str	r7, [sp, #92]	@ Temp.1405, %sfp
	ldr	r7, [sp, #76]	@, %sfp
	cmp	r9, #255	@ Temp.1356,
	movge	r9, #255	@ Temp.1356,
	str	sl, [sp, #120]	@, %sfp
	cmp	r9, #1	@ Temp.1356,
	movlt	r9, #1	@ tmp213,
	ldrb	sl, [r0, #524]	@ zero_extendqisi2	@, <variable>.DcProbs
	cmp	r7, #1	@,
	movlt	r7, #1	@,
	str	r7, [sp, #76]	@, %sfp
	ldr	r7, [sp, #92]	@, %sfp
	ldrb	r2, [r0, #519]	@ zero_extendqisi2	@ <variable>.DcProbs, <variable>.DcProbs
	cmp	r7, #1	@,
	movlt	r7, #1	@,
	str	sl, [sp, #80]	@, %sfp
	ldr	sl, [sp, #104]	@ Temp.1367, %sfp
	str	r7, [sp, #92]	@, %sfp
	ldr	r7, [sp, #76]	@, %sfp
	cmp	sl, #255	@ Temp.1367,
	movge	sl, #255	@ Temp.1367,
	strb	r9, [r0, #1153]	@ tmp213, <variable>.DcNodeContexts
	cmp	sl, #1	@ Temp.1367,
	movlt	sl, #1	@ tmp223,
	ldr	r9, [sp, #112]	@, %sfp
	strb	r8, [r0, #1155]	@ tmp233, <variable>.DcNodeContexts
	strb	fp, [r0, #1156]	@, <variable>.DcNodeContexts
	ldr	r8, [sp, #116]	@, %sfp
	ldr	fp, [sp, #108]	@, %sfp
	strb	r7, [r0, #1152]	@, <variable>.DcNodeContexts
	ldr	r7, [sp, #80]	@, %sfp
	strb	sl, [r0, #1154]	@ tmp223, <variable>.DcNodeContexts
	strb	fp, [r0, #1158]	@, <variable>.DcNodeContexts
	ldr	sl, [sp, #120]	@, %sfp
	ldr	fp, [sp, #92]	@, %sfp
	strb	r9, [r0, #1159]	@, <variable>.DcNodeContexts
	strb	r8, [r0, #1160]	@, <variable>.DcNodeContexts
	ldr	r9, [r3, #32]	@, <variable>.M
	ldr	r8, [r3, #56]	@, <variable>.M
	strb	r7, [r0, #1162]	@, <variable>.DcNodeContexts
	ldr	r7, [r3, #104]	@, <variable>.M
	strb	sl, [r0, #1161]	@, <variable>.DcNodeContexts
	strb	fp, [r0, #1163]	@, <variable>.DcNodeContexts
	ldr	sl, [r3, #80]	@, <variable>.M
	ldr	fp, [r3, #40]	@, <variable>.M
	str	r9, [sp, #76]	@, %sfp
	str	r8, [sp, #136]	@, %sfp
	ldr	r9, [r3, #64]	@, <variable>.M
	ldr	r8, [r3, #88]	@, <variable>.M
	str	r7, [sp, #152]	@, %sfp
	ldr	r7, [r3, #16]	@ <variable>.M, <variable>.M
	strb	r2, [r0, #1157]	@ <variable>.DcProbs, <variable>.DcNodeContexts
	str	sl, [sp, #144]	@, %sfp
	str	fp, [sp, #92]	@, %sfp
	str	r9, [sp, #96]	@, %sfp
	str	r8, [sp, #100]	@, %sfp
	ldr	sl, [r3, #112]	@, <variable>.M
	mul	r6, r7, r6	@ tmp321, <variable>.M, <variable>.DcProbs
	ldr	fp, [r3, #116]	@, <variable>.C
	ldr	r9, [sp, #92]	@, %sfp
	ldr	r8, [r3, #36]	@, <variable>.C
	str	sl, [sp, #104]	@, %sfp
	ldr	sl, [sp, #96]	@, %sfp
	str	fp, [sp, #176]	@, %sfp
	mul	fp, r9, r5	@ tmp331,, <variable>.DcProbs
	add	r9, r6, #128	@, tmp321,
	ldr	r6, [sp, #100]	@, %sfp
	str	r8, [sp, #132]	@, %sfp
	mul	r8, sl, r4	@ tmp341,, <variable>.DcProbs
	str	r9, [sp, #180]	@, %sfp
	mul	r9, r6, ip	@ tmp351,, <variable>.DcProbs
	ldr	r6, [sp, #104]	@, %sfp
	add	sl, fp, #128	@, tmp331,
	add	r8, r8, #128	@, tmp341,
	ldr	fp, [sp, #76]	@, %sfp
	str	r8, [sp, #28]	@, %sfp
	ldr	r8, [sp, #136]	@, %sfp
	str	sl, [sp, #36]	@, %sfp
	mul	sl, r6, r1	@ tmp361,, <variable>.DcProbs
	add	r6, r9, #128	@, tmp351,
	ldr	r9, [sp, #144]	@, %sfp
	mul	r5, fp, r5	@ tmp269,, <variable>.DcProbs
	str	r6, [sp, #20]	@, %sfp
	ldr	fp, [sp, #152]	@, %sfp
	add	sl, sl, #128	@, tmp361,
	mul	r6, r8, r4	@ tmp279,, <variable>.DcProbs
	str	sl, [sp, #12]	@, %sfp
	mul	r8, r9, ip	@ tmp289,, <variable>.DcProbs
	ldr	sl, [sp, #132]	@, %sfp
	mul	r9, fp, r1	@ tmp299,, <variable>.DcProbs
	ldr	fp, [r3, #60]	@, <variable>.C
	add	r4, r6, #128	@ tmp281, tmp279,
	add	r5, r5, #128	@ tmp271, tmp269,
	ldr	r6, [r3, #84]	@, <variable>.C
	add	ip, r8, #128	@ tmp291, tmp289,
	add	r5, sl, r5, asr #8	@,,, tmp271,
	ldr	r8, [r3, #108]	@, <variable>.C
	ldr	sl, [r3, #20]	@, <variable>.C
	add	r4, fp, r4, asr #8	@, Temp.1427,, tmp281,
	str	fp, [sp, #140]	@, %sfp
	add	r1, r9, #128	@ tmp301, tmp299,
	ldr	fp, [r3, #44]	@, <variable>.C
	add	ip, r6, ip, asr #8	@, Temp.1438,, tmp291,
	str	r5, [sp, #4]	@, %sfp
	add	r1, r8, r1, asr #8	@, Temp.1449,, tmp301,
	ldr	r5, [r3, #68]	@, <variable>.C
	cmp	r4, #255	@ Temp.1427,
	movge	r4, #255	@ Temp.1428,
	ldr	r3, [r3, #92]	@, <variable>.C
	cmp	r4, #1	@ Temp.1428,
	movlt	r4, #1	@ tmp285,
	str	r6, [sp, #148]	@, %sfp
	cmp	ip, #255	@ Temp.1438,
	movge	ip, #255	@ Temp.1439,
	str	r8, [sp, #156]	@, %sfp
	cmp	r1, #255	@ Temp.1449,
	movge	r1, #255	@ Temp.1450,
	str	sl, [sp, #160]	@, %sfp
	cmp	ip, #1	@ Temp.1439,
	movlt	ip, #1	@ tmp295,
	str	fp, [sp, #164]	@, %sfp
	cmp	r1, #1	@ Temp.1450,
	movlt	r1, #1	@ tmp305,
	str	r5, [sp, #168]	@, %sfp
	str	r3, [sp, #172]	@, %sfp
	ldr	r9, [sp, #180]	@, %sfp
	ldr	r8, [sp, #36]	@, %sfp
	strb	r4, [r0, #1165]	@ tmp285, <variable>.DcNodeContexts
	add	r6, sl, r9, asr #8	@, Temp.1466,,,
	ldr	r9, [sp, #28]	@, %sfp
	ldr	sl, [sp, #20]	@, %sfp
	add	fp, fp, r8, asr #8	@, Temp.1477,,,
	cmp	r6, #255	@ Temp.1466,
	movge	r6, #255	@ Temp.1467,
	cmp	fp, #255	@ Temp.1477,
	movge	fp, #255	@ Temp.1478,
	add	r8, r5, r9, asr #8	@, Temp.1488,,,
	ldr	r5, [sp, #12]	@, %sfp
	add	r9, r3, sl, asr #8	@, Temp.1499,,,
	ldr	r3, [sp, #176]	@, %sfp
	cmp	r6, #1	@ Temp.1467,
	movlt	r6, #1	@ tmp327,
	strb	r6, [r0, #1174]	@ tmp327, <variable>.DcNodeContexts
	add	sl, r3, r5, asr #8	@, Temp.1510,,,
	ldr	r3, [sp, #4]	@ Temp.1417, %sfp
	ldr	r6, [sp, #108]	@, %sfp
	cmp	sl, #255	@ Temp.1510,
	movge	sl, #255	@ Temp.1511,
	cmp	r3, #255	@ Temp.1417,
	movge	r3, #255	@ Temp.1417,
	cmp	fp, #1	@ Temp.1478,
	movlt	fp, #1	@ tmp337,
	cmp	r3, #1	@ Temp.1417,
	movlt	r3, #1	@ tmp275,
	cmp	sl, #1	@ Temp.1511,
	movlt	sl, #1	@ tmp367,
	ldr	r5, [sp, #112]	@, %sfp
	cmp	r8, #255	@ Temp.1488,
	movge	r8, #255	@ Temp.1489,
	ldr	r4, [sp, #116]	@, %sfp
	cmp	r9, #255	@ Temp.1499,
	movge	r9, #255	@ Temp.1500,
	strb	r3, [r0, #1164]	@ tmp275, <variable>.DcNodeContexts
	cmp	r8, #1	@ Temp.1489,
	movlt	r8, #1	@ tmp347,
	ldr	r3, [sp, #80]	@, %sfp
	cmp	r9, #1	@ Temp.1500,
	movlt	r9, #1	@ tmp357,
	strb	fp, [r0, #1175]	@, <variable>.DcNodeContexts
	strb	sl, [r0, #1178]	@ tmp367, <variable>.DcNodeContexts
	ldr	fp, [sp, #120]	@, %sfp
	ldrb	sl, [r0, #530]	@ zero_extendqisi2	@, <variable>.DcProbs
	strb	r6, [r0, #1169]	@, <variable>.DcNodeContexts
	ldrb	r6, [r0, #525]	@ zero_extendqisi2	@ <variable>.DcProbs, <variable>.DcProbs
	strb	ip, [r0, #1166]	@ tmp295, <variable>.DcNodeContexts
	strb	r1, [r0, #1167]	@ tmp305, <variable>.DcNodeContexts
	strb	r8, [r0, #1176]	@ tmp347, <variable>.DcNodeContexts
	strb	r9, [r0, #1177]	@ tmp357, <variable>.DcNodeContexts
	strb	r2, [r0, #1168]	@ <variable>.DcProbs, <variable>.DcNodeContexts
	ldr	r9, [sp, #48]	@, %sfp
	strb	r5, [r0, #1170]	@, <variable>.DcNodeContexts
	strb	r4, [r0, #1171]	@, <variable>.DcNodeContexts
	ldrb	r5, [r0, #526]	@ zero_extendqisi2	@ <variable>.DcProbs, <variable>.DcProbs
	ldrb	r4, [r0, #527]	@ zero_extendqisi2	@ <variable>.DcProbs, <variable>.DcProbs
	strb	fp, [r0, #1172]	@, <variable>.DcNodeContexts
	strb	r3, [r0, #1173]	@, <variable>.DcNodeContexts
	ldrb	fp, [r0, #528]	@ zero_extendqisi2	@ <variable>.DcProbs, <variable>.DcProbs
	ldrb	r3, [r0, #529]	@ zero_extendqisi2	@ <variable>.DcProbs, <variable>.DcProbs
	strb	r2, [r0, #1179]	@ <variable>.DcProbs, <variable>.DcNodeContexts
	str	sl, [sp, #48]	@, %sfp
	ldr	r8, [sp, #92]	@, %sfp
	ldr	sl, [sp, #96]	@, %sfp
	ldrb	r2, [r0, #532]	@ zero_extendqisi2	@, <variable>.DcProbs
	mul	r7, r7, r6	@ tmp507, <variable>.M, <variable>.DcProbs
	ldr	r1, [sp, #52]	@, %sfp
	str	r2, [sp, #52]	@, %sfp
	mul	r2, r8, r5	@ tmp517,, <variable>.DcProbs
	mul	r8, sl, r4	@ tmp527,, <variable>.DcProbs
	ldr	sl, [sp, #100]	@, %sfp
	mul	ip, r9, r6	@ tmp383,, <variable>.DcProbs
	add	r2, r2, #128	@, tmp517,
	mul	r9, r1, r5	@ tmp393,, <variable>.DcProbs
	add	r1, r7, #128	@, tmp507,
	str	r1, [sp, #92]	@, %sfp
	add	ip, ip, #128	@ tmp385, tmp383,
	mul	r1, sl, fp	@ tmp537,, <variable>.DcProbs
	ldr	r7, [sp, #104]	@, %sfp
	add	sl, r8, #128	@, tmp527,
	str	r2, [sp, #96]	@, %sfp
	str	sl, [sp, #100]	@, %sfp
	add	r9, r9, #128	@ tmp395, tmp393,
	add	r8, r1, #128	@, tmp537,
	ldr	r1, [sp, #68]	@, %sfp
	mul	r2, r7, r3	@ tmp547,, <variable>.DcProbs
	str	r8, [sp, #104]	@, %sfp
	ldr	r7, [sp, #60]	@, %sfp
	mul	r8, r1, fp	@ tmp413,, <variable>.DcProbs
	ldr	r1, [sp, #72]	@, %sfp
	mul	sl, r7, r4	@ tmp403,, <variable>.DcProbs
	add	r7, r2, #128	@, tmp547,
	str	r7, [sp, #180]	@, %sfp
	mul	r7, r1, r3	@ tmp423,, <variable>.DcProbs
	add	r2, sl, #128	@, tmp403,
	ldr	r1, [sp, #124]	@, %sfp
	add	sl, r8, #128	@, tmp413,
	str	r2, [sp, #60]	@, %sfp
	add	r8, r7, #128	@, tmp423,
	ldr	r2, [sp, #76]	@, %sfp
	ldr	r7, [sp, #136]	@, %sfp
	mul	r6, r1, r6	@ tmp445,, <variable>.DcProbs
	str	sl, [sp, #68]	@, %sfp
	str	r8, [sp, #76]	@, %sfp
	mul	sl, r2, r5	@ tmp455,, <variable>.DcProbs
	ldr	r2, [sp, #144]	@, %sfp
	mul	r8, r7, r4	@ tmp465,, <variable>.DcProbs
	ldr	r7, [sp, #152]	@, %sfp
	mul	fp, r2, fp	@ tmp475,, <variable>.DcProbs
	add	r1, r6, #128	@, tmp445,
	mul	r2, r7, r3	@ tmp485,, <variable>.DcProbs
	add	r6, sl, #128	@, tmp455,
	ldr	sl, [sp, #44]	@, %sfp
	add	r5, r8, #128	@, tmp465,
	str	r6, [sp, #144]	@, %sfp
	add	fp, fp, #128	@ tmp477, tmp475,
	ldr	r6, [sp, #60]	@, %sfp
	add	ip, sl, ip, asr #8	@, Temp.1167,, tmp385,
	ldr	r4, [sp, #64]	@, %sfp
	add	r3, r2, #128	@, tmp485,
	str	r1, [sp, #136]	@, %sfp
	cmp	ip, #255	@ Temp.1167,
	movge	ip, #255	@ Temp.1167,
	ldr	r1, [sp, #56]	@, %sfp
	add	r8, r4, r6, asr #8	@,,,,
	ldrb	r2, [r0, #534]	@ zero_extendqisi2	@ <variable>.DcProbs, <variable>.DcProbs
	str	r5, [sp, #152]	@, %sfp
	add	r9, r1, r9, asr #8	@, Temp.1172,, tmp395,
	str	r3, [sp, #44]	@, %sfp
	cmp	r9, #255	@ Temp.1172,
	movge	r9, #255	@ Temp.1235,
	ldrb	r1, [r0, #533]	@ zero_extendqisi2	@ <variable>.DcProbs, <variable>.DcProbs
	ldrb	r3, [r0, #535]	@ zero_extendqisi2	@ <variable>.DcProbs, <variable>.DcProbs
	str	ip, [sp, #72]	@ Temp.1167, %sfp
	ldrb	ip, [r0, #531]	@ zero_extendqisi2	@ <variable>.DcProbs, <variable>.DcProbs
	str	r8, [sp, #124]	@, %sfp
	ldr	r7, [sp, #68]	@, %sfp
	ldr	r5, [sp, #84]	@, %sfp
	ldr	r6, [sp, #76]	@, %sfp
	ldr	sl, [sp, #88]	@, %sfp
	add	r8, r5, r7, asr #8	@, Temp.1256,,,
	ldr	r4, [sp, #136]	@, %sfp
	ldr	r5, [sp, #128]	@, %sfp
	add	r7, sl, r6, asr #8	@, Temp.1267,,,
	ldr	sl, [sp, #144]	@, %sfp
	add	r6, r5, r4, asr #8	@, Temp.1284,,,
	ldr	r4, [sp, #132]	@, %sfp
	add	r5, r4, sl, asr #8	@, Temp.1295,,,
	ldr	sl, [sp, #152]	@, %sfp
	ldr	r4, [sp, #140]	@, %sfp
	add	r4, r4, sl, asr #8	@,,,,
	ldr	sl, [sp, #148]	@, %sfp
	str	r4, [sp, #76]	@, %sfp
	ldr	r4, [sp, #44]	@, %sfp
	add	fp, sl, fp, asr #8	@, Temp.1317,, tmp477,
	ldr	sl, [sp, #156]	@, %sfp
	add	sl, sl, r4, asr #8	@,,,,
	ldr	r4, [sp, #92]	@, %sfp
	str	sl, [sp, #44]	@, %sfp
	ldr	sl, [sp, #160]	@, %sfp
	add	sl, sl, r4, asr #8	@,,,,
	ldr	r4, [sp, #96]	@, %sfp
	str	sl, [sp, #68]	@, %sfp
	ldr	sl, [sp, #164]	@, %sfp
	add	sl, sl, r4, asr #8	@,,,,
	ldr	r4, [sp, #100]	@, %sfp
	str	sl, [sp, #64]	@, %sfp
	ldr	sl, [sp, #168]	@, %sfp
	add	sl, sl, r4, asr #8	@,,,,
	ldr	r4, [sp, #104]	@, %sfp
	str	sl, [sp, #60]	@, %sfp
	ldr	sl, [sp, #172]	@, %sfp
	add	sl, sl, r4, asr #8	@,,,,
	ldr	r4, [sp, #180]	@, %sfp
	str	sl, [sp, #56]	@, %sfp
	ldr	sl, [sp, #176]	@, %sfp
	add	sl, sl, r4, asr #8	@,,,,
	ldr	r4, [sp, #72]	@, %sfp
	str	sl, [sp, #84]	@, %sfp
	cmp	r4, #1	@,
	movlt	r4, #1	@,
	cmp	r9, #1	@ Temp.1235,
	movlt	r9, #1	@ Temp.1235,
	str	r9, [sp, #88]	@ Temp.1235, %sfp
	cmp	r8, #255	@ Temp.1256,
	movge	r8, #255	@ Temp.1257,
	ldr	r9, [sp, #44]	@, %sfp
	cmp	r7, #255	@ Temp.1267,
	movge	r7, #255	@ Temp.1268,
	str	r4, [sp, #72]	@, %sfp
	cmp	r6, #255	@ Temp.1284,
	movge	r6, #255	@ Temp.1285,
	ldr	sl, [sp, #124]	@ Temp.1246, %sfp
	cmp	r9, #255	@,
	movge	r9, #255	@,
	ldr	r4, [sp, #76]	@ Temp.1307, %sfp
	cmp	r5, #255	@ Temp.1295,
	movge	r5, #255	@ Temp.1296,
	str	r9, [sp, #76]	@, %sfp
	cmp	sl, #255	@ Temp.1246,
	movge	sl, #255	@ Temp.1246,
	ldr	r9, [sp, #68]	@, %sfp
	cmp	r4, #255	@ Temp.1307,
	movge	r4, #255	@ Temp.1307,
	cmp	fp, #255	@ Temp.1317,
	movge	fp, #255	@ Temp.1318,
	cmp	sl, #1	@ Temp.1246,
	movlt	sl, #1	@ tmp409,
	cmp	r9, #255	@,
	movge	r9, #255	@,
	str	r9, [sp, #68]	@, %sfp
	ldr	r9, [sp, #64]	@, %sfp
	cmp	r8, #1	@ Temp.1257,
	movlt	r8, #1	@ tmp419,
	cmp	r7, #1	@ Temp.1268,
	movlt	r7, #1	@ tmp429,
	cmp	r6, #1	@ Temp.1285,
	movlt	r6, #1	@ tmp451,
	cmp	r9, #255	@,
	movge	r9, #255	@,
	str	r9, [sp, #64]	@, %sfp
	ldr	r9, [sp, #60]	@, %sfp
	cmp	r5, #1	@ Temp.1296,
	movlt	r5, #1	@ tmp461,
	cmp	r4, #1	@ Temp.1307,
	movlt	r4, #1	@ tmp471,
	cmp	fp, #1	@ Temp.1318,
	movlt	fp, #1	@ tmp481,
	cmp	r9, #255	@,
	movge	r9, #255	@,
	str	r9, [sp, #60]	@, %sfp
	ldr	r9, [sp, #56]	@, %sfp
	strb	sl, [r0, #1187]	@ tmp409, <variable>.DcNodeContexts
	cmp	r9, #255	@,
	movge	r9, #255	@,
	str	r9, [sp, #44]	@, %sfp
	ldr	r9, [sp, #84]	@, %sfp
	strb	r8, [r0, #1188]	@ tmp419, <variable>.DcNodeContexts
	cmp	r9, #255	@,
	movge	r9, #255	@,
	str	r9, [sp, #56]	@, %sfp
	ldr	r9, [sp, #108]	@, %sfp
	ldr	r8, [sp, #68]	@ tmp513, %sfp
	strb	r7, [r0, #1189]	@ tmp429, <variable>.DcNodeContexts
	strb	r9, [r0, #1180]	@, <variable>.DcNodeContexts
	cmp	r8, #1	@ tmp513,
	movlt	r8, #1	@ tmp513,
	ldr	r9, [sp, #112]	@, %sfp
	ldr	r7, [sp, #64]	@ tmp523, %sfp
	strb	r6, [r0, #1196]	@ tmp451, <variable>.DcNodeContexts
	strb	r9, [r0, #1181]	@, <variable>.DcNodeContexts
	cmp	r7, #1	@ tmp523,
	movlt	r7, #1	@ tmp523,
	ldr	r9, [sp, #116]	@, %sfp
	ldr	r6, [sp, #60]	@ tmp533, %sfp
	strb	r5, [r0, #1197]	@ tmp461, <variable>.DcNodeContexts
	strb	r9, [r0, #1182]	@, <variable>.DcNodeContexts
	cmp	r6, #1	@ tmp533,
	movlt	r6, #1	@ tmp533,
	ldr	r9, [sp, #120]	@, %sfp
	ldr	r5, [sp, #44]	@ tmp543, %sfp
	strb	r9, [r0, #1183]	@, <variable>.DcNodeContexts
	cmp	r5, #1	@ tmp543,
	movlt	r5, #1	@ tmp543,
	ldr	r9, [sp, #80]	@, %sfp
	strb	r9, [r0, #1184]	@, <variable>.DcNodeContexts
	ldr	r9, [sp, #72]	@, %sfp
	strb	r9, [r0, #1185]	@, <variable>.DcNodeContexts
	ldr	r9, [sp, #88]	@, %sfp
	strb	r9, [r0, #1186]	@, <variable>.DcNodeContexts
	ldr	r9, [sp, #76]	@ tmp491, %sfp
	strb	r4, [r0, #1198]	@ tmp471, <variable>.DcNodeContexts
	ldr	sl, [sp, #48]	@, %sfp
	cmp	r9, #1	@ tmp491,
	movlt	r9, #1	@ tmp491,
	strb	fp, [r0, #1199]	@, <variable>.DcNodeContexts
	ldr	fp, [sp, #52]	@, %sfp
	ldr	r4, [sp, #56]	@ tmp553, %sfp
	strb	r9, [r0, #1200]	@ tmp491, <variable>.DcNodeContexts
	cmp	r4, #1	@ tmp553,
	movlt	r4, #1	@ tmp553,
	strb	sl, [r0, #1190]	@, <variable>.DcNodeContexts
	strb	ip, [r0, #1191]	@ <variable>.DcProbs, <variable>.DcNodeContexts
	strb	fp, [r0, #1192]	@, <variable>.DcNodeContexts
	strb	r1, [r0, #1193]	@ <variable>.DcProbs, <variable>.DcNodeContexts
	strb	r2, [r0, #1194]	@ <variable>.DcProbs, <variable>.DcNodeContexts
	strb	r3, [r0, #1195]	@ <variable>.DcProbs, <variable>.DcNodeContexts
	strb	sl, [r0, #1201]	@, <variable>.DcNodeContexts
	strb	ip, [r0, #1202]	@ <variable>.DcProbs, <variable>.DcNodeContexts
	strb	r3, [r0, #1217]	@ <variable>.DcProbs, <variable>.DcNodeContexts
	strb	r8, [r0, #1207]	@ tmp513, <variable>.DcNodeContexts
	strb	r7, [r0, #1208]	@ tmp523, <variable>.DcNodeContexts
	strb	r6, [r0, #1209]	@ tmp533, <variable>.DcNodeContexts
	strb	r5, [r0, #1210]	@ tmp543, <variable>.DcNodeContexts
	strb	r4, [r0, #1211]	@ tmp553, <variable>.DcNodeContexts
	strb	sl, [r0, #1212]	@, <variable>.DcNodeContexts
	strb	ip, [r0, #1213]	@ <variable>.DcProbs, <variable>.DcNodeContexts
	strb	fp, [r0, #1214]	@, <variable>.DcNodeContexts
	strb	r1, [r0, #1215]	@ <variable>.DcProbs, <variable>.DcNodeContexts
	strb	r2, [r0, #1216]	@ <variable>.DcProbs, <variable>.DcNodeContexts
	strb	fp, [r0, #1203]	@, <variable>.DcNodeContexts
	strb	r1, [r0, #1204]	@ <variable>.DcProbs, <variable>.DcNodeContexts
	strb	r2, [r0, #1205]	@ <variable>.DcProbs, <variable>.DcNodeContexts
	strb	r3, [r0, #1206]	@ <variable>.DcProbs, <variable>.DcNodeContexts
	add	sp, sp, #184	@,,
	ldmfd	sp!, {r4, r5, r6, r7, r8, r9, sl, fp}
	bx	lr
	.fnend
	.size	VP6_ConfigureContexts, .-VP6_ConfigureContexts
	.align	2
	.global	VP6_BoolTreeToHuffCodes
	.type	VP6_BoolTreeToHuffCodes, %function
VP6_BoolTreeToHuffCodes:
	.fnstart
.LFB1931:
	@ args = 0, pretend = 0, frame = 0
	@ frame_needed = 0, uses_anonymous_args = 0
	@ link register save eliminated.
	str	r4, [sp, #-4]!	@,
	.save {r4}
	ldrb	ip, [r0, #1]	@ zero_extendqisi2	@ tmp159,
	ldrb	r2, [r0, #0]	@ zero_extendqisi2	@ tmp160,* pBoolTreeProbs
	mul	r3, r2, ip	@ tmp161, tmp160, tmp159
	mov	r4, r3, lsr #8	@ tmp162, tmp161,
	str	r4, [r1, #44]	@ tmp162,
	ldrb	ip, [r0, #1]	@ zero_extendqisi2	@ tmp163,
	ldrb	r2, [r0, #0]	@ zero_extendqisi2	@ tmp165,* pBoolTreeProbs
	rsb	r3, ip, #255	@ tmp164, tmp163,
	mul	r4, r2, r3	@ tmp166, tmp165, tmp164
	mov	ip, r4, lsr #8	@ tmp167, tmp166,
	str	ip, [r1, #0]	@ tmp167,* pHuffProbs
	ldrb	r3, [r0, #0]	@ zero_extendqisi2	@ tmp168,* pBoolTreeProbs
	ldrb	r4, [r0, #2]	@ zero_extendqisi2	@ tmp169,
	rsb	r3, r3, #255	@ Prob, tmp168,
	mul	r2, r3, r4	@ tmp170, Prob, tmp169
	mov	ip, r2, lsr #8	@ tmp171, tmp170,
	str	ip, [r1, #4]	@ tmp171,
	ldrb	r4, [r0, #2]	@ zero_extendqisi2	@ tmp172,
	ldrb	ip, [r0, #3]	@ zero_extendqisi2	@ tmp174,
	rsb	r2, r4, #255	@ tmp173, tmp172,
	ldrb	r4, [r0, #4]	@ zero_extendqisi2	@ tmp176,
	mul	r2, r3, r2	@ D.38507, Prob, tmp173
	mov	r2, r2, lsr #8	@ Prob.1550, D.38507,
	mul	ip, ip, r2	@ tmp175, tmp174, Prob.1550
	mov	ip, ip, lsr #8	@ Prob1, tmp175,
	mul	r3, r4, ip	@ tmp177, tmp176, Prob1
	mov	r4, r3, lsr #8	@ tmp178, tmp177,
	str	r4, [r1, #8]	@ tmp178,
	ldrb	r3, [r0, #4]	@ zero_extendqisi2	@ tmp179,
	ldrb	r4, [r0, #5]	@ zero_extendqisi2	@ tmp181,
	rsb	r3, r3, #255	@ tmp180, tmp179,
	mul	r3, r3, ip	@ D.38520, tmp180, Prob1
	mov	r3, r3, lsr #8	@ Prob1.1552, D.38520,
	mul	ip, r4, r3	@ tmp182, tmp181, Prob1.1552
	mov	ip, ip, lsr #8	@ tmp183, tmp182,
	str	ip, [r1, #12]	@ tmp183,
	ldrb	r4, [r0, #5]	@ zero_extendqisi2	@ tmp184,
	rsb	ip, r4, #255	@ tmp185, tmp184,
	mul	r4, ip, r3	@ tmp186, tmp185, Prob1.1552
	mov	r3, r4, lsr #8	@ tmp187, tmp186,
	str	r3, [r1, #16]	@ tmp187,
	ldrb	r4, [r0, #3]	@ zero_extendqisi2	@ tmp188,
	ldrb	r3, [r0, #6]	@ zero_extendqisi2	@ tmp190,
	rsb	ip, r4, #255	@ tmp189, tmp188,
	ldrb	r4, [r0, #7]	@ zero_extendqisi2	@ tmp192,
	mul	r2, ip, r2	@ D.38534, tmp189, Prob.1550
	mov	ip, r2, lsr #8	@ Prob.1555, D.38534,
	mul	r3, r3, ip	@ tmp191, tmp190, Prob.1555
	mov	r3, r3, lsr #8	@ Prob1.1556, tmp191,
	mul	r2, r4, r3	@ tmp193, tmp192, Prob1.1556
	mov	r2, r2, lsr #8	@ tmp194, tmp193,
	str	r2, [r1, #20]	@ tmp194,
	ldrb	r4, [r0, #7]	@ zero_extendqisi2	@ tmp195,
	rsb	r2, r4, #255	@ tmp196, tmp195,
	mul	r4, r2, r3	@ tmp197, tmp196, Prob1.1556
	mov	r3, r4, lsr #8	@ tmp198, tmp197,
	str	r3, [r1, #24]	@ tmp198,
	ldrb	r4, [r0, #6]	@ zero_extendqisi2	@ tmp199,
	ldrb	r3, [r0, #8]	@ zero_extendqisi2	@ tmp201,
	rsb	r2, r4, #255	@ tmp200, tmp199,
	ldrb	r4, [r0, #9]	@ zero_extendqisi2	@ tmp203,
	mul	r2, r2, ip	@ D.38552, tmp200, Prob.1555
	mov	r2, r2, lsr #8	@ Prob.1559, D.38552,
	mul	r3, r3, r2	@ tmp202, tmp201, Prob.1559
	mov	r3, r3, lsr #8	@ Prob1.1560, tmp202,
	mul	ip, r4, r3	@ tmp204, tmp203, Prob1.1560
	mov	ip, ip, lsr #8	@ tmp205, tmp204,
	str	ip, [r1, #28]	@ tmp205,
	ldrb	ip, [r0, #9]	@ zero_extendqisi2	@ tmp206,
	rsb	ip, ip, #255	@ tmp207, tmp206,
	mul	r3, ip, r3	@ tmp208, tmp207, Prob1.1560
	mov	ip, r3, lsr #8	@ tmp209, tmp208,
	str	ip, [r1, #32]	@ tmp209,
	ldrb	r3, [r0, #8]	@ zero_extendqisi2	@ tmp210,
	ldrb	ip, [r0, #10]	@ zero_extendqisi2	@ tmp212,
	rsb	r3, r3, #255	@ tmp211, tmp210,
	mul	r3, r3, r2	@ D.38570, tmp211, Prob.1559
	mov	r3, r3, lsr #8	@ Prob.1563, D.38570,
	mul	r2, ip, r3	@ tmp213, tmp212, Prob.1563
	mov	r2, r2, lsr #8	@ tmp214, tmp213,
	str	r2, [r1, #36]	@ tmp214,
	ldrb	ip, [r0, #10]	@ zero_extendqisi2	@ tmp215,
	rsb	r2, ip, #255	@ tmp216, tmp215,
	mul	r0, r2, r3	@ tmp217, tmp216, Prob.1563
	mov	r3, r0, lsr #8	@ tmp218, tmp217,
	str	r3, [r1, #40]	@ tmp218,
	ldmfd	sp!, {r4}
	bx	lr
	.fnend
	.size	VP6_BoolTreeToHuffCodes, .-VP6_BoolTreeToHuffCodes
	.align	2
	.global	VP6_ZerosBoolTreeToHuffCodes
	.type	VP6_ZerosBoolTreeToHuffCodes, %function
VP6_ZerosBoolTreeToHuffCodes:
	.fnstart
.LFB1932:
	@ args = 0, pretend = 0, frame = 0
	@ frame_needed = 0, uses_anonymous_args = 0
	@ link register save eliminated.
	str	r4, [sp, #-4]!	@,
	.save {r4}
	ldrb	r4, [r0, #1]	@ zero_extendqisi2	@ tmp148,
	ldrb	ip, [r0, #0]	@ zero_extendqisi2	@ tmp149,* pBoolTreeProbs
	ldrb	r2, [r0, #2]	@ zero_extendqisi2	@ tmp151,
	mul	r3, ip, r4	@ tmp150, tmp149, tmp148
	mov	ip, r3, lsr #8	@ Prob, tmp150,
	mul	r4, r2, ip	@ tmp152, tmp151, Prob
	mov	r2, r4, lsr #8	@ tmp153, tmp152,
	str	r2, [r1, #0]	@ tmp153,* pHuffProbs
	ldrb	r4, [r0, #2]	@ zero_extendqisi2	@ tmp154,
	rsb	r2, r4, #255	@ tmp155, tmp154,
	mul	r4, ip, r2	@ tmp156, Prob, tmp155
	mov	r3, r4, lsr #8	@ tmp157, tmp156,
	str	r3, [r1, #4]	@ tmp157,
	ldrb	r2, [r0, #1]	@ zero_extendqisi2	@ tmp158,
	ldrb	ip, [r0, #0]	@ zero_extendqisi2	@ tmp160,* pBoolTreeProbs
	rsb	r4, r2, #255	@ tmp159, tmp158,
	ldrb	r2, [r0, #3]	@ zero_extendqisi2	@ tmp162,
	mul	r3, ip, r4	@ tmp161, tmp160, tmp159
	mov	r4, r3, lsr #8	@ Prob.1592, tmp161,
	mul	ip, r2, r4	@ tmp163, tmp162, Prob.1592
	mov	r2, ip, lsr #8	@ tmp164, tmp163,
	str	r2, [r1, #8]	@ tmp164,
	ldrb	ip, [r0, #3]	@ zero_extendqisi2	@ tmp165,
	rsb	r2, ip, #255	@ tmp166, tmp165,
	mul	r3, r2, r4	@ tmp167, tmp166, Prob.1592
	mov	ip, r3, lsr #8	@ tmp168, tmp167,
	str	ip, [r1, #12]	@ tmp168,
	ldrb	r2, [r0, #0]	@ zero_extendqisi2	@ tmp169,* pBoolTreeProbs
	ldrb	r4, [r0, #4]	@ zero_extendqisi2	@ tmp171,
	rsb	r3, r2, #255	@ tmp170, tmp169,
	ldrb	ip, [r0, #5]	@ zero_extendqisi2	@ tmp174,
	ldrb	r2, [r0, #6]	@ zero_extendqisi2	@ tmp175,
	mul	r3, r4, r3	@ tmp172, tmp171, tmp170
	mov	r4, r3, lsr #8	@ tmp173, tmp172,
	mul	r3, ip, r4	@ D.38630, tmp174, tmp173
	mov	r3, r3, lsr #8	@ Prob.1596, D.38630,
	mul	r2, r2, r3	@ tmp176, tmp175, Prob.1596
	mov	ip, r2, lsr #8	@ tmp177, tmp176,
	str	ip, [r1, #16]	@ tmp177,
	ldrb	r4, [r0, #6]	@ zero_extendqisi2	@ tmp178,
	rsb	r2, r4, #255	@ tmp179, tmp178,
	mul	ip, r2, r3	@ tmp180, tmp179, Prob.1596
	mov	r4, ip, lsr #8	@ tmp181, tmp180,
	str	r4, [r1, #20]	@ tmp181,
	ldrb	r2, [r0, #0]	@ zero_extendqisi2	@ tmp182,* pBoolTreeProbs
	ldrb	r4, [r0, #4]	@ zero_extendqisi2	@ tmp184,
	rsb	r3, r2, #255	@ tmp183, tmp182,
	ldrb	ip, [r0, #5]	@ zero_extendqisi2	@ tmp187,
	ldrb	r2, [r0, #7]	@ zero_extendqisi2	@ tmp189,
	mul	r3, r4, r3	@ tmp185, tmp184, tmp183
	rsb	ip, ip, #255	@ tmp188, tmp187,
	mov	r3, r3, lsr #8	@ tmp186, tmp185,
	mul	r3, ip, r3	@ D.38646, tmp188, tmp186
	mov	ip, r3, lsr #8	@ Prob.1607, D.38646,
	mul	r2, r2, ip	@ tmp190, tmp189, Prob.1607
	mov	r2, r2, lsr #8	@ tmp191, tmp190,
	str	r2, [r1, #24]	@ tmp191,
	ldrb	r2, [r0, #7]	@ zero_extendqisi2	@ tmp192,
	rsb	r2, r2, #255	@ tmp193, tmp192,
	mul	r3, r2, ip	@ tmp194, tmp193, Prob.1607
	mov	r2, r3, lsr #8	@ tmp195, tmp194,
	str	r2, [r1, #28]	@ tmp195,
	ldrb	ip, [r0, #0]	@ zero_extendqisi2	@ tmp198,* pBoolTreeProbs
	ldrb	r3, [r0, #4]	@ zero_extendqisi2	@ tmp196,
	rsb	r2, ip, #255	@ tmp199, tmp198,
	rsb	ip, r3, #255	@ tmp197, tmp196,
	mul	r0, r2, ip	@ tmp200, tmp199, tmp197
	mov	r3, r0, lsr #8	@ tmp201, tmp200,
	str	r3, [r1, #32]	@ tmp201,
	ldmfd	sp!, {r4}
	bx	lr
	.fnend
	.size	VP6_ZerosBoolTreeToHuffCodes, .-VP6_ZerosBoolTreeToHuffCodes
	.align	2
	.global	VP6_InsertSorted
	.type	VP6_InsertSorted, %function
VP6_InsertSorted:
	.fnstart
.LFB1933:
	@ args = 0, pretend = 0, frame = 0
	@ frame_needed = 0, uses_anonymous_args = 0
	@ link register save eliminated.
	ldr	r3, [r2, #0]	@ which,* pStartnode
	stmfd	sp!, {r4, r5, r6, r7, r8}	@,
	.save {r4, r5, r6, r7, r8}
	cmn	r3, #1	@ which,
	beq	.L137	@,
	add	r8, r1, r1, asl #1	@, tmp146, node, node,
	add	r4, r3, r3, asl #1	@, tmp150, which, which,
	add	r8, r0, r8, asl #2	@, prephitmp.1633, pSn, tmp146,
	add	r4, r0, r4, asl #2	@, D.38675, pSn, tmp150,
	ldr	r7, [r8, #8]	@ D.38679, <variable>.freq
	ldr	ip, [r4, #8]	@ <variable>.freq, <variable>.freq
	cmp	r7, ip	@ D.38679, <variable>.freq
	bls	.L138	@,
	mov	r6, r3	@ which.1648, which
	b	.L141	@
.L144:
	add	r4, r0, r4, asl #2	@, D.38675, pSn, tmp155,
	ldr	r5, [r4, #8]	@ <variable>.freq, <variable>.freq
	cmp	r7, r5	@ D.38679, <variable>.freq
	bls	.L140	@,
	mov	r6, ip	@ which.1648, which.1644
.L141:
	ldr	ip, [r4, #4]	@ which.1644, <variable>.next
	cmn	ip, #1	@ which.1644,
	add	r4, ip, ip, asl #1	@, tmp155, which.1644, which.1644,
	bne	.L144	@,
.L139:
	add	r6, r6, r6, asl #1	@, tmp160, which.1648, which.1648,
	add	r0, r0, r6, asl #2	@, tmp162, pSn, tmp160,
	str	r1, [r0, #4]	@ node, <variable>.next
	str	ip, [r8, #4]	@ which.1644, <variable>.next
.L143:
	ldmfd	sp!, {r4, r5, r6, r7, r8}
	bx	lr
.L140:
	cmp	ip, r3	@ which.1644, which
	bne	.L139	@,
.L138:
	str	r1, [r2, #0]	@ node,* pStartnode
	str	r3, [r8, #4]	@ which, <variable>.next
	b	.L143	@
.L137:
	add	ip, r1, r1, asl #1	@, tmp165, node, node,
	add	r8, r0, ip, asl #2	@, prephitmp.1633, pSn, tmp165,
	b	.L138	@
	.fnend
	.size	VP6_InsertSorted, .-VP6_InsertSorted
	.align	2
	.global	VP6_BuildHuffTree
	.type	VP6_BuildHuffTree, %function
VP6_BuildHuffTree:
	.fnstart
.LFB1934:
	@ args = 0, pretend = 0, frame = 376
	@ frame_needed = 0, uses_anonymous_args = 0
	stmfd	sp!, {r4, r5, r6, r7, r8, r9, sl, fp, lr}	@,
	.save {r4, r5, r6, r7, r8, r9, sl, fp, lr}
	cmp	r2, #0	@
	.pad #380
	sub	sp, sp, #380	@,,
	mov	r4, #0	@ tmp306,
	str	r2, [sp, #0]	@, %sfp
	str	r0, [sp, #4]	@ pHn, %sfp
	str	r4, [sp, #372]	@ tmp306, startnode
	beq	.L147	@,
	add	r3, sp, #12	@ tmp307,,
	ldr	r0, [r1, #0]	@ prephitmp.1710,* pCounts
	ldr	r2, [sp, #0]	@, %sfp
	mov	fp, #1	@ tmp449,
	ldrb	r9, [r3, #0]	@ zero_extendqisi2	@ tmp317,
	cmp	r0, #0	@ prephitmp.1710,
	sub	ip, r2, #1	@ tmp456,,
	add	r2, r3, #8	@ ivtmp.1706, tmp307,
	orr	r5, r9, fp	@ tmp327, tmp317,
	and	ip, ip, #1	@ tmp458, tmp456,
	and	r5, r5, #225	@ tmp336, tmp327,
	mvn	r9, #0	@ tmp451,
	bfi	r5, r4, #5, #3	@ tmp336, tmp306,,
	strb	r5, [r3, #0]	@ tmp336,
	beq	.L179	@,
.L162:
	ldr	r4, [sp, #0]	@, %sfp
	mov	r3, #1	@ i,
	str	r0, [r2, #0]	@ prephitmp.1710, <variable>.freq
	add	r0, r2, #12	@ ivtmp.1706, ivtmp.1706,
	cmp	r3, r4	@ i,
	str	r9, [r2, #-4]	@ tmp451, <variable>.next
	mov	r4, #4	@ ivtmp.1705,
	beq	.L174	@,
	cmp	ip, #0	@ tmp458,
	beq	.L149	@,
	add	r8, sp, #388	@ tmp510,,
	ldr	sl, [r1, r4]	@ prephitmp.1710,* ivtmp.1705
	ldrb	r5, [r8, #-364]!	@ zero_extendqisi2	@ tmp511,
	cmp	sl, #0	@ prephitmp.1710,
	orr	r5, r5, r3	@ tmp514, tmp511,
	moveq	sl, fp	@ prephitmp.1710, tmp449
	bfi	r5, r3, #1, #4	@ tmp514, i,,
	add	r3, r3, #1	@ i, i,
	bfc	r5, #5, #3	@ tmp516,,
	strb	r5, [r8, #0]	@ tmp516,
	streq	fp, [r1, r4]	@ tmp449,* ivtmp.1705
	add	r4, r4, #4	@ ivtmp.1705, ivtmp.1705,
	str	sl, [r0, #0]	@ prephitmp.1710, <variable>.freq
	ldr	r8, [sp, #0]	@, %sfp
	str	r9, [r0, #-4]	@ tmp451, <variable>.next
	add	r0, r0, #12	@ ivtmp.1706, ivtmp.1706,
	cmp	r3, r8	@ i,
	beq	.L174	@,
.L149:
	add	r2, r3, #1	@ tmp459, i,
	add	r7, r3, r3, asl #1	@, tmp465, i, i,
	add	r8, sp, #376	@,,
	ldr	r6, [r1, r4]	@ prephitmp.1710,* ivtmp.1705
	add	r7, r8, r7, asl #2	@, tmp467,, tmp465,
	add	sl, r2, r2, asl #1	@, tmp483, tmp459, tmp459,
	cmp	r6, #0	@ prephitmp.1710,
	add	r5, r4, #4	@ tmp460, ivtmp.1705,
	add	sl, r8, sl, asl #2	@, tmp485,, tmp483,
	ldrb	r8, [r7, #-364]	@ zero_extendqisi2	@ tmp469,
	moveq	r6, fp	@ prephitmp.1710, tmp449
	add	ip, r0, #12	@ tmp461, ivtmp.1706,
	orr	r8, r8, #1	@ tmp472, tmp469,
	bfi	r8, r3, #1, #4	@ tmp472, i,,
	bfc	r8, #5, #3	@ tmp474,,
	strb	r8, [r7, #-364]	@ tmp474,
	streq	fp, [r1, r4]	@ tmp449,* ivtmp.1705
	str	r6, [r0, #0]	@ prephitmp.1710, <variable>.freq
	str	r9, [r0, #-4]	@ tmp451, <variable>.next
	ldrb	r3, [sl, #-364]	@ zero_extendqisi2	@ tmp487,
	ldr	r0, [r1, r5]	@ prephitmp.1710,
	orr	r4, r3, #1	@ tmp490, tmp487,
	cmp	r0, #0	@ prephitmp.1710,
	bfi	r4, r2, #1, #4	@ tmp490, tmp459,,
	bfc	r4, #5, #3	@ tmp492,,
	strb	r4, [sl, #-364]	@ tmp492,
	moveq	r0, fp	@ prephitmp.1710, tmp449
	streq	fp, [r1, r5]	@ tmp449,
.L167:
	str	r0, [ip, #0]	@ prephitmp.1710, <variable>.freq
	add	r3, r2, #1	@ i, tmp459,
	ldr	r2, [sp, #0]	@, %sfp
	add	r4, r5, #4	@ ivtmp.1705, tmp460,
	str	r9, [ip, #-4]	@ tmp451, <variable>.next
	add	r0, ip, #12	@ ivtmp.1706, tmp461,
	cmp	r3, r2	@ i,
	bne	.L149	@,
.L174:
	ldr	sl, [sp, #0]	@, %sfp
	cmp	sl, #1	@,
	beq	.L173	@,
	add	r6, sp, #372	@ tmp436,,
	add	r7, sp, #12	@ tmp447,,
	ldr	lr, [sp, #0]	@, %sfp
	mov	r1, #1	@,
	mov	r0, r7	@, tmp447
	mov	r2, r6	@, tmp436
	and	r5, lr, r1	@ tmp454,,
	bl	VP6_InsertSorted	@
	ldr	r0, [sp, #0]	@, %sfp
	mov	r4, #2	@ i.1711,
	cmp	r0, #2	@,
	bls	.L173	@,
	cmp	r5, #0	@ tmp454,
	beq	.L176	@,
	mov	r1, r4	@, i.1711
	mov	r0, r7	@, tmp447
	mov	r2, r6	@, tmp436
	mov	r4, #3	@ i.1711,
	bl	VP6_InsertSorted	@
	ldr	r1, [sp, #0]	@, %sfp
	cmp	r1, r4	@, i.1711
	bls	.L173	@,
.L176:
	ldr	r8, [sp, #0]	@ values, %sfp
.L151:
	add	r5, r4, #1	@ tmp455, i.1711,
	mov	r1, r4	@, i.1711
	mov	r0, r7	@, tmp447
	mov	r2, r6	@, tmp436
	bl	VP6_InsertSorted	@
	add	r4, r5, #1	@ i.1711, tmp455,
	mov	r0, r7	@, tmp447
	mov	r1, r5	@, tmp455
	mov	r2, r6	@, tmp436
	bl	VP6_InsertSorted	@
	cmp	r8, r4	@ values, i.1711
	bhi	.L151	@,
.L173:
	ldr	r2, [sp, #372]	@ prephitmp.1669, startnode
.L147:
	mov	r1, r2, asl #1	@ tmp440, prephitmp.1669,
	add	r4, sp, #376	@,,
	add	r3, r1, r2	@ tmp346, tmp440, prephitmp.1669
	add	ip, r4, r3, asl #2	@, tmp348,, tmp346,
	ldr	r3, [ip, #-360]	@ D.38728, <variable>.next
	cmn	r3, #1	@ D.38728,
	beq	.L154	@,
	ldr	r9, [sp, #0]	@, %sfp
	add	r8, sp, #12	@ tmp355,,
	ldr	r4, [sp, #4]	@, %sfp
	sub	r6, r9, #-2147483646	@ tmp350,,
	sub	sl, r9, #2	@ tmp352,,
	add	r5, r9, r9, asl #1	@, tmp359,,,
	and	r7, sl, #15	@ ivtmp.1693, tmp352,
	add	r6, r4, r6, asl #1	@, ivtmp.1689,, tmp350,
	mov	r4, r9	@ sncount,
	add	fp, r8, r5, asl #2	@, tmp361, tmp355, tmp359,
	add	r5, fp, #8	@ ivtmp.1695, tmp361,
	add	fp, sp, #372	@ tmp500,,
.L153:
	add	ip, r1, r2	@ tmp372, tmp440, prephitmp.1669
	add	r3, r3, r3, asl #1	@, tmp365, D.38728, D.38728,
	add	r0, sp, #376	@,,
	add	r2, r4, r4, asl #1	@, tmp399, sncount, sncount,
	add	r3, r0, r3, asl #2	@, tmp367,, tmp365,
	add	lr, r0, ip, asl #2	@, tmp374,, tmp372,
	add	ip, r0, r2, asl #2	@, tmp401,, tmp399,
	mov	r1, r4	@, sncount
	ldrb	r8, [r3, #-364]	@ zero_extendqisi2	@ <variable>.value, <variable>.value
	add	r0, sp, #12	@,,
	ldrb	r9, [lr, #-364]	@ zero_extendqisi2	@, <variable>.value
	mov	r2, fp	@, tmp500
	add	r4, r4, #1	@ sncount, sncount,
	str	r9, [sp, #0]	@, %sfp
	ldr	r9, [r3, #-356]	@ <variable>.freq, <variable>.freq
	ldr	sl, [lr, #-356]	@ <variable>.freq, <variable>.freq
	strb	r8, [r6, #1]	@ <variable>.value, <variable>.rightunion.right
	ldr	r8, [sp, #0]	@, %sfp
	add	sl, r9, sl	@ sumfreq, <variable>.freq, <variable>.freq
	ldrb	lr, [ip, #-364]	@ zero_extendqisi2	@,
	and	lr, lr, #254	@ tmp412, tmp403,
	strb	r8, [r6, #0]	@, <variable>.leftunion.left
	bfi	lr, r7, #1, #4	@ tmp412, ivtmp.1693,,
	strb	lr, [ip, #-364]	@ tmp412,
	mvn	ip, #0	@,
	str	ip, [r5, #-4]	@, <variable>.next
	ldr	lr, [r3, #-360]	@ <variable>.next, <variable>.next
	sub	r6, r6, #2	@ ivtmp.1689, ivtmp.1689,
	str	sl, [r5, #0]	@ sumfreq, <variable>.freq
	add	r5, r5, #12	@ ivtmp.1695, ivtmp.1695,
	str	lr, [sp, #372]	@ <variable>.next, startnode
	bl	VP6_InsertSorted	@
	ldr	r2, [sp, #372]	@ prephitmp.1669, startnode
	sub	r1, r7, #1	@ tmp433, ivtmp.1693,
	and	r7, r1, #15	@ ivtmp.1693, tmp433,
	add	r0, sp, #376	@,,
	mov	r1, r2, asl #1	@ tmp440, prephitmp.1669,
	add	r3, r1, r2	@ tmp429, tmp440, prephitmp.1669
	add	ip, r0, r3, asl #2	@, tmp431,, tmp429,
	ldr	r3, [ip, #-360]	@ D.38728, <variable>.next
	cmn	r3, #1	@ D.38728,
	bne	.L153	@,
.L154:
	add	sp, sp, #380	@,,
	ldmfd	sp!, {r4, r5, r6, r7, r8, r9, sl, fp, pc}
.L179:
	mov	r0, fp	@ prephitmp.1710, tmp449
	str	fp, [r1, #0]	@ tmp449,* pCounts
	b	.L162	@
	.fnend
	.size	VP6_BuildHuffTree, .-VP6_BuildHuffTree
	.align	2
	.global	VP6_BuildHuffLookupTable
	.type	VP6_BuildHuffLookupTable, %function
VP6_BuildHuffLookupTable:
	.fnstart
.LFB1935:
	@ args = 0, pretend = 0, frame = 0
	@ frame_needed = 0, uses_anonymous_args = 0
	@ link register save eliminated.
	stmfd	sp!, {r4, r5, r6}	@,
	.save {r4, r5, r6}
	mov	r6, r1	@ pHuffTable, pHuffTable
	mov	r5, #0	@ i,
.L184:
	mov	r3, #0	@ j,
	mov	r2, r3	@ tmp193, j
.L183:
	add	r3, r3, #1	@ j, j,
	add	ip, r0, r2	@ D.38752, pHuffTreeRoot, tmp193
	rsb	r1, r3, #6	@ tmp145, j,
	mov	r1, r5, asr r1	@ tmp146, i,
	tst	r1, #1	@ tmp146,
	ldreqb	r4, [r0, r2]	@ zero_extendqisi2	@ tmp160,
	ldrneb	r4, [ip, #1]	@ zero_extendqisi2	@ tmp150,
	ubfx	r1, r4, #1, #4	@ torp$value, tmp160,,
	and	ip, r4, #1	@ torp$selector, tmp160,
	mov	r4, r4, lsr #5	@ torp$unused, tmp160,
	mov	r2, r1, asl #1	@ tmp193, torp$value,
	orr	r4, ip, r4, asl #5	@, SR.585, torp$selector, torp$unused,
	orr	r4, r4, r2	@ tmp176, SR.585, tmp193
	eor	r4, r4, #1	@ tmp178, tmp176,
	cmp	r3, #5	@ j,
	movhi	r4, #0	@, tmp186
	andls	r4, r4, #1	@,, tmp186, tmp178
	cmp	r4, #0	@ tmp186,
	bne	.L183	@,
	ldrb	r2, [r5, r6]	@ zero_extendqisi2	@,* pHuffTable
	bfi	r2, r1, #4, #4	@ tmp187, torp$value,,
	bfi	r2, r3, #1, #3	@ tmp189, j,,
	mov	r3, r2	@ tmp191, tmp189
	bfi	r3, ip, #0, #1	@ tmp191, torp$selector,,
	strb	r3, [r5, r6]	@ tmp191,* pHuffTable
	add	r5, r5, #1	@ i, i,
	cmp	r5, #64	@ i,
	bne	.L184	@,
	ldmfd	sp!, {r4, r5, r6}
	bx	lr
	.fnend
	.size	VP6_BuildHuffLookupTable, .-VP6_BuildHuffLookupTable
	.align	2
	.global	VP6_BuildTreeTab
	.type	VP6_BuildTreeTab, %function
VP6_BuildTreeTab:
	.fnstart
.LFB1936:
	@ args = 0, pretend = 0, frame = 296
	@ frame_needed = 0, uses_anonymous_args = 0
	@ link register save eliminated.
	stmfd	sp!, {r4, r5, r6, r7, r8, r9, sl, fp}	@,
	.save {r4, r5, r6, r7, r8, r9, sl, fp}
	mov	r1, #0	@,
	.pad #296
	sub	sp, sp, #296	@,,
	mov	r2, r1	@ k.1914,
	str	r1, [sp, #292]	@, %sfp
.L189:
	ldr	fp, [sp, #292]	@, %sfp
	mov	r1, #432	@,
	mla	r3, r1, fp, r0	@ tmp1043,,, pVp6CodecInfo
	mov	r1, #0	@ j,
	add	r9, r3, #8576	@ ivtmp.1808, tmp1043,
	add	r3, r9, #12	@ ivtmp.1808, ivtmp.1808,
.L190:
	ldrb	r7, [r3, #0]	@ zero_extendqisi2	@ <variable>.leftunion.l, <variable>.leftunion.l
	add	r8, r2, r0	@ tmp248, k.1914, pVp6CodecInfo
	add	r5, r2, #1	@ k.2048, k.1914,
	add	r1, r1, #1	@ j, j,
	add	r6, r5, #1	@ k.2044, k.2048,
	add	ip, r5, r0	@ tmp253, k.2048, pVp6CodecInfo
	strb	r7, [r8, #1218]	@ <variable>.leftunion.l, <variable>.TreeTab
	add	r9, r6, #1	@ k.2040, k.2044,
	ldrb	r4, [r3, #1]	@ zero_extendqisi2	@ <variable>.rightunion.r, <variable>.rightunion.r
	add	r2, r9, #1	@ k.2036, k.2040,
	add	fp, r2, #1	@ k.2030, k.2036,
	add	r8, r6, r0	@ tmp258, k.2044, pVp6CodecInfo
	add	sl, fp, #1	@ k.2026, k.2030,
	add	r6, r9, r0	@ tmp263, k.2040, pVp6CodecInfo
	strb	r4, [ip, #1218]	@ <variable>.rightunion.r, <variable>.TreeTab
	add	r5, sl, #1	@ k.2020, k.2026,
	ldrb	r7, [r3, #2]	@ zero_extendqisi2	@ <variable>.leftunion.l, <variable>.leftunion.l
	add	r9, r2, r0	@ tmp268, k.2036, pVp6CodecInfo
	add	r2, r5, #1	@ k.2016, k.2020,
	add	ip, sl, r0	@ tmp278, k.2026, pVp6CodecInfo
	add	sl, r5, r0	@ tmp283, k.2020, pVp6CodecInfo
	add	r4, fp, r0	@ tmp273, k.2030, pVp6CodecInfo
	strb	r7, [r8, #1218]	@ <variable>.leftunion.l, <variable>.TreeTab
	add	r8, r2, r0	@ tmp288, k.2016, pVp6CodecInfo
	ldrb	r7, [r3, #3]	@ zero_extendqisi2	@ <variable>.rightunion.r, <variable>.rightunion.r
	add	r2, r2, #1	@ k.2005, k.2016,
	add	r5, r2, #1	@ k.2001, k.2005,
	add	fp, r2, r0	@, k.2005, pVp6CodecInfo
	str	fp, [sp, #12]	@, %sfp
	add	fp, r5, r0	@, k.2001, pVp6CodecInfo
	str	fp, [sp, #16]	@, %sfp
	cmp	r1, #3	@ j,
	str	fp, [sp, #20]	@ tmp5, %sfp
	strb	r7, [r6, #1218]	@ <variable>.rightunion.r, <variable>.TreeTab
	add	r7, r2, r0	@ tmp308, k.2005, pVp6CodecInfo
	ldrb	r5, [r3, #4]	@ zero_extendqisi2	@ <variable>.leftunion.l, <variable>.leftunion.l
	add	r2, r2, #119	@ k.1914, k.2005,
	str	r7, [sp, #24]	@ tmp11, %sfp
	mov	fp, r7	@, tmp313
	str	r7, [sp, #28]	@ tmp11, %sfp
	mov	r6, r7	@ tmp313, tmp308
	str	r7, [sp, #32]	@ tmp11, %sfp
	str	r7, [sp, #36]	@ tmp11, %sfp
	strb	r5, [r9, #1218]	@ <variable>.leftunion.l, <variable>.TreeTab
	ldrb	r9, [r3, #5]	@ zero_extendqisi2	@ <variable>.rightunion.r, <variable>.rightunion.r
	str	r7, [sp, #40]	@ tmp11, %sfp
	str	r7, [sp, #44]	@ tmp11, %sfp
	str	r7, [sp, #48]	@ tmp11, %sfp
	str	r7, [sp, #52]	@ tmp11, %sfp
	str	r7, [sp, #56]	@ tmp11, %sfp
	strb	r9, [r4, #1218]	@ <variable>.rightunion.r, <variable>.TreeTab
	str	r7, [sp, #4]	@ tmp4, %sfp
	ldrb	r9, [r3, #6]	@ zero_extendqisi2	@ <variable>.leftunion.l, <variable>.leftunion.l
	str	r7, [sp, #60]	@ tmp4, %sfp
	str	r7, [sp, #64]	@ tmp4, %sfp
	str	r7, [sp, #68]	@ tmp4, %sfp
	str	r7, [sp, #72]	@ tmp4, %sfp
	strb	r9, [ip, #1218]	@ <variable>.leftunion.l, <variable>.TreeTab
	mov	ip, r7	@ tmp398, tmp4
	ldrb	r9, [r3, #7]	@ zero_extendqisi2	@ <variable>.rightunion.r, <variable>.rightunion.r
	str	r7, [sp, #76]	@ tmp4, %sfp
	str	r7, [sp, #80]	@ tmp4, %sfp
	str	r7, [sp, #84]	@ tmp4, %sfp
	str	r7, [sp, #88]	@ tmp4, %sfp
	str	r7, [sp, #92]	@ tmp4, %sfp
	strb	r9, [sl, #1218]	@ <variable>.rightunion.r, <variable>.TreeTab
	mov	r9, r7	@ tmp428, tmp4
	ldrb	sl, [r3, #8]	@ zero_extendqisi2	@ <variable>.leftunion.l, <variable>.leftunion.l
	str	r7, [sp, #96]	@ tmp4, %sfp
	str	r7, [sp, #100]	@ tmp4, %sfp
	str	r7, [sp, #104]	@ tmp4, %sfp
	str	r7, [sp, #108]	@ tmp4, %sfp
	str	r7, [sp, #112]	@ tmp4, %sfp
	strb	sl, [r8, #1218]	@ <variable>.leftunion.l, <variable>.TreeTab
	mov	sl, r7	@ tmp458, tmp4
	ldrb	r8, [r3, #9]	@ zero_extendqisi2	@ <variable>.rightunion.r, <variable>.rightunion.r
	ldr	r4, [sp, #12]	@, %sfp
	str	r7, [sp, #116]	@ tmp4, %sfp
	str	r7, [sp, #120]	@ tmp4, %sfp
	str	r7, [sp, #124]	@ tmp4, %sfp
	str	r7, [sp, #128]	@ tmp4, %sfp
	str	r7, [sp, #132]	@ tmp4, %sfp
	strb	r8, [r4, #1218]	@ <variable>.rightunion.r, <variable>.TreeTab
	ldr	r4, [sp, #16]	@, %sfp
	str	r7, [sp, #12]	@ tmp4, %sfp
	ldrb	r8, [r3, #10]	@ zero_extendqisi2	@ <variable>.leftunion.l, <variable>.leftunion.l
	str	r7, [sp, #136]	@ tmp4, %sfp
	str	r7, [sp, #140]	@ tmp4, %sfp
	str	r7, [sp, #144]	@ tmp4, %sfp
	str	r7, [sp, #148]	@ tmp4, %sfp
	str	r7, [sp, #152]	@ tmp4, %sfp
	strb	r8, [r4, #1218]	@ <variable>.leftunion.l, <variable>.TreeTab
	str	r7, [sp, #16]	@ tmp4, %sfp
	ldrb	r8, [r3, #11]	@ zero_extendqisi2	@ <variable>.rightunion.r, <variable>.rightunion.r
	str	r7, [sp, #156]	@ tmp4, %sfp
	str	r7, [sp, #160]	@ tmp4, %sfp
	str	r7, [sp, #164]	@ tmp4, %sfp
	str	r7, [sp, #168]	@ tmp4, %sfp
	ldr	r4, [sp, #20]	@, %sfp
	str	r7, [sp, #172]	@ tmp4, %sfp
	strb	r8, [r4, #1219]	@ <variable>.rightunion.r, <variable>.TreeTab
	str	r7, [sp, #20]	@ tmp4, %sfp
	ldrb	r8, [r3, #12]	@ zero_extendqisi2	@ <variable>.leftunion.l, <variable>.leftunion.l
	str	r7, [sp, #176]	@ tmp4, %sfp
	str	r7, [sp, #180]	@ tmp4, %sfp
	str	r7, [sp, #184]	@ tmp4, %sfp
	str	r7, [sp, #188]	@ tmp4, %sfp
	str	r7, [sp, #192]	@ tmp4, %sfp
	strb	r8, [r7, #1225]	@ <variable>.leftunion.l, <variable>.TreeTab
	mov	r8, r7	@ tmp578, tmp4
	ldrb	r7, [r3, #13]	@ zero_extendqisi2	@ <variable>.rightunion.r, <variable>.rightunion.r
	str	r6, [sp, #196]	@ tmp4, %sfp
	str	r6, [sp, #200]	@ tmp4, %sfp
	str	r6, [sp, #204]	@ tmp4, %sfp
	str	r6, [sp, #208]	@ tmp4, %sfp
	str	r6, [sp, #212]	@ tmp4, %sfp
	strb	r7, [r6, #1226]	@ <variable>.rightunion.r, <variable>.TreeTab
	mov	r7, r6	@ tmp608, tmp4
	ldr	r4, [sp, #24]	@, %sfp
	ldrb	r6, [r3, #14]	@ zero_extendqisi2	@ <variable>.leftunion.l, <variable>.leftunion.l
	str	fp, [sp, #216]	@ tmp4, %sfp
	str	fp, [sp, #220]	@ tmp4, %sfp
	str	fp, [sp, #224]	@ tmp4, %sfp
	str	fp, [sp, #228]	@ tmp4, %sfp
	str	fp, [sp, #232]	@ tmp4, %sfp
	strb	r6, [r4, #1227]	@ <variable>.leftunion.l, <variable>.TreeTab
	ldr	r4, [sp, #28]	@, %sfp
	str	fp, [sp, #24]	@ tmp4, %sfp
	ldrb	r6, [r3, #15]	@ zero_extendqisi2	@ <variable>.rightunion.r, <variable>.rightunion.r
	str	fp, [sp, #236]	@ tmp4, %sfp
	str	fp, [sp, #240]	@ tmp4, %sfp
	str	fp, [sp, #244]	@ tmp4, %sfp
	str	fp, [sp, #248]	@ tmp4, %sfp
	str	fp, [sp, #252]	@ tmp4, %sfp
	strb	r6, [r4, #1228]	@ <variable>.rightunion.r, <variable>.TreeTab
	str	fp, [sp, #28]	@ tmp4, %sfp
	ldr	r4, [sp, #32]	@, %sfp
	ldrb	r6, [r3, #16]	@ zero_extendqisi2	@ <variable>.leftunion.l, <variable>.leftunion.l
	str	fp, [sp, #256]	@ tmp4, %sfp
	str	fp, [sp, #260]	@ tmp4, %sfp
	str	fp, [sp, #264]	@ tmp4, %sfp
	str	fp, [sp, #268]	@ tmp4, %sfp
	str	fp, [sp, #272]	@ tmp4, %sfp
	strb	r6, [r4, #1229]	@ <variable>.leftunion.l, <variable>.TreeTab
	ldr	r4, [sp, #36]	@, %sfp
	str	fp, [sp, #32]	@ tmp4, %sfp
	ldrb	r6, [r3, #17]	@ zero_extendqisi2	@ <variable>.rightunion.r, <variable>.rightunion.r
	str	fp, [sp, #276]	@ tmp4, %sfp
	str	fp, [sp, #280]	@ tmp4, %sfp
	str	fp, [sp, #284]	@ tmp4, %sfp
	str	fp, [sp, #288]	@ tmp4, %sfp
	strb	r6, [r4, #1230]	@ <variable>.rightunion.r, <variable>.TreeTab
	str	fp, [sp, #36]	@ tmp6, %sfp
	ldrb	r4, [r3, #18]	@ zero_extendqisi2	@ <variable>.leftunion.l, <variable>.leftunion.l
	strb	r4, [fp, #1231]	@ <variable>.leftunion.l, <variable>.TreeTab
	ldr	r4, [sp, #40]	@, %sfp
	ldrb	r6, [r3, #19]	@ zero_extendqisi2	@ <variable>.rightunion.r, <variable>.rightunion.r
	strb	r6, [r4, #1232]	@ <variable>.rightunion.r, <variable>.TreeTab
	ldr	r6, [sp, #44]	@, %sfp
	ldrb	r5, [r3, #20]	@ zero_extendqisi2	@ <variable>.leftunion.l, <variable>.leftunion.l
	strb	r5, [r6, #1233]	@ <variable>.leftunion.l, <variable>.TreeTab
	ldr	r6, [sp, #48]	@, %sfp
	ldrb	r4, [r3, #21]	@ zero_extendqisi2	@ <variable>.rightunion.r, <variable>.rightunion.r
	strb	r4, [r6, #1234]	@ <variable>.rightunion.r, <variable>.TreeTab
	ldr	r4, [sp, #52]	@, %sfp
	ldrb	r5, [r3, #22]	@ zero_extendqisi2	@ <variable>.leftunion.l, <variable>.leftunion.l
	strb	r5, [r4, #1235]	@ <variable>.leftunion.l, <variable>.TreeTab
	ldr	r4, [sp, #56]	@, %sfp
	ldrb	r6, [r3, #23]	@ zero_extendqisi2	@ <variable>.rightunion.r, <variable>.rightunion.r
	strb	r6, [r4, #1236]	@ <variable>.rightunion.r, <variable>.TreeTab
	ldrb	r5, [r3, #24]	@ zero_extendqisi2	@ <variable>.leftunion.l, <variable>.leftunion.l
	ldr	r6, [sp, #4]	@, %sfp
	strb	r5, [r6, #1241]	@ <variable>.leftunion.l, <variable>.TreeTab
	ldrb	r4, [r3, #25]	@ zero_extendqisi2	@ <variable>.rightunion.r, <variable>.rightunion.r
	strb	r4, [fp, #1242]	@ <variable>.rightunion.r, <variable>.TreeTab
	ldr	r5, [sp, #60]	@, %sfp
	ldrb	r6, [r3, #26]	@ zero_extendqisi2	@ <variable>.leftunion.l, <variable>.leftunion.l
	strb	r6, [r5, #1243]	@ <variable>.leftunion.l, <variable>.TreeTab
	ldr	fp, [sp, #64]	@, %sfp
	ldrb	r4, [r3, #27]	@ zero_extendqisi2	@ <variable>.rightunion.r, <variable>.rightunion.r
	strb	r4, [fp, #1244]	@ <variable>.rightunion.r, <variable>.TreeTab
	ldr	r5, [sp, #68]	@, %sfp
	ldrb	r6, [r3, #28]	@ zero_extendqisi2	@ <variable>.leftunion.l, <variable>.leftunion.l
	strb	r6, [r5, #1245]	@ <variable>.leftunion.l, <variable>.TreeTab
	ldr	fp, [sp, #72]	@, %sfp
	ldrb	r4, [r3, #29]	@ zero_extendqisi2	@ <variable>.rightunion.r, <variable>.rightunion.r
	strb	r4, [fp, #1246]	@ <variable>.rightunion.r, <variable>.TreeTab
	ldrb	r6, [r3, #30]	@ zero_extendqisi2	@ <variable>.leftunion.l, <variable>.leftunion.l
	strb	r6, [ip, #1247]	@ <variable>.leftunion.l, <variable>.TreeTab
	ldr	fp, [sp, #76]	@, %sfp
	ldrb	r5, [r3, #31]	@ zero_extendqisi2	@ <variable>.rightunion.r, <variable>.rightunion.r
	strb	r5, [fp, #1248]	@ <variable>.rightunion.r, <variable>.TreeTab
	ldr	r4, [sp, #80]	@, %sfp
	ldrb	ip, [r3, #32]	@ zero_extendqisi2	@ <variable>.leftunion.l, <variable>.leftunion.l
	strb	ip, [r4, #1249]	@ <variable>.leftunion.l, <variable>.TreeTab
	ldr	r5, [sp, #84]	@, %sfp
	ldrb	r6, [r3, #33]	@ zero_extendqisi2	@ <variable>.rightunion.r, <variable>.rightunion.r
	strb	r6, [r5, #1250]	@ <variable>.rightunion.r, <variable>.TreeTab
	ldr	r4, [sp, #88]	@, %sfp
	ldrb	fp, [r3, #34]	@ zero_extendqisi2	@ <variable>.leftunion.l, <variable>.leftunion.l
	strb	fp, [r4, #1251]	@ <variable>.leftunion.l, <variable>.TreeTab
	ldr	r6, [sp, #92]	@, %sfp
	ldrb	ip, [r3, #35]	@ zero_extendqisi2	@ <variable>.rightunion.r, <variable>.rightunion.r
	strb	ip, [r6, #1252]	@ <variable>.rightunion.r, <variable>.TreeTab
	ldrb	r5, [r3, #36]	@ zero_extendqisi2	@ <variable>.leftunion.l, <variable>.leftunion.l
	strb	r5, [r9, #1257]	@ <variable>.leftunion.l, <variable>.TreeTab
	ldr	r4, [sp, #96]	@, %sfp
	ldrb	fp, [r3, #37]	@ zero_extendqisi2	@ <variable>.rightunion.r, <variable>.rightunion.r
	strb	fp, [r4, #1258]	@ <variable>.rightunion.r, <variable>.TreeTab
	ldr	r6, [sp, #100]	@, %sfp
	ldrb	r9, [r3, #38]	@ zero_extendqisi2	@ <variable>.leftunion.l, <variable>.leftunion.l
	strb	r9, [r6, #1259]	@ <variable>.leftunion.l, <variable>.TreeTab
	ldr	r5, [sp, #104]	@, %sfp
	ldrb	ip, [r3, #39]	@ zero_extendqisi2	@ <variable>.rightunion.r, <variable>.rightunion.r
	strb	ip, [r5, #1260]	@ <variable>.rightunion.r, <variable>.TreeTab
	ldr	r4, [sp, #108]	@, %sfp
	ldrb	fp, [r3, #40]	@ zero_extendqisi2	@ <variable>.leftunion.l, <variable>.leftunion.l
	strb	fp, [r4, #1261]	@ <variable>.leftunion.l, <variable>.TreeTab
	ldr	r6, [sp, #112]	@, %sfp
	ldrb	r9, [r3, #41]	@ zero_extendqisi2	@ <variable>.rightunion.r, <variable>.rightunion.r
	strb	r9, [r6, #1262]	@ <variable>.rightunion.r, <variable>.TreeTab
	ldrb	ip, [r3, #42]	@ zero_extendqisi2	@ <variable>.leftunion.l, <variable>.leftunion.l
	strb	ip, [sl, #1263]	@ <variable>.leftunion.l, <variable>.TreeTab
	ldr	fp, [sp, #116]	@, %sfp
	ldrb	r5, [r3, #43]	@ zero_extendqisi2	@ <variable>.rightunion.r, <variable>.rightunion.r
	strb	r5, [fp, #1264]	@ <variable>.rightunion.r, <variable>.TreeTab
	ldr	sl, [sp, #120]	@, %sfp
	ldrb	r4, [r3, #44]	@ zero_extendqisi2	@ <variable>.leftunion.l, <variable>.leftunion.l
	strb	r4, [sl, #1265]	@ <variable>.leftunion.l, <variable>.TreeTab
	ldr	r6, [sp, #124]	@, %sfp
	ldrb	r9, [r3, #45]	@ zero_extendqisi2	@ <variable>.rightunion.r, <variable>.rightunion.r
	strb	r9, [r6, #1266]	@ <variable>.rightunion.r, <variable>.TreeTab
	ldr	r5, [sp, #128]	@, %sfp
	ldrb	ip, [r3, #46]	@ zero_extendqisi2	@ <variable>.leftunion.l, <variable>.leftunion.l
	strb	ip, [r5, #1267]	@ <variable>.leftunion.l, <variable>.TreeTab
	ldr	r4, [sp, #132]	@, %sfp
	ldrb	fp, [r3, #47]	@ zero_extendqisi2	@ <variable>.rightunion.r, <variable>.rightunion.r
	strb	fp, [r4, #1268]	@ <variable>.rightunion.r, <variable>.TreeTab
	ldrb	sl, [r3, #48]	@ zero_extendqisi2	@ <variable>.leftunion.l, <variable>.leftunion.l
	ldr	r9, [sp, #12]	@, %sfp
	strb	sl, [r9, #1273]	@ <variable>.leftunion.l, <variable>.TreeTab
	ldr	r5, [sp, #136]	@, %sfp
	ldrb	r6, [r3, #49]	@ zero_extendqisi2	@ <variable>.rightunion.r, <variable>.rightunion.r
	strb	r6, [r5, #1274]	@ <variable>.rightunion.r, <variable>.TreeTab
	ldr	fp, [sp, #140]	@, %sfp
	ldrb	ip, [r3, #50]	@ zero_extendqisi2	@ <variable>.leftunion.l, <variable>.leftunion.l
	strb	ip, [fp, #1275]	@ <variable>.leftunion.l, <variable>.TreeTab
	ldr	sl, [sp, #144]	@, %sfp
	ldrb	r4, [r3, #51]	@ zero_extendqisi2	@ <variable>.rightunion.r, <variable>.rightunion.r
	strb	r4, [sl, #1276]	@ <variable>.rightunion.r, <variable>.TreeTab
	ldr	r6, [sp, #148]	@, %sfp
	ldrb	r9, [r3, #52]	@ zero_extendqisi2	@ <variable>.leftunion.l, <variable>.leftunion.l
	strb	r9, [r6, #1277]	@ <variable>.leftunion.l, <variable>.TreeTab
	ldr	fp, [sp, #152]	@, %sfp
	ldrb	r5, [r3, #53]	@ zero_extendqisi2	@ <variable>.rightunion.r, <variable>.rightunion.r
	strb	r5, [fp, #1278]	@ <variable>.rightunion.r, <variable>.TreeTab
	ldr	r4, [sp, #16]	@, %sfp
	ldrb	ip, [r3, #54]	@ zero_extendqisi2	@ <variable>.leftunion.l, <variable>.leftunion.l
	strb	ip, [r4, #1279]	@ <variable>.leftunion.l, <variable>.TreeTab
	ldr	r9, [sp, #156]	@, %sfp
	ldrb	sl, [r3, #55]	@ zero_extendqisi2	@ <variable>.rightunion.r, <variable>.rightunion.r
	strb	sl, [r9, #1280]	@ <variable>.rightunion.r, <variable>.TreeTab
	ldr	r5, [sp, #160]	@, %sfp
	ldrb	r6, [r3, #56]	@ zero_extendqisi2	@ <variable>.leftunion.l, <variable>.leftunion.l
	strb	r6, [r5, #1281]	@ <variable>.leftunion.l, <variable>.TreeTab
	ldr	r4, [sp, #164]	@, %sfp
	ldrb	fp, [r3, #57]	@ zero_extendqisi2	@ <variable>.rightunion.r, <variable>.rightunion.r
	strb	fp, [r4, #1282]	@ <variable>.rightunion.r, <variable>.TreeTab
	ldr	sl, [sp, #168]	@, %sfp
	ldrb	ip, [r3, #58]	@ zero_extendqisi2	@ <variable>.leftunion.l, <variable>.leftunion.l
	strb	ip, [sl, #1283]	@ <variable>.leftunion.l, <variable>.TreeTab
	ldr	r6, [sp, #172]	@, %sfp
	ldrb	r9, [r3, #59]	@ zero_extendqisi2	@ <variable>.rightunion.r, <variable>.rightunion.r
	strb	r9, [r6, #1284]	@ <variable>.rightunion.r, <variable>.TreeTab
	ldrb	r5, [r3, #60]	@ zero_extendqisi2	@ <variable>.leftunion.l, <variable>.leftunion.l
	ldr	fp, [sp, #20]	@, %sfp
	strb	r5, [fp, #1289]	@ <variable>.leftunion.l, <variable>.TreeTab
	ldr	sl, [sp, #176]	@, %sfp
	ldrb	r4, [r3, #61]	@ zero_extendqisi2	@ <variable>.rightunion.r, <variable>.rightunion.r
	strb	r4, [sl, #1290]	@ <variable>.rightunion.r, <variable>.TreeTab
	ldr	r9, [sp, #180]	@, %sfp
	ldrb	ip, [r3, #62]	@ zero_extendqisi2	@ <variable>.leftunion.l, <variable>.leftunion.l
	strb	ip, [r9, #1291]	@ <variable>.leftunion.l, <variable>.TreeTab
	ldr	r5, [sp, #184]	@, %sfp
	ldrb	r6, [r3, #63]	@ zero_extendqisi2	@ <variable>.rightunion.r, <variable>.rightunion.r
	strb	r6, [r5, #1292]	@ <variable>.rightunion.r, <variable>.TreeTab
	ldr	r4, [sp, #188]	@, %sfp
	ldrb	fp, [r3, #64]	@ zero_extendqisi2	@ <variable>.leftunion.l, <variable>.leftunion.l
	strb	fp, [r4, #1293]	@ <variable>.leftunion.l, <variable>.TreeTab
	ldr	r9, [sp, #192]	@, %sfp
	ldrb	sl, [r3, #65]	@ zero_extendqisi2	@ <variable>.rightunion.r, <variable>.rightunion.r
	strb	sl, [r9, #1294]	@ <variable>.rightunion.r, <variable>.TreeTab
	ldrb	ip, [r3, #66]	@ zero_extendqisi2	@ <variable>.leftunion.l, <variable>.leftunion.l
	strb	ip, [r8, #1295]	@ <variable>.leftunion.l, <variable>.TreeTab
	ldr	r5, [sp, #196]	@, %sfp
	ldrb	r6, [r3, #67]	@ zero_extendqisi2	@ <variable>.rightunion.r, <variable>.rightunion.r
	strb	r6, [r5, #1296]	@ <variable>.rightunion.r, <variable>.TreeTab
	ldr	r4, [sp, #200]	@, %sfp
	ldrb	fp, [r3, #68]	@ zero_extendqisi2	@ <variable>.leftunion.l, <variable>.leftunion.l
	strb	fp, [r4, #1297]	@ <variable>.leftunion.l, <variable>.TreeTab
	ldr	r9, [sp, #204]	@, %sfp
	ldrb	sl, [r3, #69]	@ zero_extendqisi2	@ <variable>.rightunion.r, <variable>.rightunion.r
	strb	sl, [r9, #1298]	@ <variable>.rightunion.r, <variable>.TreeTab
	ldr	r8, [sp, #208]	@, %sfp
	ldrb	ip, [r3, #70]	@ zero_extendqisi2	@ <variable>.leftunion.l, <variable>.leftunion.l
	strb	ip, [r8, #1299]	@ <variable>.leftunion.l, <variable>.TreeTab
	ldr	r5, [sp, #212]	@, %sfp
	ldrb	r6, [r3, #71]	@ zero_extendqisi2	@ <variable>.rightunion.r, <variable>.rightunion.r
	strb	r6, [r5, #1300]	@ <variable>.rightunion.r, <variable>.TreeTab
	ldrb	fp, [r3, #72]	@ zero_extendqisi2	@ <variable>.leftunion.l, <variable>.leftunion.l
	strb	fp, [r7, #1305]	@ <variable>.leftunion.l, <variable>.TreeTab
	ldr	sl, [sp, #216]	@, %sfp
	ldrb	r4, [r3, #73]	@ zero_extendqisi2	@ <variable>.rightunion.r, <variable>.rightunion.r
	strb	r4, [sl, #1306]	@ <variable>.rightunion.r, <variable>.TreeTab
	ldr	r8, [sp, #220]	@, %sfp
	ldrb	r9, [r3, #74]	@ zero_extendqisi2	@ <variable>.leftunion.l, <variable>.leftunion.l
	strb	r9, [r8, #1307]	@ <variable>.leftunion.l, <variable>.TreeTab
	ldr	r7, [sp, #224]	@, %sfp
	ldrb	ip, [r3, #75]	@ zero_extendqisi2	@ <variable>.rightunion.r, <variable>.rightunion.r
	strb	ip, [r7, #1308]	@ <variable>.rightunion.r, <variable>.TreeTab
	ldr	r5, [sp, #228]	@, %sfp
	ldrb	r6, [r3, #76]	@ zero_extendqisi2	@ <variable>.leftunion.l, <variable>.leftunion.l
	strb	r6, [r5, #1309]	@ <variable>.leftunion.l, <variable>.TreeTab
	ldr	r4, [sp, #232]	@, %sfp
	ldrb	fp, [r3, #77]	@ zero_extendqisi2	@ <variable>.rightunion.r, <variable>.rightunion.r
	strb	fp, [r4, #1310]	@ <variable>.rightunion.r, <variable>.TreeTab
	ldr	r9, [sp, #24]	@, %sfp
	ldrb	sl, [r3, #78]	@ zero_extendqisi2	@ <variable>.leftunion.l, <variable>.leftunion.l
	strb	sl, [r9, #1311]	@ <variable>.leftunion.l, <variable>.TreeTab
	ldr	r7, [sp, #236]	@, %sfp
	ldrb	r8, [r3, #79]	@ zero_extendqisi2	@ <variable>.rightunion.r, <variable>.rightunion.r
	strb	r8, [r7, #1312]	@ <variable>.rightunion.r, <variable>.TreeTab
	ldr	r6, [sp, #240]	@, %sfp
	ldrb	ip, [r3, #80]	@ zero_extendqisi2	@ <variable>.leftunion.l, <variable>.leftunion.l
	strb	ip, [r6, #1313]	@ <variable>.leftunion.l, <variable>.TreeTab
	ldr	fp, [sp, #244]	@, %sfp
	ldrb	r5, [r3, #81]	@ zero_extendqisi2	@ <variable>.rightunion.r, <variable>.rightunion.r
	strb	r5, [fp, #1314]	@ <variable>.rightunion.r, <variable>.TreeTab
	ldr	sl, [sp, #248]	@, %sfp
	ldrb	r4, [r3, #82]	@ zero_extendqisi2	@ <variable>.leftunion.l, <variable>.leftunion.l
	strb	r4, [sl, #1315]	@ <variable>.leftunion.l, <variable>.TreeTab
	ldr	r8, [sp, #252]	@, %sfp
	ldrb	r9, [r3, #83]	@ zero_extendqisi2	@ <variable>.rightunion.r, <variable>.rightunion.r
	strb	r9, [r8, #1316]	@ <variable>.rightunion.r, <variable>.TreeTab
	ldrb	r7, [r3, #84]	@ zero_extendqisi2	@ <variable>.leftunion.l, <variable>.leftunion.l
	ldr	r6, [sp, #28]	@, %sfp
	strb	r7, [r6, #1321]	@ <variable>.leftunion.l, <variable>.TreeTab
	ldr	r5, [sp, #256]	@, %sfp
	ldrb	ip, [r3, #85]	@ zero_extendqisi2	@ <variable>.rightunion.r, <variable>.rightunion.r
	strb	ip, [r5, #1322]	@ <variable>.rightunion.r, <variable>.TreeTab
	ldr	r4, [sp, #260]	@, %sfp
	ldrb	fp, [r3, #86]	@ zero_extendqisi2	@ <variable>.leftunion.l, <variable>.leftunion.l
	strb	fp, [r4, #1323]	@ <variable>.leftunion.l, <variable>.TreeTab
	ldr	r9, [sp, #264]	@, %sfp
	ldrb	sl, [r3, #87]	@ zero_extendqisi2	@ <variable>.rightunion.r, <variable>.rightunion.r
	strb	sl, [r9, #1324]	@ <variable>.rightunion.r, <variable>.TreeTab
	ldr	r7, [sp, #268]	@, %sfp
	ldrb	r8, [r3, #88]	@ zero_extendqisi2	@ <variable>.leftunion.l, <variable>.leftunion.l
	strb	r8, [r7, #1325]	@ <variable>.leftunion.l, <variable>.TreeTab
	ldr	r5, [sp, #272]	@, %sfp
	ldrb	r6, [r3, #89]	@ zero_extendqisi2	@ <variable>.rightunion.r, <variable>.rightunion.r
	strb	r6, [r5, #1326]	@ <variable>.rightunion.r, <variable>.TreeTab
	ldr	fp, [sp, #32]	@, %sfp
	ldrb	ip, [r3, #90]	@ zero_extendqisi2	@ <variable>.leftunion.l, <variable>.leftunion.l
	strb	ip, [fp, #1327]	@ <variable>.leftunion.l, <variable>.TreeTab
	ldr	sl, [sp, #276]	@, %sfp
	ldrb	r4, [r3, #91]	@ zero_extendqisi2	@ <variable>.rightunion.r, <variable>.rightunion.r
	strb	r4, [sl, #1328]	@ <variable>.rightunion.r, <variable>.TreeTab
	ldr	r8, [sp, #280]	@, %sfp
	ldrb	r9, [r3, #92]	@ zero_extendqisi2	@ <variable>.leftunion.l, <variable>.leftunion.l
	strb	r9, [r8, #1329]	@ <variable>.leftunion.l, <variable>.TreeTab
	ldr	r6, [sp, #284]	@, %sfp
	ldrb	r7, [r3, #93]	@ zero_extendqisi2	@ <variable>.rightunion.r, <variable>.rightunion.r
	strb	r7, [r6, #1330]	@ <variable>.rightunion.r, <variable>.TreeTab
	ldr	fp, [sp, #288]	@, %sfp
	ldrb	r5, [r3, #94]	@ zero_extendqisi2	@ <variable>.leftunion.l, <variable>.leftunion.l
	strb	r5, [fp, #1331]	@ <variable>.leftunion.l, <variable>.TreeTab
	ldr	r4, [sp, #36]	@, %sfp
	ldrb	ip, [r3, #95]	@ zero_extendqisi2	@ <variable>.rightunion.r, <variable>.rightunion.r
	add	r3, r3, #144	@ ivtmp.1808, ivtmp.1808,
	strb	ip, [r4, #1332]	@ <variable>.rightunion.r, <variable>.TreeTab
	bne	.L190	@,
	ldr	r1, [sp, #292]	@, %sfp
	add	r3, r1, #1	@,,
	str	r3, [sp, #292]	@, %sfp
	cmp	r3, #2	@,
	bne	.L189	@,
	movw	sl, #9452	@ tmp727,
	movw	r8, #9453	@ tmp730,
	movw	r7, #9454	@ tmp733,
	movw	r6, #9455	@ tmp736,
	movw	r5, #9456	@ tmp739,
	movw	r4, #9457	@ tmp742,
	movw	ip, #9458	@ tmp745,
	movw	r1, #9459	@ tmp748,
	movw	r2, #9460	@ tmp751,
	movw	fp, #9461	@ tmp754,
	movw	r3, #9462	@ tmp757,
	ldrb	r9, [r0, sl]	@ zero_extendqisi2	@ <variable>.leftunion.l, <variable>.leftunion.l
	ldrb	sl, [r0, r8]	@ zero_extendqisi2	@ <variable>.rightunion.r, <variable>.rightunion.r
	ldrb	r8, [r0, r7]	@ zero_extendqisi2	@ <variable>.leftunion.l, <variable>.leftunion.l
	ldrb	r7, [r0, r6]	@ zero_extendqisi2	@ <variable>.rightunion.r, <variable>.rightunion.r
	ldrb	r6, [r0, r5]	@ zero_extendqisi2	@ <variable>.leftunion.l, <variable>.leftunion.l
	ldrb	r5, [r0, r4]	@ zero_extendqisi2	@ <variable>.rightunion.r, <variable>.rightunion.r
	ldrb	r4, [r0, ip]	@ zero_extendqisi2	@ <variable>.leftunion.l, <variable>.leftunion.l
	ldrb	ip, [r0, r1]	@ zero_extendqisi2	@ <variable>.rightunion.r, <variable>.rightunion.r
	ldrb	r1, [r0, r2]	@ zero_extendqisi2	@ <variable>.leftunion.l, <variable>.leftunion.l
	ldrb	r2, [r0, fp]	@ zero_extendqisi2	@ <variable>.rightunion.r, <variable>.rightunion.r
	ldrb	fp, [r0, r3]	@ zero_extendqisi2	@, <variable>.leftunion.l
	movw	r3, #9463	@ tmp760,
	str	fp, [sp, #12]	@, %sfp
	ldrb	fp, [r0, r3]	@ zero_extendqisi2	@, <variable>.rightunion.r
	movw	r3, #9464	@ tmp763,
	str	fp, [sp, #16]	@, %sfp
	ldrb	fp, [r0, r3]	@ zero_extendqisi2	@, <variable>.leftunion.l
	movw	r3, #9465	@ tmp766,
	str	fp, [sp, #20]	@, %sfp
	ldrb	fp, [r0, r3]	@ zero_extendqisi2	@, <variable>.rightunion.r
	movw	r3, #9466	@ tmp769,
	str	fp, [sp, #24]	@, %sfp
	ldrb	fp, [r0, r3]	@ zero_extendqisi2	@, <variable>.leftunion.l
	movw	r3, #9467	@ tmp772,
	str	fp, [sp, #28]	@, %sfp
	ldrb	fp, [r0, r3]	@ zero_extendqisi2	@ <variable>.rightunion.r, <variable>.rightunion.r
	movw	r3, #9468	@ tmp775,
	ldrb	r3, [r0, r3]	@ zero_extendqisi2	@ <variable>.leftunion.l, <variable>.leftunion.l
	strb	r4, [r0, #1992]	@ <variable>.leftunion.l, <variable>.TreeTab
	ldr	r4, [sp, #12]	@, %sfp
	strb	r9, [r0, #1986]	@ <variable>.leftunion.l, <variable>.TreeTab
	strb	sl, [r0, #1987]	@ <variable>.rightunion.r, <variable>.TreeTab
	movw	sl, #9469	@ tmp778,
	strb	r8, [r0, #1988]	@ <variable>.leftunion.l, <variable>.TreeTab
	movw	r8, #9470	@ tmp781,
	strb	r7, [r0, #1989]	@ <variable>.rightunion.r, <variable>.TreeTab
	movw	r7, #9471	@ tmp784,
	strb	r6, [r0, #1990]	@ <variable>.leftunion.l, <variable>.TreeTab
	mov	r6, #9472	@ tmp787,
	strb	r5, [r0, #1991]	@ <variable>.rightunion.r, <variable>.TreeTab
	movw	r5, #9473	@ tmp790,
	strb	ip, [r0, #1993]	@ <variable>.rightunion.r, <variable>.TreeTab
	strb	r1, [r0, #1994]	@ <variable>.leftunion.l, <variable>.TreeTab
	strb	r2, [r0, #1995]	@ <variable>.rightunion.r, <variable>.TreeTab
	strb	r4, [r0, #1996]	@, <variable>.TreeTab
	movw	r4, #9474	@ tmp793,
	ldr	ip, [sp, #16]	@, %sfp
	add	r1, sp, #20
	ldmia	r1, {r1, r2, r9}	@ phole ldm
	strb	ip, [r0, #1997]	@, <variable>.TreeTab
	movw	ip, #9475	@ tmp796,
	strb	r1, [r0, #2002]	@, <variable>.TreeTab
	movw	r1, #9476	@ tmp799,
	strb	r2, [r0, #2003]	@, <variable>.TreeTab
	movw	r2, #9477	@ tmp802,
	strb	fp, [r0, #2005]	@, <variable>.TreeTab
	movw	fp, #9478	@ tmp805,
	strb	r3, [r0, #2006]	@ <variable>.leftunion.l, <variable>.TreeTab
	movw	r3, #9479	@ tmp808,
	strb	r9, [r0, #2004]	@, <variable>.TreeTab
	ldrb	r9, [r0, sl]	@ zero_extendqisi2	@ <variable>.rightunion.r, <variable>.rightunion.r
	ldrb	sl, [r0, r8]	@ zero_extendqisi2	@ <variable>.leftunion.l, <variable>.leftunion.l
	ldrb	r8, [r0, r7]	@ zero_extendqisi2	@ <variable>.rightunion.r, <variable>.rightunion.r
	ldrb	r7, [r0, r6]	@ zero_extendqisi2	@ <variable>.leftunion.l, <variable>.leftunion.l
	ldrb	r6, [r0, r5]	@ zero_extendqisi2	@ <variable>.rightunion.r, <variable>.rightunion.r
	ldrb	r5, [r0, r4]	@ zero_extendqisi2	@ <variable>.leftunion.l, <variable>.leftunion.l
	ldrb	r4, [r0, ip]	@ zero_extendqisi2	@ <variable>.rightunion.r, <variable>.rightunion.r
	ldrb	ip, [r0, r1]	@ zero_extendqisi2	@ <variable>.leftunion.l, <variable>.leftunion.l
	ldrb	r1, [r0, r2]	@ zero_extendqisi2	@ <variable>.rightunion.r, <variable>.rightunion.r
	ldrb	r2, [r0, fp]	@ zero_extendqisi2	@ <variable>.leftunion.l, <variable>.leftunion.l
	ldrb	fp, [r0, r3]	@ zero_extendqisi2	@, <variable>.rightunion.r
	movw	r3, #9480	@ tmp811,
	str	fp, [sp, #12]	@, %sfp
	ldrb	fp, [r0, r3]	@ zero_extendqisi2	@, <variable>.leftunion.l
	movw	r3, #9481	@ tmp814,
	str	fp, [sp, #16]	@, %sfp
	ldrb	fp, [r0, r3]	@ zero_extendqisi2	@, <variable>.rightunion.r
	movw	r3, #9482	@ tmp817,
	str	fp, [sp, #20]	@, %sfp
	ldrb	fp, [r0, r3]	@ zero_extendqisi2	@, <variable>.leftunion.l
	movw	r3, #9483	@ tmp820,
	str	fp, [sp, #24]	@, %sfp
	ldrb	fp, [r0, r3]	@ zero_extendqisi2	@, <variable>.rightunion.r
	movw	r3, #9484	@ tmp823,
	str	fp, [sp, #28]	@, %sfp
	ldrb	fp, [r0, r3]	@ zero_extendqisi2	@ <variable>.leftunion.l, <variable>.leftunion.l
	movw	r3, #9485	@ tmp826,
	ldrb	r3, [r0, r3]	@ zero_extendqisi2	@ <variable>.rightunion.r, <variable>.rightunion.r
	strb	r9, [r0, #2007]	@ <variable>.rightunion.r, <variable>.TreeTab
	strb	sl, [r0, #2008]	@ <variable>.leftunion.l, <variable>.TreeTab
	movw	sl, #9486	@ tmp829,
	strb	r4, [r0, #2013]	@ <variable>.rightunion.r, <variable>.TreeTab
	strb	ip, [r0, #2018]	@ <variable>.leftunion.l, <variable>.TreeTab
	strb	r1, [r0, #2019]	@ <variable>.rightunion.r, <variable>.TreeTab
	strb	r2, [r0, #2020]	@ <variable>.leftunion.l, <variable>.TreeTab
	ldr	r4, [sp, #12]	@, %sfp
	ldr	ip, [sp, #16]	@, %sfp
	add	r1, sp, #20
	ldmia	r1, {r1, r2, r9}	@ phole ldm
	strb	r8, [r0, #2009]	@ <variable>.rightunion.r, <variable>.TreeTab
	movw	r8, #9487	@ tmp832,
	strb	r7, [r0, #2010]	@ <variable>.leftunion.l, <variable>.TreeTab
	movw	r7, #9488	@ tmp835,
	strb	r6, [r0, #2011]	@ <variable>.rightunion.r, <variable>.TreeTab
	movw	r6, #9489	@ tmp838,
	strb	r5, [r0, #2012]	@ <variable>.leftunion.l, <variable>.TreeTab
	movw	r5, #9490	@ tmp841,
	strb	r4, [r0, #2021]	@, <variable>.TreeTab
	movw	r4, #9491	@ tmp844,
	strb	ip, [r0, #2022]	@, <variable>.TreeTab
	movw	ip, #9492	@ tmp847,
	strb	r1, [r0, #2023]	@, <variable>.TreeTab
	movw	r1, #9493	@ tmp850,
	strb	r2, [r0, #2024]	@, <variable>.TreeTab
	movw	r2, #9494	@ tmp853,
	strb	fp, [r0, #2026]	@, <variable>.TreeTab
	movw	fp, #9495	@ tmp856,
	strb	r3, [r0, #2027]	@ <variable>.rightunion.r, <variable>.TreeTab
	movw	r3, #9496	@ tmp859,
	strb	r9, [r0, #2025]	@, <variable>.TreeTab
	ldrb	r9, [r0, sl]	@ zero_extendqisi2	@ <variable>.leftunion.l, <variable>.leftunion.l
	ldrb	sl, [r0, r8]	@ zero_extendqisi2	@ <variable>.rightunion.r, <variable>.rightunion.r
	ldrb	r8, [r0, r7]	@ zero_extendqisi2	@ <variable>.leftunion.l, <variable>.leftunion.l
	ldrb	r7, [r0, r6]	@ zero_extendqisi2	@ <variable>.rightunion.r, <variable>.rightunion.r
	ldrb	r6, [r0, r5]	@ zero_extendqisi2	@ <variable>.leftunion.l, <variable>.leftunion.l
	ldrb	r5, [r0, r4]	@ zero_extendqisi2	@ <variable>.rightunion.r, <variable>.rightunion.r
	ldrb	r4, [r0, ip]	@ zero_extendqisi2	@ <variable>.leftunion.l, <variable>.leftunion.l
	ldrb	ip, [r0, r1]	@ zero_extendqisi2	@ <variable>.rightunion.r, <variable>.rightunion.r
	ldrb	r1, [r0, r2]	@ zero_extendqisi2	@ <variable>.leftunion.l, <variable>.leftunion.l
	ldrb	r2, [r0, fp]	@ zero_extendqisi2	@ <variable>.rightunion.r, <variable>.rightunion.r
	ldrb	fp, [r0, r3]	@ zero_extendqisi2	@, <variable>.leftunion.l
	movw	r3, #9497	@ tmp862,
	str	fp, [sp, #12]	@, %sfp
	ldrb	fp, [r0, r3]	@ zero_extendqisi2	@, <variable>.rightunion.r
	movw	r3, #9498	@ tmp865,
	str	fp, [sp, #16]	@, %sfp
	ldrb	fp, [r0, r3]	@ zero_extendqisi2	@, <variable>.leftunion.l
	movw	r3, #9499	@ tmp868,
	str	fp, [sp, #20]	@, %sfp
	ldrb	fp, [r0, r3]	@ zero_extendqisi2	@, <variable>.rightunion.r
	movw	r3, #8532	@ tmp871,
	str	fp, [sp, #24]	@, %sfp
	ldrb	fp, [r0, r3]	@ zero_extendqisi2	@, <variable>.leftunion.l
	movw	r3, #8533	@ tmp874,
	str	fp, [sp, #28]	@, %sfp
	ldrb	fp, [r0, r3]	@ zero_extendqisi2	@ <variable>.rightunion.r, <variable>.rightunion.r
	movw	r3, #8534	@ tmp877,
	ldrb	r3, [r0, r3]	@ zero_extendqisi2	@ <variable>.leftunion.l, <variable>.leftunion.l
	strb	r4, [r0, #2038]	@ <variable>.leftunion.l, <variable>.TreeTab
	strb	ip, [r0, #2039]	@ <variable>.rightunion.r, <variable>.TreeTab
	strb	r1, [r0, #2040]	@ <variable>.leftunion.l, <variable>.TreeTab
	strb	r2, [r0, #2041]	@ <variable>.rightunion.r, <variable>.TreeTab
	ldr	r4, [sp, #12]	@, %sfp
	ldr	ip, [sp, #16]	@, %sfp
	ldr	r1, [sp, #20]	@, %sfp
	ldr	r2, [sp, #24]	@, %sfp
	strb	r9, [r0, #2028]	@ <variable>.leftunion.l, <variable>.TreeTab
	ldr	r9, [sp, #28]	@, %sfp
	strb	sl, [r0, #2029]	@ <variable>.rightunion.r, <variable>.TreeTab
	movw	sl, #8535	@ tmp880,
	strb	r8, [r0, #2034]	@ <variable>.leftunion.l, <variable>.TreeTab
	movw	r8, #8536	@ tmp883,
	strb	r7, [r0, #2035]	@ <variable>.rightunion.r, <variable>.TreeTab
	movw	r7, #8537	@ tmp886,
	strb	r6, [r0, #2036]	@ <variable>.leftunion.l, <variable>.TreeTab
	movw	r6, #8538	@ tmp889,
	strb	r5, [r0, #2037]	@ <variable>.rightunion.r, <variable>.TreeTab
	movw	r5, #8539	@ tmp892,
	strb	r4, [r0, #2042]	@, <variable>.TreeTab
	movw	r4, #8540	@ tmp895,
	strb	ip, [r0, #2043]	@, <variable>.TreeTab
	movw	ip, #8541	@ tmp898,
	strb	r1, [r0, #2044]	@, <variable>.TreeTab
	movw	r1, #8542	@ tmp901,
	strb	r2, [r0, #2045]	@, <variable>.TreeTab
	movw	r2, #8543	@ tmp904,
	strb	fp, [r0, #2051]	@, <variable>.TreeTab
	movw	fp, #8544	@ tmp907,
	strb	r3, [r0, #2052]	@ <variable>.leftunion.l, <variable>.TreeTab
	movw	r3, #8545	@ tmp910,
	strb	r9, [r0, #2050]	@, <variable>.TreeTab
	ldrb	r9, [r0, sl]	@ zero_extendqisi2	@ <variable>.rightunion.r, <variable>.rightunion.r
	ldrb	sl, [r0, r8]	@ zero_extendqisi2	@ <variable>.leftunion.l, <variable>.leftunion.l
	ldrb	r8, [r0, r7]	@ zero_extendqisi2	@ <variable>.rightunion.r, <variable>.rightunion.r
	ldrb	r7, [r0, r6]	@ zero_extendqisi2	@ <variable>.leftunion.l, <variable>.leftunion.l
	ldrb	r6, [r0, r5]	@ zero_extendqisi2	@ <variable>.rightunion.r, <variable>.rightunion.r
	ldrb	r5, [r0, r4]	@ zero_extendqisi2	@ <variable>.leftunion.l, <variable>.leftunion.l
	ldrb	r4, [r0, ip]	@ zero_extendqisi2	@ <variable>.rightunion.r, <variable>.rightunion.r
	ldrb	ip, [r0, r1]	@ zero_extendqisi2	@ <variable>.leftunion.l, <variable>.leftunion.l
	ldrb	r1, [r0, r2]	@ zero_extendqisi2	@ <variable>.rightunion.r, <variable>.rightunion.r
	ldrb	r2, [r0, fp]	@ zero_extendqisi2	@ <variable>.leftunion.l, <variable>.leftunion.l
	ldrb	fp, [r0, r3]	@ zero_extendqisi2	@, <variable>.rightunion.r
	movw	r3, #8546	@ tmp913,
	str	fp, [sp, #12]	@, %sfp
	ldrb	fp, [r0, r3]	@ zero_extendqisi2	@, <variable>.leftunion.l
	movw	r3, #8547	@ tmp916,
	str	fp, [sp, #16]	@, %sfp
	ldrb	fp, [r0, r3]	@ zero_extendqisi2	@, <variable>.rightunion.r
	movw	r3, #8548	@ tmp919,
	str	fp, [sp, #20]	@, %sfp
	ldrb	fp, [r0, r3]	@ zero_extendqisi2	@, <variable>.leftunion.l
	movw	r3, #8549	@ tmp922,
	str	fp, [sp, #24]	@, %sfp
	ldrb	fp, [r0, r3]	@ zero_extendqisi2	@, <variable>.rightunion.r
	movw	r3, #8550	@ tmp925,
	str	fp, [sp, #28]	@, %sfp
	ldrb	fp, [r0, r3]	@ zero_extendqisi2	@ <variable>.leftunion.l, <variable>.leftunion.l
	movw	r3, #8551	@ tmp928,
	ldrb	r3, [r0, r3]	@ zero_extendqisi2	@ <variable>.rightunion.r, <variable>.rightunion.r
	strb	r4, [r0, #2059]	@ <variable>.rightunion.r, <variable>.TreeTab
	strb	ip, [r0, #2060]	@ <variable>.leftunion.l, <variable>.TreeTab
	strb	r1, [r0, #2061]	@ <variable>.rightunion.r, <variable>.TreeTab
	strb	r2, [r0, #2066]	@ <variable>.leftunion.l, <variable>.TreeTab
	ldr	r4, [sp, #12]	@, %sfp
	ldr	ip, [sp, #16]	@, %sfp
	ldr	r1, [sp, #20]	@, %sfp
	ldr	r2, [sp, #24]	@, %sfp
	strb	r9, [r0, #2053]	@ <variable>.rightunion.r, <variable>.TreeTab
	ldr	r9, [sp, #28]	@, %sfp
	strb	sl, [r0, #2054]	@ <variable>.leftunion.l, <variable>.TreeTab
	movw	sl, #8552	@ tmp931,
	strb	r8, [r0, #2055]	@ <variable>.rightunion.r, <variable>.TreeTab
	movw	r8, #8553	@ tmp934,
	strb	r7, [r0, #2056]	@ <variable>.leftunion.l, <variable>.TreeTab
	movw	r7, #8554	@ tmp937,
	strb	r6, [r0, #2057]	@ <variable>.rightunion.r, <variable>.TreeTab
	movw	r6, #8555	@ tmp940,
	strb	r5, [r0, #2058]	@ <variable>.leftunion.l, <variable>.TreeTab
	movw	r5, #8556	@ tmp943,
	strb	r4, [r0, #2067]	@, <variable>.TreeTab
	movw	r4, #8557	@ tmp946,
	strb	ip, [r0, #2068]	@, <variable>.TreeTab
	movw	ip, #8558	@ tmp949,
	strb	r1, [r0, #2069]	@, <variable>.TreeTab
	movw	r1, #8559	@ tmp952,
	strb	r2, [r0, #2070]	@, <variable>.TreeTab
	movw	r2, #8560	@ tmp955,
	strb	fp, [r0, #2072]	@, <variable>.TreeTab
	movw	fp, #8561	@ tmp958,
	strb	r3, [r0, #2073]	@ <variable>.rightunion.r, <variable>.TreeTab
	movw	r3, #8562	@ tmp961,
	strb	r9, [r0, #2071]	@, <variable>.TreeTab
	ldrb	r9, [r0, sl]	@ zero_extendqisi2	@ <variable>.leftunion.l, <variable>.leftunion.l
	ldrb	sl, [r0, r8]	@ zero_extendqisi2	@ <variable>.rightunion.r, <variable>.rightunion.r
	ldrb	r8, [r0, r7]	@ zero_extendqisi2	@ <variable>.leftunion.l, <variable>.leftunion.l
	ldrb	r7, [r0, r6]	@ zero_extendqisi2	@ <variable>.rightunion.r, <variable>.rightunion.r
	ldrb	r6, [r0, r5]	@ zero_extendqisi2	@ <variable>.leftunion.l, <variable>.leftunion.l
	ldrb	r5, [r0, r4]	@ zero_extendqisi2	@ <variable>.rightunion.r, <variable>.rightunion.r
	ldrb	r4, [r0, ip]	@ zero_extendqisi2	@ <variable>.leftunion.l, <variable>.leftunion.l
	ldrb	ip, [r0, r1]	@ zero_extendqisi2	@ <variable>.rightunion.r, <variable>.rightunion.r
	ldrb	r1, [r0, r2]	@ zero_extendqisi2	@ <variable>.leftunion.l, <variable>.leftunion.l
	ldrb	r2, [r0, fp]	@ zero_extendqisi2	@ <variable>.rightunion.r, <variable>.rightunion.r
	ldrb	fp, [r0, r3]	@ zero_extendqisi2	@, <variable>.leftunion.l
	movw	r3, #8563	@ tmp964,
	str	fp, [sp, #12]	@, %sfp
	ldrb	fp, [r0, r3]	@ zero_extendqisi2	@, <variable>.rightunion.r
	movw	r3, #8564	@ tmp967,
	str	fp, [sp, #16]	@, %sfp
	ldrb	fp, [r0, r3]	@ zero_extendqisi2	@, <variable>.leftunion.l
	movw	r3, #8565	@ tmp970,
	str	fp, [sp, #20]	@, %sfp
	ldrb	fp, [r0, r3]	@ zero_extendqisi2	@, <variable>.rightunion.r
	movw	r3, #8566	@ tmp973,
	str	fp, [sp, #24]	@, %sfp
	ldrb	fp, [r0, r3]	@ zero_extendqisi2	@, <variable>.leftunion.l
	movw	r3, #8567	@ tmp976,
	str	fp, [sp, #28]	@, %sfp
	ldrb	fp, [r0, r3]	@ zero_extendqisi2	@ <variable>.rightunion.r, <variable>.rightunion.r
	movw	r3, #8568	@ tmp979,
	ldrb	r3, [r0, r3]	@ zero_extendqisi2	@ <variable>.leftunion.l, <variable>.leftunion.l
	strb	r4, [r0, #2084]	@ <variable>.leftunion.l, <variable>.TreeTab
	strb	ip, [r0, #2085]	@ <variable>.rightunion.r, <variable>.TreeTab
	strb	r1, [r0, #2114]	@ <variable>.leftunion.l, <variable>.TreeTab
	strb	r2, [r0, #2115]	@ <variable>.rightunion.r, <variable>.TreeTab
	ldr	r4, [sp, #12]	@, %sfp
	ldr	ip, [sp, #16]	@, %sfp
	ldr	r1, [sp, #20]	@, %sfp
	ldr	r2, [sp, #24]	@, %sfp
	strb	r9, [r0, #2074]	@ <variable>.leftunion.l, <variable>.TreeTab
	ldr	r9, [sp, #28]	@, %sfp
	strb	sl, [r0, #2075]	@ <variable>.rightunion.r, <variable>.TreeTab
	movw	sl, #8569	@ tmp982,
	strb	r8, [r0, #2076]	@ <variable>.leftunion.l, <variable>.TreeTab
	movw	r8, #8570	@ tmp985,
	strb	r7, [r0, #2077]	@ <variable>.rightunion.r, <variable>.TreeTab
	movw	r7, #8571	@ tmp988,
	strb	r6, [r0, #2082]	@ <variable>.leftunion.l, <variable>.TreeTab
	movw	r6, #8572	@ tmp991,
	strb	r5, [r0, #2083]	@ <variable>.rightunion.r, <variable>.TreeTab
	movw	r5, #8573	@ tmp994,
	strb	r4, [r0, #2116]	@, <variable>.TreeTab
	movw	r4, #8574	@ tmp997,
	strb	ip, [r0, #2117]	@, <variable>.TreeTab
	movw	ip, #8575	@ tmp1000,
	strb	r1, [r0, #2118]	@, <variable>.TreeTab
	mov	r1, #8576	@ tmp1003,
	strb	r2, [r0, #2119]	@, <variable>.TreeTab
	movw	r2, #8577	@ tmp1006,
	strb	fp, [r0, #2121]	@, <variable>.TreeTab
	movw	fp, #8578	@ tmp1009,
	strb	r3, [r0, #2122]	@ <variable>.leftunion.l, <variable>.TreeTab
	movw	r3, #8579	@ tmp1012,
	strb	r9, [r0, #2120]	@, <variable>.TreeTab
	ldrb	r9, [r0, sl]	@ zero_extendqisi2	@ <variable>.rightunion.r, <variable>.rightunion.r
	ldrb	sl, [r0, r8]	@ zero_extendqisi2	@ <variable>.leftunion.l, <variable>.leftunion.l
	ldrb	r8, [r0, r7]	@ zero_extendqisi2	@ <variable>.rightunion.r, <variable>.rightunion.r
	ldrb	r7, [r0, r6]	@ zero_extendqisi2	@ <variable>.leftunion.l, <variable>.leftunion.l
	ldrb	r6, [r0, r5]	@ zero_extendqisi2	@ <variable>.rightunion.r, <variable>.rightunion.r
	ldrb	r5, [r0, r4]	@ zero_extendqisi2	@ <variable>.leftunion.l, <variable>.leftunion.l
	ldrb	r4, [r0, ip]	@ zero_extendqisi2	@ <variable>.rightunion.r, <variable>.rightunion.r
	ldrb	ip, [r0, r1]	@ zero_extendqisi2	@ <variable>.leftunion.l, <variable>.leftunion.l
	ldrb	r1, [r0, r2]	@ zero_extendqisi2	@ <variable>.rightunion.r, <variable>.rightunion.r
	ldrb	r2, [r0, fp]	@ zero_extendqisi2	@ <variable>.leftunion.l, <variable>.leftunion.l
	ldrb	fp, [r0, r3]	@ zero_extendqisi2	@, <variable>.rightunion.r
	movw	r3, #8580	@ tmp1015,
	str	fp, [sp, #12]	@, %sfp
	ldrb	fp, [r0, r3]	@ zero_extendqisi2	@, <variable>.leftunion.l
	movw	r3, #8581	@ tmp1018,
	str	fp, [sp, #16]	@, %sfp
	ldrb	fp, [r0, r3]	@ zero_extendqisi2	@, <variable>.rightunion.r
	movw	r3, #8582	@ tmp1021,
	str	fp, [sp, #20]	@, %sfp
	ldrb	fp, [r0, r3]	@ zero_extendqisi2	@, <variable>.leftunion.l
	movw	r3, #8583	@ tmp1024,
	str	fp, [sp, #24]	@, %sfp
	ldrb	fp, [r0, r3]	@ zero_extendqisi2	@, <variable>.rightunion.r
	movw	r3, #8584	@ tmp1027,
	str	fp, [sp, #28]	@, %sfp
	ldrb	fp, [r0, r3]	@ zero_extendqisi2	@ <variable>.leftunion.l, <variable>.leftunion.l
	movw	r3, #8585	@ tmp1030,
	ldrb	r3, [r0, r3]	@ zero_extendqisi2	@ <variable>.rightunion.r, <variable>.rightunion.r
	strb	r5, [r0, #2132]	@ <variable>.leftunion.l, <variable>.TreeTab
	strb	r4, [r0, #2133]	@ <variable>.rightunion.r, <variable>.TreeTab
	ldr	r5, [sp, #16]	@, %sfp
	ldr	r4, [sp, #20]	@, %sfp
	strb	ip, [r0, #2134]	@ <variable>.leftunion.l, <variable>.TreeTab
	strb	r5, [r0, #2138]	@, <variable>.TreeTab
	strb	r4, [r0, #2139]	@, <variable>.TreeTab
	ldr	ip, [sp, #12]	@, %sfp
	ldr	r4, [sp, #24]	@, %sfp
	ldr	r5, [sp, #28]	@, %sfp
	strb	r1, [r0, #2135]	@ <variable>.rightunion.r, <variable>.TreeTab
	movw	r1, #8586	@ tmp1033,
	strb	r3, [r0, #2147]	@ <variable>.rightunion.r, <variable>.TreeTab
	movw	r3, #8587	@ tmp1036,
	strb	r9, [r0, #2123]	@ <variable>.rightunion.r, <variable>.TreeTab
	strb	sl, [r0, #2124]	@ <variable>.leftunion.l, <variable>.TreeTab
	strb	r8, [r0, #2125]	@ <variable>.rightunion.r, <variable>.TreeTab
	strb	r7, [r0, #2130]	@ <variable>.leftunion.l, <variable>.TreeTab
	strb	r6, [r0, #2131]	@ <variable>.rightunion.r, <variable>.TreeTab
	strb	r2, [r0, #2136]	@ <variable>.leftunion.l, <variable>.TreeTab
	strb	ip, [r0, #2137]	@, <variable>.TreeTab
	strb	r4, [r0, #2140]	@, <variable>.TreeTab
	strb	r5, [r0, #2141]	@, <variable>.TreeTab
	strb	fp, [r0, #2146]	@, <variable>.TreeTab
	ldrb	ip, [r0, r3]	@ zero_extendqisi2	@ <variable>.rightunion.r, <variable>.rightunion.r
	ldrb	r2, [r0, r1]	@ zero_extendqisi2	@ <variable>.leftunion.l, <variable>.leftunion.l
	strb	r2, [r0, #2148]	@ <variable>.leftunion.l, <variable>.TreeTab
	strb	ip, [r0, #2149]	@ <variable>.rightunion.r, <variable>.TreeTab
	add	sp, sp, #296	@,,
	ldmfd	sp!, {r4, r5, r6, r7, r8, r9, sl, fp}
	bx	lr
	.fnend
	.size	VP6_BuildTreeTab, .-VP6_BuildTreeTab
	.align	2
	.global	IsFrameSizeChanged
	.type	IsFrameSizeChanged, %function
IsFrameSizeChanged:
	.fnstart
.LFB1946:
	@ args = 0, pretend = 0, frame = 0
	@ frame_needed = 0, uses_anonymous_args = 0
	@ link register save eliminated.
	movw	ip, #12132	@ tmp136,
	movw	r1, #12276	@ tmp137,
	ldr	r2, [r0, ip]	@ <variable>.OldHeaderInfo.pic_height_in_mb, <variable>.OldHeaderInfo.pic_height_in_mb
	ldr	r3, [r0, r1]	@ <variable>.NewHeaderInfo.pic_height_in_mb, <variable>.NewHeaderInfo.pic_height_in_mb
	cmp	r2, r3	@ <variable>.OldHeaderInfo.pic_height_in_mb, <variable>.NewHeaderInfo.pic_height_in_mb
	movne	r0, #1	@ D.39544,
	bxne	lr	@
	movw	r1, #12280	@ tmp141,
	movw	r2, #12136	@ tmp140,
	ldr	r3, [r0, r1]	@ <variable>.NewHeaderInfo.pic_width_in_mb, <variable>.NewHeaderInfo.pic_width_in_mb
	ldr	r0, [r0, r2]	@ <variable>.OldHeaderInfo.pic_width_in_mb, <variable>.OldHeaderInfo.pic_width_in_mb
	subs	r0, r0, r3	@ D.39544, <variable>.OldHeaderInfo.pic_width_in_mb, <variable>.NewHeaderInfo.pic_width_in_mb
	movne	r0, #1	@ D.39544
	bx	lr	@
	.fnend
	.size	IsFrameSizeChanged, .-IsFrameSizeChanged
	.align	2
	.global	VP6DEC_GetRemainImg
	.type	VP6DEC_GetRemainImg, %function
VP6DEC_GetRemainImg:
	.fnstart
.LFB1952:
	@ args = 0, pretend = 0, frame = 0
	@ frame_needed = 0, uses_anonymous_args = 0
	@ link register save eliminated.
	add	r0, r0, #12608	@, pCtx,
	add	r0, r0, #40	@,,
	b	GetVoLastImageID	@
	.fnend
	.size	VP6DEC_GetRemainImg, .-VP6DEC_GetRemainImg
	.align	2
	.global	VP6DEC_RecycleImage
	.type	VP6DEC_RecycleImage, %function
VP6DEC_RecycleImage:
	.fnstart
.LFB1951:
	@ args = 0, pretend = 0, frame = 0
	@ frame_needed = 0, uses_anonymous_args = 0
	stmfd	sp!, {r3, r4, r5, r6, r7, lr}	@,
	.save {r3, r4, r5, r6, r7, lr}
	movw	r4, #13000	@ tmp138,
	mov	r6, r1	@ ImgID, ImgID
	mov	r5, r0	@ pCtx, pCtx
	mov	r2, #0	@,
	ldr	r0, [r0, r4]	@, <variable>.ChanID
	bl	FSP_SetDisplay	@
	mov	r1, r6	@, ImgID
	ldr	r0, [r5, r4]	@, <variable>.ChanID
	bl	FSP_GetFsImagePtr	@
	subs	r6, r0, #0	@ pImg,
	beq	.L201	@,
	ldr	r0, [r5, r4]	@, <variable>.ChanID
	mov	r7, #0	@ tmp145,
	ldr	r1, [r6, #192]	@, <variable>.p_usrdat
	bl	FreeUsdByDec	@
	str	r7, [r6, #192]	@ tmp145, <variable>.p_usrdat
	ldr	r1, [r6, #196]	@, <variable>.p_usrdat
	ldr	r0, [r5, r4]	@, <variable>.ChanID
	bl	FreeUsdByDec	@
	str	r7, [r6, #196]	@ tmp145, <variable>.p_usrdat
.L201:
	mov	r0, #1	@,
	ldmfd	sp!, {r3, r4, r5, r6, r7, pc}	@
	.fnend
	.size	VP6DEC_RecycleImage, .-VP6DEC_RecycleImage
	.align	2
	.global	VP6_ConvertBoolToHuff
	.type	VP6_ConvertBoolToHuff, %function
VP6_ConvertBoolToHuff:
	.fnstart
.LFB1937:
	@ args = 0, pretend = 0, frame = 8
	@ frame_needed = 0, uses_anonymous_args = 0
	stmfd	sp!, {r4, r5, r6, r7, r8, r9, sl, fp, lr}	@,
	.save {r4, r5, r6, r7, r8, r9, sl, fp, lr}
	add	r5, r0, #6592	@ tmp199, pVp6CodecInfo,
	add	r7, r0, #9408	@ tmp200, pVp6CodecInfo,
	add	fp, r5, #4	@ D.38847, tmp199,
	.pad #12
	sub	sp, sp, #12	@,,
	mov	r4, r0	@ pVp6CodecInfo, pVp6CodecInfo
	add	r6, r0, #512	@ tmp198, pVp6CodecInfo,
	add	r8, r7, #44	@ D.38851, tmp200,
	add	r9, r4, #9472	@ tmp201, pVp6CodecInfo,
	bl	vfmw_dprint_nothing	@
	add	sl, r9, #28	@ D.38855, tmp201,
	add	r0, r6, #2	@, tmp198,
	mov	r1, fp	@, D.38847
	bl	VP6_BoolTreeToHuffCodes	@
	mov	r2, #12	@,
	mov	r0, r8	@, D.38851
	mov	r1, fp	@, D.38847
	add	fp, r5, #52	@ D.38849, tmp199,
	bl	VP6_BuildHuffTree	@
	mov	r0, r8	@, D.38851
	mov	r1, sl	@, D.38855
	add	sl, r7, #68	@ D.38853, tmp200,
	bl	VP6_BuildHuffLookupTable	@
	add	r8, r4, #6656	@ tmp204, pVp6CodecInfo,
	add	r0, r6, #13	@, tmp198,
	mov	r1, fp	@, D.38849
	add	r5, r8, #36	@ D.38863, tmp204,
	bl	VP6_BoolTreeToHuffCodes	@
	mov	r2, #12	@,
	mov	r1, fp	@, D.38849
	mov	r0, sl	@, D.38853
	add	fp, r4, #536	@ D.38859, pVp6CodecInfo,
	bl	VP6_BuildHuffTree	@
	add	r7, r4, #8512	@ tmp205, pVp6CodecInfo,
	mov	r0, sl	@, D.38853
	add	r1, r9, #92	@, tmp201,
	add	r6, r7, #20	@ D.38867, tmp205,
	bl	VP6_BuildHuffLookupTable	@
	add	sl, r4, #11904	@ tmp206, pVp6CodecInfo,
	mov	r1, r5	@, D.38863
	mov	r0, fp	@, D.38859
	bl	VP6_ZerosBoolTreeToHuffCodes	@
	mov	r1, r5	@, D.38863
	add	r5, sl, #28	@ D.38871, tmp206,
	mov	r2, #9	@,
	add	r9, r8, #92	@ D.38865, tmp204,
	mov	r0, r6	@, D.38867
	bl	VP6_BuildHuffTree	@
	add	r7, r7, #48	@ D.38869, tmp205,
	mov	r0, r6	@, D.38867
	mov	r1, r5	@, D.38871
	bl	VP6_BuildHuffLookupTable	@
	add	r0, fp, #14	@, D.38859,
	mov	r1, r9	@, D.38865
	add	r6, r4, #6784	@ ivtmp.2333, pVp6CodecInfo,
	bl	VP6_ZerosBoolTreeToHuffCodes	@
	mov	r0, r7	@, D.38869
	mov	r1, r9	@, D.38865
	mov	r2, #9	@,
	bl	VP6_BuildHuffTree	@
	mov	r0, r7	@, D.38869
	add	r1, sl, #92	@, tmp206,
	add	r5, r4, #8576	@ ivtmp.2335, pVp6CodecInfo,
	bl	VP6_BuildHuffLookupTable	@
	add	r8, r4, #9600	@ ivtmp.2337, pVp6CodecInfo,
	add	r6, r6, #20	@ ivtmp.2333, ivtmp.2333,
	add	r5, r5, #12	@ ivtmp.2335, ivtmp.2335,
	add	r8, r8, #28	@ ivtmp.2337, ivtmp.2337,
	mov	r7, #0	@ ivtmp.2332,
.L204:
	add	lr, r7, r4	@ tmp213, ivtmp.2332, pVp6CodecInfo
	mov	r1, r6	@, ivtmp.2333
	add	r0, lr, #564	@, tmp213,
	add	sl, r6, #48	@ temp.2424, ivtmp.2333,
	bl	VP6_BoolTreeToHuffCodes	@
	mov	r2, #12	@,
	mov	r0, r5	@, ivtmp.2335
	mov	r1, r6	@, ivtmp.2333
	bl	VP6_BuildHuffTree	@
	mov	r0, r5	@, ivtmp.2335
	mov	r1, r8	@, ivtmp.2337
	add	r9, r5, #24	@ temp.2425, ivtmp.2335,
	bl	VP6_BuildHuffLookupTable	@
	add	r1, r7, r4	@ tmp217, ivtmp.2332, pVp6CodecInfo
	add	r0, r1, #572	@, tmp217,
	mov	r1, sl	@, temp.2424
	add	r0, r0, #3	@,,
	add	fp, r6, #96	@ temp.2428, ivtmp.2333,
	bl	VP6_BoolTreeToHuffCodes	@
	mov	r1, sl	@, temp.2424
	mov	r2, #12	@,
	mov	r0, r9	@, temp.2425
	bl	VP6_BuildHuffTree	@
	mov	r0, r9	@, temp.2425
	add	r1, r8, #64	@, ivtmp.2337,
	add	sl, r5, #48	@ temp.2429, ivtmp.2335,
	bl	VP6_BuildHuffLookupTable	@
	add	ip, r7, r4	@ tmp222, ivtmp.2332, pVp6CodecInfo
	add	r3, ip, #584	@, tmp222,
	mov	r1, fp	@, temp.2428
	add	r0, r3, #2	@,,
	add	r2, r6, #144	@, ivtmp.2333,
	str	r2, [sp, #4]	@, %sfp
	bl	VP6_BoolTreeToHuffCodes	@
	mov	r2, #12	@,
	mov	r1, fp	@, temp.2428
	mov	r0, sl	@, temp.2429
	add	r9, r5, #72	@ temp.2433, ivtmp.2335,
	bl	VP6_BuildHuffTree	@
	mov	r0, sl	@, temp.2429
	add	r1, r8, #128	@, ivtmp.2337,
	add	fp, r6, #192	@ temp.2436, ivtmp.2333,
	bl	VP6_BuildHuffLookupTable	@
	add	r1, r7, r4	@ tmp227, ivtmp.2332, pVp6CodecInfo
	add	r0, r1, #596	@, tmp227,
	ldr	r1, [sp, #4]	@, %sfp
	add	r0, r0, #1	@,,
	add	sl, r5, #96	@ temp.2437, ivtmp.2335,
	bl	VP6_BoolTreeToHuffCodes	@
	mov	r2, #12	@,
	mov	r0, r9	@, temp.2433
	ldr	r1, [sp, #4]	@, %sfp
	bl	VP6_BuildHuffTree	@
	mov	r0, r9	@, temp.2433
	add	r1, r8, #192	@, ivtmp.2337,
	add	r9, r6, #240	@ temp.2440, ivtmp.2333,
	bl	VP6_BuildHuffLookupTable	@
	add	ip, r7, r4	@ tmp231, ivtmp.2332, pVp6CodecInfo
	add	r0, ip, #608	@, tmp231,
	mov	r1, fp	@, temp.2436
	bl	VP6_BoolTreeToHuffCodes	@
	mov	r1, fp	@, temp.2436
	mov	r2, #12	@,
	mov	r0, sl	@, temp.2437
	bl	VP6_BuildHuffTree	@
	mov	r0, sl	@, temp.2437
	add	r1, r8, #256	@, ivtmp.2337,
	add	fp, r5, #120	@ temp.2441, ivtmp.2335,
	bl	VP6_BuildHuffLookupTable	@
	add	r3, r7, r4	@ tmp236, ivtmp.2332, pVp6CodecInfo
	add	r2, r3, #616	@, tmp236,
	mov	r1, r9	@, temp.2440
	add	r0, r2, #3	@,,
	add	sl, r6, #288	@ temp.2444, ivtmp.2333,
	bl	VP6_BoolTreeToHuffCodes	@
	mov	r2, #12	@,
	mov	r1, r9	@, temp.2440
	mov	r0, fp	@, temp.2441
	bl	VP6_BuildHuffTree	@
	mov	r0, fp	@, temp.2441
	add	r1, r8, #320	@, ivtmp.2337,
	add	fp, r5, #144	@ temp.2445, ivtmp.2335,
	bl	VP6_BuildHuffLookupTable	@
	add	r1, r7, r4	@ tmp241, ivtmp.2332, pVp6CodecInfo
	add	r0, r1, #628	@, tmp241,
	mov	r1, sl	@, temp.2444
	add	r0, r0, #2	@,,
	add	r9, r6, #336	@ temp.2448, ivtmp.2333,
	bl	VP6_BoolTreeToHuffCodes	@
	mov	r2, #12	@,
	mov	r1, sl	@, temp.2444
	mov	r0, fp	@, temp.2445
	bl	VP6_BuildHuffTree	@
	mov	r0, fp	@, temp.2445
	add	r1, r8, #384	@, ivtmp.2337,
	add	sl, r5, #168	@ temp.2449, ivtmp.2335,
	bl	VP6_BuildHuffLookupTable	@
	add	ip, r7, r4	@ tmp246, ivtmp.2332, pVp6CodecInfo
	add	r3, ip, #640	@, tmp246,
	mov	r1, r9	@, temp.2448
	add	r0, r3, #1	@,,
	add	fp, r6, #384	@ temp.2452, ivtmp.2333,
	bl	VP6_BoolTreeToHuffCodes	@
	mov	r1, r9	@, temp.2448
	mov	r2, #12	@,
	mov	r0, sl	@, temp.2449
	bl	VP6_BuildHuffTree	@
	mov	r0, sl	@, temp.2449
	add	r1, r8, #448	@, ivtmp.2337,
	add	sl, r5, #192	@ temp.2453, ivtmp.2335,
	bl	VP6_BuildHuffLookupTable	@
	add	r2, r7, r4	@ tmp250, ivtmp.2332, pVp6CodecInfo
	mov	r1, fp	@, temp.2452
	add	r0, r2, #652	@, tmp250,
	bl	VP6_BoolTreeToHuffCodes	@
	mov	r2, #12	@,
	mov	r1, fp	@, temp.2452
	mov	r0, sl	@, temp.2453
	bl	VP6_BuildHuffTree	@
	mov	r0, sl	@, temp.2453
	add	r1, r8, #512	@, ivtmp.2337,
	add	r9, r6, #432	@ temp.2456, ivtmp.2333,
	bl	VP6_BuildHuffLookupTable	@
	add	r1, r7, r4	@ tmp255, ivtmp.2332, pVp6CodecInfo
	add	sl, r5, #216	@ temp.2457, ivtmp.2335,
	add	r0, r1, #660	@, tmp255,
	add	r0, r0, #3	@,,
	mov	r1, r9	@, temp.2456
	bl	VP6_BoolTreeToHuffCodes	@
	mov	r1, r9	@, temp.2456
	mov	r2, #12	@,
	mov	r0, sl	@, temp.2457
	bl	VP6_BuildHuffTree	@
	mov	r0, sl	@, temp.2457
	add	r1, r8, #576	@, ivtmp.2337,
	add	fp, r6, #480	@ temp.2460, ivtmp.2333,
	bl	VP6_BuildHuffLookupTable	@
	add	ip, r7, r4	@ tmp260, ivtmp.2332, pVp6CodecInfo
	add	r3, ip, #672	@, tmp260,
	add	r9, r5, #240	@ temp.2461, ivtmp.2335,
	add	r0, r3, #2	@,,
	mov	r1, fp	@, temp.2460
	add	r2, r6, #528	@, ivtmp.2333,
	str	r2, [sp, #4]	@, %sfp
	bl	VP6_BoolTreeToHuffCodes	@
	mov	r2, #12	@,
	mov	r1, fp	@, temp.2460
	mov	r0, r9	@, temp.2461
	bl	VP6_BuildHuffTree	@
	mov	r0, r9	@, temp.2461
	add	r1, r8, #640	@, ivtmp.2337,
	add	sl, r5, #264	@ temp.2465, ivtmp.2335,
	bl	VP6_BuildHuffLookupTable	@
	add	r1, r7, r4	@ tmp265, ivtmp.2332, pVp6CodecInfo
	add	r0, r1, #684	@, tmp265,
	ldr	r1, [sp, #4]	@, %sfp
	add	r0, r0, #1	@,,
	add	r9, r6, #576	@ temp.2468, ivtmp.2333,
	bl	VP6_BoolTreeToHuffCodes	@
	mov	r2, #12	@,
	mov	r0, sl	@, temp.2465
	ldr	r1, [sp, #4]	@, %sfp
	bl	VP6_BuildHuffTree	@
	mov	r0, sl	@, temp.2465
	add	r1, r8, #704	@, ivtmp.2337,
	add	fp, r5, #288	@ temp.2469, ivtmp.2335,
	bl	VP6_BuildHuffLookupTable	@
	add	ip, r7, r4	@ tmp269, ivtmp.2332, pVp6CodecInfo
	add	r0, ip, #696	@, tmp269,
	mov	r1, r9	@, temp.2468
	bl	VP6_BoolTreeToHuffCodes	@
	mov	r1, r9	@, temp.2468
	mov	r2, #12	@,
	mov	r0, fp	@, temp.2469
	bl	VP6_BuildHuffTree	@
	mov	r0, fp	@, temp.2469
	add	r1, r8, #768	@, ivtmp.2337,
	add	r9, r6, #624	@ temp.2472, ivtmp.2333,
	bl	VP6_BuildHuffLookupTable	@
	add	r3, r7, r4	@ tmp274, ivtmp.2332, pVp6CodecInfo
	add	r2, r3, #704	@, tmp274,
	add	sl, r5, #312	@ temp.2473, ivtmp.2335,
	add	r0, r2, #3	@,,
	mov	r1, r9	@, temp.2472
	bl	VP6_BoolTreeToHuffCodes	@
	mov	r2, #12	@,
	mov	r1, r9	@, temp.2472
	mov	r0, sl	@, temp.2473
	bl	VP6_BuildHuffTree	@
	mov	r0, sl	@, temp.2473
	add	r1, r8, #832	@, ivtmp.2337,
	add	fp, r6, #672	@ temp.2476, ivtmp.2333,
	bl	VP6_BuildHuffLookupTable	@
	add	r1, r7, r4	@ tmp279, ivtmp.2332, pVp6CodecInfo
	add	sl, r5, #336	@ temp.2477, ivtmp.2335,
	add	r0, r1, #716	@, tmp279,
	add	r0, r0, #2	@,,
	mov	r1, fp	@, temp.2476
	bl	VP6_BoolTreeToHuffCodes	@
	mov	r2, #12	@,
	mov	r1, fp	@, temp.2476
	mov	r0, sl	@, temp.2477
	bl	VP6_BuildHuffTree	@
	mov	r0, sl	@, temp.2477
	add	r1, r8, #896	@, ivtmp.2337,
	add	r9, r6, #720	@ temp.2480, ivtmp.2333,
	bl	VP6_BuildHuffLookupTable	@
	add	ip, r7, r4	@ tmp284, ivtmp.2332, pVp6CodecInfo
	add	r3, ip, #728	@, tmp284,
	add	fp, r5, #360	@ temp.2481, ivtmp.2335,
	add	r0, r3, #1	@,,
	mov	r1, r9	@, temp.2480
	bl	VP6_BoolTreeToHuffCodes	@
	mov	r1, r9	@, temp.2480
	mov	r2, #12	@,
	mov	r0, fp	@, temp.2481
	bl	VP6_BuildHuffTree	@
	mov	r0, fp	@, temp.2481
	add	r1, r8, #960	@, ivtmp.2337,
	add	fp, r6, #768	@ temp.2484, ivtmp.2333,
	bl	VP6_BuildHuffLookupTable	@
	add	sl, r5, #384	@ temp.2485, ivtmp.2335,
	add	r2, r7, r4	@ tmp288, ivtmp.2332, pVp6CodecInfo
	mov	r1, fp	@, temp.2484
	add	r0, r2, #740	@, tmp288,
	add	r9, r6, #816	@ temp.2488, ivtmp.2333,
	bl	VP6_BoolTreeToHuffCodes	@
	mov	r2, #12	@,
	mov	r0, sl	@, temp.2485
	mov	r1, fp	@, temp.2484
	bl	VP6_BuildHuffTree	@
	mov	r0, sl	@, temp.2485
	add	r1, r8, #1024	@, ivtmp.2337,
	add	sl, r5, #408	@ temp.2489, ivtmp.2335,
	bl	VP6_BuildHuffLookupTable	@
	add	r1, r7, r4	@ tmp293, ivtmp.2332, pVp6CodecInfo
	add	r0, r1, #748	@, tmp293,
	mov	r1, r9	@, temp.2488
	add	r0, r0, #3	@,,
	add	r7, r7, #198	@ ivtmp.2332, ivtmp.2332,
	bl	VP6_BoolTreeToHuffCodes	@
	mov	r1, r9	@, temp.2488
	mov	r2, #12	@,
	mov	r0, sl	@, temp.2489
	bl	VP6_BuildHuffTree	@
	add	r1, r8, #1088	@, ivtmp.2337,
	mov	r0, sl	@, temp.2489
	add	r6, r6, #864	@ ivtmp.2333, ivtmp.2333,
	bl	VP6_BuildHuffLookupTable	@
	cmp	r7, #396	@ ivtmp.2332,
	add	r5, r5, #432	@ ivtmp.2335, ivtmp.2335,
	add	r8, r8, #1152	@ ivtmp.2337, ivtmp.2337,
	bne	.L204	@,
	mov	r0, r4	@, pVp6CodecInfo
	bl	VP6_BuildTreeTab	@
	add	sp, sp, #12	@,,
	ldmfd	sp!, {r4, r5, r6, r7, r8, r9, sl, fp, lr}
	b	vfmw_dprint_nothing	@
	.fnend
	.size	VP6_ConvertBoolToHuff, .-VP6_ConvertBoolToHuff
	.align	2
	.global	VP6_DecodeDecide
	.type	VP6_DecodeDecide, %function
VP6_DecodeDecide:
	.fnstart
.LFB1942:
	@ args = 0, pretend = 0, frame = 0
	@ frame_needed = 0, uses_anonymous_args = 0
	movw	r3, #12300	@ tmp140,
	stmfd	sp!, {r4, r5, r6, r7, r8, lr}	@,
	.save {r4, r5, r6, r7, r8, lr}
	ldr	r5, [r0, r3]	@ <variable>.Vp6CodecInfo.Imgbuf_allocated, <variable>.Vp6CodecInfo.Imgbuf_allocated
	mov	r4, r0	@ pCtx, pCtx
	cmp	r5, #0	@ <variable>.Vp6CodecInfo.Imgbuf_allocated,
	beq	.L219	@,
	movw	r2, #12292	@ tmp142,
	ldr	r1, [r0, r2]	@ <variable>.Vp6CodecInfo.UsedDecMode, <variable>.Vp6CodecInfo.UsedDecMode
	sub	r0, r1, #2	@ tmp143, <variable>.Vp6CodecInfo.UsedDecMode,
	cmp	r0, #1	@ tmp143,
	bls	.L210	@,
	ldr	ip, [r4, #0]	@ <variable>.pstExtraData, <variable>.pstExtraData
	ldr	r3, [ip, #8]	@ prephitmp.2511, <variable>.s32DecMode
.L211:
	movw	r0, #12292	@ tmp173,
	str	r3, [r4, r0]	@ prephitmp.2511, <variable>.Vp6CodecInfo.UsedDecMode
	cmp	r3, #4	@ prephitmp.2511,
	ldrls	pc, [pc, r3, asl #2]	@ prephitmp.2511
	b	.L223	@
.L216:
	.word	.L213
	.word	.L213
	.word	.L214
	.word	.L224
	.word	.L213
.L223:
	bl	vfmw_dprint_nothing	@
.L224:
	mov	r0, #0	@ D.39122,
	ldmfd	sp!, {r4, r5, r6, r7, r8, pc}	@
.L213:
	movw	r3, #12304	@ tmp176,
	ldrb	r5, [r4, r3]	@ zero_extendqisi2	@ <variable>.Vp6CodecInfo.FrameType, <variable>.Vp6CodecInfo.FrameType
	cmp	r5, #0	@ <variable>.Vp6CodecInfo.FrameType,
	beq	.L217	@,
	movw	r1, #12296	@ tmp178,
	ldr	r5, [r4, r1]	@ <variable>.Vp6CodecInfo.RefNum, <variable>.Vp6CodecInfo.RefNum
	cmp	r5, #0	@ <variable>.Vp6CodecInfo.RefNum,
	bne	.L217	@,
.L219:
	bl	vfmw_dprint_nothing	@
	mov	r0, r5	@ D.39122, pFwdImg
	ldmfd	sp!, {r4, r5, r6, r7, r8, pc}	@
.L210:
	ldr	r3, [r4, #0]	@ <variable>.pstExtraData, <variable>.pstExtraData
	ldr	r3, [r3, #8]	@ prephitmp.2511, <variable>.s32DecMode
	cmp	r3, #4	@ prephitmp.2511,
	cmpne	r3, #1	@, prephitmp.2511,
	bhi	.L211	@,
	movw	r8, #13000	@ tmp154,
	movw	r7, #12316	@ tmp156,
	bl	vfmw_dprint_nothing	@
	movw	r5, #12320	@ tmp160,
	ldr	r0, [r4, r8]	@, <variable>.ChanID
	mov	r2, #1	@,
	ldr	r1, [r4, r7]	@, <variable>.Vp6CodecInfo.GoldenFsID
	mov	r6, #0	@ tmp163,
	bl	FSP_ClearLogicFs	@
	ldr	r1, [r4, r5]	@, <variable>.Vp6CodecInfo.FwdFsID
	mov	r2, #1	@,
	ldr	r0, [r4, r8]	@, <variable>.ChanID
	bl	FSP_ClearLogicFs	@
	str	r6, [r4, r7]	@ tmp163, <variable>.Vp6CodecInfo.GoldenFsID
	str	r6, [r4, r5]	@ tmp163, <variable>.Vp6CodecInfo.FwdFsID
	ldr	r0, [r4, r8]	@, <variable>.ChanID
	bl	FSP_GetNullLogicFs	@
	ldr	r1, [r4, #0]	@ <variable>.pstExtraData, <variable>.pstExtraData
	movw	r2, #12296	@ tmp170,
	str	r6, [r4, r2]	@ tmp163, <variable>.Vp6CodecInfo.RefNum
	str	r0, [r4, r7]	@ D.39138, <variable>.Vp6CodecInfo.GoldenFsID
	str	r0, [r4, r5]	@ D.39138, <variable>.Vp6CodecInfo.FwdFsID
	ldr	r3, [r1, #8]	@ prephitmp.2511, <variable>.s32DecMode
	b	.L211	@
.L214:
	movw	ip, #12304	@ tmp174,
	ldrb	lr, [r4, ip]	@ zero_extendqisi2	@ <variable>.Vp6CodecInfo.FrameType, <variable>.Vp6CodecInfo.FrameType
	cmp	lr, #0	@ <variable>.Vp6CodecInfo.FrameType,
	bne	.L223	@,
.L217:
	movw	r1, #13000	@ tmp186,
	movw	r5, #12320	@ tmp188,
	ldr	r0, [r4, r1]	@, <variable>.ChanID
	ldr	r1, [r4, r5]	@, <variable>.Vp6CodecInfo.FwdFsID
	bl	FSP_GetFsImagePtr	@
	subs	r5, r0, #0	@ pFwdImg,
	beq	.L219	@,
	movw	r0, #12304	@ tmp180,
	ldrb	r2, [r4, r0]	@ zero_extendqisi2	@ <variable>.Vp6CodecInfo.FrameType, <variable>.Vp6CodecInfo.FrameType
	cmp	r2, #0	@ <variable>.Vp6CodecInfo.FrameType,
	beq	.L218	@,
	ldr	r3, [r4, #0]	@ <variable>.pstExtraData, <variable>.pstExtraData
	ldr	lr, [r5, #180]	@ <variable>.error_level, <variable>.error_level
	ldr	ip, [r3, #0]	@ <variable>.s32RefErrThr, <variable>.s32RefErrThr
	cmp	lr, ip	@ <variable>.error_level, <variable>.s32RefErrThr
	bhi	.L223	@,
.L218:
	mov	r0, #1	@ D.39122,
	ldmfd	sp!, {r4, r5, r6, r7, r8, pc}	@
	.fnend
	.size	VP6_DecodeDecide, .-VP6_DecodeDecide
	.align	2
	.global	VP6_SetImgFormat
	.type	VP6_SetImgFormat, %function
VP6_SetImgFormat:
	.fnstart
.LFB1949:
	@ args = 0, pretend = 0, frame = 0
	@ frame_needed = 0, uses_anonymous_args = 0
	stmfd	sp!, {r3, r4, r5, lr}	@,
	.save {r3, r4, r5, lr}
	movw	r1, #13000	@ tmp144,
	mov	r5, r0	@ pCtx, pCtx
	movw	r3, #12312	@ tmp146,
	ldr	r0, [r0, r1]	@, <variable>.ChanID
	ldr	r1, [r5, r3]	@, <variable>.Vp6CodecInfo.CurFsID
	bl	FSP_GetFsImagePtr	@
	subs	r4, r0, #0	@ pImg,
	ldmeqfd	sp!, {r3, r4, r5, pc}	@
	movw	r1, #12304	@ tmp148,
	mov	lr, #0	@ tmp153,
	ldrb	r2, [r5, r1]	@ zero_extendqisi2	@ <variable>.Vp6CodecInfo.FrameType, <variable>.Vp6CodecInfo.FrameType
	mov	r1, lr	@, tmp153
	strb	lr, [r4, #288]	@ tmp153, <variable>.ImageDnr.pic_structure
	mov	lr, #8	@ tmp157,
	and	r3, r2, #3	@ D.39714, <variable>.Vp6CodecInfo.FrameType,
	str	lr, [r4, #308]	@ tmp157, <variable>.ImageDnr.QP_U
	orr	ip, r3, #7168	@ tmp150, D.39714,
	mov	r2, #1	@ tmp155,
	str	r3, [r4, #136]	@ D.39714, <variable>.bottom_fld_type
	orr	ip, ip, #32	@ tmp150, tmp150,
	str	r3, [r4, #132]	@ D.39714, <variable>.top_fld_type
	str	ip, [r4, #140]	@ tmp150, <variable>.format
	mov	ip, #10	@ tmp152,
	strb	r2, [r4, #293]	@ tmp155, <variable>.ImageDnr.chroma_format_idc
	str	ip, [r4, #300]	@ tmp152, <variable>.ImageDnr.video_standard
	strb	r2, [r4, #295]	@ tmp155, <variable>.ImageDnr.use_pic_qp_en
	str	lr, [r4, #304]	@ tmp157, <variable>.ImageDnr.QP_Y
	str	lr, [r4, #312]	@ tmp157, <variable>.ImageDnr.QP_V
	bl	SetAspectRatio	@
	movw	r0, #12504	@ tmp162,
	ldr	r3, [r5, r0]	@ <variable>.Vp6CodecInfo.NewHeaderInfo.pic_width_in_mb, <variable>.Vp6CodecInfo.NewHeaderInfo.pic_width_in_mb
	movw	r1, #12500	@ tmp164,
	mov	r3, r3, asl #4	@ prephitmp.2545, <variable>.Vp6CodecInfo.NewHeaderInfo.pic_width_in_mb,
	str	r3, [r4, #144]	@ prephitmp.2545, <variable>.image_width
	ldr	r2, [r5, r1]	@ <variable>.Vp6CodecInfo.NewHeaderInfo.pic_height_in_mb, <variable>.Vp6CodecInfo.NewHeaderInfo.pic_height_in_mb
	mov	r2, r2, asl #4	@ D.39721, <variable>.Vp6CodecInfo.NewHeaderInfo.pic_height_in_mb,
	str	r2, [r4, #148]	@ D.39721, <variable>.image_height
	ldr	ip, [r5, #0]	@ <variable>.pstExtraData, <variable>.pstExtraData
	ldr	r0, [ip, #32]	@ <variable>.eCapLevel, <variable>.eCapLevel
	cmp	r0, #25	@ <variable>.eCapLevel,
	movne	r2, r3	@ <variable>.image_width, prephitmp.2545
	beq	.L231	@,
.L227:
	ldr	r0, [r4, #148]	@ <variable>.image_height, <variable>.image_height
	mov	r3, r3, lsr #1	@ tmp180, prephitmp.2545,
	str	r2, [r4, #152]	@ <variable>.image_width, <variable>.disp_width
	str	r3, [r4, #160]	@ tmp180, <variable>.disp_center_x
	mov	r1, r0, lsr #1	@ tmp182, <variable>.image_height,
	str	r0, [r4, #156]	@ <variable>.image_height, <variable>.disp_height
	str	r1, [r4, #164]	@ tmp182, <variable>.disp_center_y
	ldmfd	sp!, {r3, r4, r5, pc}	@
.L231:
	ldr	r1, [r4, #172]	@ D.39726, <variable>.image_stride
	mov	r2, r2, lsr #4	@ tmp170, D.39721,
	ldr	r3, [r4, #104]	@ <variable>.luma_phy_addr, <variable>.luma_phy_addr
	ldr	r0, [r4, #32]	@ <variable>.luma_vir_addr, <variable>.luma_vir_addr
	mov	lr, r1, asl #4	@ tmp168, D.39726,
	add	ip, r3, r1	@ tmp175, <variable>.luma_phy_addr, D.39726
	str	r3, [r4, #120]	@ <variable>.luma_phy_addr, <variable>.luma_2d_phy_addr
	mul	r2, r2, lr	@ D.39732, tmp170, tmp168
	str	r3, [r4, #88]	@ <variable>.luma_phy_addr, <variable>.top_luma_phy_addr
	str	ip, [r4, #96]	@ tmp175, <variable>.btm_luma_phy_addr
	str	r0, [r4, #48]	@ <variable>.luma_vir_addr, <variable>.luma_2d_vir_addr
	add	r3, r2, r3	@ tmp172, D.39732, <variable>.luma_phy_addr
	add	r2, r0, r2	@ tmp174, <variable>.luma_vir_addr, D.39732
	str	r3, [r4, #108]	@ tmp172, <variable>.chrom_phy_addr
	add	r0, r3, r1	@ tmp176, tmp172, D.39726
	str	r2, [r4, #36]	@ tmp174, <variable>.chrom_vir_addr
	str	r0, [r4, #100]	@ tmp176, <variable>.btm_chrom_phy_addr
	mov	r0, r3	@, tmp172
	str	r3, [r4, #92]	@ tmp172, <variable>.top_chrom_phy_addr
	bl	MEM_Phy2Vir	@
	ldr	r2, [r4, #144]	@ <variable>.image_width, <variable>.image_width
	ldr	ip, [r4, #92]	@ <variable>.top_chrom_phy_addr, <variable>.top_chrom_phy_addr
	mov	r3, r2	@ prephitmp.2545, <variable>.image_width
	str	ip, [r4, #124]	@ <variable>.top_chrom_phy_addr, <variable>.chrom_2d_phy_addr
	str	r0, [r4, #52]	@, <variable>.chrom_2d_vir_addr
	b	.L227	@
	.fnend
	.size	VP6_SetImgFormat, .-VP6_SetImgFormat
	.align	2
	.global	VP6DEC_VDMPostProc
	.type	VP6DEC_VDMPostProc, %function
VP6DEC_VDMPostProc:
	.fnstart
.LFB1950:
	@ args = 0, pretend = 0, frame = 0
	@ frame_needed = 0, uses_anonymous_args = 0
	stmfd	sp!, {r4, r5, r6, r7, r8, sl, lr}	@,
	.save {r4, r5, r6, r7, r8, sl, lr}
	mov	r4, r0	@ pCtx, pCtx
	.pad #12
	sub	sp, sp, #12	@,,
	mov	r6, r1	@ ErrRatio, ErrRatio
	bl	vfmw_dprint_nothing	@
	mov	r0, #10	@,
	mov	r1, r4	@, pCtx
	movw	r5, #13000	@ tmp145,
	bl	ReleasePacket	@
	movw	r3, #12312	@ tmp147,
	ldr	r1, [r4, r3]	@, <variable>.Vp6CodecInfo.CurFsID
	ldr	r0, [r4, r5]	@, <variable>.ChanID
	bl	FSP_GetFsImagePtr	@
	cmp	r0, #0	@ pCurImg
	beq	.L247	@,
	cmp	r6, #0	@ ErrRatio,
	blt	.L235	@,
	cmp	r6, #100	@ ErrRatio,
	movge	r6, #100	@ iftmp.571,
	str	r6, [r0, #180]	@ iftmp.571, <variable>.error_level
	ldr	r1, [r4, #0]	@ <variable>.pstExtraData, <variable>.pstExtraData
	ldr	r0, [r1, #0]	@ <variable>.s32RefErrThr, <variable>.s32RefErrThr
	cmp	r6, r0	@ iftmp.571, <variable>.s32RefErrThr
	bhi	.L250	@,
.L236:
	mov	r0, r4	@, pCtx
	mov	r8, #1	@ tmp170,
	bl	VP6_SetImgFormat	@
	movw	r3, #12292	@ tmp171,
	ldr	r6, [r4, r3]	@ <variable>.Vp6CodecInfo.UsedDecMode, <variable>.Vp6CodecInfo.UsedDecMode
	movw	ip, #12296	@ tmp169,
	str	r8, [r4, ip]	@ tmp170, <variable>.Vp6CodecInfo.RefNum
	cmp	r6, #2	@ <variable>.Vp6CodecInfo.UsedDecMode,
	beq	.L251	@,
.L237:
	movw	ip, #12312	@ tmp182,
	movw	r8, #12324	@ tmp183,
	ldr	r1, [r4, ip]	@ prephitmp.2576, <variable>.Vp6CodecInfo.CurFsID
	str	r1, [r4, r8]	@ prephitmp.2576, <variable>.Vp6CodecInfo.ToQueFsID
.L238:
	cmn	r1, #1	@ prephitmp.2576,
	beq	.L239	@,
	movw	r5, #13000	@ tmp184,
	mov	r2, #1	@,
	ldr	r0, [r4, r5]	@, <variable>.ChanID
	movw	r7, #12324	@ tmp188,
	bl	FSP_SetDisplay	@
	ldr	r0, [r4, r5]	@, <variable>.ChanID
	ldr	r1, [r4, r7]	@, <variable>.Vp6CodecInfo.ToQueFsID
	bl	FSP_GetFsImagePtr	@
	subs	r6, r0, #0	@ pToQueImg,
	beq	.L247	@,
	add	r3, r4, #12608	@, pCtx,
	ldr	r0, [r4, r5]	@ <variable>.ChanID, <variable>.ChanID
	add	r3, r3, #40	@,,
	mov	r1, #10	@,
	mov	r2, r4	@, pCtx
	str	r6, [sp, #0]	@ pToQueImg,
	bl	InsertImgToVoQueue	@
	cmp	r0, #1	@ ret,
	mov	r8, r0	@ ret,
	bne	.L252	@,
.L239:
	movw	r6, #12320	@ tmp206,
	movw	r0, #12316	@ tmp207,
	ldr	lr, [r4, r0]	@ <variable>.Vp6CodecInfo.GoldenFsID, <variable>.Vp6CodecInfo.GoldenFsID
	ldr	r1, [r4, r6]	@ prephitmp.2592, <variable>.Vp6CodecInfo.FwdFsID
	cmp	r1, lr	@ prephitmp.2592, <variable>.Vp6CodecInfo.GoldenFsID
	beq	.L241	@,
	movw	r5, #12312	@ tmp209,
	ldr	r2, [r4, r5]	@ <variable>.Vp6CodecInfo.CurFsID, <variable>.Vp6CodecInfo.CurFsID
	cmp	r1, r2	@ prephitmp.2592, <variable>.Vp6CodecInfo.CurFsID
	beq	.L242	@,
	movw	r8, #13000	@ tmp211,
	mov	r2, #0	@,
	ldr	r0, [r4, r8]	@, <variable>.ChanID
	bl	FSP_SetRef	@
	ldr	r1, [r4, r5]	@ prephitmp.2592, <variable>.Vp6CodecInfo.CurFsID
.L242:
	movw	r2, #12320	@ tmp223,
	movw	lr, #13000	@ tmp224,
	str	r1, [r4, r2]	@ prephitmp.2592, <variable>.Vp6CodecInfo.FwdFsID
	mov	r2, #1	@,
	ldr	r0, [r4, lr]	@, <variable>.ChanID
	bl	FSP_SetRef	@
	movw	r0, #12304	@ tmp226,
	ldrb	r1, [r4, r0]	@ zero_extendqisi2	@ <variable>.Vp6CodecInfo.FrameType, <variable>.Vp6CodecInfo.FrameType
	cmp	r1, #0	@ <variable>.Vp6CodecInfo.FrameType,
	bne	.L253	@,
	movw	r5, #12312	@ tmp231,
	movw	r0, #12316	@ tmp230,
	ldr	r1, [r4, r0]	@ prephitmp.2608, <variable>.Vp6CodecInfo.GoldenFsID
	ldr	r3, [r4, r5]	@ <variable>.Vp6CodecInfo.CurFsID, <variable>.Vp6CodecInfo.CurFsID
	cmp	r1, r3	@ prephitmp.2608, <variable>.Vp6CodecInfo.CurFsID
	beq	.L245	@,
.L254:
	movw	lr, #13000	@ tmp233,
	mov	r2, #0	@,
	ldr	r0, [r4, lr]	@, <variable>.ChanID
	bl	FSP_SetRef	@
	ldr	r1, [r4, r5]	@ prephitmp.2608, <variable>.Vp6CodecInfo.CurFsID
.L245:
	movw	r2, #13000	@ tmp237,
	movw	r8, #12316	@ tmp236,
	ldr	r0, [r4, r2]	@, <variable>.ChanID
	mov	r2, #1	@,
	str	r1, [r4, r8]	@ prephitmp.2608, <variable>.Vp6CodecInfo.GoldenFsID
	bl	FSP_SetRef	@
.L248:
	mov	r8, #1	@ ret,
.L234:
	mov	r0, r8	@, ret
	add	sp, sp, #12	@,,
	ldmfd	sp!, {r4, r5, r6, r7, r8, sl, pc}
.L253:
	movw	ip, #12308	@ tmp228,
	ldr	r8, [r4, ip]	@ <variable>.Vp6CodecInfo.RefreshGoldenFrame, <variable>.Vp6CodecInfo.RefreshGoldenFrame
	cmp	r8, #0	@ <variable>.Vp6CodecInfo.RefreshGoldenFrame,
	beq	.L248	@,
	movw	r5, #12312	@ tmp231,
	movw	r0, #12316	@ tmp230,
	ldr	r1, [r4, r0]	@ prephitmp.2608, <variable>.Vp6CodecInfo.GoldenFsID
	ldr	r3, [r4, r5]	@ <variable>.Vp6CodecInfo.CurFsID, <variable>.Vp6CodecInfo.CurFsID
	cmp	r1, r3	@ prephitmp.2608, <variable>.Vp6CodecInfo.CurFsID
	bne	.L254	@,
	b	.L245	@
.L235:
	mov	r6, #0	@ tmp240,
	str	r6, [r0, #180]	@ tmp240, <variable>.error_level
	b	.L236	@
.L251:
	movw	r0, #12304	@ tmp173,
	ldrb	lr, [r4, r0]	@ zero_extendqisi2	@ <variable>.Vp6CodecInfo.FrameType, <variable>.Vp6CodecInfo.FrameType
	cmp	lr, #0	@ <variable>.Vp6CodecInfo.FrameType,
	beq	.L237	@,
	movw	r5, #12324	@ tmp175,
	movw	r1, #13000	@ tmp177,
	movw	r6, #12312	@ tmp179,
	ldr	r0, [r4, r1]	@, <variable>.ChanID
	mvn	r2, #0	@ tmp176,
	ldr	r1, [r4, r6]	@, <variable>.Vp6CodecInfo.CurFsID
	str	r2, [r4, r5]	@ tmp176, <variable>.Vp6CodecInfo.ToQueFsID
	mov	r2, #0	@,
	bl	FSP_SetDisplay	@
	ldr	r1, [r4, r5]	@ prephitmp.2576, <variable>.Vp6CodecInfo.ToQueFsID
	b	.L238	@
.L252:
	ldr	r0, [r4, r5]	@, <variable>.ChanID
	mov	sl, #0	@ tmp197,
	ldr	r1, [r6, #192]	@, <variable>.p_usrdat
	bl	FreeUsdByDec	@
	str	sl, [r6, #192]	@ tmp197, <variable>.p_usrdat
	ldr	r1, [r6, #196]	@, <variable>.p_usrdat
	ldr	r0, [r4, r5]	@, <variable>.ChanID
	bl	FreeUsdByDec	@
	str	sl, [r6, #196]	@ tmp197, <variable>.p_usrdat
	mov	r2, sl	@, tmp197
	ldr	r1, [r4, r7]	@, <variable>.Vp6CodecInfo.ToQueFsID
	ldr	r0, [r4, r5]	@, <variable>.ChanID
	bl	FSP_SetDisplay	@
	bl	vfmw_dprint_nothing	@
	b	.L234	@
.L241:
	movw	r7, #13000	@ tmp214,
	ldr	r0, [r4, r7]	@, <variable>.ChanID
	bl	FSP_GetRef	@
	subs	r2, r0, #0	@ D.39802,
	movwne	ip, #12312	@ tmp216,
	ldrne	r1, [r4, ip]	@ prephitmp.2592, <variable>.Vp6CodecInfo.CurFsID
	bne	.L242	@
.L243:
	movw	r5, #12312	@ tmp218,
	ldr	r1, [r4, r6]	@ prephitmp.2592, <variable>.Vp6CodecInfo.FwdFsID
	ldr	r3, [r4, r5]	@ <variable>.Vp6CodecInfo.CurFsID, <variable>.Vp6CodecInfo.CurFsID
	cmp	r1, r3	@ prephitmp.2592, <variable>.Vp6CodecInfo.CurFsID
	beq	.L242	@,
	ldr	r0, [r4, r7]	@, <variable>.ChanID
	bl	FSP_SetRef	@
	ldr	r1, [r4, r5]	@ prephitmp.2592, <variable>.Vp6CodecInfo.CurFsID
	b	.L242	@
.L250:
	movw	r7, #12316	@ tmp153,
	bl	vfmw_dprint_nothing	@
	movw	r6, #12320	@ tmp157,
	ldr	r0, [r4, r5]	@, <variable>.ChanID
	ldr	r1, [r4, r7]	@, <variable>.Vp6CodecInfo.GoldenFsID
	mov	r2, #1	@,
	bl	FSP_ClearLogicFs	@
	ldr	r0, [r4, r5]	@, <variable>.ChanID
	mov	r2, #1	@,
	ldr	r1, [r4, r6]	@, <variable>.Vp6CodecInfo.FwdFsID
	bl	FSP_ClearLogicFs	@
	ldr	r0, [r4, r5]	@, <variable>.ChanID
	mov	r5, #0	@ tmp160,
	str	r5, [r4, r7]	@ tmp160, <variable>.Vp6CodecInfo.GoldenFsID
	str	r5, [r4, r6]	@ tmp160, <variable>.Vp6CodecInfo.FwdFsID
	mvn	r8, #0	@ ret,
	bl	FSP_GetNullLogicFs	@
	movw	r2, #12296	@ tmp167,
	str	r5, [r4, r2]	@ tmp160, <variable>.Vp6CodecInfo.RefNum
	str	r0, [r4, r7]	@ D.39778, <variable>.Vp6CodecInfo.GoldenFsID
	str	r0, [r4, r6]	@ D.39778, <variable>.Vp6CodecInfo.FwdFsID
	b	.L234	@
.L247:
	bl	vfmw_dprint_nothing	@
	mvn	r8, #0	@ ret,
	b	.L234	@
	.fnend
	.size	VP6DEC_VDMPostProc, .-VP6DEC_VDMPostProc
	.align	2
	.global	VP6_CfgTable
	.type	VP6_CfgTable, %function
VP6_CfgTable:
	.fnstart
.LFB1944:
	@ args = 0, pretend = 0, frame = 40
	@ frame_needed = 0, uses_anonymous_args = 0
	stmfd	sp!, {r4, r5, r6, r7, r8, r9, sl, fp, lr}	@,
	.save {r4, r5, r6, r7, r8, r9, sl, fp, lr}
	movw	r8, #:lower16:__stack_chk_guard	@,
	movt	r8, #:upper16:__stack_chk_guard	@,
	.pad #44
	sub	sp, sp, #44	@,,
	mov	r4, r0	@ pVp6CodecInfo, pVp6CodecInfo
	add	r7, sp, #20	@ tmp804,,
	ldr	r0, [r8, #0]	@ __stack_chk_guard, __stack_chk_guard
	add	lr, r7, #4	@ tmp809, tmp804,
	add	r6, r4, #2240	@ tmp163, pVp6CodecInfo,
	str	r8, [sp, #8]	@, %sfp
	str	r1, [sp, #12]	@ pPictureHeader, %sfp
	mov	r8, #0	@ tmp159,
	str	r0, [sp, #36]	@ __stack_chk_guard, D.42328
	add	r1, r4, #4	@, pVp6CodecInfo,
	str	r8, [lr], #4	@ tmp159, _ptr_msg_bank
	mov	r2, #10	@,
	str	r8, [lr], #4	@ tmp159, _ptr_msg_bank
	add	r0, r6, #2	@, tmp163,
	str	r8, [lr, #0]	@ tmp159, _ptr_msg_bank
	add	fp, r4, #2304	@ tmp180, pVp6CodecInfo,
	str	r8, [sp, #20]	@ tmp159, _ptr_msg_bank
	bl	memcpy	@
	add	r1, r4, #14	@, pVp6CodecInfo,
	mov	r2, #10	@,
	add	r0, r6, #18	@, tmp163,
	add	r5, fp, #162	@ tmp807, tmp180,
	bl	memcpy	@
	add	r0, r6, #34	@, tmp163,
	add	r1, r4, #24	@, pVp6CodecInfo,
	mov	r2, #10	@,
	bl	memcpy	@
	add	r1, r4, #44	@, pVp6CodecInfo,
	mov	r2, #9	@,
	add	r0, fp, #2	@, tmp180,
	bl	memcpy	@
	add	r1, r4, #53	@, pVp6CodecInfo,
	mov	r2, #9	@,
	add	r0, fp, #18	@, tmp180,
	bl	memcpy	@
	add	r1, r4, #62	@, pVp6CodecInfo,
	mov	r2, #9	@,
	add	r0, fp, #34	@, tmp180,
	bl	memcpy	@
	add	r1, r4, #71	@, pVp6CodecInfo,
	mov	r2, #9	@,
	add	r0, fp, #50	@, tmp180,
	bl	memcpy	@
	add	r1, r4, #80	@, pVp6CodecInfo,
	mov	r2, #9	@,
	add	r0, fp, #66	@, tmp180,
	bl	memcpy	@
	add	r1, r4, #89	@, pVp6CodecInfo,
	mov	r2, #9	@,
	add	r0, fp, #82	@, tmp180,
	bl	memcpy	@
	add	r1, r4, #98	@, pVp6CodecInfo,
	mov	r2, #9	@,
	add	r0, fp, #98	@, tmp180,
	bl	memcpy	@
	add	r1, r4, #107	@, pVp6CodecInfo,
	mov	r2, #9	@,
	add	r0, fp, #114	@, tmp180,
	add	sl, r4, #134	@ tmp808, pVp6CodecInfo,
	bl	memcpy	@
	add	r1, r4, #116	@, pVp6CodecInfo,
	mov	r2, #9	@,
	add	r0, fp, #130	@, tmp180,
	add	r9, r4, #224	@ ivtmp.2759, pVp6CodecInfo,
	bl	memcpy	@
	add	r1, r4, #125	@, pVp6CodecInfo,
	mov	r2, #9	@,
	add	r0, fp, #146	@, tmp180,
	bl	memcpy	@
	mov	r1, sl	@, tmp808
	mov	r2, #9	@,
	mov	r0, r5	@, tmp807
	bl	memcpy	@
	add	r1, r4, #143	@, pVp6CodecInfo,
	mov	r2, #9	@,
	add	r0, fp, #178	@, tmp180,
	bl	memcpy	@
	add	r1, r4, #152	@, pVp6CodecInfo,
	mov	r2, #9	@,
	add	r0, fp, #194	@, tmp180,
	bl	memcpy	@
	add	r1, r4, #161	@, pVp6CodecInfo,
	mov	r2, #9	@,
	add	r0, fp, #210	@, tmp180,
	bl	memcpy	@
	add	r1, r4, #170	@, pVp6CodecInfo,
	mov	r2, #9	@,
	add	r0, fp, #226	@, tmp180,
	bl	memcpy	@
	add	r0, fp, #242	@, tmp180,
	add	r1, r4, #179	@, pVp6CodecInfo,
	mov	r2, #9	@,
	bl	memcpy	@
	add	r1, r4, #188	@, pVp6CodecInfo,
	mov	r2, #9	@,
	add	r0, r5, #96	@, tmp807,
	bl	memcpy	@
	add	r1, r4, #197	@, pVp6CodecInfo,
	mov	r2, #9	@,
	add	r0, r5, #112	@, tmp807,
	bl	memcpy	@
	add	r1, r4, #206	@, pVp6CodecInfo,
	mov	r2, #9	@,
	add	r0, r5, #128	@, tmp807,
	bl	memcpy	@
	add	r1, r4, #215	@, pVp6CodecInfo,
	mov	r2, #9	@,
	add	r0, r5, #144	@, tmp807,
	bl	memcpy	@
	mov	r1, r9	@, ivtmp.2759
	mov	r2, #9	@,
	add	r0, r5, #160	@, tmp807,
	bl	memcpy	@
	add	r1, r4, #233	@, pVp6CodecInfo,
	mov	r2, #9	@,
	add	r0, r5, #176	@, tmp807,
	bl	memcpy	@
	add	r1, r4, #242	@, pVp6CodecInfo,
	mov	r2, #9	@,
	add	r0, r5, #192	@, tmp807,
	bl	memcpy	@
	add	r1, r4, #251	@, pVp6CodecInfo,
	mov	r2, #9	@,
	add	r0, r5, #208	@, tmp807,
	bl	memcpy	@
	add	r1, r4, #260	@, pVp6CodecInfo,
	mov	r2, #9	@,
	add	r0, r5, #224	@, tmp807,
	bl	memcpy	@
	add	r1, r9, #45	@, ivtmp.2759,
	mov	r2, #9	@,
	add	r0, r5, #240	@, tmp807,
	bl	memcpy	@
	add	r1, r9, #54	@, ivtmp.2759,
	mov	r2, #9	@,
	add	r0, r5, #256	@, tmp807,
	bl	memcpy	@
	add	r1, r9, #63	@, ivtmp.2759,
	mov	r2, #9	@,
	add	r0, r5, #272	@, tmp807,
	bl	memcpy	@
	add	r6, sl, #180	@ ivtmp.2759, tmp808,
	add	r1, r4, #296	@, pVp6CodecInfo,
	mov	r2, #9	@,
	add	r0, r5, #288	@, tmp807,
	add	ip, r4, #2944	@, pVp6CodecInfo,
	str	ip, [sp, #4]	@, %sfp
	bl	memcpy	@
	add	r1, r9, #81	@, ivtmp.2759,
	mov	r2, #9	@,
	add	r0, r5, #304	@, tmp807,
	bl	memcpy	@
	mov	r1, r6	@, ivtmp.2759
	mov	r2, #9	@,
	add	r0, r5, #320	@, tmp807,
	bl	memcpy	@
	add	r1, sl, #189	@, tmp808,
	mov	r2, #9	@,
	add	r0, r5, #336	@, tmp807,
	bl	memcpy	@
	add	r1, r4, #332	@, pVp6CodecInfo,
	mov	r2, #9	@,
	add	r0, r5, #352	@, tmp807,
	bl	memcpy	@
	add	r1, sl, #207	@, tmp808,
	mov	r2, #9	@,
	add	r0, r5, #368	@, tmp807,
	bl	memcpy	@
	add	r1, sl, #216	@, tmp808,
	mov	r2, #9	@,
	add	r0, r5, #384	@, tmp807,
	bl	memcpy	@
	add	r1, sl, #225	@, tmp808,
	mov	r2, #9	@,
	add	r0, r5, #400	@, tmp807,
	bl	memcpy	@
	add	r1, r4, #368	@, pVp6CodecInfo,
	mov	r2, #9	@,
	add	r0, r5, #416	@, tmp807,
	bl	memcpy	@
	add	r1, sl, #243	@, tmp808,
	mov	r2, #9	@,
	add	r0, r5, #432	@, tmp807,
	bl	memcpy	@
	add	r1, sl, #252	@, tmp808,
	mov	r2, #9	@,
	add	r0, r5, #448	@, tmp807,
	bl	memcpy	@
	add	r1, r6, #81	@, ivtmp.2759,
	mov	r2, #9	@,
	add	r0, r5, #464	@, tmp807,
	bl	memcpy	@
	mov	r0, r7	@, tmp804
	mov	r1, #16	@,
	bl	__memzero	@
	ldrb	r3, [r4, #489]	@ zero_extendqisi2	@, <variable>.MvShortProbs
	ldrb	r9, [r4, #487]	@ zero_extendqisi2	@ <variable>.MvShortProbs, <variable>.MvShortProbs
	mov	r2, #16	@,
	ldr	fp, [sp, #4]	@, %sfp
	mov	r1, r7	@, tmp804
	ldrb	lr, [r4, #484]	@ zero_extendqisi2	@ <variable>.MvShortProbs, <variable>.MvShortProbs
	ldrb	ip, [r4, #485]	@ zero_extendqisi2	@ <variable>.MvShortProbs, <variable>.MvShortProbs
	add	r0, fp, #2	@,,
	ldrb	r6, [r4, #0]	@ zero_extendqisi2	@ <variable>.MvSignProbs, <variable>.MvSignProbs
	ldrb	r5, [r4, #2]	@ zero_extendqisi2	@ <variable>.IsMvShortProb, <variable>.IsMvShortProb
	ldrb	sl, [r4, #486]	@ zero_extendqisi2	@ <variable>.MvShortProbs, <variable>.MvShortProbs
	ldrb	fp, [r4, #488]	@ zero_extendqisi2	@ <variable>.MvShortProbs, <variable>.MvShortProbs
	str	r3, [sp, #0]	@, %sfp
	ldrb	r3, [r4, #490]	@ zero_extendqisi2	@ <variable>.MvShortProbs, <variable>.MvShortProbs
	strb	r9, [sp, #25]	@ <variable>.MvShortProbs, _ptr_msg_bank
	ldr	r9, [sp, #0]	@, %sfp
	strb	lr, [sp, #22]	@ <variable>.MvShortProbs, _ptr_msg_bank
	strb	ip, [sp, #23]	@ <variable>.MvShortProbs, _ptr_msg_bank
	strb	r3, [sp, #28]	@ <variable>.MvShortProbs, _ptr_msg_bank
	strb	r6, [sp, #20]	@ <variable>.MvSignProbs, _ptr_msg_bank
	strb	r5, [sp, #21]	@ <variable>.IsMvShortProb, _ptr_msg_bank
	strb	sl, [sp, #24]	@ <variable>.MvShortProbs, _ptr_msg_bank
	strb	fp, [sp, #26]	@, _ptr_msg_bank
	strb	r9, [sp, #27]	@, _ptr_msg_bank
	bl	memcpy	@
	mov	r0, r7	@, tmp804
	mov	r1, #16	@,
	bl	__memzero	@
	ldrb	r3, [r4, #504]	@ zero_extendqisi2	@, <variable>.MvSizeProbs
	ldrb	r9, [r4, #502]	@ zero_extendqisi2	@ <variable>.MvSizeProbs, <variable>.MvSizeProbs
	mov	r2, #16	@,
	ldr	fp, [sp, #4]	@, %sfp
	mov	r1, r7	@, tmp804
	ldrb	lr, [r4, #499]	@ zero_extendqisi2	@ <variable>.MvSizeProbs, <variable>.MvSizeProbs
	ldrb	ip, [r4, #500]	@ zero_extendqisi2	@ <variable>.MvSizeProbs, <variable>.MvSizeProbs
	add	r0, fp, #18	@,,
	ldrb	r6, [r4, #0]	@ zero_extendqisi2	@ <variable>.MvSignProbs, <variable>.MvSignProbs
	ldrb	r5, [r4, #498]	@ zero_extendqisi2	@ <variable>.MvSizeProbs, <variable>.MvSizeProbs
	ldrb	sl, [r4, #501]	@ zero_extendqisi2	@ <variable>.MvSizeProbs, <variable>.MvSizeProbs
	ldrb	fp, [r4, #503]	@ zero_extendqisi2	@ <variable>.MvSizeProbs, <variable>.MvSizeProbs
	str	r3, [sp, #0]	@, %sfp
	ldrb	r3, [r4, #505]	@ zero_extendqisi2	@ <variable>.MvSizeProbs, <variable>.MvSizeProbs
	strb	r9, [sp, #25]	@ <variable>.MvSizeProbs, _ptr_msg_bank
	ldr	r9, [sp, #0]	@, %sfp
	strb	lr, [sp, #22]	@ <variable>.MvSizeProbs, _ptr_msg_bank
	strb	ip, [sp, #23]	@ <variable>.MvSizeProbs, _ptr_msg_bank
	strb	r3, [sp, #28]	@ <variable>.MvSizeProbs, _ptr_msg_bank
	strb	r6, [sp, #20]	@ <variable>.MvSignProbs, _ptr_msg_bank
	strb	r5, [sp, #21]	@ <variable>.MvSizeProbs, _ptr_msg_bank
	strb	sl, [sp, #24]	@ <variable>.MvSizeProbs, _ptr_msg_bank
	strb	fp, [sp, #26]	@, _ptr_msg_bank
	strb	r9, [sp, #27]	@, _ptr_msg_bank
	strb	r8, [sp, #29]	@ tmp159, _ptr_msg_bank
	strb	r8, [sp, #30]	@ tmp159, _ptr_msg_bank
	bl	memcpy	@
	mov	r0, r7	@, tmp804
	mov	r1, #16	@,
	bl	__memzero	@
	ldrb	r3, [r4, #496]	@ zero_extendqisi2	@, <variable>.MvShortProbs
	ldrb	r9, [r4, #494]	@ zero_extendqisi2	@ <variable>.MvShortProbs, <variable>.MvShortProbs
	mov	r2, #16	@,
	ldr	fp, [sp, #4]	@, %sfp
	mov	r1, r7	@, tmp804
	ldrb	lr, [r4, #491]	@ zero_extendqisi2	@ <variable>.MvShortProbs, <variable>.MvShortProbs
	ldrb	ip, [r4, #492]	@ zero_extendqisi2	@ <variable>.MvShortProbs, <variable>.MvShortProbs
	add	r0, fp, #34	@,,
	ldrb	r6, [r4, #1]	@ zero_extendqisi2	@ <variable>.MvSignProbs, <variable>.MvSignProbs
	ldrb	r5, [r4, #3]	@ zero_extendqisi2	@ <variable>.IsMvShortProb, <variable>.IsMvShortProb
	ldrb	sl, [r4, #493]	@ zero_extendqisi2	@ <variable>.MvShortProbs, <variable>.MvShortProbs
	ldrb	fp, [r4, #495]	@ zero_extendqisi2	@ <variable>.MvShortProbs, <variable>.MvShortProbs
	str	r3, [sp, #0]	@, %sfp
	ldrb	r3, [r4, #497]	@ zero_extendqisi2	@ <variable>.MvShortProbs, <variable>.MvShortProbs
	strb	r9, [sp, #25]	@ <variable>.MvShortProbs, _ptr_msg_bank
	ldr	r9, [sp, #0]	@, %sfp
	strb	lr, [sp, #22]	@ <variable>.MvShortProbs, _ptr_msg_bank
	strb	ip, [sp, #23]	@ <variable>.MvShortProbs, _ptr_msg_bank
	strb	r3, [sp, #28]	@ <variable>.MvShortProbs, _ptr_msg_bank
	strb	r6, [sp, #20]	@ <variable>.MvSignProbs, _ptr_msg_bank
	strb	r5, [sp, #21]	@ <variable>.IsMvShortProb, _ptr_msg_bank
	strb	sl, [sp, #24]	@ <variable>.MvShortProbs, _ptr_msg_bank
	strb	fp, [sp, #26]	@, _ptr_msg_bank
	strb	r9, [sp, #27]	@, _ptr_msg_bank
	bl	memcpy	@
	mov	r0, r7	@, tmp804
	mov	r1, #16	@,
	bl	__memzero	@
	ldr	r1, [sp, #4]	@, %sfp
	ldrb	r3, [r4, #513]	@ zero_extendqisi2	@ <variable>.MvSizeProbs, <variable>.MvSizeProbs
	mov	r2, #16	@,
	ldrb	sl, [r4, #1]	@ zero_extendqisi2	@ <variable>.MvSignProbs, <variable>.MvSignProbs
	add	r0, r1, #50	@,,
	ldrb	r9, [r4, #506]	@ zero_extendqisi2	@ <variable>.MvSizeProbs, <variable>.MvSizeProbs
	mov	r1, r7	@, tmp804
	ldrb	fp, [r4, #507]	@ zero_extendqisi2	@ <variable>.MvSizeProbs, <variable>.MvSizeProbs
	ldrb	r7, [r4, #508]	@ zero_extendqisi2	@ <variable>.MvSizeProbs, <variable>.MvSizeProbs
	ldrb	r6, [r4, #509]	@ zero_extendqisi2	@ <variable>.MvSizeProbs, <variable>.MvSizeProbs
	ldrb	r5, [r4, #510]	@ zero_extendqisi2	@ <variable>.MvSizeProbs, <variable>.MvSizeProbs
	ldrb	lr, [r4, #511]	@ zero_extendqisi2	@ <variable>.MvSizeProbs, <variable>.MvSizeProbs
	ldrb	ip, [r4, #512]	@ zero_extendqisi2	@ <variable>.MvSizeProbs, <variable>.MvSizeProbs
	strb	r3, [sp, #28]	@ <variable>.MvSizeProbs, _ptr_msg_bank
	strb	sl, [sp, #20]	@ <variable>.MvSignProbs, _ptr_msg_bank
	strb	r9, [sp, #21]	@ <variable>.MvSizeProbs, _ptr_msg_bank
	strb	fp, [sp, #22]	@, _ptr_msg_bank
	strb	r7, [sp, #23]	@ <variable>.MvSizeProbs, _ptr_msg_bank
	strb	r6, [sp, #24]	@ <variable>.MvSizeProbs, _ptr_msg_bank
	strb	r5, [sp, #25]	@ <variable>.MvSizeProbs, _ptr_msg_bank
	strb	lr, [sp, #26]	@ <variable>.MvSizeProbs, _ptr_msg_bank
	strb	ip, [sp, #27]	@ <variable>.MvSizeProbs, _ptr_msg_bank
	strb	r8, [sp, #30]	@ tmp159, _ptr_msg_bank
	strb	r8, [sp, #29]	@ tmp159, _ptr_msg_bank
	bl	memcpy	@
	ldr	r2, [sp, #12]	@, %sfp
	ldr	r3, [r2, #68]	@ <variable>.UseHuffman, <variable>.UseHuffman
	cmp	r3, r8	@ <variable>.UseHuffman,
	bne	.L257	@,
	add	r5, r4, #1152	@ D.39482, pVp6CodecInfo,
	add	r7, r4, #4096	@ tmp348, pVp6CodecInfo,
	add	r0, r7, #2	@, tmp348,
	mov	r2, #11	@,
	mov	r1, r5	@, D.39482
	add	sl, r4, #536	@ D.39490, pVp6CodecInfo,
	bl	memcpy	@
	add	r1, r5, #11	@, D.39482,
	add	r0, r7, #18	@, tmp348,
	mov	r2, #11	@,
	bl	memcpy	@
	add	r1, r5, #22	@, D.39482,
	add	r0, r7, #34	@, tmp348,
	mov	r2, #11	@,
	bl	memcpy	@
	add	r1, r5, #33	@, D.39482,
	add	r0, r7, #50	@, tmp348,
	mov	r2, #11	@,
	bl	memcpy	@
	add	r1, r5, #44	@, D.39482,
	add	r0, r7, #66	@, tmp348,
	mov	r2, #11	@,
	bl	memcpy	@
	add	r8, r4, #4736	@ tmp383, pVp6CodecInfo,
	add	r1, r5, #55	@, D.39482,
	add	r0, r7, #82	@, tmp348,
	mov	r2, #11	@,
	add	r7, r4, #4160	@ tmp394, pVp6CodecInfo,
	add	r5, r7, #34	@ D.39493, tmp394,
	add	r6, r4, #564	@ D.39503, pVp6CodecInfo,
	bl	memcpy	@
	mov	r1, sl	@, D.39490
	mov	r2, #14	@,
	add	r0, r8, #34	@, tmp383,
	bl	memcpy	@
	add	r1, sl, #14	@, D.39490,
	mov	r2, #14	@,
	add	r0, r8, #50	@, tmp383,
	bl	memcpy	@
	mov	r1, r6	@, D.39503
	mov	r2, #11	@,
	mov	r0, r5	@, D.39493
	bl	memcpy	@
	add	r1, r6, #66	@, D.39503,
	mov	r2, #11	@,
	add	r0, r7, #50	@, tmp394,
	bl	memcpy	@
	add	r1, r4, #696	@, pVp6CodecInfo,
	mov	r2, #11	@,
	add	r0, r7, #66	@, tmp394,
	bl	memcpy	@
	add	r1, r6, #11	@, D.39503,
	mov	r2, #11	@,
	add	r0, r7, #82	@, tmp394,
	bl	memcpy	@
	add	r1, r6, #77	@, D.39503,
	mov	r2, #11	@,
	add	r0, r7, #98	@, tmp394,
	bl	memcpy	@
	add	r1, r6, #143	@, D.39503,
	mov	r2, #11	@,
	add	r0, r7, #114	@, tmp394,
	bl	memcpy	@
	add	r1, r6, #22	@, D.39503,
	mov	r2, #11	@,
	add	r0, r7, #130	@, tmp394,
	bl	memcpy	@
	add	r1, r4, #652	@, pVp6CodecInfo,
	mov	r2, #11	@,
	add	r0, r7, #146	@, tmp394,
	bl	memcpy	@
	add	r1, r6, #154	@, D.39503,
	mov	r2, #11	@,
	add	r0, r7, #162	@, tmp394,
	bl	memcpy	@
	add	r1, r6, #33	@, D.39503,
	mov	r2, #11	@,
	add	r0, r7, #178	@, tmp394,
	bl	memcpy	@
	add	r1, r6, #99	@, D.39503,
	mov	r2, #11	@,
	add	r0, r7, #194	@, tmp394,
	bl	memcpy	@
	add	r1, r6, #165	@, D.39503,
	mov	r2, #11	@,
	add	r0, r7, #210	@, tmp394,
	bl	memcpy	@
	add	r1, r4, #608	@, pVp6CodecInfo,
	mov	r2, #11	@,
	add	r0, r7, #226	@, tmp394,
	bl	memcpy	@
	add	r1, r6, #110	@, D.39503,
	mov	r2, #11	@,
	add	r0, r7, #242	@, tmp394,
	bl	memcpy	@
	add	r1, r4, #740	@, pVp6CodecInfo,
	mov	r2, #11	@,
	add	r0, r5, #224	@, D.39493,
	bl	memcpy	@
	add	r1, r6, #55	@, D.39503,
	mov	r2, #11	@,
	add	r0, r5, #240	@, D.39493,
	bl	memcpy	@
	add	r1, r6, #121	@, D.39503,
	mov	r2, #11	@,
	add	r0, r5, #256	@, D.39493,
	bl	memcpy	@
	add	r1, r6, #187	@, D.39503,
	mov	r2, #11	@,
	add	r0, r5, #272	@, D.39493,
	bl	memcpy	@
	add	r1, r6, #198	@, D.39503,
	mov	r2, #11	@,
	add	r0, r5, #288	@, D.39493,
	bl	memcpy	@
	add	r1, r4, #828	@, pVp6CodecInfo,
	mov	r2, #11	@,
	add	r0, r5, #304	@, D.39493,
	bl	memcpy	@
	add	ip, r4, #892	@, pVp6CodecInfo,
	add	r1, ip, #2	@,,
	mov	r2, #11	@,
	add	r0, r5, #320	@, D.39493,
	bl	memcpy	@
	add	r1, r6, #209	@, D.39503,
	mov	r2, #11	@,
	add	r0, r5, #336	@, D.39493,
	bl	memcpy	@
	add	r3, r4, #836	@, pVp6CodecInfo,
	add	r1, r3, #3	@,,
	mov	r2, #11	@,
	add	r0, r5, #352	@, D.39493,
	bl	memcpy	@
	add	r1, r4, #904	@, pVp6CodecInfo,
	add	r1, r1, #1	@,,
	mov	r2, #11	@,
	add	r0, r5, #368	@, D.39493,
	bl	memcpy	@
	add	r1, r4, #784	@, pVp6CodecInfo,
	mov	r2, #11	@,
	add	r0, r5, #384	@, D.39493,
	bl	memcpy	@
	add	r2, r4, #848	@, pVp6CodecInfo,
	add	r1, r2, #2	@,,
	add	r0, r5, #400	@, D.39493,
	mov	r2, #11	@,
	bl	memcpy	@
	add	r1, r4, #916	@, pVp6CodecInfo,
	mov	r2, #11	@,
	add	r0, r5, #416	@, D.39493,
	bl	memcpy	@
	add	r1, r6, #231	@, D.39503,
	mov	r2, #11	@,
	add	r0, r5, #432	@, D.39493,
	bl	memcpy	@
	add	r0, r4, #860	@, pVp6CodecInfo,
	add	r1, r0, #1	@,,
	mov	r2, #11	@,
	add	r0, r5, #448	@, D.39493,
	bl	memcpy	@
	add	ip, r4, #924	@, pVp6CodecInfo,
	add	r1, ip, #3	@,,
	mov	r2, #11	@,
	add	r0, r5, #464	@, D.39493,
	bl	memcpy	@
	add	r1, r6, #242	@, D.39503,
	mov	r2, #11	@,
	add	r0, r5, #480	@, D.39493,
	bl	memcpy	@
	add	r1, r4, #872	@, pVp6CodecInfo,
	mov	r2, #11	@,
	add	r0, r5, #496	@, D.39493,
	bl	memcpy	@
	add	r3, r4, #936	@, pVp6CodecInfo,
	add	r1, r3, #2	@,,
	mov	r2, #11	@,
	add	r0, r5, #512	@, D.39493,
	bl	memcpy	@
	add	r1, r6, #253	@, D.39503,
	mov	r2, #11	@,
	add	r0, r5, #528	@, D.39493,
	bl	memcpy	@
	add	r1, r4, #880	@, pVp6CodecInfo,
	add	r1, r1, #3	@,,
	mov	r2, #11	@,
	add	r0, r5, #544	@, D.39493,
	bl	memcpy	@
	add	r2, r4, #948	@, pVp6CodecInfo,
	add	r1, r2, #1	@,,
	add	r0, r5, #560	@, D.39493,
	mov	r2, #11	@,
	bl	memcpy	@
.L258:
	add	lr, r4, #3008	@, pVp6CodecInfo,
	add	r1, r4, #960	@, pVp6CodecInfo,
	add	r0, lr, #2	@,,
	mov	r2, #64	@,
	bl	memcpy	@
	add	r0, r4, #3072	@, pVp6CodecInfo,
	mov	r2, #64	@,
	add	r0, r0, #2	@,,
	add	r1, r4, #1024	@, pVp6CodecInfo,
	bl	memcpy	@
	ldr	ip, [sp, #8]	@, %sfp
	ldr	r2, [sp, #36]	@ D.42328, D.42328
	mov	r0, #0	@,
	ldr	r3, [ip, #0]	@ __stack_chk_guard, __stack_chk_guard
	cmp	r2, r3	@ D.42328, __stack_chk_guard
	bne	.L265	@,
	add	sp, sp, #44	@,,
	ldmfd	sp!, {r4, r5, r6, r7, r8, r9, sl, fp, pc}
.L257:
	add	lr, r4, #9472	@, pVp6CodecInfo,
	add	r6, r4, #4800	@, pVp6CodecInfo,
	add	r1, lr, #28	@,,
	add	r7, r4, #9600	@ tmp635, pVp6CodecInfo,
	add	r8, r4, #4928	@ tmp634, pVp6CodecInfo,
	add	r0, r6, #2	@,,
	mov	r2, #128	@,
	add	r5, r8, #2	@ D.39459, tmp634,
	add	r6, r7, #28	@ D.39468, tmp635,
	bl	memcpy	@
	add	r3, r4, #6464	@, pVp6CodecInfo,
	add	r1, r4, #11904	@, pVp6CodecInfo,
	add	r0, r3, #2	@,,
	add	r1, r1, #28	@,,
	mov	r2, #128	@,
	bl	memcpy	@
	mov	r1, r6	@, D.39468
	mov	r2, #64	@,
	mov	r0, r5	@, D.39459
	bl	memcpy	@
	add	r1, r7, #92	@, tmp635,
	mov	r2, #64	@,
	add	r0, r8, #66	@, tmp634,
	bl	memcpy	@
	add	r1, r7, #156	@, tmp635,
	mov	r2, #64	@,
	add	r0, r8, #130	@, tmp634,
	bl	memcpy	@
	add	r1, r7, #220	@, tmp635,
	add	r0, r8, #194	@, tmp634,
	mov	r2, #64	@,
	bl	memcpy	@
	add	r1, r7, #412	@, tmp635,
	mov	r2, #64	@,
	add	r0, r5, #256	@, D.39459,
	bl	memcpy	@
	add	r1, r7, #476	@, tmp635,
	mov	r2, #64	@,
	add	r0, r5, #320	@, D.39459,
	bl	memcpy	@
	add	r1, r7, #540	@, tmp635,
	mov	r2, #64	@,
	add	r0, r5, #384	@, D.39459,
	bl	memcpy	@
	add	r1, r7, #604	@, tmp635,
	mov	r2, #64	@,
	add	r0, r5, #448	@, D.39459,
	bl	memcpy	@
	add	r1, r7, #796	@, tmp635,
	mov	r2, #64	@,
	add	r0, r5, #512	@, D.39459,
	bl	memcpy	@
	add	r1, r7, #860	@, tmp635,
	mov	r2, #64	@,
	add	r0, r5, #576	@, D.39459,
	bl	memcpy	@
	add	r1, r7, #924	@, tmp635,
	mov	r2, #64	@,
	add	r0, r5, #640	@, D.39459,
	bl	memcpy	@
	add	r1, r7, #988	@, tmp635,
	mov	r2, #64	@,
	add	r0, r5, #704	@, D.39459,
	bl	memcpy	@
	add	r1, r6, #1152	@, D.39468,
	mov	r2, #64	@,
	add	r0, r5, #768	@, D.39459,
	bl	memcpy	@
	add	r1, r6, #1216	@, D.39468,
	mov	r2, #64	@,
	add	r0, r5, #832	@, D.39459,
	bl	memcpy	@
	add	r1, r6, #1280	@, D.39468,
	mov	r2, #64	@,
	add	r0, r5, #896	@, D.39459,
	bl	memcpy	@
	add	r1, r6, #1344	@, D.39468,
	mov	r2, #64	@,
	add	r0, r5, #960	@, D.39459,
	bl	memcpy	@
	add	r1, r6, #1536	@, D.39468,
	mov	r2, #64	@,
	add	r0, r5, #1024	@, D.39459,
	bl	memcpy	@
	add	r1, r6, #1600	@, D.39468,
	mov	r2, #64	@,
	add	r0, r5, #1088	@, D.39459,
	bl	memcpy	@
	add	r1, r6, #1664	@, D.39468,
	mov	r2, #64	@,
	add	r0, r5, #1152	@, D.39459,
	bl	memcpy	@
	add	r1, r6, #1728	@, D.39468,
	mov	r2, #64	@,
	add	r0, r5, #1216	@, D.39459,
	bl	memcpy	@
	add	r1, r6, #1920	@, D.39468,
	mov	r2, #64	@,
	add	r0, r5, #1280	@, D.39459,
	bl	memcpy	@
	add	r1, r6, #1984	@, D.39468,
	mov	r2, #64	@,
	add	r0, r5, #1344	@, D.39459,
	bl	memcpy	@
	add	r1, r6, #2048	@, D.39468,
	mov	r2, #64	@,
	add	r0, r5, #1408	@, D.39459,
	bl	memcpy	@
	add	r1, r6, #2112	@, D.39468,
	add	r0, r5, #1472	@, D.39459,
	mov	r2, #64	@,
	bl	memcpy	@
	add	r2, r4, #1216	@, pVp6CodecInfo,
	add	r0, r4, #3136	@, pVp6CodecInfo,
	add	r1, r2, #2	@,,
	add	r0, r0, #2	@,,
	mov	r2, #960	@,
	bl	memcpy	@
	b	.L258	@
.L265:
	bl	__stack_chk_fail	@
	.fnend
	.size	VP6_CfgTable, .-VP6_CfgTable
	.align	2
	.global	VP6_Set_DecParam
	.type	VP6_Set_DecParam, %function
VP6_Set_DecParam:
	.fnstart
.LFB1943:
	@ args = 0, pretend = 0, frame = 8
	@ frame_needed = 0, uses_anonymous_args = 0
	movw	r3, #12304	@ tmp168,
	stmfd	sp!, {r4, r5, r6, r7, r8, r9, sl, fp, lr}	@,
	.save {r4, r5, r6, r7, r8, r9, sl, fp, lr}
	ldrb	r3, [r0, r3]	@ zero_extendqisi2	@ <variable>.Vp6CodecInfo.FrameType, <variable>.Vp6CodecInfo.FrameType
	.pad #12
	sub	sp, sp, #12	@,,
	mov	r4, r0	@ pCtx, pCtx
	cmp	r3, #3	@ <variable>.Vp6CodecInfo.FrameType,
	add	r5, r0, #8	@ pVp6DecParam, pCtx,
	ldr	r7, [r0, #208]	@ pVp6StreamParam, <variable>.pVp6StreamParam
	beq	.L292	@,
	mov	r0, r5	@, pVp6DecParam
	mov	r1, #200	@,
	bl	__memzero	@
	movw	r2, #12478	@ tmp202,
	ldrb	sl, [r4, r2]	@ zero_extendqisi2	@ <variable>.Vp6CodecInfo.NewHeaderInfo.MultiStream, <variable>.Vp6CodecInfo.NewHeaderInfo.MultiStream
	mov	r3, #12544	@ tmp204,
	movw	r1, #12532	@ tmp206,
	movw	r2, #12504	@ tmp227,
	ldr	r0, [r4, r3]	@, <variable>.Vp6CodecInfo.NewHeaderInfo.UseHuffman
	mov	ip, #12480	@ tmp208,
	ldr	r8, [r4, r1]	@, <variable>.Vp6CodecInfo.NewHeaderInfo.PredictionFilterMode
	movw	r1, #12500	@ tmp229,
	ldrh	r3, [r4, r2]	@, <variable>.Vp6CodecInfo.NewHeaderInfo.pic_width_in_mb
	movw	r2, #12482	@ tmp212,
	str	r0, [r4, #80]	@, <variable>.Vp6DecParam.UseHuffman
	movw	r0, #12481	@ tmp210,
	str	r8, [r4, #92]	@, <variable>.Vp6DecParam.PredictionFilterMode
	movw	r9, #12496	@ tmp196,
	ldrb	r8, [r4, ip]	@ zero_extendqisi2	@ <variable>.Vp6CodecInfo.NewHeaderInfo.PredictionFilterVarThresh, <variable>.Vp6CodecInfo.NewHeaderInfo.PredictionFilterVarThresh
	movw	r6, #12476	@ tmp200,
	ldrh	ip, [r4, r1]	@, <variable>.Vp6CodecInfo.NewHeaderInfo.pic_height_in_mb
	movw	r1, #12477	@ tmp216,
	strh	r3, [r4, #60]	@ movhi	@, <variable>.Vp6DecParam.PicWidthInMb
	movw	r3, #12540	@ tmp214,
	ldrb	lr, [r4, r0]	@ zero_extendqisi2	@ <variable>.Vp6CodecInfo.NewHeaderInfo.PredictionFilterMvSizeThresh, <variable>.Vp6CodecInfo.NewHeaderInfo.PredictionFilterMvSizeThresh
	ldr	r0, [r4, r3]	@, <variable>.Vp6CodecInfo.NewHeaderInfo.UseLoopFilter
	movw	r3, #12486	@ tmp221,
	strh	ip, [r4, #62]	@ movhi	@, <variable>.Vp6DecParam.PicHeightInMb
	ldrb	ip, [r4, r2]	@ zero_extendqisi2	@ <variable>.Vp6CodecInfo.NewHeaderInfo.PredictionFilterAlpha, <variable>.Vp6CodecInfo.NewHeaderInfo.PredictionFilterAlpha
	movw	r2, #12484	@ tmp219,
	str	r0, [r4, #116]	@, <variable>.Vp6DecParam.UseLoopFilter
	ldrb	r0, [r4, r1]	@ zero_extendqisi2	@ <variable>.Vp6CodecInfo.NewHeaderInfo.FLimit, <variable>.Vp6CodecInfo.NewHeaderInfo.FLimit
	ldrh	r1, [r4, r2]	@ <variable>.Vp6CodecInfo.NewHeaderInfo.DcQuant, <variable>.Vp6CodecInfo.NewHeaderInfo.DcQuant
	ldrh	r2, [r4, r3]	@ <variable>.Vp6CodecInfo.NewHeaderInfo.AcQuant, <variable>.Vp6CodecInfo.NewHeaderInfo.AcQuant
	movw	r3, #12492	@ tmp223,
	ldr	r3, [r4, r3]	@, <variable>.Vp6CodecInfo.NewHeaderInfo.VpProfile
	ldr	fp, [r4, r9]	@ <variable>.Vp6CodecInfo.NewHeaderInfo.FrameType, <variable>.Vp6CodecInfo.NewHeaderInfo.FrameType
	ldrb	r9, [r4, r6]	@ zero_extendqisi2	@ <variable>.Vp6CodecInfo.NewHeaderInfo.DctQMask, <variable>.Vp6CodecInfo.NewHeaderInfo.DctQMask
	movw	r6, #13000	@ tmp231,
	str	r3, [r4, #112]	@, <variable>.Vp6DecParam.VpProfile
	movw	r3, #12488	@ tmp225,
	ldr	r3, [r4, r3]	@ <variable>.Vp6CodecInfo.NewHeaderInfo.Vp3VersionNo, <variable>.Vp6CodecInfo.NewHeaderInfo.Vp3VersionNo
	str	r8, [r4, #96]	@ <variable>.Vp6CodecInfo.NewHeaderInfo.PredictionFilterVarThresh, <variable>.Vp6DecParam.PredictionFilterVarThresh
	movw	r8, #12312	@ tmp233,
	str	lr, [r4, #100]	@ <variable>.Vp6CodecInfo.NewHeaderInfo.PredictionFilterMvSizeThresh, <variable>.Vp6DecParam.PredictionFilterMvSizeThresh
	str	ip, [r4, #104]	@ <variable>.Vp6CodecInfo.NewHeaderInfo.PredictionFilterAlpha, <variable>.Vp6DecParam.PredictionFilterAlpha
	str	r2, [r4, #88]	@ <variable>.Vp6CodecInfo.NewHeaderInfo.AcQuant, <variable>.Vp6DecParam.AcQuant
	str	r3, [r4, #108]	@ <variable>.Vp6CodecInfo.NewHeaderInfo.Vp3VersionNo, <variable>.Vp6DecParam.Vp3VersionNo
	str	fp, [r4, #68]	@ <variable>.Vp6CodecInfo.NewHeaderInfo.FrameType, <variable>.Vp6DecParam.FrameType
	mov	fp, #0	@ tmp198,
	str	sl, [r4, #76]	@ <variable>.Vp6CodecInfo.NewHeaderInfo.MultiStream, <variable>.Vp6DecParam.MultiStream
	movw	sl, #12320	@ tmp237,
	strb	r0, [r4, #8]	@ <variable>.Vp6CodecInfo.NewHeaderInfo.FLimit, <variable>.Vp6DecParam.FLimit
	str	r1, [r4, #84]	@ <variable>.Vp6CodecInfo.NewHeaderInfo.DcQuant, <variable>.Vp6DecParam.DcQuant
	strb	fp, [r4, #9]	@, <variable>.Vp6DecParam.IsNvopCopy
	ldr	r1, [r4, r8]	@, <variable>.Vp6CodecInfo.CurFsID
	str	r9, [r4, #72]	@ <variable>.Vp6CodecInfo.NewHeaderInfo.DctQMask, <variable>.Vp6DecParam.DctQMask
	ldr	r0, [r4, r6]	@, <variable>.ChanID
	bl	FSP_GetLogicFs	@
	ldr	r1, [r4, sl]	@, <variable>.Vp6CodecInfo.FwdFsID
	mov	r8, r0	@ pCur.2952,
	ldr	r0, [r4, r6]	@, <variable>.ChanID
	bl	FSP_GetLogicFs	@
	movw	r3, #12316	@ tmp241,
	ldr	r1, [r4, r3]	@, <variable>.Vp6CodecInfo.GoldenFsID
	mov	sl, r0	@ pFwd.2955,
	ldr	r0, [r4, r6]	@, <variable>.ChanID
	bl	FSP_GetLogicFs	@
	cmp	r8, fp	@ pCur.2952,
	cmpne	sl, fp	@, pFwd.2955,
	beq	.L276	@,
	cmp	r0, fp	@ pGolden.2958,
	beq	.L276	@,
	ldr	r6, [r8, #408]	@ temp.2962, <variable>.pstDecodeFs
	cmp	r6, #0	@ temp.2962,
	beq	.L291	@,
	ldr	r9, [r6, #12]	@ <variable>.PhyAddr, <variable>.PhyAddr
	movw	lr, #12328	@ tmp255,
	movw	r1, #12556	@ tmp259,
	str	r9, [r4, #180]	@ <variable>.PhyAddr, <variable>.Vp6DecParam.image_curr_recon_addr
	ldr	r6, [r8, #420]	@ <variable>.PmvAddr, <variable>.PmvAddr
	ldr	r9, [r4, lr]	@ <variable>.Vp6CodecInfo.DDR_Stride, <variable>.Vp6CodecInfo.DDR_Stride
	str	r6, [r4, #192]	@ <variable>.PmvAddr, <variable>.Vp6DecParam.CurPmvAddr
	add	r6, r4, #12608	@ pBs, pCtx,
	ldr	r3, [r0, #408]	@ temp.2967, <variable>.pstDecodeFs
	movw	r0, #12552	@ tmp261,
	add	r6, r6, #12	@ pBs, pBs,
	cmp	r3, #0	@ temp.2967,
	ldreq	r3, [r8, #408]	@ <variable>.pstDecodeFs, <variable>.pstDecodeFs
	ldr	ip, [r3, #12]	@ iftmp.553, <variable>.PhyAddr
	movw	r3, #12560	@ tmp263,
	ldr	lr, [r4, r3]	@ <variable>.Vp6CodecInfo.NewHeaderInfo.br.count, <variable>.Vp6CodecInfo.NewHeaderInfo.br.count
	str	ip, [r4, #184]	@ iftmp.553, <variable>.Vp6DecParam.image_golden_ref_addr
	ldr	fp, [sl, #408]	@ temp.2971, <variable>.pstDecodeFs
	ldr	sl, [r4, r0]	@ <variable>.Vp6CodecInfo.NewHeaderInfo.br.range, <variable>.Vp6CodecInfo.NewHeaderInfo.br.range
	mov	r0, r6	@, pBs
	cmp	fp, #0	@ temp.2971,
	ldreq	fp, [r8, #408]	@ <variable>.pstDecodeFs, <variable>.pstDecodeFs
	ldr	r2, [fp, #12]	@ iftmp.554, <variable>.PhyAddr
	str	r9, [r4, #196]	@ <variable>.Vp6CodecInfo.DDR_Stride, <variable>.Vp6DecParam.VahbStride
	ldr	fp, [r4, r1]	@ <variable>.Vp6CodecInfo.NewHeaderInfo.br.value, <variable>.Vp6CodecInfo.NewHeaderInfo.br.value
	str	r2, [r4, #188]	@ iftmp.554, <variable>.Vp6DecParam.image_last_ref_addr
	ldr	ip, [r8, #408]	@ <variable>.pstDecodeFs, <variable>.pstDecodeFs
	ldr	r2, [ip, #32]	@ <variable>.ChromOffset, <variable>.ChromOffset
	str	lr, [r4, #176]	@ <variable>.Vp6CodecInfo.NewHeaderInfo.br.count, <variable>.Vp6DecParam.count
	str	fp, [r4, #168]	@ <variable>.Vp6CodecInfo.NewHeaderInfo.br.value, <variable>.Vp6DecParam.value
	str	r2, [r4, #200]	@ <variable>.ChromOffset, <variable>.Vp6DecParam.uv_offset
	str	sl, [r4, #172]	@ <variable>.Vp6CodecInfo.NewHeaderInfo.br.range, <variable>.Vp6DecParam.range
	movw	sl, #12478	@ tmp271,
	ldr	r9, [r7, #0]	@ D.39268, <variable>.VirAddr
	bl	BsPos	@
	cmp	r0, #0	@ D.39269,
	add	r1, r0, #7	@ tmp267, D.39269,
	movlt	r0, r1	@ D.39269, tmp267
	add	r8, r9, r0, asr #3	@, BaseAddrUnAligned, D.39268, D.39269,
	mov	r0, r8	@, BaseAddrUnAligned
	bl	MEM_Vir2Phy	@
	bic	ip, r0, #15	@ tmp269,,
	mov	r0, r8	@, BaseAddrUnAligned
	sub	fp, ip, #16	@ tmp270, tmp269,
	str	fp, [r4, #64]	@ tmp270, <variable>.Vp6DecParam.StreamBaseAddr
	bl	MEM_Vir2Phy	@
	ldrb	r8, [r4, sl]	@ zero_extendqisi2	@ <variable>.Vp6CodecInfo.NewHeaderInfo.MultiStream, <variable>.Vp6CodecInfo.NewHeaderInfo.MultiStream
	cmp	r8, #0	@ <variable>.Vp6CodecInfo.NewHeaderInfo.MultiStream,
	and	r0, r0, #15	@ ResideBytes,,
	bne	.L283	@,
	movw	r1, #12492	@ tmp273,
	ldr	sl, [r4, r1]	@ <variable>.Vp6CodecInfo.NewHeaderInfo.VpProfile, <variable>.Vp6CodecInfo.NewHeaderInfo.VpProfile
	cmp	sl, #0	@ <variable>.Vp6CodecInfo.NewHeaderInfo.VpProfile,
	bne	.L284	@,
.L283:
	movw	r8, #12528	@ tmp277,
	mov	ip, r0, asl #3	@ tmp276, ResideBytes,
	ldr	lr, [r4, r8]	@ <variable>.Vp6CodecInfo.NewHeaderInfo.Buff2Offset, <variable>.Vp6CodecInfo.NewHeaderInfo.Buff2Offset
	mov	r0, r6	@, pBs
	str	ip, [r4, #124]	@ tmp276, <variable>.Vp6DecParam.bit0_offset_0
	mov	fp, #16	@ tmp275,
	str	fp, [r4, #128]	@ tmp275, <variable>.Vp6DecParam.bit0_stream_addr_0
	mov	fp, #0	@ tmp280,
	mov	sl, lr, asl #3	@ D.39284, <variable>.Vp6CodecInfo.NewHeaderInfo.Buff2Offset,
	bl	BsPos	@
	ldr	r2, [r4, r8]	@ <variable>.Vp6CodecInfo.NewHeaderInfo.Buff2Offset, <variable>.Vp6CodecInfo.NewHeaderInfo.Buff2Offset
	str	fp, [r4, #140]	@ tmp280, <variable>.Vp6DecParam.bit0_stream_addr_1
	str	fp, [r4, #136]	@ tmp280, <variable>.Vp6DecParam.bit0_offset_1
	str	fp, [r4, #132]	@ tmp280, <variable>.Vp6DecParam.bit0_len_1
	rsb	r0, r0, sl	@ tmp279,, D.39284
	str	r0, [r4, #120]	@ tmp279, <variable>.Vp6DecParam.bit0_len_0
	ldr	r1, [r7, #0]	@ <variable>.VirAddr, <variable>.VirAddr
	add	r9, r1, r2	@ BaseAddrUnAligned.2982, <variable>.VirAddr, <variable>.Vp6CodecInfo.NewHeaderInfo.Buff2Offset
	mov	r0, r9	@, BaseAddrUnAligned.2982
	bl	MEM_Vir2Phy	@
	mov	r6, r0	@ D.39288,
	mov	r0, r9	@, BaseAddrUnAligned.2982
	bl	MEM_Vir2Phy	@
	and	sl, r6, #15	@ tmp289, D.39288,
	ldr	ip, [r4, #64]	@ <variable>.Vp6DecParam.StreamBaseAddr, <variable>.Vp6DecParam.StreamBaseAddr
	ldr	r3, [r4, r8]	@ <variable>.Vp6CodecInfo.NewHeaderInfo.Buff2Offset, <variable>.Vp6CodecInfo.NewHeaderInfo.Buff2Offset
	mov	r9, sl, asl #3	@ tmp290, tmp289,
	str	r9, [r4, #148]	@ tmp290, <variable>.Vp6DecParam.bit1_offset_0
	mov	r8, r3, asl #3	@ tmp294, <variable>.Vp6CodecInfo.NewHeaderInfo.Buff2Offset,
	bic	r6, r0, #15	@ tmp286,,
	rsb	r2, ip, r6	@ tmp288, <variable>.Vp6DecParam.StreamBaseAddr, tmp286
	str	r2, [r4, #152]	@ tmp288, <variable>.Vp6DecParam.bit1_stream_addr_0
	ldr	r0, [r7, #8]	@ <variable>.Length, <variable>.Length
	str	fp, [r4, #156]	@ tmp280, <variable>.Vp6DecParam.bit1_len_1
	str	fp, [r4, #164]	@ tmp280, <variable>.Vp6DecParam.bit1_stream_addr_1
	rsb	r7, r8, r0, asl #3	@, tmp296, tmp294, <variable>.Length,
	str	fp, [r4, #160]	@ tmp280, <variable>.Vp6DecParam.bit1_offset_1
	str	r7, [r4, #144]	@ tmp296, <variable>.Vp6DecParam.bit1_len_0
.L285:
	ldr	fp, [r4, #0]	@ <variable>.pstExtraData, <variable>.pstExtraData
	add	r3, r4, #4992	@, pCtx,
	add	ip, r4, #4416	@ tmp315, pCtx,
	str	r3, [sp, #4]	@, %sfp
	add	r0, r4, #3232	@ tmp325, pCtx,
	add	lr, r4, #2528	@ tmp327, pCtx,
	add	r1, r4, #2464	@ tmp329, pCtx,
	add	r2, r4, #3168	@ tmp331, pCtx,
	add	r9, r4, #5120	@ tmp313, pCtx,
	add	r8, r4, #4288	@ tmp319, pCtx,
	add	r7, r4, #3296	@ tmp321, pCtx,
	add	r6, r4, #3360	@ tmp323, pCtx,
	add	r3, r4, #6656	@ tmp333, pCtx,
	add	sl, ip, #2	@ tmp315, tmp315,
	add	r9, r9, #34	@ tmp313, tmp313,
	str	sl, [r4, #40]	@ tmp315, <variable>.Vp6DecParam.TblACProbs
	str	r9, [r4, #52]	@ tmp313, <variable>.Vp6DecParam.TblAcHuffLUT
	add	ip, r0, #2	@ tmp325, tmp325,
	add	sl, r3, #34	@ tmp333, tmp333,
	str	ip, [r4, #24]	@ tmp325, <variable>.Vp6DecParam.TblModifiedScanOrder
	add	r0, lr, #2	@ tmp327, tmp327,
	str	sl, [r4, #56]	@ tmp333, <variable>.Vp6DecParam.TblZeroHuffLUT
	str	r0, [r4, #16]	@ tmp327, <variable>.Vp6DecParam.TblProbMode
	add	lr, r1, #2	@ tmp329, tmp329,
	add	r8, r8, #34	@ tmp319, tmp319,
	str	lr, [r4, #12]	@ tmp329, <variable>.Vp6DecParam.TblProbModeSame
	str	r8, [r4, #36]	@ tmp319, <variable>.Vp6DecParam.TblDcNodeContexts
	add	r1, r2, #2	@ tmp331, tmp331,
	add	r7, r7, #2	@ tmp321, tmp321,
	str	r1, [r4, #20]	@ tmp331, <variable>.Vp6DecParam.TblProbMv
	str	r7, [r4, #28]	@ tmp321, <variable>.Vp6DecParam.TblEobOffsetTable
	add	r6, r6, #2	@ tmp323, tmp323,
	str	r6, [r4, #32]	@ tmp323, <variable>.Vp6DecParam.TblHuffTree
	ldr	sl, [sp, #4]	@, %sfp
	add	r0, sl, #34	@ tmp317,,
	add	ip, sl, #2	@ tmp335,,
	str	r0, [r4, #48]	@ tmp317, <variable>.Vp6DecParam.TblDcHuffLUT
	mov	r0, #1	@ D.39194,
	str	ip, [r4, #44]	@ tmp335, <variable>.Vp6DecParam.TblZeroProbs
	ldr	lr, [fp, #512]	@ <variable>.s32Compress_en, <variable>.s32Compress_en
	str	r5, [r4, #4]	@ pVp6DecParam, <variable>.pVp6DecParam
	str	lr, [r4, #204]	@ <variable>.s32Compress_en, <variable>.Vp6DecParam.Compress_en
	ldr	r2, [fp, #512]	@ <variable>.s32Compress_en, <variable>.s32Compress_en
	str	r2, [r4, #204]	@ <variable>.s32Compress_en, <variable>.Vp6DecParam.Compress_en
.L270:
	add	sp, sp, #12	@,,
	ldmfd	sp!, {r4, r5, r6, r7, r8, r9, sl, fp, pc}
.L292:
	str	r3, [r0, #68]	@ <variable>.Vp6CodecInfo.FrameType, <variable>.Vp6DecParam.FrameType
	movw	r6, #13000	@ tmp173,
	mov	r1, #1	@ tmp171,
	strb	r1, [r0, #9]	@ tmp171, <variable>.Vp6DecParam.IsNvopCopy
	movw	r0, #12312	@ tmp175,
	movw	r8, #12320	@ tmp179,
	ldr	r1, [r4, r0]	@, <variable>.Vp6CodecInfo.CurFsID
	ldr	r0, [r4, r6]	@, <variable>.ChanID
	bl	FSP_GetLogicFs	@
	ldr	r1, [r4, r8]	@, <variable>.Vp6CodecInfo.FwdFsID
	mov	r7, r0	@ pCur,
	ldr	r0, [r4, r6]	@, <variable>.ChanID
	bl	FSP_GetLogicFs	@
	movw	r2, #12316	@ tmp183,
	ldr	r1, [r4, r2]	@, <variable>.Vp6CodecInfo.GoldenFsID
	mov	r8, r0	@ pFwd,
	ldr	r0, [r4, r6]	@, <variable>.ChanID
	bl	FSP_GetLogicFs	@
	cmp	r7, #0	@ pCur,
	cmpne	r8, #0	@, pFwd,
	beq	.L276	@,
	cmp	r0, #0	@ pGolden,
	bne	.L269	@,
.L276:
	bl	vfmw_dprint_nothing	@
	mov	r0, #0	@ D.39194,
	b	.L270	@
.L269:
	ldr	r6, [r7, #408]	@ D.39195, <variable>.pstDecodeFs
	cmp	r6, #0	@ D.39195,
	beq	.L291	@,
	ldr	ip, [r6, #12]	@ <variable>.PhyAddr, <variable>.PhyAddr
	str	ip, [r4, #180]	@ <variable>.PhyAddr, <variable>.Vp6DecParam.image_curr_recon_addr
	ldr	r1, [r7, #420]	@ <variable>.PmvAddr, <variable>.PmvAddr
	str	r1, [r4, #192]	@ <variable>.PmvAddr, <variable>.Vp6DecParam.CurPmvAddr
	ldr	r2, [r0, #408]	@ D.39203, <variable>.pstDecodeFs
	mov	r0, #1	@ D.39194,
	cmp	r2, #0	@ D.39203,
	ldreq	r2, [r7, #408]	@ <variable>.pstDecodeFs, <variable>.pstDecodeFs
	ldr	r3, [r2, #12]	@ iftmp.548, <variable>.PhyAddr
	str	r3, [r4, #184]	@ iftmp.548, <variable>.Vp6DecParam.image_golden_ref_addr
	ldr	lr, [r8, #408]	@ D.39209, <variable>.pstDecodeFs
	cmp	lr, #0	@ D.39209,
	ldreq	lr, [r7, #408]	@ <variable>.pstDecodeFs, <variable>.pstDecodeFs
	ldr	ip, [lr, #12]	@ iftmp.549, <variable>.PhyAddr
	str	r5, [r4, #4]	@ pVp6DecParam, <variable>.pVp6DecParam
	str	ip, [r4, #188]	@ iftmp.549, <variable>.Vp6DecParam.image_last_ref_addr
	b	.L270	@
.L284:
	mov	r1, r0, asl #3	@ tmp301, ResideBytes,
	mov	r9, #16	@ tmp300,
	str	r1, [r4, #124]	@ tmp301, <variable>.Vp6DecParam.bit0_offset_0
	mov	r0, r6	@, pBs
	str	r9, [r4, #128]	@ tmp300, <variable>.Vp6DecParam.bit0_stream_addr_0
	ldr	r3, [r7, #8]	@ <variable>.Length, <variable>.Length
	mov	r6, r3, asl #3	@ D.39296, <variable>.Length,
	bl	BsPos	@
	str	r8, [r4, #156]	@ <variable>.Vp6CodecInfo.NewHeaderInfo.MultiStream, <variable>.Vp6DecParam.bit1_len_1
	str	r8, [r4, #140]	@ <variable>.Vp6CodecInfo.NewHeaderInfo.MultiStream, <variable>.Vp6DecParam.bit0_stream_addr_1
	str	r8, [r4, #136]	@ <variable>.Vp6CodecInfo.NewHeaderInfo.MultiStream, <variable>.Vp6DecParam.bit0_offset_1
	str	r8, [r4, #132]	@ <variable>.Vp6CodecInfo.NewHeaderInfo.MultiStream, <variable>.Vp6DecParam.bit0_len_1
	str	r8, [r4, #152]	@ <variable>.Vp6CodecInfo.NewHeaderInfo.MultiStream, <variable>.Vp6DecParam.bit1_stream_addr_0
	str	r8, [r4, #148]	@ <variable>.Vp6CodecInfo.NewHeaderInfo.MultiStream, <variable>.Vp6DecParam.bit1_offset_0
	str	r8, [r4, #144]	@ <variable>.Vp6CodecInfo.NewHeaderInfo.MultiStream, <variable>.Vp6DecParam.bit1_len_0
	str	r8, [r4, #164]	@ <variable>.Vp6CodecInfo.NewHeaderInfo.MultiStream, <variable>.Vp6DecParam.bit1_stream_addr_1
	str	r8, [r4, #160]	@ <variable>.Vp6CodecInfo.NewHeaderInfo.MultiStream, <variable>.Vp6DecParam.bit1_offset_1
	rsb	r7, r0, r6	@ tmp303,, D.39296
	str	r7, [r4, #120]	@ tmp303, <variable>.Vp6DecParam.bit0_len_0
	b	.L285	@
.L291:
	bl	vfmw_dprint_nothing	@
	mov	r0, r6	@ D.39194, temp.2962
	b	.L270	@
	.fnend
	.size	VP6_Set_DecParam, .-VP6_Set_DecParam
	.align	2
	.global	VP6DEC_Init
	.type	VP6DEC_Init, %function
VP6DEC_Init:
	.fnstart
.LFB1941:
	@ args = 0, pretend = 0, frame = 0
	@ frame_needed = 0, uses_anonymous_args = 0
	stmfd	sp!, {r3, r4, r5, r6, r7, lr}	@,
	.save {r3, r4, r5, r6, r7, lr}
	mov	r5, #12992	@ tmp139,
	ldr	r7, [r0, r5]	@ D.39085, <variable>.ImageQue.ResetMagicWord
	mov	r6, r1	@ pstExtraData, pstExtraData
	movw	r1, #13008	@,
	mov	r4, r0	@ pCtx, pCtx
	bl	__memzero	@
	add	r0, r4, #12608	@, pCtx,
	add	r0, r0, #40	@,,
	str	r7, [r4, r5]	@ D.39085, <variable>.ImageQue.ResetMagicWord
	bl	ResetVoQueue	@
	str	r6, [r4, #0]	@ pstExtraData, <variable>.pstExtraData
	mov	r0, r4	@, pCtx
	bl	VCTRL_GetChanIDByCtx	@
	movw	r3, #13000	@ tmp143,
	cmn	r0, #1	@ D.39093,
	str	r0, [r4, r3]	@ D.39093, <variable>.ChanID
	beq	.L297	@,
	add	r0, r4, #224	@, pCtx,
	movw	r1, #12396	@,
	bl	__memzero	@
	ldr	r5, [r4, #0]	@ <variable>.pstExtraData, <variable>.pstExtraData
	movw	r0, #12300	@ tmp147,
	movw	r2, #12328	@ tmp145,
	mov	r3, #0	@ tmp148,
	mov	r1, #1024	@ tmp146,
	str	r3, [r4, r0]	@ tmp148, <variable>.Vp6CodecInfo.Imgbuf_allocated
	movw	ip, #13004	@ tmp152,
	str	r1, [r4, r2]	@ tmp146, <variable>.Vp6CodecInfo.DDR_Stride
	movw	r1, #12292	@ tmp149,
	ldr	r2, [r5, #8]	@ <variable>.s32DecMode, <variable>.s32DecMode
	mov	r5, #1	@ tmp153,
	str	r5, [r4, ip]	@ tmp153, <variable>.DSDNeedClearQue
	str	r2, [r4, r1]	@ <variable>.s32DecMode, <variable>.Vp6CodecInfo.UsedDecMode
	bl	vfmw_dprint_nothing	@
	mov	r0, r5	@ D.39097, tmp153
	ldmfd	sp!, {r3, r4, r5, r6, r7, pc}	@
.L297:
	bl	vfmw_dprint_nothing	@
	mvn	r0, #19	@ D.39097,
	ldmfd	sp!, {r3, r4, r5, r6, r7, pc}	@
	.fnend
	.size	VP6DEC_Init, .-VP6DEC_Init
	.align	2
	.global	Vp6_Vfmw_StartDecode
	.type	Vp6_Vfmw_StartDecode, %function
Vp6_Vfmw_StartDecode:
	.fnstart
.LFB1920:
	@ args = 0, pretend = 0, frame = 0
	@ frame_needed = 0, uses_anonymous_args = 0
	stmfd	sp!, {r4, lr}	@,
	.save {r4, lr}
	mov	r4, r1	@ pBr, pBr
	mov	r2, #0	@ tmp136,
	mov	r3, #8	@ tmp138,
	str	r2, [r1, #0]	@ tmp136, <variable>.lowvalue
	mov	r1, #255	@ tmp137,
	str	r3, [r4, #12]	@ tmp138, <variable>.count
	str	r1, [r4, #4]	@ tmp137, <variable>.range
	mov	r1, #24	@,
	bl	BsGet	@
	str	r0, [r4, #8]	@, <variable>.value
	ldmfd	sp!, {r4, pc}	@
	.fnend
	.size	Vp6_Vfmw_StartDecode, .-Vp6_Vfmw_StartDecode
	.align	2
	.global	Vp6_Vfmw_DecodeBool128
	.type	Vp6_Vfmw_DecodeBool128, %function
Vp6_Vfmw_DecodeBool128:
	.fnstart
.LFB1918:
	@ args = 0, pretend = 0, frame = 0
	@ frame_needed = 0, uses_anonymous_args = 0
	stmfd	sp!, {r3, r4, r5, r6, r7, lr}	@,
	.save {r3, r4, r5, r6, r7, lr}
	mov	r4, r1	@ pBr, pBr
	ldr	r1, [r1, #4]	@ range.3061, <variable>.range
	ldr	r5, [r4, #8]	@ value.3062, <variable>.value
	add	r7, r1, #1	@ tmp148, range.3061,
	ldr	r3, [r4, #12]	@ count.3060, <variable>.count
	mov	r7, r7, lsr #1	@ split, tmp148,
	mov	r2, r7, asl #16	@ bigsplit, split,
	cmp	r5, r2	@ value.3062, bigsplit
	rsbcs	r7, r7, r1	@ D.37887, split, range.3061
	rsbcs	r5, r2, r5	@ D.37888, bigsplit, value.3062
	movcs	r6, #1	@ bit,
	movcc	r7, r7, asl #1	@ range, split,
	movcs	r7, r7, asl r6	@ range, D.37887,
	movcs	r5, r5, asl r6	@ value, D.37888,
	movcc	r5, r5, asl #1	@ value, value.3062,
	movcc	r6, #0	@ bit,
	subs	r3, r3, #1	@ count, count.3060,
	bne	.L303	@,
	mov	r1, #8	@,
	bl	BsGet	@
	mov	r3, #8	@ count,
	orr	r5, r5, r0	@ value, value,
.L303:
	str	r7, [r4, #4]	@ range, <variable>.range
	mov	r0, r6	@, bit
	str	r3, [r4, #12]	@ count, <variable>.count
	str	r5, [r4, #8]	@ value, <variable>.value
	ldmfd	sp!, {r3, r4, r5, r6, r7, pc}	@
	.fnend
	.size	Vp6_Vfmw_DecodeBool128, .-Vp6_Vfmw_DecodeBool128
	.align	2
	.global	Vp6_Vfmw_BoolRead
	.type	Vp6_Vfmw_BoolRead, %function
Vp6_Vfmw_BoolRead:
	.fnstart
.LFB1919:
	@ args = 0, pretend = 0, frame = 0
	@ frame_needed = 0, uses_anonymous_args = 0
	stmfd	sp!, {r4, r5, r6, r7, r8, lr}	@,
	.save {r4, r5, r6, r7, r8, lr}
	subs	r6, r2, #1	@ i, nBits,
	mov	r8, r0	@ pBs, pBs
	mov	r7, r1	@ pBr, pBr
	movmi	r6, #0	@ value,
	bmi	.L307	@,
	bl	Vp6_Vfmw_DecodeBool128	@
	subs	r4, r6, #1	@ i, i,
	and	r3, r6, #1	@ tmp144, i,
	mov	r6, r0, asl r6	@ value,,
	bmi	.L307	@,
	cmp	r3, #0	@ tmp144,
	beq	.L308	@,
	mov	r0, r8	@, pBs
	mov	r1, r7	@, pBr
	bl	Vp6_Vfmw_DecodeBool128	@
	orr	r6, r6, r0, asl r4	@, value, value,,
	subs	r4, r4, #1	@ i, i,
	bmi	.L307	@,
.L308:
	mov	r1, r7	@, pBr
	mov	r0, r8	@, pBs
	bl	Vp6_Vfmw_DecodeBool128	@
	mov	r1, r7	@, pBr
	sub	r5, r4, #1	@ tmp145, i,
	orr	r6, r6, r0, asl r4	@, value, value,,
	mov	r0, r8	@, pBs
	bl	Vp6_Vfmw_DecodeBool128	@
	subs	r4, r5, #1	@ i, tmp145,
	orr	r6, r6, r0, asl r5	@, value, value,,
	bpl	.L308	@,
.L307:
	mov	r0, r6	@, value
	ldmfd	sp!, {r4, r5, r6, r7, r8, pc}	@
	.fnend
	.size	Vp6_Vfmw_BoolRead, .-Vp6_Vfmw_BoolRead
	.align	2
	.global	VP6_InterFrmHeader
	.type	VP6_InterFrmHeader, %function
VP6_InterFrmHeader:
	.fnstart
.LFB1939:
	@ args = 0, pretend = 0, frame = 0
	@ frame_needed = 0, uses_anonymous_args = 0
	movw	r3, #12120	@ tmp149,
	stmfd	sp!, {r4, r5, r6, r7, r8, lr}	@,
	.save {r4, r5, r6, r7, r8, lr}
	ldr	r3, [r0, r3]	@ D.38993, <variable>.OldHeaderInfo.Vp3VersionNo
	mov	r4, r0	@ pVp6CodecInfo, pVp6CodecInfo
	mov	r6, r1	@ pBs, pBs
	cmp	r3, #0	@ D.38993,
	beq	.L330	@,
	movw	lr, #12254	@ tmp154,
	movw	ip, #12124	@ tmp152,
	ldrb	r5, [r0, lr]	@ zero_extendqisi2	@ <variable>.NewHeaderInfo.MultiStream, <variable>.NewHeaderInfo.MultiStream
	movw	r1, #12264	@ tmp150,
	ldr	r2, [r0, ip]	@ <variable>.OldHeaderInfo.VpProfile, <variable>.OldHeaderInfo.VpProfile
	cmp	r5, #0	@ <variable>.NewHeaderInfo.MultiStream,
	str	r3, [r0, r1]	@ D.38993, <variable>.NewHeaderInfo.Vp3VersionNo
	movw	r0, #12268	@ tmp151,
	str	r2, [r4, r0]	@ <variable>.OldHeaderInfo.VpProfile, <variable>.NewHeaderInfo.VpProfile
	bne	.L331	@,
	add	r1, r4, #12288	@ temp.3116, pVp6CodecInfo,
	mov	r0, r6	@, pBs
	add	r5, r1, #36	@ temp.3116, temp.3116,
	mov	r1, r5	@, temp.3116
	bl	Vp6_Vfmw_StartDecode	@
.L320:
	mov	r1, r5	@, temp.3116
	mov	r0, r6	@, pBs
	bl	Vp6_Vfmw_DecodeBool128	@
	movw	r1, #12124	@ tmp164,
	ldr	r2, [r4, r1]	@ <variable>.OldHeaderInfo.VpProfile, <variable>.OldHeaderInfo.VpProfile
	movw	r3, #12084	@ tmp163,
	movw	ip, #12312	@ tmp162,
	cmp	r2, #0	@ <variable>.OldHeaderInfo.VpProfile,
	str	r0, [r4, r3]	@ D.39005, <variable>.RefreshGoldenFrame
	str	r0, [r4, ip]	@ D.39005, <variable>.NewHeaderInfo.RefreshGoldenFrame
	bne	.L332	@,
	movw	r0, #12308	@ tmp190,
	mov	r3, #1	@ D.38996,
	str	r2, [r4, r0]	@ <variable>.OldHeaderInfo.VpProfile, <variable>.NewHeaderInfo.PredictionFilterMode
	movw	r2, #12258	@ tmp187,
	mov	ip, #14	@ tmp188,
	strb	ip, [r4, r2]	@ tmp188, <variable>.NewHeaderInfo.PredictionFilterAlpha
.L318:
	mov	r0, r3	@, D.38996
	ldmfd	sp!, {r4, r5, r6, r7, r8, pc}	@
.L331:
	mov	r0, r6	@, pBs
	mov	r1, #16	@,
	bl	BsGet	@
	add	r2, r4, #12288	@ temp.3116, pVp6CodecInfo,
	add	r5, r2, #36	@ temp.3116, temp.3116,
	movw	r3, #12304	@ tmp156,
	mov	r1, r5	@, temp.3116
	str	r0, [r4, r3]	@, <variable>.NewHeaderInfo.Buff2Offset
	mov	r0, r6	@, pBs
	bl	Vp6_Vfmw_StartDecode	@
	b	.L320	@
.L332:
	mov	r0, r6	@, pBs
	mov	r1, r5	@, temp.3116
	bl	Vp6_Vfmw_DecodeBool128	@
	movw	r8, #12316	@ tmp166,
	cmp	r0, #0	@ D.39009,
	mov	r7, r0	@ D.39009,
	str	r0, [r4, r8]	@ D.39009, <variable>.NewHeaderInfo.UseLoopFilter
	bne	.L333	@,
.L322:
	movw	r2, #12120	@ tmp170,
	ldr	lr, [r4, r2]	@ <variable>.OldHeaderInfo.Vp3VersionNo, <variable>.OldHeaderInfo.Vp3VersionNo
	cmp	lr, #7	@ <variable>.OldHeaderInfo.Vp3VersionNo,
	movwls	lr, #12258	@ tmp184,
	movls	r2, #16	@ tmp185,
	strlsb	r2, [r4, lr]	@ tmp185, <variable>.NewHeaderInfo.PredictionFilterAlpha
	bhi	.L334	@,
.L329:
	mov	r3, #1	@ D.38996,
	mov	r0, r3	@, D.38996
	ldmfd	sp!, {r4, r5, r6, r7, r8, pc}	@
.L334:
	mov	r0, r6	@, pBs
	mov	r1, r5	@, temp.3116
	bl	Vp6_Vfmw_DecodeBool128	@
	cmp	r0, #0	@,
	beq	.L329	@,
	mov	r0, r6	@, pBs
	mov	r1, r5	@, temp.3116
	bl	Vp6_Vfmw_DecodeBool128	@
	cmp	r0, #0	@,
	beq	.L325	@,
	movw	lr, #12308	@ tmp172,
	mov	r1, r5	@, temp.3116
	mov	r2, #5	@,
	mov	r0, #2	@ tmp173,
	str	r0, [r4, lr]	@ tmp173, <variable>.NewHeaderInfo.PredictionFilterMode
	mov	r0, r6	@, pBs
	bl	Vp6_Vfmw_BoolRead	@
	movw	r3, #12256	@ tmp174,
	mov	r1, r5	@, temp.3116
	mov	r2, #3	@,
	strb	r0, [r4, r3]	@, <variable>.NewHeaderInfo.PredictionFilterVarThresh
	mov	r0, r6	@, pBs
	bl	Vp6_Vfmw_BoolRead	@
	movw	ip, #12257	@ tmp176,
	strb	r0, [r4, ip]	@, <variable>.NewHeaderInfo.PredictionFilterMvSizeThresh
.L326:
	mov	r1, r5	@, temp.3116
	mov	r0, r6	@, pBs
	mov	r2, #4	@,
	bl	Vp6_Vfmw_BoolRead	@
	movw	r1, #12258	@ tmp182,
	mov	r3, #1	@ D.38996,
	strb	r0, [r4, r1]	@, <variable>.NewHeaderInfo.PredictionFilterAlpha
	b	.L318	@
.L333:
	mov	r0, r6	@, pBs
	mov	r1, r5	@, temp.3116
	bl	Vp6_Vfmw_DecodeBool128	@
	orr	r0, r0, r7, asl #1	@, tmp169,, D.39009,
	str	r0, [r4, r8]	@ tmp169, <variable>.NewHeaderInfo.UseLoopFilter
	b	.L322	@
.L325:
	mov	r0, r6	@, pBs
	mov	r1, r5	@, temp.3116
	bl	Vp6_Vfmw_DecodeBool128	@
	cmp	r0, #0	@ D.39029
	movwne	r3, #12308	@ tmp178,
	movweq	r3, #12308	@ tmp180,
	movne	r2, #1	@ tmp179,
	streq	r0, [r4, r3]	@ D.39029, <variable>.NewHeaderInfo.PredictionFilterMode
	strne	r2, [r4, r3]	@ tmp179, <variable>.NewHeaderInfo.PredictionFilterMode
	b	.L326	@
.L330:
	bl	vfmw_dprint_nothing	@
	mvn	r3, #87	@ D.38996,
	b	.L318	@
	.fnend
	.size	VP6_InterFrmHeader, .-VP6_InterFrmHeader
	.align	2
	.global	VP6_IntraFrmHeader
	.type	VP6_IntraFrmHeader, %function
VP6_IntraFrmHeader:
	.fnstart
.LFB1938:
	@ args = 0, pretend = 0, frame = 0
	@ frame_needed = 0, uses_anonymous_args = 0
	stmfd	sp!, {r4, r5, r6, r7, r8, lr}	@,
	.save {r4, r5, r6, r7, r8, lr}
	mov	r5, r1	@ pBs, pBs
	mov	r4, r0	@ pVp6CodecInfo, pVp6CodecInfo
	bl	vfmw_dprint_nothing	@
	mov	r1, #5	@,
	mov	r0, r5	@, pBs
	bl	BsGet	@
	movw	r6, #12264	@ tmp156,
	mov	r1, #2	@,
	uxtb	r2, r0	@ D.38912,
	mov	r0, r5	@, pBs
	str	r2, [r4, r6]	@ D.38912, <variable>.NewHeaderInfo.Vp3VersionNo
	bl	BsGet	@
	ldr	r1, [r4, r6]	@ <variable>.NewHeaderInfo.Vp3VersionNo, <variable>.NewHeaderInfo.Vp3VersionNo
	movw	r3, #12268	@ tmp158,
	cmp	r1, #8	@ <variable>.NewHeaderInfo.Vp3VersionNo,
	uxtb	r0, r0	@ D.38915,
	str	r0, [r4, r3]	@ D.38915, <variable>.NewHeaderInfo.VpProfile
	bhi	.L352	@,
	mov	r0, r5	@, pBs
	mov	r1, #1	@,
	bl	BsGet	@
	tst	r0, #255	@
	bne	.L352	@,
	movw	r7, #12254	@ tmp164,
	ldrb	r6, [r4, r7]	@ zero_extendqisi2	@ <variable>.NewHeaderInfo.MultiStream, <variable>.NewHeaderInfo.MultiStream
	cmp	r6, #0	@ <variable>.NewHeaderInfo.MultiStream,
	beq	.L339	@,
	mov	r1, #16	@,
	mov	r0, r5	@, pBs
	bl	BsGet	@
	add	ip, r4, #12288	@ temp.3144, pVp6CodecInfo,
	add	r6, ip, #36	@ temp.3144, temp.3144,
	movw	r8, #12304	@ tmp166,
	mov	r1, r6	@, temp.3144
	str	r0, [r4, r8]	@, <variable>.NewHeaderInfo.Buff2Offset
	mov	r0, r5	@, pBs
	bl	Vp6_Vfmw_StartDecode	@
.L340:
	mov	r1, r6	@, temp.3144
	mov	r2, #8	@,
	mov	r0, r5	@, pBs
	movw	r8, #12276	@ tmp172,
	bl	Vp6_Vfmw_BoolRead	@
	mov	r1, r6	@, temp.3144
	mov	r2, #8	@,
	uxtb	r3, r0	@ D.38933,
	mov	r0, r5	@, pBs
	str	r3, [r4, r8]	@ D.38933, <variable>.NewHeaderInfo.pic_height_in_mb
	bl	Vp6_Vfmw_BoolRead	@
	ldr	r7, [r4, r8]	@ <variable>.NewHeaderInfo.pic_height_in_mb, <variable>.NewHeaderInfo.pic_height_in_mb
	mov	ip, #12288	@ tmp179,
	movw	r2, #12284	@ tmp175,
	mov	r1, r6	@, temp.3144
	mov	r7, r7, asl #1	@ tmp178, <variable>.NewHeaderInfo.pic_height_in_mb,
	str	r7, [r4, r2]	@ tmp178, <variable>.NewHeaderInfo.VMacroblockCount
	mov	r2, #8	@,
	uxtb	r8, r0	@ D.38938,
	movw	r0, #12280	@ tmp174,
	str	r8, [r4, r0]	@ D.38938, <variable>.NewHeaderInfo.pic_width_in_mb
	mov	r0, r5	@, pBs
	mov	r8, r8, asl #1	@ D.38942, D.38938,
	str	r8, [r4, ip]	@ D.38942, <variable>.NewHeaderInfo.HMacroblockCount
	bl	Vp6_Vfmw_BoolRead	@
	mov	r1, r6	@, temp.3144
	mov	r2, #8	@,
	uxtb	r3, r0	@ D.38943,
	mov	r0, r5	@, pBs
	mov	ip, r3, asl #1	@ tmp184, D.38943,
	movw	r3, #12292	@ tmp182,
	str	ip, [r4, r3]	@ tmp184, <variable>.NewHeaderInfo.OutputVMacroblockCount
	bl	Vp6_Vfmw_BoolRead	@
	mov	r1, r6	@, temp.3144
	mov	r2, #2	@,
	uxtb	r3, r0	@ D.38948,
	mov	r0, r5	@, pBs
	mov	ip, r3, asl #1	@ tmp187, D.38948,
	movw	r3, #12296	@ tmp185,
	str	ip, [r4, r3]	@ tmp187, <variable>.NewHeaderInfo.OutputHMacroblockCount
	bl	Vp6_Vfmw_BoolRead	@
	movw	r2, #12064	@ tmp190,
	ldr	r1, [r4, r2]	@ <variable>.VOldScaled, <variable>.VOldScaled
	movw	r3, #12255	@ tmp188,
	cmp	r1, r7	@ <variable>.VOldScaled, tmp178
	strb	r0, [r4, r3]	@, <variable>.NewHeaderInfo.ScalingMode
	bne	.L341	@,
	movw	r1, #12060	@ tmp192,
	ldr	lr, [r4, r1]	@ <variable>.HOldScaled, <variable>.HOldScaled
	cmp	r8, lr	@ D.38942, <variable>.HOldScaled
	beq	.L342	@,
.L341:
	bl	vfmw_dprint_nothing	@
.L342:
	movw	r2, #12268	@ tmp196,
	movw	r0, #12060	@ tmp194,
	ldr	r3, [r4, r2]	@ <variable>.NewHeaderInfo.VpProfile, <variable>.NewHeaderInfo.VpProfile
	movw	ip, #12064	@ tmp195,
	str	r8, [r4, r0]	@ D.38942, <variable>.HOldScaled
	cmp	r3, #0	@ <variable>.NewHeaderInfo.VpProfile,
	str	r7, [r4, ip]	@ tmp178, <variable>.VOldScaled
	bne	.L353	@,
	movw	r0, #12308	@ tmp222,
	movw	lr, #12258	@ tmp219,
	mov	r1, #14	@ tmp220,
	str	r3, [r4, r0]	@ <variable>.NewHeaderInfo.VpProfile, <variable>.NewHeaderInfo.PredictionFilterMode
	strb	r1, [r4, lr]	@ tmp220, <variable>.NewHeaderInfo.PredictionFilterAlpha
.L350:
	bl	vfmw_dprint_nothing	@
	mov	r0, #1	@ D.38921,
	ldmfd	sp!, {r4, r5, r6, r7, r8, pc}	@
.L352:
	bl	vfmw_dprint_nothing	@
	mov	r0, #0	@ D.38921,
	ldmfd	sp!, {r4, r5, r6, r7, r8, pc}	@
.L339:
	add	lr, r4, #12288	@ temp.3144, pVp6CodecInfo,
	mov	r0, r5	@, pBs
	add	r6, lr, #36	@ temp.3144, temp.3144,
	mov	r1, r6	@, temp.3144
	bl	Vp6_Vfmw_StartDecode	@
	b	.L340	@
.L353:
	mov	r0, r5	@, pBs
	mov	r1, r6	@, temp.3144
	bl	Vp6_Vfmw_DecodeBool128	@
	cmp	r0, #0	@,
	beq	.L344	@,
	movw	r0, #12308	@ tmp198,
	mov	lr, #2	@ tmp199,
	mov	r1, r6	@, temp.3144
	str	lr, [r4, r0]	@ tmp199, <variable>.NewHeaderInfo.PredictionFilterMode
	mov	r2, #5	@,
	mov	r0, r5	@, pBs
	bl	Vp6_Vfmw_BoolRead	@
	movw	r1, #12264	@ tmp200,
	ldr	r3, [r4, r1]	@ <variable>.NewHeaderInfo.Vp3VersionNo, <variable>.NewHeaderInfo.Vp3VersionNo
	movw	ip, #12256	@ tmp202,
	mov	r1, r6	@, temp.3144
	mov	r2, #3	@,
	cmp	r3, #7	@ <variable>.NewHeaderInfo.Vp3VersionNo,
	movls	r3, #5	@ iftmp.540,
	movhi	r3, #0	@ iftmp.540,
	mov	r3, r0, asl r3	@ tmp204,,
	mov	r0, r5	@, pBs
	strb	r3, [r4, ip]	@ tmp204, <variable>.NewHeaderInfo.PredictionFilterVarThresh
	bl	Vp6_Vfmw_BoolRead	@
	movw	r3, #12257	@ tmp206,
	strb	r0, [r4, r3]	@, <variable>.NewHeaderInfo.PredictionFilterMvSizeThresh
.L347:
	movw	r3, #12264	@ tmp212,
	ldr	ip, [r4, r3]	@ <variable>.NewHeaderInfo.Vp3VersionNo, <variable>.NewHeaderInfo.Vp3VersionNo
	cmp	ip, #7	@ <variable>.NewHeaderInfo.Vp3VersionNo,
	movwls	ip, #12258	@ tmp216,
	movls	r2, #16	@ tmp217,
	strlsb	r2, [r4, ip]	@ tmp217, <variable>.NewHeaderInfo.PredictionFilterAlpha
	bls	.L350	@,
	mov	r2, #4	@,
	mov	r0, r5	@, pBs
	mov	r1, r6	@, temp.3144
	bl	Vp6_Vfmw_BoolRead	@
	movw	r2, #12258	@ tmp214,
	strb	r0, [r4, r2]	@, <variable>.NewHeaderInfo.PredictionFilterAlpha
	b	.L350	@
.L344:
	mov	r0, r5	@, pBs
	mov	r1, r6	@, temp.3144
	bl	Vp6_Vfmw_DecodeBool128	@
	cmp	r0, #0	@ D.38978
	movwne	r3, #12308	@ tmp208,
	movweq	r3, #12308	@ tmp210,
	movne	r2, #1	@ tmp209,
	streq	r0, [r4, r3]	@ D.38978, <variable>.NewHeaderInfo.PredictionFilterMode
	strne	r2, [r4, r3]	@ tmp209, <variable>.NewHeaderInfo.PredictionFilterMode
	b	.L347	@
	.fnend
	.size	VP6_IntraFrmHeader, .-VP6_IntraFrmHeader
	.align	2
	.global	VP6_GetPictureHeader
	.type	VP6_GetPictureHeader, %function
VP6_GetPictureHeader:
	.fnstart
.LFB1940:
	@ args = 0, pretend = 0, frame = 0
	@ frame_needed = 0, uses_anonymous_args = 0
	cmp	r0, #0	@ pVp6CodecInfo,
	cmpne	r1, #0	@, pBs,
	stmfd	sp!, {r4, r5, r6, lr}	@,
	.save {r4, r5, r6, lr}
	mov	r5, r1	@ pBs, pBs
	mov	r4, r0	@ pVp6CodecInfo, pVp6CodecInfo
	beq	.L360	@,
	bl	vfmw_dprint_nothing	@
	mov	r1, #1	@,
	mov	r0, r5	@, pBs
	movw	r6, #12272	@ tmp151,
	bl	BsGet	@
	movw	r3, #12080	@ tmp152,
	mov	r1, #6	@,
	uxtb	ip, r0	@ D.39050,
	mov	r0, r5	@, pBs
	strb	ip, [r4, r3]	@ D.39050, <variable>.FrameType
	str	ip, [r4, r6]	@ D.39050, <variable>.NewHeaderInfo.FrameType
	bl	BsGet	@
	movw	r3, #:lower16:.LANCHOR0	@ tmp157,
	movt	r3, #:upper16:.LANCHOR0	@ tmp157,
	movw	lr, #12260	@ tmp163,
	mov	r1, #1	@,
	uxtb	r2, r0	@ D.39055,
	movw	r0, #12252	@ tmp154,
	add	ip, r2, r3	@ tmp159, D.39055, tmp157
	strb	r2, [r4, r0]	@ D.39055, <variable>.NewHeaderInfo.DctQMask
	add	r3, r3, r2, asl #1	@, tmp167, tmp157, D.39055,
	mov	r0, r5	@, pBs
	ldrb	r2, [ip, #120]	@ zero_extendqisi2	@ tmp161, VP6_LoopFilterLimitValues
	add	ip, r3, #312	@ tmp176, tmp167,
	ldrh	r3, [r3, #184]	@, DcQuantTab
	strh	r3, [r4, lr]	@ movhi	@, <variable>.NewHeaderInfo.DcQuant
	movw	lr, #12262	@ tmp171,
	ldrh	r3, [ip, #0]	@, AcQuantTab
	movw	ip, #12253	@ tmp156,
	strb	r2, [r4, ip]	@ tmp161, <variable>.NewHeaderInfo.FLimit
	strh	r3, [r4, lr]	@ movhi	@, <variable>.NewHeaderInfo.AcQuant
	bl	BsGet	@
	ldr	r1, [r4, r6]	@ <variable>.NewHeaderInfo.FrameType, <variable>.NewHeaderInfo.FrameType
	movw	r3, #12254	@ tmp179,
	cmp	r1, #0	@ <variable>.NewHeaderInfo.FrameType,
	strb	r0, [r4, r3]	@, <variable>.NewHeaderInfo.MultiStream
	beq	.L361	@,
	mov	r0, r4	@, pVp6CodecInfo
	mov	r1, r5	@, pBs
	bl	VP6_InterFrmHeader	@
	mov	r6, r0	@ ret,
	cmp	r6, #1	@ ret,
	beq	.L362	@,
.L356:
	mov	r0, r6	@, ret
	ldmfd	sp!, {r4, r5, r6, pc}	@
.L361:
	mov	r0, r4	@, pVp6CodecInfo
	mov	r1, r5	@, pBs
	bl	VP6_IntraFrmHeader	@
	mov	r6, r0	@ ret,
	cmp	r6, #1	@ ret,
	bne	.L356	@,
.L362:
	add	lr, r4, #12288	@, pVp6CodecInfo,
	mov	r0, r5	@, pBs
	add	r1, lr, #36	@,,
	bl	Vp6_Vfmw_DecodeBool128	@
	movw	r3, #12252	@ tmp187,
	ldrb	r2, [r4, r3]	@ zero_extendqisi2	@ <variable>.NewHeaderInfo.DctQMask, <variable>.NewHeaderInfo.DctQMask
	movw	ip, #12300	@ tmp186,
	movw	r1, #12320	@ tmp185,
	str	r2, [r4, ip]	@ <variable>.NewHeaderInfo.DctQMask, <variable>.NewHeaderInfo.LastFrameQIndex
	str	r0, [r4, r1]	@, <variable>.NewHeaderInfo.UseHuffman
	bl	vfmw_dprint_nothing	@
	mov	r0, r6	@, ret
	ldmfd	sp!, {r4, r5, r6, pc}	@
.L360:
	mov	r6, #0	@ ret,
	bl	vfmw_dprint_nothing	@
	mov	r0, r6	@, ret
	ldmfd	sp!, {r4, r5, r6, pc}	@
	.fnend
	.size	VP6_GetPictureHeader, .-VP6_GetPictureHeader
	.align	2
	.global	Vp6_Vfmw_DecodeBool
	.type	Vp6_Vfmw_DecodeBool, %function
Vp6_Vfmw_DecodeBool:
	.fnstart
.LFB1917:
	@ args = 0, pretend = 0, frame = 0
	@ frame_needed = 0, uses_anonymous_args = 0
	stmfd	sp!, {r4, r5, r6, r7, r8, lr}	@,
	.save {r4, r5, r6, r7, r8, lr}
	mov	r5, r1	@ pBr, pBr
	ldr	r1, [r1, #4]	@ range.3194, <variable>.range
	mov	r6, r0	@ pBs, pBs
	ldr	r4, [r5, #8]	@ value, <variable>.value
	sub	r0, r1, #1	@ tmp145, range.3194,
	ldr	r3, [r5, #12]	@ count, <variable>.count
	mul	ip, r0, r2	@ tmp146, tmp145, probability
	mov	r7, ip, lsr #8	@ tmp147, tmp146,
	add	r7, r7, #1	@ split, tmp147,
	mov	r2, r7, asl #16	@ bigsplit, split,
	cmp	r4, r2	@ value, bigsplit
	rsbcs	r7, r7, r1	@ range, split, range.3194
	rsbcs	r4, r2, r4	@ value, bigsplit, value
	movcc	r8, #0	@ bit,
	movcs	r8, #1	@ bit,
	cmp	r7, #127	@ range,
	strhi	r7, [r5, #4]	@ range, <variable>.range
	strhi	r4, [r5, #8]	@ value, <variable>.value
	bls	.L370	@,
	b	.L367	@
.L368:
	cmp	r7, #127	@ range,
	bhi	.L372	@,
.L370:
	subs	r3, r3, #1	@ count, count,
	mov	r7, r7, asl #1	@ range, range,
	mov	r4, r4, asl #1	@ value, value,
	bne	.L368	@,
	mov	r0, r6	@, pBs
	mov	r1, #8	@,
	bl	BsGet	@
	cmp	r7, #127	@ range,
	mov	r3, #8	@ count,
	orr	r4, r4, r0	@ value, value,
	bls	.L370	@,
.L372:
	str	r7, [r5, #4]	@ range, <variable>.range
	str	r3, [r5, #12]	@ count, <variable>.count
	str	r4, [r5, #8]	@ value, <variable>.value
.L367:
	mov	r0, r8	@, bit
	ldmfd	sp!, {r4, r5, r6, r7, r8, pc}	@
	.fnend
	.size	Vp6_Vfmw_DecodeBool, .-Vp6_Vfmw_DecodeBool
	.align	2
	.global	VP6_ConfigureMvEntropyDecoder
	.type	VP6_ConfigureMvEntropyDecoder, %function
VP6_ConfigureMvEntropyDecoder:
	.fnstart
.LFB1930:
	@ args = 0, pretend = 0, frame = 0
	@ frame_needed = 0, uses_anonymous_args = 0
	stmfd	sp!, {r3, r4, r5, r6, r7, lr}	@,
	.save {r3, r4, r5, r6, r7, lr}
	add	r4, r2, #72	@ D.38436, pbi,
	movw	r6, #:lower16:.LANCHOR0	@ tmp477,
	movt	r6, #:upper16:.LANCHOR0	@ tmp477,
	mov	r5, r1	@ pBs, pBs
	mov	r7, r0	@ pVp6CodecInfo, pVp6CodecInfo
	mov	r1, r4	@, D.38436
	mov	r0, r5	@, pBs
	ldrb	r2, [r6, #440]	@ zero_extendqisi2	@, VP6_MvUpdateProbs
	bl	Vp6_Vfmw_DecodeBool	@
	cmp	r0, #0	@,
	bne	.L413	@,
.L374:
	mov	r0, r5	@, pBs
	mov	r1, r4	@, D.38436
	ldrb	r2, [r6, #441]	@ zero_extendqisi2	@, VP6_MvUpdateProbs
	bl	Vp6_Vfmw_DecodeBool	@
	cmp	r0, #0	@,
	bne	.L414	@,
.L375:
	mov	r0, r5	@, pBs
	mov	r1, r4	@, D.38436
	ldrb	r2, [r6, #457]	@ zero_extendqisi2	@, VP6_MvUpdateProbs
	bl	Vp6_Vfmw_DecodeBool	@
	cmp	r0, #0	@,
	bne	.L415	@,
.L376:
	mov	r0, r5	@, pBs
	mov	r1, r4	@, D.38436
	ldrb	r2, [r6, #458]	@ zero_extendqisi2	@, VP6_MvUpdateProbs
	bl	Vp6_Vfmw_DecodeBool	@
	cmp	r0, #0	@,
	bne	.L416	@,
.L377:
	mov	r0, r5	@, pBs
	mov	r1, r4	@, D.38436
	ldrb	r2, [r6, #442]	@ zero_extendqisi2	@, VP6_MvUpdateProbs
	bl	Vp6_Vfmw_DecodeBool	@
	cmp	r0, #0	@,
	bne	.L417	@,
.L378:
	mov	r0, r5	@, pBs
	mov	r1, r4	@, D.38436
	ldrb	r2, [r6, #443]	@ zero_extendqisi2	@, VP6_MvUpdateProbs
	bl	Vp6_Vfmw_DecodeBool	@
	cmp	r0, #0	@,
	bne	.L418	@,
.L379:
	mov	r0, r5	@, pBs
	mov	r1, r4	@, D.38436
	ldrb	r2, [r6, #444]	@ zero_extendqisi2	@, VP6_MvUpdateProbs
	bl	Vp6_Vfmw_DecodeBool	@
	cmp	r0, #0	@,
	bne	.L419	@,
.L380:
	mov	r0, r5	@, pBs
	mov	r1, r4	@, D.38436
	ldrb	r2, [r6, #445]	@ zero_extendqisi2	@, VP6_MvUpdateProbs
	bl	Vp6_Vfmw_DecodeBool	@
	cmp	r0, #0	@,
	bne	.L420	@,
.L381:
	mov	r0, r5	@, pBs
	mov	r1, r4	@, D.38436
	ldrb	r2, [r6, #446]	@ zero_extendqisi2	@, VP6_MvUpdateProbs
	bl	Vp6_Vfmw_DecodeBool	@
	cmp	r0, #0	@,
	bne	.L421	@,
.L382:
	mov	r0, r5	@, pBs
	mov	r1, r4	@, D.38436
	ldrb	r2, [r6, #447]	@ zero_extendqisi2	@, VP6_MvUpdateProbs
	bl	Vp6_Vfmw_DecodeBool	@
	cmp	r0, #0	@,
	bne	.L422	@,
.L383:
	mov	r0, r5	@, pBs
	mov	r1, r4	@, D.38436
	ldrb	r2, [r6, #448]	@ zero_extendqisi2	@, VP6_MvUpdateProbs
	bl	Vp6_Vfmw_DecodeBool	@
	cmp	r0, #0	@,
	bne	.L423	@,
.L384:
	mov	r0, r5	@, pBs
	mov	r1, r4	@, D.38436
	ldrb	r2, [r6, #459]	@ zero_extendqisi2	@, VP6_MvUpdateProbs
	bl	Vp6_Vfmw_DecodeBool	@
	cmp	r0, #0	@,
	bne	.L424	@,
.L386:
	mov	r0, r5	@, pBs
	mov	r1, r4	@, D.38436
	ldrb	r2, [r6, #460]	@ zero_extendqisi2	@, VP6_MvUpdateProbs
	bl	Vp6_Vfmw_DecodeBool	@
	cmp	r0, #0	@,
	bne	.L425	@,
.L398:
	mov	r0, r5	@, pBs
	mov	r1, r4	@, D.38436
	ldrb	r2, [r6, #461]	@ zero_extendqisi2	@, VP6_MvUpdateProbs
	bl	Vp6_Vfmw_DecodeBool	@
	cmp	r0, #0	@,
	bne	.L426	@,
.L399:
	mov	r0, r5	@, pBs
	mov	r1, r4	@, D.38436
	ldrb	r2, [r6, #462]	@ zero_extendqisi2	@, VP6_MvUpdateProbs
	bl	Vp6_Vfmw_DecodeBool	@
	cmp	r0, #0	@,
	bne	.L427	@,
.L400:
	mov	r0, r5	@, pBs
	mov	r1, r4	@, D.38436
	ldrb	r2, [r6, #463]	@ zero_extendqisi2	@, VP6_MvUpdateProbs
	bl	Vp6_Vfmw_DecodeBool	@
	cmp	r0, #0	@,
	bne	.L428	@,
.L401:
	mov	r0, r5	@, pBs
	mov	r1, r4	@, D.38436
	ldrb	r2, [r6, #464]	@ zero_extendqisi2	@, VP6_MvUpdateProbs
	bl	Vp6_Vfmw_DecodeBool	@
	cmp	r0, #0	@,
	bne	.L429	@,
.L402:
	mov	r0, r5	@, pBs
	mov	r1, r4	@, D.38436
	ldrb	r2, [r6, #465]	@ zero_extendqisi2	@, VP6_MvUpdateProbs
	bl	Vp6_Vfmw_DecodeBool	@
	cmp	r0, #0	@,
	bne	.L430	@,
.L387:
	mov	r0, r5	@, pBs
	mov	r1, r4	@, D.38436
	ldrb	r2, [r6, #449]	@ zero_extendqisi2	@, VP6_MvUpdateProbs
	bl	Vp6_Vfmw_DecodeBool	@
	cmp	r0, #0	@,
	bne	.L431	@,
.L388:
	mov	r0, r5	@, pBs
	mov	r1, r4	@, D.38436
	ldrb	r2, [r6, #450]	@ zero_extendqisi2	@, VP6_MvUpdateProbs
	bl	Vp6_Vfmw_DecodeBool	@
	cmp	r0, #0	@,
	bne	.L432	@,
.L389:
	mov	r0, r5	@, pBs
	mov	r1, r4	@, D.38436
	ldrb	r2, [r6, #451]	@ zero_extendqisi2	@, VP6_MvUpdateProbs
	bl	Vp6_Vfmw_DecodeBool	@
	cmp	r0, #0	@,
	bne	.L433	@,
.L390:
	mov	r0, r5	@, pBs
	mov	r1, r4	@, D.38436
	ldrb	r2, [r6, #452]	@ zero_extendqisi2	@, VP6_MvUpdateProbs
	bl	Vp6_Vfmw_DecodeBool	@
	cmp	r0, #0	@,
	bne	.L434	@,
.L391:
	mov	r0, r5	@, pBs
	mov	r1, r4	@, D.38436
	ldrb	r2, [r6, #453]	@ zero_extendqisi2	@, VP6_MvUpdateProbs
	bl	Vp6_Vfmw_DecodeBool	@
	cmp	r0, #0	@,
	bne	.L435	@,
.L392:
	mov	r0, r5	@, pBs
	mov	r1, r4	@, D.38436
	ldrb	r2, [r6, #454]	@ zero_extendqisi2	@, VP6_MvUpdateProbs
	bl	Vp6_Vfmw_DecodeBool	@
	cmp	r0, #0	@,
	bne	.L436	@,
.L393:
	mov	r0, r5	@, pBs
	mov	r1, r4	@, D.38436
	ldrb	r2, [r6, #455]	@ zero_extendqisi2	@, VP6_MvUpdateProbs
	bl	Vp6_Vfmw_DecodeBool	@
	cmp	r0, #0	@,
	bne	.L437	@,
.L394:
	mov	r0, r5	@, pBs
	mov	r1, r4	@, D.38436
	ldrb	r2, [r6, #456]	@ zero_extendqisi2	@, VP6_MvUpdateProbs
	bl	Vp6_Vfmw_DecodeBool	@
	cmp	r0, #0	@,
	bne	.L438	@,
.L395:
	mov	r0, r5	@, pBs
	mov	r1, r4	@, D.38436
	ldrb	r2, [r6, #466]	@ zero_extendqisi2	@, VP6_MvUpdateProbs
	bl	Vp6_Vfmw_DecodeBool	@
	cmp	r0, #0	@,
	bne	.L439	@,
.L397:
	mov	r0, r5	@, pBs
	mov	r1, r4	@, D.38436
	ldrb	r2, [r6, #467]	@ zero_extendqisi2	@, VP6_MvUpdateProbs
	bl	Vp6_Vfmw_DecodeBool	@
	cmp	r0, #0	@,
	bne	.L440	@,
.L405:
	mov	r0, r5	@, pBs
	mov	r1, r4	@, D.38436
	ldrb	r2, [r6, #468]	@ zero_extendqisi2	@, VP6_MvUpdateProbs
	bl	Vp6_Vfmw_DecodeBool	@
	cmp	r0, #0	@,
	bne	.L441	@,
.L406:
	mov	r0, r5	@, pBs
	mov	r1, r4	@, D.38436
	ldrb	r2, [r6, #469]	@ zero_extendqisi2	@, VP6_MvUpdateProbs
	bl	Vp6_Vfmw_DecodeBool	@
	cmp	r0, #0	@,
	bne	.L442	@,
.L407:
	mov	r0, r5	@, pBs
	mov	r1, r4	@, D.38436
	ldrb	r2, [r6, #470]	@ zero_extendqisi2	@, VP6_MvUpdateProbs
	bl	Vp6_Vfmw_DecodeBool	@
	cmp	r0, #0	@,
	bne	.L443	@,
.L408:
	mov	r0, r5	@, pBs
	mov	r1, r4	@, D.38436
	ldrb	r2, [r6, #471]	@ zero_extendqisi2	@, VP6_MvUpdateProbs
	bl	Vp6_Vfmw_DecodeBool	@
	cmp	r0, #0	@,
	bne	.L444	@,
.L409:
	mov	r0, r5	@, pBs
	mov	r1, r4	@, D.38436
	ldrb	r2, [r6, #472]	@ zero_extendqisi2	@, VP6_MvUpdateProbs
	bl	Vp6_Vfmw_DecodeBool	@
	cmp	r0, #0	@,
	bne	.L445	@,
	ldrb	r2, [r6, #473]	@ zero_extendqisi2	@, VP6_MvUpdateProbs
	mov	r0, r5	@, pBs
	mov	r1, r4	@, D.38436
	bl	Vp6_Vfmw_DecodeBool	@
	cmp	r0, #0	@,
	ldmeqfd	sp!, {r3, r4, r5, r6, r7, pc}	@
.L446:
	mov	r0, r5	@, pBs
	mov	r1, r4	@, D.38436
	mov	r2, #7	@,
	bl	Vp6_Vfmw_BoolRead	@
	mov	r3, r0, asl #1	@ tmp424,,
	uxtb	ip, r3	@ D.38478, tmp424
	strb	ip, [r7, #513]	@ D.38478, <variable>.MvSizeProbs
	cmp	ip, #0	@ D.38478,
	moveq	ip, #1	@ tmp426,
	streqb	ip, [r7, #513]	@ tmp426, <variable>.MvSizeProbs
	ldmfd	sp!, {r3, r4, r5, r6, r7, pc}	@
.L445:
	mov	r1, r4	@, D.38436
	mov	r2, #7	@,
	mov	r0, r5	@, pBs
	bl	Vp6_Vfmw_BoolRead	@
	ldrb	r2, [r6, #473]	@ zero_extendqisi2	@, VP6_MvUpdateProbs
	mov	r1, r4	@, D.38436
	mov	r3, r0, asl #1	@ tmp471,,
	mov	r0, r5	@, pBs
	uxtb	ip, r3	@ temp.3324, tmp471
	strb	ip, [r7, #512]	@ temp.3324, <variable>.MvSizeProbs
	cmp	ip, #0	@ temp.3324,
	moveq	ip, #1	@ tmp473,
	streqb	ip, [r7, #512]	@ tmp473, <variable>.MvSizeProbs
	bl	Vp6_Vfmw_DecodeBool	@
	cmp	r0, #0	@,
	ldmeqfd	sp!, {r3, r4, r5, r6, r7, pc}	@
	b	.L446	@
.L444:
	mov	r1, r4	@, D.38436
	mov	r2, #7	@,
	mov	r0, r5	@, pBs
	bl	Vp6_Vfmw_BoolRead	@
	mov	r2, r0, asl #1	@ tmp464,,
	uxtb	r1, r2	@ temp.3317, tmp464
	strb	r1, [r7, #511]	@ temp.3317, <variable>.MvSizeProbs
	cmp	r1, #0	@ temp.3317,
	moveq	r1, #1	@ tmp466,
	streqb	r1, [r7, #511]	@ tmp466, <variable>.MvSizeProbs
	b	.L409	@
.L443:
	mov	r0, r5	@, pBs
	mov	r1, r4	@, D.38436
	mov	r2, #7	@,
	bl	Vp6_Vfmw_BoolRead	@
	mov	r3, r0, asl #1	@ tmp457,,
	uxtb	r0, r3	@ temp.3309, tmp457
	strb	r0, [r7, #510]	@ temp.3309, <variable>.MvSizeProbs
	cmp	r0, #0	@ temp.3309,
	moveq	r0, #1	@ tmp459,
	streqb	r0, [r7, #510]	@ tmp459, <variable>.MvSizeProbs
	b	.L408	@
.L442:
	mov	r2, #7	@,
	mov	r0, r5	@, pBs
	mov	r1, r4	@, D.38436
	bl	Vp6_Vfmw_BoolRead	@
	mov	ip, r0, asl #1	@ tmp450,,
	uxtb	r2, ip	@ temp.3304, tmp450
	strb	r2, [r7, #509]	@ temp.3304, <variable>.MvSizeProbs
	cmp	r2, #0	@ temp.3304,
	moveq	r2, #1	@ tmp452,
	streqb	r2, [r7, #509]	@ tmp452, <variable>.MvSizeProbs
	b	.L407	@
.L441:
	mov	r1, r4	@, D.38436
	mov	r0, r5	@, pBs
	mov	r2, #7	@,
	bl	Vp6_Vfmw_BoolRead	@
	mov	r1, r0, asl #1	@ tmp443,,
	uxtb	r3, r1	@ temp.3297, tmp443
	strb	r3, [r7, #508]	@ temp.3297, <variable>.MvSizeProbs
	cmp	r3, #0	@ temp.3297,
	moveq	r3, #1	@ tmp445,
	streqb	r3, [r7, #508]	@ tmp445, <variable>.MvSizeProbs
	b	.L406	@
.L440:
	mov	r0, r5	@, pBs
	mov	r1, r4	@, D.38436
	mov	r2, #7	@,
	bl	Vp6_Vfmw_BoolRead	@
	mov	ip, r0, asl #1	@ tmp436,,
	uxtb	r0, ip	@ temp.3289, tmp436
	strb	r0, [r7, #507]	@ temp.3289, <variable>.MvSizeProbs
	cmp	r0, #0	@ temp.3289,
	moveq	r0, #1	@ tmp438,
	streqb	r0, [r7, #507]	@ tmp438, <variable>.MvSizeProbs
	b	.L405	@
.L439:
	mov	r1, r4	@, D.38436
	mov	r2, #7	@,
	mov	r0, r5	@, pBs
	bl	Vp6_Vfmw_BoolRead	@
	mov	r2, r0, asl #1	@ tmp429,,
	uxtb	r1, r2	@ temp.3284, tmp429
	strb	r1, [r7, #506]	@ temp.3284, <variable>.MvSizeProbs
	cmp	r1, #0	@ temp.3284,
	moveq	r1, #1	@ tmp431,
	streqb	r1, [r7, #506]	@ tmp431, <variable>.MvSizeProbs
	b	.L397	@
.L438:
	mov	r0, r5	@, pBs
	mov	r1, r4	@, D.38436
	mov	r2, #7	@,
	bl	Vp6_Vfmw_BoolRead	@
	mov	r3, r0, asl #1	@ tmp375,,
	uxtb	r0, r3	@ temp.3374, tmp375
	strb	r0, [r7, #505]	@ temp.3374, <variable>.MvSizeProbs
	cmp	r0, #0	@ temp.3374,
	moveq	r0, #1	@ tmp377,
	streqb	r0, [r7, #505]	@ tmp377, <variable>.MvSizeProbs
	b	.L395	@
.L437:
	mov	r2, #7	@,
	mov	r0, r5	@, pBs
	mov	r1, r4	@, D.38436
	bl	Vp6_Vfmw_BoolRead	@
	mov	ip, r0, asl #1	@ tmp368,,
	uxtb	r2, ip	@ temp.3369, tmp368
	strb	r2, [r7, #504]	@ temp.3369, <variable>.MvSizeProbs
	cmp	r2, #0	@ temp.3369,
	moveq	r2, #1	@ tmp370,
	streqb	r2, [r7, #504]	@ tmp370, <variable>.MvSizeProbs
	b	.L394	@
.L436:
	mov	r1, r4	@, D.38436
	mov	r0, r5	@, pBs
	mov	r2, #7	@,
	bl	Vp6_Vfmw_BoolRead	@
	mov	r1, r0, asl #1	@ tmp361,,
	uxtb	r3, r1	@ temp.3364, tmp361
	strb	r3, [r7, #503]	@ temp.3364, <variable>.MvSizeProbs
	cmp	r3, #0	@ temp.3364,
	moveq	r3, #1	@ tmp363,
	streqb	r3, [r7, #503]	@ tmp363, <variable>.MvSizeProbs
	b	.L393	@
.L435:
	mov	r0, r5	@, pBs
	mov	r1, r4	@, D.38436
	mov	r2, #7	@,
	bl	Vp6_Vfmw_BoolRead	@
	mov	ip, r0, asl #1	@ tmp354,,
	uxtb	r0, ip	@ temp.3359, tmp354
	strb	r0, [r7, #502]	@ temp.3359, <variable>.MvSizeProbs
	cmp	r0, #0	@ temp.3359,
	moveq	r0, #1	@ tmp356,
	streqb	r0, [r7, #502]	@ tmp356, <variable>.MvSizeProbs
	b	.L392	@
.L434:
	mov	r1, r4	@, D.38436
	mov	r2, #7	@,
	mov	r0, r5	@, pBs
	bl	Vp6_Vfmw_BoolRead	@
	mov	r2, r0, asl #1	@ tmp347,,
	uxtb	r1, r2	@ temp.3354, tmp347
	strb	r1, [r7, #501]	@ temp.3354, <variable>.MvSizeProbs
	cmp	r1, #0	@ temp.3354,
	moveq	r1, #1	@ tmp349,
	streqb	r1, [r7, #501]	@ tmp349, <variable>.MvSizeProbs
	b	.L391	@
.L433:
	mov	r0, r5	@, pBs
	mov	r1, r4	@, D.38436
	mov	r2, #7	@,
	bl	Vp6_Vfmw_BoolRead	@
	mov	r3, r0, asl #1	@ tmp340,,
	uxtb	ip, r3	@ temp.3349, tmp340
	strb	ip, [r7, #500]	@ temp.3349, <variable>.MvSizeProbs
	cmp	ip, #0	@ temp.3349,
	moveq	ip, #1	@ tmp342,
	streqb	ip, [r7, #500]	@ tmp342, <variable>.MvSizeProbs
	b	.L390	@
.L432:
	mov	r2, #7	@,
	mov	r0, r5	@, pBs
	mov	r1, r4	@, D.38436
	bl	Vp6_Vfmw_BoolRead	@
	mov	r2, r0, asl #1	@ tmp333,,
	uxtb	r0, r2	@ temp.3344, tmp333
	strb	r0, [r7, #499]	@ temp.3344, <variable>.MvSizeProbs
	cmp	r0, #0	@ temp.3344,
	moveq	r0, #1	@ tmp335,
	streqb	r0, [r7, #499]	@ tmp335, <variable>.MvSizeProbs
	b	.L389	@
.L431:
	mov	r1, r4	@, D.38436
	mov	r0, r5	@, pBs
	mov	r2, #7	@,
	bl	Vp6_Vfmw_BoolRead	@
	mov	r1, r0, asl #1	@ tmp326,,
	uxtb	r3, r1	@ temp.3339, tmp326
	strb	r3, [r7, #498]	@ temp.3339, <variable>.MvSizeProbs
	cmp	r3, #0	@ temp.3339,
	moveq	r3, #1	@ tmp328,
	streqb	r3, [r7, #498]	@ tmp328, <variable>.MvSizeProbs
	b	.L388	@
.L430:
	mov	r2, #7	@,
	mov	r0, r5	@, pBs
	mov	r1, r4	@, D.38436
	bl	Vp6_Vfmw_BoolRead	@
	mov	ip, r0, asl #1	@ tmp319,,
	uxtb	r2, ip	@ D.38466, tmp319
	strb	r2, [r7, #497]	@ D.38466, <variable>.MvShortProbs
	cmp	r2, #0	@ D.38466,
	moveq	r2, #1	@ tmp321,
	streqb	r2, [r7, #497]	@ tmp321, <variable>.MvShortProbs
	b	.L387	@
.L429:
	mov	r2, #7	@,
	mov	r0, r5	@, pBs
	mov	r1, r4	@, D.38436
	bl	Vp6_Vfmw_BoolRead	@
	mov	r2, r0, asl #1	@ tmp417,,
	uxtb	r0, r2	@ temp.3279, tmp417
	strb	r0, [r7, #496]	@ temp.3279, <variable>.MvShortProbs
	cmp	r0, #0	@ temp.3279,
	moveq	r0, #1	@ tmp419,
	streqb	r0, [r7, #496]	@ tmp419, <variable>.MvShortProbs
	b	.L402	@
.L428:
	mov	r1, r4	@, D.38436
	mov	r0, r5	@, pBs
	mov	r2, #7	@,
	bl	Vp6_Vfmw_BoolRead	@
	mov	r1, r0, asl #1	@ tmp410,,
	uxtb	r3, r1	@ temp.3272, tmp410
	strb	r3, [r7, #495]	@ temp.3272, <variable>.MvShortProbs
	cmp	r3, #0	@ temp.3272,
	moveq	r3, #1	@ tmp412,
	streqb	r3, [r7, #495]	@ tmp412, <variable>.MvShortProbs
	b	.L401	@
.L427:
	mov	r2, #7	@,
	mov	r0, r5	@, pBs
	mov	r1, r4	@, D.38436
	bl	Vp6_Vfmw_BoolRead	@
	mov	ip, r0, asl #1	@ tmp403,,
	uxtb	r2, ip	@ temp.3264, tmp403
	strb	r2, [r7, #494]	@ temp.3264, <variable>.MvShortProbs
	cmp	r2, #0	@ temp.3264,
	moveq	r2, #1	@ tmp405,
	streqb	r2, [r7, #494]	@ tmp405, <variable>.MvShortProbs
	b	.L400	@
.L426:
	mov	r1, r4	@, D.38436
	mov	r0, r5	@, pBs
	mov	r2, #7	@,
	bl	Vp6_Vfmw_BoolRead	@
	mov	r1, r0, asl #1	@ tmp396,,
	uxtb	r0, r1	@ temp.3259, tmp396
	strb	r0, [r7, #493]	@ temp.3259, <variable>.MvShortProbs
	cmp	r0, #0	@ temp.3259,
	moveq	r0, #1	@ tmp398,
	streqb	r0, [r7, #493]	@ tmp398, <variable>.MvShortProbs
	b	.L399	@
.L425:
	mov	r0, r5	@, pBs
	mov	r1, r4	@, D.38436
	mov	r2, #7	@,
	bl	Vp6_Vfmw_BoolRead	@
	mov	r3, r0, asl #1	@ tmp389,,
	uxtb	ip, r3	@ temp.3252, tmp389
	strb	ip, [r7, #492]	@ temp.3252, <variable>.MvShortProbs
	cmp	ip, #0	@ temp.3252,
	moveq	ip, #1	@ tmp391,
	streqb	ip, [r7, #492]	@ tmp391, <variable>.MvShortProbs
	b	.L398	@
.L424:
	mov	r1, r4	@, D.38436
	mov	r2, #7	@,
	mov	r0, r5	@, pBs
	bl	Vp6_Vfmw_BoolRead	@
	mov	r2, r0, asl #1	@ tmp382,,
	uxtb	r1, r2	@ temp.3244, tmp382
	strb	r1, [r7, #491]	@ temp.3244, <variable>.MvShortProbs
	cmp	r1, #0	@ temp.3244,
	moveq	r1, #1	@ tmp384,
	streqb	r1, [r7, #491]	@ tmp384, <variable>.MvShortProbs
	b	.L386	@
.L423:
	mov	r1, r4	@, D.38436
	mov	r0, r5	@, pBs
	mov	r2, #7	@,
	bl	Vp6_Vfmw_BoolRead	@
	mov	r1, r0, asl #1	@ tmp312,,
	uxtb	r0, r1	@ temp.3334, tmp312
	strb	r0, [r7, #490]	@ temp.3334, <variable>.MvShortProbs
	cmp	r0, #0	@ temp.3334,
	moveq	r0, #1	@ tmp314,
	streqb	r0, [r7, #490]	@ tmp314, <variable>.MvShortProbs
	b	.L384	@
.L422:
	mov	r0, r5	@, pBs
	mov	r1, r4	@, D.38436
	mov	r2, #7	@,
	bl	Vp6_Vfmw_BoolRead	@
	mov	r3, r0, asl #1	@ tmp305,,
	uxtb	ip, r3	@ temp.3329, tmp305
	strb	ip, [r7, #489]	@ temp.3329, <variable>.MvShortProbs
	cmp	ip, #0	@ temp.3329,
	moveq	ip, #1	@ tmp307,
	streqb	ip, [r7, #489]	@ tmp307, <variable>.MvShortProbs
	b	.L383	@
.L421:
	mov	r1, r4	@, D.38436
	mov	r2, #7	@,
	mov	r0, r5	@, pBs
	bl	Vp6_Vfmw_BoolRead	@
	mov	r2, r0, asl #1	@ tmp298,,
	uxtb	r1, r2	@ temp.3233, tmp298
	strb	r1, [r7, #488]	@ temp.3233, <variable>.MvShortProbs
	cmp	r1, #0	@ temp.3233,
	moveq	r1, #1	@ tmp300,
	streqb	r1, [r7, #488]	@ tmp300, <variable>.MvShortProbs
	b	.L382	@
.L420:
	mov	r0, r5	@, pBs
	mov	r1, r4	@, D.38436
	mov	r2, #7	@,
	bl	Vp6_Vfmw_BoolRead	@
	mov	r3, r0, asl #1	@ tmp291,,
	uxtb	r0, r3	@ temp.3245, tmp291
	strb	r0, [r7, #487]	@ temp.3245, <variable>.MvShortProbs
	cmp	r0, #0	@ temp.3245,
	moveq	r0, #1	@ tmp293,
	streqb	r0, [r7, #487]	@ tmp293, <variable>.MvShortProbs
	b	.L381	@
.L419:
	mov	r2, #7	@,
	mov	r0, r5	@, pBs
	mov	r1, r4	@, D.38436
	bl	Vp6_Vfmw_BoolRead	@
	mov	ip, r0, asl #1	@ tmp284,,
	uxtb	r2, ip	@ temp.3265, tmp284
	strb	r2, [r7, #486]	@ temp.3265, <variable>.MvShortProbs
	cmp	r2, #0	@ temp.3265,
	moveq	r2, #1	@ tmp286,
	streqb	r2, [r7, #486]	@ tmp286, <variable>.MvShortProbs
	b	.L380	@
.L418:
	mov	r1, r4	@, D.38436
	mov	r0, r5	@, pBs
	mov	r2, #7	@,
	bl	Vp6_Vfmw_BoolRead	@
	mov	r1, r0, asl #1	@ tmp277,,
	uxtb	r3, r1	@ temp.3290, tmp277
	strb	r3, [r7, #485]	@ temp.3290, <variable>.MvShortProbs
	cmp	r3, #0	@ temp.3290,
	moveq	r3, #1	@ tmp279,
	streqb	r3, [r7, #485]	@ tmp279, <variable>.MvShortProbs
	b	.L379	@
.L417:
	mov	r0, r5	@, pBs
	mov	r1, r4	@, D.38436
	mov	r2, #7	@,
	bl	Vp6_Vfmw_BoolRead	@
	mov	ip, r0, asl #1	@ tmp270,,
	uxtb	r0, ip	@ temp.3310, tmp270
	strb	r0, [r7, #484]	@ temp.3310, <variable>.MvShortProbs
	cmp	r0, #0	@ temp.3310,
	moveq	r0, #1	@ tmp272,
	streqb	r0, [r7, #484]	@ tmp272, <variable>.MvShortProbs
	b	.L378	@
.L416:
	mov	r1, r4	@, D.38436
	mov	r2, #7	@,
	mov	r0, r5	@, pBs
	bl	Vp6_Vfmw_BoolRead	@
	mov	r2, r0, asl #1	@ tmp263,,
	uxtb	r1, r2	@ D.38454, tmp263
	strb	r1, [r7, #1]	@ D.38454, <variable>.MvSignProbs
	cmp	r1, #0	@ D.38454,
	moveq	r1, #1	@ tmp265,
	streqb	r1, [r7, #1]	@ tmp265, <variable>.MvSignProbs
	b	.L377	@
.L415:
	mov	r0, r5	@, pBs
	mov	r1, r4	@, D.38436
	mov	r2, #7	@,
	bl	Vp6_Vfmw_BoolRead	@
	mov	r3, r0, asl #1	@ tmp256,,
	uxtb	ip, r3	@ D.38444, tmp256
	strb	ip, [r7, #3]	@ D.38444, <variable>.IsMvShortProb
	cmp	ip, #0	@ D.38444,
	moveq	ip, #1	@ tmp258,
	streqb	ip, [r7, #3]	@ tmp258, <variable>.IsMvShortProb
	b	.L376	@
.L414:
	mov	r2, #7	@,
	mov	r0, r5	@, pBs
	mov	r1, r4	@, D.38436
	bl	Vp6_Vfmw_BoolRead	@
	mov	r2, r0, asl #1	@ tmp249,,
	uxtb	r0, r2	@ temp.3232, tmp249
	strb	r0, [r7, #0]	@ temp.3232, <variable>.MvSignProbs
	cmp	r0, #0	@ temp.3232,
	moveq	r0, #1	@ tmp251,
	streqb	r0, [r7, #0]	@ tmp251, <variable>.MvSignProbs
	b	.L375	@
.L413:
	mov	r1, r4	@, D.38436
	mov	r0, r5	@, pBs
	mov	r2, #7	@,
	bl	Vp6_Vfmw_BoolRead	@
	mov	r1, r0, asl #1	@ tmp242,,
	uxtb	r3, r1	@ temp.3235, tmp242
	strb	r3, [r7, #2]	@ temp.3235, <variable>.IsMvShortProb
	cmp	r3, #0	@ temp.3235,
	moveq	r3, #1	@ tmp244,
	streqb	r3, [r7, #2]	@ tmp244, <variable>.IsMvShortProb
	b	.L374	@
	.fnend
	.size	VP6_ConfigureMvEntropyDecoder, .-VP6_ConfigureMvEntropyDecoder
	.align	2
	.global	VP6_decodeModeDiff
	.type	VP6_decodeModeDiff, %function
VP6_decodeModeDiff:
	.fnstart
.LFB1928:
	@ args = 0, pretend = 0, frame = 0
	@ frame_needed = 0, uses_anonymous_args = 0
	stmfd	sp!, {r4, r5, r6, lr}	@,
	.save {r4, r5, r6, lr}
	add	r4, r1, #72	@ D.38335, pbi,
	mov	r2, #205	@,
	mov	r5, r0	@ pBs, pBs
	mov	r1, r4	@, D.38335
	bl	Vp6_Vfmw_DecodeBool	@
	cmp	r0, #0	@ D.38336
	ldmeqfd	sp!, {r4, r5, r6, pc}	@
	mov	r1, r4	@, D.38335
	mov	r0, r5	@, pBs
	bl	Vp6_Vfmw_DecodeBool128	@
	mov	r1, r4	@, D.38335
	mov	r2, #171	@,
	rsb	r3, r0, r0, asl #31	@, tmp150,,,
	mov	r0, r5	@, pBs
	mov	r6, r3, asl #1	@ tmp151, tmp150,
	bl	Vp6_Vfmw_DecodeBool	@
	add	r6, r6, #1	@ sign, tmp151,
	cmp	r0, #0	@,
	beq	.L456	@,
	mov	r0, r5	@, pBs
	mov	r1, r4	@, D.38335
	mov	r2, #199	@,
	bl	Vp6_Vfmw_DecodeBool	@
	cmp	r0, #0	@,
	bne	.L451	@,
	mov	r0, r5	@, pBs
	mov	r1, r4	@, D.38335
	mov	r2, #140	@,
	bl	Vp6_Vfmw_DecodeBool	@
	cmp	r0, #0	@,
	addne	r6, r6, r6, asl #1	@, tmp155, sign, sign,
	movne	r0, r6, asl #2	@ D.38339, tmp155,
	ldmnefd	sp!, {r4, r5, r6, pc}	@
	mov	r0, r5	@, pBs
	mov	r1, r4	@, D.38335
	mov	r2, #125	@,
	bl	Vp6_Vfmw_DecodeBool	@
	cmp	r0, #0	@,
	movne	r0, r6, asl #4	@ D.38339, sign,
	ldmnefd	sp!, {r4, r5, r6, pc}	@
	mov	r0, r5	@, pBs
	mov	r1, r4	@, D.38335
	mov	r2, #104	@,
	bl	Vp6_Vfmw_DecodeBool	@
	cmp	r0, #0	@,
	addne	r6, r6, r6, asl #2	@, tmp159, sign, sign,
	addeq	r6, r6, r6, asl #1	@, tmp163, sign, sign,
	movne	r0, r6, asl #2	@ D.38339, tmp159,
	moveq	r0, r6, asl #3	@ D.38339, tmp163,
	ldmfd	sp!, {r4, r5, r6, pc}	@
.L451:
	mov	r0, r5	@, pBs
	mov	r1, r4	@, D.38335
	mov	r2, #7	@,
	mov	r6, r6, asl #2	@ tmp165, sign,
	bl	Vp6_Vfmw_BoolRead	@
	mul	r0, r0, r6	@ D.38339,, tmp165
	ldmfd	sp!, {r4, r5, r6, pc}	@
.L456:
	mov	r0, r5	@, pBs
	mov	r1, r4	@, D.38335
	mov	r2, #83	@,
	bl	Vp6_Vfmw_DecodeBool	@
	rsb	r0, r0, #3	@ tmp152,,
	mov	r0, r6, asl r0	@ D.38339, sign,
	ldmfd	sp!, {r4, r5, r6, pc}	@
	.fnend
	.size	VP6_decodeModeDiff, .-VP6_decodeModeDiff
	.align	2
	.global	VP6_DecodeModeProbs
	.type	VP6_DecodeModeProbs, %function
VP6_DecodeModeProbs:
	.fnstart
.LFB1929:
	@ args = 0, pretend = 0, frame = 48
	@ frame_needed = 0, uses_anonymous_args = 0
	stmfd	sp!, {r4, r5, r6, r7, r8, r9, sl, fp, lr}	@,
	.save {r4, r5, r6, r7, r8, r9, sl, fp, lr}
	mov	r6, r2	@ pbi, pbi
	.pad #52
	sub	sp, sp, #52	@,,
	add	r8, r6, #72	@ D.38381, pbi,
	mov	sl, r0	@ pVp6CodecInfo, pVp6CodecInfo
	mov	r5, r1	@ pBs, pBs
	mov	r4, r0	@ ivtmp.3435, pVp6CodecInfo
	mov	r7, #0	@ j,
	movw	r2, #:lower16:.LANCHOR0	@,
	movt	r2, #:upper16:.LANCHOR0	@,
	str	r2, [sp, #4]	@, %sfp
.L500:
	mov	r0, r5	@, pBs
	mov	r1, r8	@, D.38381
	mov	r2, #174	@,
	bl	Vp6_Vfmw_DecodeBool	@
	cmp	r0, #0	@,
	bne	.L503	@,
.L458:
	mov	r0, r5	@, pBs
	mov	r1, r8	@, D.38381
	mov	r2, #254	@,
	bl	Vp6_Vfmw_DecodeBool	@
	cmp	r0, #0	@,
	beq	.L459	@,
	mov	r0, r5	@, pBs
	mov	r1, r6	@, pbi
	bl	VP6_decodeModeDiff	@
	mov	r9, r7, asl #2	@ tmp596, j,
	add	r3, r9, r7	@ tmp511, tmp596, j
	add	fp, sl, r3, asl #2	@, tmp513, pVp6CodecInfo, tmp511,
	ldrb	r2, [fp, #414]	@ zero_extendqisi2	@ tmp515, <variable>.probXmitted
	adds	r3, r2, r0	@ diff.3480, tmp515,
	movmi	r3, #0	@ iftmp.3482,
	bmi	.L461	@,
	cmp	r3, #255	@ diff.3480,
	movge	r3, #255	@ tmp516,
	uxtb	r3, r3	@ iftmp.3482, tmp516
.L461:
	add	lr, r9, r7	@ tmp520, tmp596, j
	mov	r1, r6	@, pbi
	mov	r0, r5	@, pBs
	add	fp, sl, lr, asl #2	@, tmp522, pVp6CodecInfo, tmp520,
	strb	r3, [fp, #414]	@ iftmp.3482, <variable>.probXmitted
	bl	VP6_decodeModeDiff	@
	ldrb	r1, [fp, #404]	@ zero_extendqisi2	@ tmp532, <variable>.probXmitted
	adds	r3, r0, r1	@ diff.3486,, tmp532
	movmi	r3, #0	@ iftmp.3488,
	bmi	.L463	@,
	cmp	r3, #255	@ diff.3486,
	movge	r3, #255	@ tmp533,
	uxtb	r3, r3	@ iftmp.3488, tmp533
.L463:
	add	r9, r9, r7	@ tmp537, tmp596, j
	mov	r0, r5	@, pBs
	mov	r1, r6	@, pbi
	add	r9, sl, r9, asl #2	@, tmp539, pVp6CodecInfo, tmp537,
	strb	r3, [r9, #404]	@ iftmp.3488, <variable>.probXmitted
	bl	VP6_decodeModeDiff	@
	ldrb	ip, [r4, #415]	@ zero_extendqisi2	@ tmp542, <variable>.probXmitted
	adds	r3, r0, ip	@ diff.3492,, tmp542
	movmi	r3, #0	@ iftmp.3494,
	bmi	.L465	@,
	cmp	r3, #255	@ diff.3492,
	movge	r3, #255	@ tmp543,
	uxtb	r3, r3	@ iftmp.3494, tmp543
.L465:
	strb	r3, [r4, #415]	@ iftmp.3494, <variable>.probXmitted
	mov	r0, r5	@, pBs
	mov	r1, r6	@, pbi
	bl	VP6_decodeModeDiff	@
	ldrb	r2, [r4, #405]	@ zero_extendqisi2	@ tmp545, <variable>.probXmitted
	adds	r3, r0, r2	@ diff.3498,, tmp545
	movmi	r3, #0	@ iftmp.3500,
	bmi	.L467	@,
	cmp	r3, #255	@ diff.3498,
	movge	r3, #255	@ tmp546,
	uxtb	r3, r3	@ iftmp.3500, tmp546
.L467:
	strb	r3, [r4, #405]	@ iftmp.3500, <variable>.probXmitted
	mov	r0, r5	@, pBs
	mov	r1, r6	@, pbi
	bl	VP6_decodeModeDiff	@
	ldrb	r3, [r4, #416]	@ zero_extendqisi2	@ tmp548, <variable>.probXmitted
	adds	r3, r0, r3	@ diff.3504,, tmp548
	movmi	r3, #0	@ iftmp.3506,
	bmi	.L469	@,
	cmp	r3, #255	@ diff.3504,
	movge	r3, #255	@ tmp549,
	uxtb	r3, r3	@ iftmp.3506, tmp549
.L469:
	strb	r3, [r4, #416]	@ iftmp.3506, <variable>.probXmitted
	mov	r1, r6	@, pbi
	mov	r0, r5	@, pBs
	bl	VP6_decodeModeDiff	@
	ldrb	r1, [r4, #406]	@ zero_extendqisi2	@ tmp551, <variable>.probXmitted
	adds	r3, r0, r1	@ diff.3510,, tmp551
	movmi	r3, #0	@ iftmp.3512,
	bmi	.L471	@,
	cmp	r3, #255	@ diff.3510,
	movge	r3, #255	@ tmp552,
	uxtb	r3, r3	@ iftmp.3512, tmp552
.L471:
	strb	r3, [r4, #406]	@ iftmp.3512, <variable>.probXmitted
	mov	r0, r5	@, pBs
	mov	r1, r6	@, pbi
	bl	VP6_decodeModeDiff	@
	ldrb	ip, [r4, #417]	@ zero_extendqisi2	@ tmp554, <variable>.probXmitted
	adds	r3, r0, ip	@ diff.3516,, tmp554
	movmi	r3, #0	@ iftmp.3518,
	bmi	.L473	@,
	cmp	r3, #255	@ diff.3516,
	movge	r3, #255	@ tmp555,
	uxtb	r3, r3	@ iftmp.3518, tmp555
.L473:
	strb	r3, [r4, #417]	@ iftmp.3518, <variable>.probXmitted
	mov	r0, r5	@, pBs
	mov	r1, r6	@, pbi
	bl	VP6_decodeModeDiff	@
	ldrb	r2, [r4, #407]	@ zero_extendqisi2	@ tmp557, <variable>.probXmitted
	adds	r3, r0, r2	@ diff.3522,, tmp557
	movmi	r3, #0	@ iftmp.3524,
	bmi	.L475	@,
	cmp	r3, #255	@ diff.3522,
	movge	r3, #255	@ tmp558,
	uxtb	r3, r3	@ iftmp.3524, tmp558
.L475:
	strb	r3, [r4, #407]	@ iftmp.3524, <variable>.probXmitted
	mov	r0, r5	@, pBs
	mov	r1, r6	@, pbi
	bl	VP6_decodeModeDiff	@
	ldrb	r3, [r4, #418]	@ zero_extendqisi2	@ tmp560, <variable>.probXmitted
	adds	r3, r0, r3	@ diff.3528,, tmp560
	movmi	r3, #0	@ iftmp.3530,
	bmi	.L477	@,
	cmp	r3, #255	@ diff.3528,
	movge	r3, #255	@ tmp561,
	uxtb	r3, r3	@ iftmp.3530, tmp561
.L477:
	strb	r3, [r4, #418]	@ iftmp.3530, <variable>.probXmitted
	mov	r1, r6	@, pbi
	mov	r0, r5	@, pBs
	bl	VP6_decodeModeDiff	@
	ldrb	r1, [r4, #408]	@ zero_extendqisi2	@ tmp563, <variable>.probXmitted
	adds	r3, r0, r1	@ diff.3534,, tmp563
	movmi	r3, #0	@ iftmp.3536,
	bmi	.L479	@,
	cmp	r3, #255	@ diff.3534,
	movge	r3, #255	@ tmp564,
	uxtb	r3, r3	@ iftmp.3536, tmp564
.L479:
	strb	r3, [r4, #408]	@ iftmp.3536, <variable>.probXmitted
	mov	r0, r5	@, pBs
	mov	r1, r6	@, pbi
	bl	VP6_decodeModeDiff	@
	ldrb	ip, [r4, #419]	@ zero_extendqisi2	@ tmp566, <variable>.probXmitted
	adds	r3, r0, ip	@ diff.3540,, tmp566
	movmi	r3, #0	@ iftmp.3542,
	bmi	.L481	@,
	cmp	r3, #255	@ diff.3540,
	movge	r3, #255	@ tmp567,
	uxtb	r3, r3	@ iftmp.3542, tmp567
.L481:
	strb	r3, [r4, #419]	@ iftmp.3542, <variable>.probXmitted
	mov	r0, r5	@, pBs
	mov	r1, r6	@, pbi
	bl	VP6_decodeModeDiff	@
	ldrb	r2, [r4, #409]	@ zero_extendqisi2	@ tmp569, <variable>.probXmitted
	adds	r3, r0, r2	@ diff.3546,, tmp569
	movmi	r3, #0	@ iftmp.3548,
	bmi	.L483	@,
	cmp	r3, #255	@ diff.3546,
	movge	r3, #255	@ tmp570,
	uxtb	r3, r3	@ iftmp.3548, tmp570
.L483:
	strb	r3, [r4, #409]	@ iftmp.3548, <variable>.probXmitted
	mov	r0, r5	@, pBs
	mov	r1, r6	@, pbi
	bl	VP6_decodeModeDiff	@
	ldrb	r3, [r4, #420]	@ zero_extendqisi2	@ tmp572, <variable>.probXmitted
	adds	r3, r0, r3	@ diff.3552,, tmp572
	movmi	r3, #0	@ iftmp.3554,
	bmi	.L485	@,
	cmp	r3, #255	@ diff.3552,
	movge	r3, #255	@ tmp573,
	uxtb	r3, r3	@ iftmp.3554, tmp573
.L485:
	strb	r3, [r4, #420]	@ iftmp.3554, <variable>.probXmitted
	mov	r1, r6	@, pbi
	mov	r0, r5	@, pBs
	bl	VP6_decodeModeDiff	@
	ldrb	r1, [r4, #410]	@ zero_extendqisi2	@ tmp575, <variable>.probXmitted
	adds	r3, r0, r1	@ diff.3558,, tmp575
	movmi	r3, #0	@ iftmp.3560,
	bmi	.L487	@,
	cmp	r3, #255	@ diff.3558,
	movge	r3, #255	@ tmp576,
	uxtb	r3, r3	@ iftmp.3560, tmp576
.L487:
	strb	r3, [r4, #410]	@ iftmp.3560, <variable>.probXmitted
	mov	r0, r5	@, pBs
	mov	r1, r6	@, pbi
	bl	VP6_decodeModeDiff	@
	ldrb	ip, [r4, #421]	@ zero_extendqisi2	@ tmp578, <variable>.probXmitted
	adds	r3, r0, ip	@ diff.3564,, tmp578
	movmi	r3, #0	@ iftmp.3566,
	bmi	.L489	@,
	cmp	r3, #255	@ diff.3564,
	movge	r3, #255	@ tmp579,
	uxtb	r3, r3	@ iftmp.3566, tmp579
.L489:
	strb	r3, [r4, #421]	@ iftmp.3566, <variable>.probXmitted
	mov	r0, r5	@, pBs
	mov	r1, r6	@, pbi
	bl	VP6_decodeModeDiff	@
	ldrb	r2, [r4, #411]	@ zero_extendqisi2	@ tmp581, <variable>.probXmitted
	adds	r3, r0, r2	@ diff.3570,, tmp581
	movmi	r3, #0	@ iftmp.3572,
	bmi	.L491	@,
	cmp	r3, #255	@ diff.3570,
	movge	r3, #255	@ tmp582,
	uxtb	r3, r3	@ iftmp.3572, tmp582
.L491:
	strb	r3, [r4, #411]	@ iftmp.3572, <variable>.probXmitted
	mov	r0, r5	@, pBs
	mov	r1, r6	@, pbi
	bl	VP6_decodeModeDiff	@
	ldrb	r3, [r4, #422]	@ zero_extendqisi2	@ tmp584, <variable>.probXmitted
	adds	r3, r0, r3	@ diff.3576,, tmp584
	movmi	r3, #0	@ iftmp.3578,
	bmi	.L493	@,
	cmp	r3, #255	@ diff.3576,
	movge	r3, #255	@ tmp585,
	uxtb	r3, r3	@ iftmp.3578, tmp585
.L493:
	strb	r3, [r4, #422]	@ iftmp.3578, <variable>.probXmitted
	mov	r1, r6	@, pbi
	mov	r0, r5	@, pBs
	bl	VP6_decodeModeDiff	@
	ldrb	r1, [r4, #412]	@ zero_extendqisi2	@ tmp587, <variable>.probXmitted
	adds	r3, r0, r1	@ diff.3582,, tmp587
	movmi	r3, #0	@ iftmp.3584,
	bmi	.L495	@,
	cmp	r3, #255	@ diff.3582,
	movge	r3, #255	@ tmp588,
	uxtb	r3, r3	@ iftmp.3584, tmp588
.L495:
	strb	r3, [r4, #412]	@ iftmp.3584, <variable>.probXmitted
	mov	r0, r5	@, pBs
	mov	r1, r6	@, pbi
	bl	VP6_decodeModeDiff	@
	ldrb	ip, [r4, #423]	@ zero_extendqisi2	@ tmp590, <variable>.probXmitted
	adds	r3, r0, ip	@ diff.3455,, tmp590
	movmi	r3, #0	@ iftmp.521,
	bmi	.L497	@,
	cmp	r3, #255	@ diff.3455,
	movge	r3, #255	@ tmp591,
	uxtb	r3, r3	@ iftmp.521, tmp591
.L497:
	strb	r3, [r4, #423]	@ iftmp.521, <variable>.probXmitted
	mov	r0, r5	@, pBs
	mov	r1, r6	@, pbi
	bl	VP6_decodeModeDiff	@
	ldrb	r2, [r4, #413]	@ zero_extendqisi2	@ tmp593, <variable>.probXmitted
	adds	r3, r0, r2	@ diff.3457,, tmp593
	movmi	r3, #0	@ iftmp.523,
	bmi	.L499	@,
	cmp	r3, #255	@ diff.3457,
	movge	r3, #255	@ tmp594,
	uxtb	r3, r3	@ iftmp.523, tmp594
.L499:
	strb	r3, [r4, #413]	@ iftmp.523, <variable>.probXmitted
.L459:
	add	r7, r7, #1	@ j, j,
	add	r4, r4, #20	@ ivtmp.3435, ivtmp.3435,
	cmp	r7, #3	@ j,
	bne	.L500	@,
	mov	r0, sl	@, pVp6CodecInfo
	mov	r1, r6	@, pbi
	add	sp, sp, #52	@,,
	ldmfd	sp!, {r4, r5, r6, r7, r8, r9, sl, fp, lr}
	b	VP6_BuildModeTree	@
.L503:
	mov	r1, r8	@, D.38381
	mov	r2, #4	@,
	mov	r0, r5	@, pBs
	bl	Vp6_Vfmw_BoolRead	@
	add	ip, r7, r7, asl #2	@, tmp216, j, j,
	ldr	fp, [sp, #4]	@, %sfp
	mov	r3, ip, asl #6	@ tmp217, tmp216,
	add	r1, r0, r0, asl #2	@, tmp212,,,
	add	r9, r3, r1, asl #2	@, tmp218, tmp217, tmp212,
	add	r3, r9, fp	@ tmp219, tmp218,
	ldrb	r2, [r3, #482]	@ zero_extendqisi2	@, VP6_ModeVq
	ldrb	lr, [r3, #478]	@ zero_extendqisi2	@ tmp251, VP6_ModeVq
	ldrb	ip, [r3, #479]	@ zero_extendqisi2	@ tmp266, VP6_ModeVq
	str	r2, [sp, #8]	@, %sfp
	ldrb	r2, [r3, #483]	@ zero_extendqisi2	@, VP6_ModeVq
	ldrb	r0, [r3, #480]	@ zero_extendqisi2	@ tmp281, VP6_ModeVq
	ldrb	fp, [r3, #476]	@ zero_extendqisi2	@ tmp221, VP6_ModeVq
	str	r2, [sp, #12]	@, %sfp
	ldrb	r2, [r3, #484]	@ zero_extendqisi2	@, VP6_ModeVq
	ldrb	r9, [r3, #477]	@ zero_extendqisi2	@ tmp236, VP6_ModeVq
	ldrb	r1, [r3, #481]	@ zero_extendqisi2	@ tmp296, VP6_ModeVq
	str	r2, [sp, #16]	@, %sfp
	ldrb	r2, [r3, #485]	@ zero_extendqisi2	@, VP6_ModeVq
	str	r2, [sp, #20]	@, %sfp
	ldrb	r2, [r3, #486]	@ zero_extendqisi2	@, VP6_ModeVq
	str	r2, [sp, #24]	@, %sfp
	ldrb	r2, [r3, #487]	@ zero_extendqisi2	@, VP6_ModeVq
	str	r2, [sp, #28]	@, %sfp
	ldrb	r2, [r3, #488]	@ zero_extendqisi2	@, VP6_ModeVq
	str	r2, [sp, #32]	@, %sfp
	ldrb	r2, [r3, #489]	@ zero_extendqisi2	@, VP6_ModeVq
	str	r2, [sp, #36]	@, %sfp
	ldrb	r2, [r3, #490]	@ zero_extendqisi2	@, VP6_ModeVq
	str	r2, [sp, #40]	@, %sfp
	ldrb	r2, [r3, #491]	@ zero_extendqisi2	@, VP6_ModeVq
	str	r2, [sp, #44]	@, %sfp
	ldrb	r2, [r3, #492]	@ zero_extendqisi2	@ tmp461, VP6_ModeVq
	strb	lr, [r4, #415]	@ tmp251, <variable>.probXmitted
	strb	ip, [r4, #405]	@ tmp266, <variable>.probXmitted
	strb	r0, [r4, #416]	@ tmp281, <variable>.probXmitted
	strb	fp, [r4, #414]	@, <variable>.probXmitted
	strb	r9, [r4, #404]	@ tmp236, <variable>.probXmitted
	strb	r1, [r4, #406]	@ tmp296, <variable>.probXmitted
	ldr	lr, [sp, #8]	@, %sfp
	strb	lr, [r4, #417]	@, <variable>.probXmitted
	ldr	ip, [sp, #12]	@, %sfp
	strb	ip, [r4, #407]	@, <variable>.probXmitted
	ldr	r1, [sp, #16]	@, %sfp
	strb	r1, [r4, #418]	@, <variable>.probXmitted
	ldr	r0, [sp, #20]	@, %sfp
	strb	r0, [r4, #408]	@, <variable>.probXmitted
	ldr	lr, [sp, #24]	@, %sfp
	strb	lr, [r4, #419]	@, <variable>.probXmitted
	ldr	ip, [sp, #28]	@, %sfp
	strb	ip, [r4, #409]	@, <variable>.probXmitted
	ldr	r1, [sp, #32]	@, %sfp
	strb	r1, [r4, #420]	@, <variable>.probXmitted
	ldr	r0, [sp, #36]	@, %sfp
	ldrb	r1, [r3, #495]	@ zero_extendqisi2	@ tmp506, VP6_ModeVq
	strb	r0, [r4, #410]	@, <variable>.probXmitted
	ldr	lr, [sp, #40]	@, %sfp
	ldrb	r0, [r3, #493]	@ zero_extendqisi2	@ tmp476, VP6_ModeVq
	ldrb	r3, [r3, #494]	@ zero_extendqisi2	@ tmp491, VP6_ModeVq
	strb	lr, [r4, #421]	@, <variable>.probXmitted
	ldr	ip, [sp, #44]	@, %sfp
	strb	r2, [r4, #422]	@ tmp461, <variable>.probXmitted
	strb	r1, [r4, #413]	@ tmp506, <variable>.probXmitted
	strb	ip, [r4, #411]	@, <variable>.probXmitted
	strb	r0, [r4, #412]	@ tmp476, <variable>.probXmitted
	strb	r3, [r4, #423]	@ tmp491, <variable>.probXmitted
	b	.L458	@
	.fnend
	.size	VP6_DecodeModeProbs, .-VP6_DecodeModeProbs
	.align	2
	.global	VP6_ConfigureEntropyDecoder
	.type	VP6_ConfigureEntropyDecoder, %function
VP6_ConfigureEntropyDecoder:
	.fnstart
.LFB1927:
	@ args = 0, pretend = 0, frame = 48
	@ frame_needed = 0, uses_anonymous_args = 0
	stmfd	sp!, {r4, r5, r6, r7, r8, r9, sl, fp, lr}	@,
	.save {r4, r5, r6, r7, r8, r9, sl, fp, lr}
	movw	r4, #:lower16:__stack_chk_guard	@,
	movt	r4, #:upper16:__stack_chk_guard	@,
	.pad #52
	sub	sp, sp, #52	@,,
	movw	r7, #:lower16:.LANCHOR0	@ tmp993,
	movt	r7, #:upper16:.LANCHOR0	@ tmp993,
	ldr	ip, [r4, #0]	@ __stack_chk_guard, __stack_chk_guard
	mov	r5, r1	@ pBs, pBs
	str	r4, [sp, #24]	@, %sfp
	add	r4, r2, #72	@ D.38269, pbi,
	str	r2, [sp, #28]	@ pbi, %sfp
	mov	r1, #128	@,
	str	r0, [sp, #4]	@ pVp6CodecInfo, %sfp
	mov	r2, #11	@,
	add	r0, sp, #32	@,,
	str	ip, [sp, #44]	@ __stack_chk_guard, D.43809
	mov	r6, r3	@ FrameType, FrameType
	bl	memset	@
	mov	r0, r5	@, pBs
	mov	r1, r4	@, D.38269
	ldrb	r2, [r7, #1436]	@ zero_extendqisi2	@, VP6_DcUpdateProbs
	bl	Vp6_Vfmw_DecodeBool	@
	cmp	r0, #0	@,
	bne	.L505	@,
	cmp	r6, #0	@ FrameType,
	ldreqb	r3, [sp, #32]	@ zero_extendqisi2	@ LastProb, LastProb
	ldreq	r1, [sp, #4]	@, %sfp
	streqb	r3, [r1, #514]	@ LastProb, <variable>.DcProbs
.L506:
	mov	r0, r5	@, pBs
	mov	r1, r4	@, D.38269
	ldrb	r2, [r7, #1437]	@ zero_extendqisi2	@, VP6_DcUpdateProbs
	bl	Vp6_Vfmw_DecodeBool	@
	cmp	r0, #0	@,
	bne	.L507	@,
	cmp	r6, #0	@ FrameType,
	ldreqb	r3, [sp, #33]	@ zero_extendqisi2	@ LastProb, LastProb
	ldreq	ip, [sp, #4]	@, %sfp
	streqb	r3, [ip, #515]	@ LastProb, <variable>.DcProbs
.L508:
	mov	r0, r5	@, pBs
	mov	r1, r4	@, D.38269
	ldrb	r2, [r7, #1438]	@ zero_extendqisi2	@, VP6_DcUpdateProbs
	bl	Vp6_Vfmw_DecodeBool	@
	cmp	r0, #0	@,
	bne	.L509	@,
	cmp	r6, #0	@ FrameType,
	ldreqb	r3, [sp, #34]	@ zero_extendqisi2	@ LastProb, LastProb
	ldreq	r2, [sp, #4]	@, %sfp
	streqb	r3, [r2, #516]	@ LastProb, <variable>.DcProbs
.L510:
	mov	r0, r5	@, pBs
	mov	r1, r4	@, D.38269
	ldrb	r2, [r7, #1439]	@ zero_extendqisi2	@, VP6_DcUpdateProbs
	bl	Vp6_Vfmw_DecodeBool	@
	cmp	r0, #0	@,
	bne	.L511	@,
	cmp	r6, #0	@ FrameType,
	ldreqb	r3, [sp, #35]	@ zero_extendqisi2	@ LastProb, LastProb
	ldreq	r1, [sp, #4]	@, %sfp
	streqb	r3, [r1, #517]	@ LastProb, <variable>.DcProbs
.L512:
	mov	r0, r5	@, pBs
	mov	r1, r4	@, D.38269
	ldrb	r2, [r7, #1440]	@ zero_extendqisi2	@, VP6_DcUpdateProbs
	bl	Vp6_Vfmw_DecodeBool	@
	cmp	r0, #0	@,
	bne	.L513	@,
	cmp	r6, #0	@ FrameType,
	ldreqb	r3, [sp, #36]	@ zero_extendqisi2	@ LastProb, LastProb
	ldreq	ip, [sp, #4]	@, %sfp
	streqb	r3, [ip, #518]	@ LastProb, <variable>.DcProbs
.L514:
	mov	r0, r5	@, pBs
	mov	r1, r4	@, D.38269
	ldrb	r2, [r7, #1441]	@ zero_extendqisi2	@, VP6_DcUpdateProbs
	bl	Vp6_Vfmw_DecodeBool	@
	cmp	r0, #0	@,
	bne	.L515	@,
	cmp	r6, #0	@ FrameType,
	ldreqb	r3, [sp, #37]	@ zero_extendqisi2	@ LastProb, LastProb
	ldreq	r2, [sp, #4]	@, %sfp
	streqb	r3, [r2, #519]	@ LastProb, <variable>.DcProbs
.L516:
	mov	r0, r5	@, pBs
	mov	r1, r4	@, D.38269
	ldrb	r2, [r7, #1442]	@ zero_extendqisi2	@, VP6_DcUpdateProbs
	bl	Vp6_Vfmw_DecodeBool	@
	cmp	r0, #0	@,
	bne	.L517	@,
	cmp	r6, #0	@ FrameType,
	ldreqb	r3, [sp, #38]	@ zero_extendqisi2	@ LastProb, LastProb
	ldreq	r1, [sp, #4]	@, %sfp
	streqb	r3, [r1, #520]	@ LastProb, <variable>.DcProbs
.L518:
	mov	r0, r5	@, pBs
	mov	r1, r4	@, D.38269
	ldrb	r2, [r7, #1443]	@ zero_extendqisi2	@, VP6_DcUpdateProbs
	bl	Vp6_Vfmw_DecodeBool	@
	cmp	r0, #0	@,
	bne	.L519	@,
	cmp	r6, #0	@ FrameType,
	ldreqb	r3, [sp, #39]	@ zero_extendqisi2	@ LastProb, LastProb
	ldreq	ip, [sp, #4]	@, %sfp
	streqb	r3, [ip, #521]	@ LastProb, <variable>.DcProbs
.L520:
	mov	r0, r5	@, pBs
	mov	r1, r4	@, D.38269
	ldrb	r2, [r7, #1444]	@ zero_extendqisi2	@, VP6_DcUpdateProbs
	bl	Vp6_Vfmw_DecodeBool	@
	cmp	r0, #0	@,
	bne	.L521	@,
	cmp	r6, #0	@ FrameType,
	ldreqb	r3, [sp, #40]	@ zero_extendqisi2	@ LastProb, LastProb
	ldreq	r2, [sp, #4]	@, %sfp
	streqb	r3, [r2, #522]	@ LastProb, <variable>.DcProbs
.L522:
	mov	r0, r5	@, pBs
	mov	r1, r4	@, D.38269
	ldrb	r2, [r7, #1445]	@ zero_extendqisi2	@, VP6_DcUpdateProbs
	bl	Vp6_Vfmw_DecodeBool	@
	cmp	r0, #0	@,
	bne	.L523	@,
	cmp	r6, #0	@ FrameType,
	ldreqb	r3, [sp, #41]	@ zero_extendqisi2	@ LastProb, LastProb
	ldreq	r1, [sp, #4]	@, %sfp
	streqb	r3, [r1, #523]	@ LastProb, <variable>.DcProbs
.L524:
	mov	r0, r5	@, pBs
	mov	r1, r4	@, D.38269
	ldrb	r2, [r7, #1446]	@ zero_extendqisi2	@, VP6_DcUpdateProbs
	bl	Vp6_Vfmw_DecodeBool	@
	cmp	r0, #0	@,
	bne	.L627	@,
	cmp	r6, #0	@ FrameType,
	ldreqb	r3, [sp, #42]	@ zero_extendqisi2	@ LastProb, LastProb
	ldreq	r1, [sp, #4]	@, %sfp
	streqb	r3, [r1, #524]	@ LastProb, <variable>.DcProbs
.L526:
	mov	r0, r5	@, pBs
	mov	r1, r4	@, D.38269
	ldrb	r2, [r7, #1447]	@ zero_extendqisi2	@, VP6_DcUpdateProbs
	bl	Vp6_Vfmw_DecodeBool	@
	cmp	r0, #0	@,
	bne	.L628	@,
	cmp	r6, #0	@ FrameType,
	ldreqb	r3, [sp, #32]	@ zero_extendqisi2	@ LastProb, LastProb
	ldreq	r1, [sp, #4]	@, %sfp
	streqb	r3, [r1, #525]	@ LastProb, <variable>.DcProbs
.L531:
	mov	r0, r5	@, pBs
	mov	r1, r4	@, D.38269
	ldrb	r2, [r7, #1448]	@ zero_extendqisi2	@, VP6_DcUpdateProbs
	bl	Vp6_Vfmw_DecodeBool	@
	cmp	r0, #0	@,
	bne	.L532	@,
	cmp	r6, #0	@ FrameType,
	ldreqb	r3, [sp, #33]	@ zero_extendqisi2	@ LastProb, LastProb
	ldreq	ip, [sp, #4]	@, %sfp
	streqb	r3, [ip, #526]	@ LastProb, <variable>.DcProbs
.L533:
	mov	r0, r5	@, pBs
	mov	r1, r4	@, D.38269
	ldrb	r2, [r7, #1449]	@ zero_extendqisi2	@, VP6_DcUpdateProbs
	bl	Vp6_Vfmw_DecodeBool	@
	cmp	r0, #0	@,
	bne	.L534	@,
	cmp	r6, #0	@ FrameType,
	ldreqb	r3, [sp, #34]	@ zero_extendqisi2	@ LastProb, LastProb
	ldreq	r2, [sp, #4]	@, %sfp
	streqb	r3, [r2, #527]	@ LastProb, <variable>.DcProbs
.L535:
	mov	r0, r5	@, pBs
	mov	r1, r4	@, D.38269
	ldrb	r2, [r7, #1450]	@ zero_extendqisi2	@, VP6_DcUpdateProbs
	bl	Vp6_Vfmw_DecodeBool	@
	cmp	r0, #0	@,
	bne	.L536	@,
	cmp	r6, #0	@ FrameType,
	ldreqb	r3, [sp, #35]	@ zero_extendqisi2	@ LastProb, LastProb
	ldreq	r1, [sp, #4]	@, %sfp
	streqb	r3, [r1, #528]	@ LastProb, <variable>.DcProbs
.L537:
	mov	r0, r5	@, pBs
	mov	r1, r4	@, D.38269
	ldrb	r2, [r7, #1451]	@ zero_extendqisi2	@, VP6_DcUpdateProbs
	bl	Vp6_Vfmw_DecodeBool	@
	cmp	r0, #0	@,
	bne	.L538	@,
	cmp	r6, #0	@ FrameType,
	ldreqb	r3, [sp, #36]	@ zero_extendqisi2	@ LastProb, LastProb
	ldreq	ip, [sp, #4]	@, %sfp
	streqb	r3, [ip, #529]	@ LastProb, <variable>.DcProbs
.L539:
	mov	r0, r5	@, pBs
	mov	r1, r4	@, D.38269
	ldrb	r2, [r7, #1452]	@ zero_extendqisi2	@, VP6_DcUpdateProbs
	bl	Vp6_Vfmw_DecodeBool	@
	cmp	r0, #0	@,
	bne	.L540	@,
	cmp	r6, #0	@ FrameType,
	ldreqb	r3, [sp, #37]	@ zero_extendqisi2	@ LastProb, LastProb
	ldreq	r2, [sp, #4]	@, %sfp
	streqb	r3, [r2, #530]	@ LastProb, <variable>.DcProbs
.L541:
	mov	r0, r5	@, pBs
	mov	r1, r4	@, D.38269
	ldrb	r2, [r7, #1453]	@ zero_extendqisi2	@, VP6_DcUpdateProbs
	bl	Vp6_Vfmw_DecodeBool	@
	cmp	r0, #0	@,
	bne	.L542	@,
	cmp	r6, #0	@ FrameType,
	ldreqb	r3, [sp, #38]	@ zero_extendqisi2	@ LastProb, LastProb
	ldreq	r1, [sp, #4]	@, %sfp
	streqb	r3, [r1, #531]	@ LastProb, <variable>.DcProbs
.L543:
	mov	r0, r5	@, pBs
	mov	r1, r4	@, D.38269
	ldrb	r2, [r7, #1454]	@ zero_extendqisi2	@, VP6_DcUpdateProbs
	bl	Vp6_Vfmw_DecodeBool	@
	cmp	r0, #0	@,
	bne	.L544	@,
	cmp	r6, #0	@ FrameType,
	ldreqb	r3, [sp, #39]	@ zero_extendqisi2	@ LastProb, LastProb
	ldreq	ip, [sp, #4]	@, %sfp
	streqb	r3, [ip, #532]	@ LastProb, <variable>.DcProbs
.L545:
	mov	r0, r5	@, pBs
	mov	r1, r4	@, D.38269
	ldrb	r2, [r7, #1455]	@ zero_extendqisi2	@, VP6_DcUpdateProbs
	bl	Vp6_Vfmw_DecodeBool	@
	cmp	r0, #0	@,
	bne	.L546	@,
	cmp	r6, #0	@ FrameType,
	ldreqb	r3, [sp, #40]	@ zero_extendqisi2	@ LastProb, LastProb
	ldreq	r2, [sp, #4]	@, %sfp
	streqb	r3, [r2, #533]	@ LastProb, <variable>.DcProbs
.L547:
	mov	r0, r5	@, pBs
	mov	r1, r4	@, D.38269
	ldrb	r2, [r7, #1456]	@ zero_extendqisi2	@, VP6_DcUpdateProbs
	bl	Vp6_Vfmw_DecodeBool	@
	cmp	r0, #0	@,
	bne	.L548	@,
	cmp	r6, #0	@ FrameType,
	ldreqb	r3, [sp, #41]	@ zero_extendqisi2	@ LastProb, LastProb
	ldreq	r1, [sp, #4]	@, %sfp
	streqb	r3, [r1, #534]	@ LastProb, <variable>.DcProbs
.L549:
	mov	r0, r5	@, pBs
	mov	r1, r4	@, D.38269
	ldrb	r2, [r7, #1457]	@ zero_extendqisi2	@, VP6_DcUpdateProbs
	bl	Vp6_Vfmw_DecodeBool	@
	cmp	r0, #0	@,
	bne	.L629	@,
	cmp	r6, #0	@ FrameType,
	ldreqb	r3, [sp, #42]	@ zero_extendqisi2	@ LastProb, LastProb
	ldreq	ip, [sp, #4]	@, %sfp
	streqb	r3, [ip, #535]	@ LastProb, <variable>.DcProbs
	beq	.L529	@,
.L530:
	mov	r0, r5	@, pBs
	mov	r1, r4	@, D.38269
	bl	Vp6_Vfmw_DecodeBool128	@
	cmp	r0, #0	@,
	beq	.L552	@,
	ldr	r1, [sp, #4]	@ ivtmp.3681, %sfp
	mov	r2, r6	@ FrameType, FrameType
	ldr	fp, .L673	@ tmp990,
	mov	r8, #1	@ i,
	mov	sl, r7	@ tmp993, tmp993
	mov	r9, r2	@ FrameType, FrameType
	mov	r6, r1	@ ivtmp.3681, ivtmp.3681
	b	.L554	@
.L553:
	add	r8, r8, #1	@ tmp1004, i,
	mov	r0, r5	@, pBs
	mov	r1, r4	@, D.38269
	add	r6, r6, #1	@ tmp1005, ivtmp.3681,
	ldrb	r2, [fp, r8]	@ zero_extendqisi2	@, ScanBandUpdateProbs
	bl	Vp6_Vfmw_DecodeBool	@
	cmp	r0, #0	@,
	bne	.L630	@,
.L617:
	add	lr, r8, #1	@ i, tmp1004,
	mov	r0, r5	@, pBs
	mov	r1, r4	@, D.38269
	add	r7, r6, #1	@ ivtmp.3681, tmp1005,
	ldrb	r2, [fp, lr]	@ zero_extendqisi2	@, ScanBandUpdateProbs
	bl	Vp6_Vfmw_DecodeBool	@
	cmp	r0, #0	@,
	bne	.L631	@,
.L619:
	add	r8, r8, #2	@ i, tmp1004,
	add	r6, r6, #2	@ ivtmp.3681, tmp1005,
	cmp	r8, #64	@ i,
	beq	.L632	@,
.L554:
	mov	r0, r5	@, pBs
	mov	r1, r4	@, D.38269
	ldrb	r2, [fp, r8]	@ zero_extendqisi2	@, ScanBandUpdateProbs
	bl	Vp6_Vfmw_DecodeBool	@
	cmp	r0, #0	@,
	beq	.L553	@,
	mov	r1, r4	@, D.38269
	mov	r2, #4	@,
	mov	r0, r5	@, pBs
	add	r8, r8, #1	@ tmp1004, i,
	bl	Vp6_Vfmw_BoolRead	@
	mov	r1, r4	@, D.38269
	ldrb	r2, [fp, r8]	@ zero_extendqisi2	@, ScanBandUpdateProbs
	strb	r0, [r6, #1089]	@, <variable>.ScanBands
	mov	r0, r5	@, pBs
	bl	Vp6_Vfmw_DecodeBool	@
	add	r6, r6, #1	@ tmp1005, ivtmp.3681,
	cmp	r0, #0	@,
	beq	.L617	@,
.L630:
	mov	r1, r4	@, D.38269
	mov	r2, #4	@,
	mov	r0, r5	@, pBs
	add	r7, r6, #1	@ ivtmp.3681, tmp1005,
	bl	Vp6_Vfmw_BoolRead	@
	add	lr, r8, #1	@ i, tmp1004,
	mov	r1, r4	@, D.38269
	ldrb	r2, [fp, lr]	@ zero_extendqisi2	@, ScanBandUpdateProbs
	strb	r0, [r6, #1089]	@, <variable>.ScanBands
	mov	r0, r5	@, pBs
	bl	Vp6_Vfmw_DecodeBool	@
	cmp	r0, #0	@,
	beq	.L619	@,
.L631:
	mov	r0, r5	@, pBs
	mov	r1, r4	@, D.38269
	mov	r2, #4	@,
	add	r8, r8, #2	@ i, tmp1004,
	bl	Vp6_Vfmw_BoolRead	@
	cmp	r8, #64	@ i,
	add	r6, r6, #2	@ ivtmp.3681, tmp1005,
	strb	r0, [r7, #1089]	@, <variable>.ScanBands
	bne	.L554	@,
.L632:
	ldr	r0, [sp, #4]	@, %sfp
	mov	r6, r9	@ FrameType, FrameType
	ldr	r1, [sp, #28]	@, %sfp
	mov	r7, sl	@ tmp993, tmp993
	bl	VP6_BuildScanOrder	@
.L552:
	mov	r0, r5	@, pBs
	mov	r1, r4	@, D.38269
	ldrb	r2, [r7, #1552]	@ zero_extendqisi2	@, ZrlUpdateProbs
	bl	Vp6_Vfmw_DecodeBool	@
	cmp	r0, #0	@,
	bne	.L633	@,
.L555:
	mov	r0, r5	@, pBs
	mov	r1, r4	@, D.38269
	ldrb	r2, [r7, #1553]	@ zero_extendqisi2	@, ZrlUpdateProbs
	bl	Vp6_Vfmw_DecodeBool	@
	cmp	r0, #0	@,
	bne	.L634	@,
.L556:
	mov	r0, r5	@, pBs
	mov	r1, r4	@, D.38269
	ldrb	r2, [r7, #1554]	@ zero_extendqisi2	@, ZrlUpdateProbs
	bl	Vp6_Vfmw_DecodeBool	@
	cmp	r0, #0	@,
	bne	.L635	@,
.L557:
	mov	r0, r5	@, pBs
	mov	r1, r4	@, D.38269
	ldrb	r2, [r7, #1555]	@ zero_extendqisi2	@, ZrlUpdateProbs
	bl	Vp6_Vfmw_DecodeBool	@
	cmp	r0, #0	@,
	bne	.L636	@,
.L558:
	mov	r0, r5	@, pBs
	mov	r1, r4	@, D.38269
	ldrb	r2, [r7, #1556]	@ zero_extendqisi2	@, ZrlUpdateProbs
	bl	Vp6_Vfmw_DecodeBool	@
	cmp	r0, #0	@,
	bne	.L637	@,
.L559:
	mov	r0, r5	@, pBs
	mov	r1, r4	@, D.38269
	ldrb	r2, [r7, #1557]	@ zero_extendqisi2	@, ZrlUpdateProbs
	bl	Vp6_Vfmw_DecodeBool	@
	cmp	r0, #0	@,
	bne	.L638	@,
.L560:
	mov	r0, r5	@, pBs
	mov	r1, r4	@, D.38269
	ldrb	r2, [r7, #1558]	@ zero_extendqisi2	@, ZrlUpdateProbs
	bl	Vp6_Vfmw_DecodeBool	@
	cmp	r0, #0	@,
	bne	.L639	@,
.L561:
	mov	r0, r5	@, pBs
	mov	r1, r4	@, D.38269
	ldrb	r2, [r7, #1559]	@ zero_extendqisi2	@, ZrlUpdateProbs
	bl	Vp6_Vfmw_DecodeBool	@
	cmp	r0, #0	@,
	bne	.L640	@,
.L562:
	mov	r0, r5	@, pBs
	mov	r1, r4	@, D.38269
	ldrb	r2, [r7, #1560]	@ zero_extendqisi2	@, ZrlUpdateProbs
	bl	Vp6_Vfmw_DecodeBool	@
	cmp	r0, #0	@,
	bne	.L641	@,
.L563:
	mov	r0, r5	@, pBs
	mov	r1, r4	@, D.38269
	ldrb	r2, [r7, #1561]	@ zero_extendqisi2	@, ZrlUpdateProbs
	bl	Vp6_Vfmw_DecodeBool	@
	cmp	r0, #0	@,
	bne	.L642	@,
.L564:
	mov	r0, r5	@, pBs
	mov	r1, r4	@, D.38269
	ldrb	r2, [r7, #1562]	@ zero_extendqisi2	@, ZrlUpdateProbs
	bl	Vp6_Vfmw_DecodeBool	@
	cmp	r0, #0	@,
	bne	.L643	@,
.L565:
	mov	r0, r5	@, pBs
	mov	r1, r4	@, D.38269
	ldrb	r2, [r7, #1563]	@ zero_extendqisi2	@, ZrlUpdateProbs
	bl	Vp6_Vfmw_DecodeBool	@
	cmp	r0, #0	@,
	bne	.L644	@,
.L566:
	mov	r0, r5	@, pBs
	mov	r1, r4	@, D.38269
	ldrb	r2, [r7, #1564]	@ zero_extendqisi2	@, ZrlUpdateProbs
	bl	Vp6_Vfmw_DecodeBool	@
	cmp	r0, #0	@,
	bne	.L645	@,
.L567:
	mov	r0, r5	@, pBs
	mov	r1, r4	@, D.38269
	ldrb	r2, [r7, #1565]	@ zero_extendqisi2	@, ZrlUpdateProbs
	bl	Vp6_Vfmw_DecodeBool	@
	cmp	r0, #0	@,
	bne	.L646	@,
.L568:
	mov	r0, r5	@, pBs
	mov	r1, r4	@, D.38269
	ldrb	r2, [r7, #1566]	@ zero_extendqisi2	@, ZrlUpdateProbs
	bl	Vp6_Vfmw_DecodeBool	@
	cmp	r0, #0	@,
	bne	.L647	@,
.L570:
	mov	r0, r5	@, pBs
	mov	r1, r4	@, D.38269
	ldrb	r2, [r7, #1567]	@ zero_extendqisi2	@, ZrlUpdateProbs
	bl	Vp6_Vfmw_DecodeBool	@
	cmp	r0, #0	@,
	bne	.L648	@,
.L572:
	mov	r0, r5	@, pBs
	mov	r1, r4	@, D.38269
	ldrb	r2, [r7, #1568]	@ zero_extendqisi2	@, ZrlUpdateProbs
	bl	Vp6_Vfmw_DecodeBool	@
	cmp	r0, #0	@,
	bne	.L649	@,
.L573:
	mov	r0, r5	@, pBs
	mov	r1, r4	@, D.38269
	ldrb	r2, [r7, #1569]	@ zero_extendqisi2	@, ZrlUpdateProbs
	bl	Vp6_Vfmw_DecodeBool	@
	cmp	r0, #0	@,
	bne	.L650	@,
.L574:
	mov	r0, r5	@, pBs
	mov	r1, r4	@, D.38269
	ldrb	r2, [r7, #1570]	@ zero_extendqisi2	@, ZrlUpdateProbs
	bl	Vp6_Vfmw_DecodeBool	@
	cmp	r0, #0	@,
	bne	.L651	@,
.L575:
	mov	r0, r5	@, pBs
	mov	r1, r4	@, D.38269
	ldrb	r2, [r7, #1571]	@ zero_extendqisi2	@, ZrlUpdateProbs
	bl	Vp6_Vfmw_DecodeBool	@
	cmp	r0, #0	@,
	bne	.L652	@,
.L576:
	mov	r0, r5	@, pBs
	mov	r1, r4	@, D.38269
	ldrb	r2, [r7, #1572]	@ zero_extendqisi2	@, ZrlUpdateProbs
	bl	Vp6_Vfmw_DecodeBool	@
	cmp	r0, #0	@,
	bne	.L653	@,
.L577:
	mov	r0, r5	@, pBs
	mov	r1, r4	@, D.38269
	ldrb	r2, [r7, #1573]	@ zero_extendqisi2	@, ZrlUpdateProbs
	bl	Vp6_Vfmw_DecodeBool	@
	cmp	r0, #0	@,
	bne	.L654	@,
.L578:
	mov	r0, r5	@, pBs
	mov	r1, r4	@, D.38269
	ldrb	r2, [r7, #1574]	@ zero_extendqisi2	@, ZrlUpdateProbs
	bl	Vp6_Vfmw_DecodeBool	@
	cmp	r0, #0	@,
	bne	.L655	@,
.L579:
	mov	r0, r5	@, pBs
	mov	r1, r4	@, D.38269
	ldrb	r2, [r7, #1575]	@ zero_extendqisi2	@, ZrlUpdateProbs
	bl	Vp6_Vfmw_DecodeBool	@
	cmp	r0, #0	@,
	bne	.L656	@,
.L580:
	mov	r0, r5	@, pBs
	mov	r1, r4	@, D.38269
	ldrb	r2, [r7, #1576]	@ zero_extendqisi2	@, ZrlUpdateProbs
	bl	Vp6_Vfmw_DecodeBool	@
	cmp	r0, #0	@,
	bne	.L657	@,
.L581:
	mov	r0, r5	@, pBs
	mov	r1, r4	@, D.38269
	ldrb	r2, [r7, #1577]	@ zero_extendqisi2	@, ZrlUpdateProbs
	bl	Vp6_Vfmw_DecodeBool	@
	cmp	r0, #0	@,
	bne	.L658	@,
.L582:
	mov	r0, r5	@, pBs
	mov	r1, r4	@, D.38269
	ldrb	r2, [r7, #1578]	@ zero_extendqisi2	@, ZrlUpdateProbs
	bl	Vp6_Vfmw_DecodeBool	@
	cmp	r0, #0	@,
	bne	.L659	@,
.L583:
	ldrb	r2, [r7, #1579]	@ zero_extendqisi2	@, ZrlUpdateProbs
	mov	r0, r5	@, pBs
	mov	r1, r4	@, D.38269
	bl	Vp6_Vfmw_DecodeBool	@
	cmp	r0, #0	@,
	bne	.L660	@,
.L585:
	mov	lr, #0	@,
	str	lr, [sp, #16]	@, %sfp
	str	lr, [sp, #12]	@, %sfp
.L571:
	ldr	fp, [sp, #12]	@, %sfp
	mov	sl, #0	@,
	str	sl, [sp, #8]	@, %sfp
	add	r8, fp, fp, asl #5	@, tmp995,,,
	mov	fp, sl	@ Plane,
	mov	r7, r8, asl #2	@, tmp995,
	str	r7, [sp, #20]	@, %sfp
.L613:
	ldr	lr, [sp, #16]	@, %sfp
	add	r2, fp, fp, asl #5	@, tmp975, Plane, Plane,
	ldr	r3, [sp, #8]	@, %sfp
	ldr	ip, [sp, #4]	@, %sfp
	add	r9, lr, r3	@ tmp982,,
	ldr	r1, [sp, #20]	@, %sfp
	add	sl, ip, r9	@ tmp984,, tmp982
	ldr	r8, .L673+4	@,
	add	sl, sl, #564	@ ivtmp.3627, tmp984,
	add	r7, r1, r2, asl #1	@, tmp981,, tmp975,
	add	r7, r8, r7	@ ivtmp.3625,, tmp981
	mov	r9, #0	@ Band,
	mov	r8, sl	@ ivtmp.3698, ivtmp.3627
	b	.L611	@
.L662:
	cmp	r6, #0	@ FrameType,
	ldreqb	lr, [sp, #32]	@ zero_extendqisi2	@ LastProb, LastProb
	streqb	lr, [r8, #0]	@ LastProb, <variable>.AcProbs
.L589:
	mov	r0, r5	@, pBs
	mov	r1, r4	@, D.38269
	ldrb	r2, [r7, #1]	@ zero_extendqisi2	@, VP6_AcUpdateProbs
	bl	Vp6_Vfmw_DecodeBool	@
	cmp	r0, #0	@,
	bne	.L590	@,
.L663:
	cmp	r6, #0	@ FrameType,
	ldreqb	r0, [sp, #33]	@ zero_extendqisi2	@ LastProb, LastProb
	streqb	r0, [r8, #1]	@ LastProb, <variable>.AcProbs
.L591:
	mov	r0, r5	@, pBs
	mov	r1, r4	@, D.38269
	ldrb	r2, [r7, #2]	@ zero_extendqisi2	@, VP6_AcUpdateProbs
	bl	Vp6_Vfmw_DecodeBool	@
	cmp	r0, #0	@,
	bne	.L592	@,
.L664:
	cmp	r6, #0	@ FrameType,
	ldreqb	lr, [sp, #34]	@ zero_extendqisi2	@ LastProb, LastProb
	streqb	lr, [r8, #2]	@ LastProb, <variable>.AcProbs
.L593:
	mov	r0, r5	@, pBs
	mov	r1, r4	@, D.38269
	ldrb	r2, [r7, #3]	@ zero_extendqisi2	@, VP6_AcUpdateProbs
	bl	Vp6_Vfmw_DecodeBool	@
	cmp	r0, #0	@,
	bne	.L594	@,
.L665:
	cmp	r6, #0	@ FrameType,
	ldreqb	r3, [sp, #35]	@ zero_extendqisi2	@ LastProb, LastProb
	streqb	r3, [r8, #3]	@ LastProb, <variable>.AcProbs
.L595:
	mov	r0, r5	@, pBs
	mov	r1, r4	@, D.38269
	ldrb	r2, [r7, #4]	@ zero_extendqisi2	@, VP6_AcUpdateProbs
	bl	Vp6_Vfmw_DecodeBool	@
	cmp	r0, #0	@,
	bne	.L596	@,
.L666:
	cmp	r6, #0	@ FrameType,
	ldreqb	lr, [sp, #36]	@ zero_extendqisi2	@ LastProb, LastProb
	streqb	lr, [r8, #4]	@ LastProb, <variable>.AcProbs
.L597:
	mov	r0, r5	@, pBs
	mov	r1, r4	@, D.38269
	ldrb	r2, [r7, #5]	@ zero_extendqisi2	@, VP6_AcUpdateProbs
	bl	Vp6_Vfmw_DecodeBool	@
	cmp	r0, #0	@,
	bne	.L598	@,
.L667:
	cmp	r6, #0	@ FrameType,
	ldreqb	ip, [sp, #37]	@ zero_extendqisi2	@ LastProb, LastProb
	streqb	ip, [r8, #5]	@ LastProb, <variable>.AcProbs
.L599:
	mov	r0, r5	@, pBs
	mov	r1, r4	@, D.38269
	ldrb	r2, [r7, #6]	@ zero_extendqisi2	@, VP6_AcUpdateProbs
	bl	Vp6_Vfmw_DecodeBool	@
	cmp	r0, #0	@,
	bne	.L600	@,
.L668:
	cmp	r6, #0	@ FrameType,
	ldreqb	lr, [sp, #38]	@ zero_extendqisi2	@ LastProb, LastProb
	streqb	lr, [r8, #6]	@ LastProb, <variable>.AcProbs
.L601:
	mov	r0, r5	@, pBs
	mov	r1, r4	@, D.38269
	ldrb	r2, [r7, #7]	@ zero_extendqisi2	@, VP6_AcUpdateProbs
	bl	Vp6_Vfmw_DecodeBool	@
	cmp	r0, #0	@,
	bne	.L602	@,
.L669:
	cmp	r6, #0	@ FrameType,
	ldreqb	r0, [sp, #39]	@ zero_extendqisi2	@ LastProb, LastProb
	streqb	r0, [r8, #7]	@ LastProb, <variable>.AcProbs
.L603:
	mov	r0, r5	@, pBs
	mov	r1, r4	@, D.38269
	ldrb	r2, [r7, #8]	@ zero_extendqisi2	@, VP6_AcUpdateProbs
	bl	Vp6_Vfmw_DecodeBool	@
	cmp	r0, #0	@,
	bne	.L604	@,
.L670:
	cmp	r6, #0	@ FrameType,
	ldreqb	lr, [sp, #40]	@ zero_extendqisi2	@ LastProb, LastProb
	streqb	lr, [r8, #8]	@ LastProb, <variable>.AcProbs
.L605:
	mov	r0, r5	@, pBs
	mov	r1, r4	@, D.38269
	ldrb	r2, [r7, #9]	@ zero_extendqisi2	@, VP6_AcUpdateProbs
	bl	Vp6_Vfmw_DecodeBool	@
	cmp	r0, #0	@,
	bne	.L606	@,
.L671:
	cmp	r6, #0	@ FrameType,
	ldreqb	r1, [sp, #41]	@ zero_extendqisi2	@ LastProb, LastProb
	streqb	r1, [r8, #9]	@ LastProb, <variable>.AcProbs
.L607:
	mov	r0, r5	@, pBs
	mov	r1, r4	@, D.38269
	ldrb	r2, [r7, #10]	@ zero_extendqisi2	@, VP6_AcUpdateProbs
	bl	Vp6_Vfmw_DecodeBool	@
	cmp	r0, #0	@,
	bne	.L661	@,
.L624:
	cmp	r6, #0	@ FrameType,
	add	r9, r9, #1	@ Band, Band,
	add	r7, r7, #11	@ ivtmp.3625, ivtmp.3625,
	add	sl, sl, #11	@ ivtmp.3627, ivtmp.3627,
	ldreqb	r3, [sp, #42]	@ zero_extendqisi2	@ LastProb, LastProb
	streqb	r3, [r8, #10]	@ LastProb, <variable>.AcProbs
	cmp	r9, #6	@ Band,
	add	r8, r8, #11	@ ivtmp.3698, ivtmp.3698,
	beq	.L587	@,
.L611:
	mov	r0, r5	@, pBs
	mov	r1, r4	@, D.38269
	ldrb	r2, [r7, #0]	@ zero_extendqisi2	@, VP6_AcUpdateProbs
	bl	Vp6_Vfmw_DecodeBool	@
	cmp	r0, #0	@,
	beq	.L662	@,
	mov	r1, r4	@, D.38269
	mov	r2, #7	@,
	mov	r0, r5	@, pBs
	bl	Vp6_Vfmw_BoolRead	@
	ldrb	r2, [r7, #1]	@ zero_extendqisi2	@, VP6_AcUpdateProbs
	mov	ip, r0, asl #1	@ tmp873,,
	mov	r0, r5	@, pBs
	uxtb	r1, ip	@ temp.3911, tmp873
	cmp	r1, #0	@ temp.3911,
	addeq	r1, r1, #1	@,, tmp876, temp.3911
	uxtb	r3, r1	@ temp.3913, tmp876
	mov	r1, r4	@, D.38269
	strb	r3, [sp, #32]	@ temp.3913, LastProb
	strb	r3, [sl, #0]	@ temp.3913, <variable>.AcProbs
	bl	Vp6_Vfmw_DecodeBool	@
	cmp	r0, #0	@,
	beq	.L663	@,
.L590:
	mov	r1, r4	@, D.38269
	mov	r2, #7	@,
	mov	r0, r5	@, pBs
	bl	Vp6_Vfmw_BoolRead	@
	mov	r1, r0, asl #1	@ tmp883,,
	mov	r0, r5	@, pBs
	uxtb	r3, r1	@ temp.3920, tmp883
	mov	r1, r4	@, D.38269
	cmp	r3, #0	@ temp.3920,
	addeq	r3, r3, #1	@,, tmp886, temp.3920
	uxtb	r2, r3	@ temp.3922, tmp886
	strb	r2, [sp, #33]	@ temp.3922, LastProb
	strb	r2, [sl, #1]	@ temp.3922, <variable>.AcProbs
	ldrb	r2, [r7, #2]	@ zero_extendqisi2	@, VP6_AcUpdateProbs
	bl	Vp6_Vfmw_DecodeBool	@
	cmp	r0, #0	@,
	beq	.L664	@,
.L592:
	mov	r1, r4	@, D.38269
	mov	r2, #7	@,
	mov	r0, r5	@, pBs
	bl	Vp6_Vfmw_BoolRead	@
	mov	r1, r4	@, D.38269
	mov	r2, r0, asl #1	@ tmp893,,
	uxtb	r0, r2	@ temp.3928, tmp893
	ldrb	r2, [r7, #3]	@ zero_extendqisi2	@, VP6_AcUpdateProbs
	cmp	r0, #0	@ temp.3928,
	addeq	r0, r0, #1	@,, tmp896, temp.3928
	uxtb	ip, r0	@ temp.3930, tmp896
	mov	r0, r5	@, pBs
	strb	ip, [sp, #34]	@ temp.3930, LastProb
	strb	ip, [sl, #2]	@ temp.3930, <variable>.AcProbs
	bl	Vp6_Vfmw_DecodeBool	@
	cmp	r0, #0	@,
	beq	.L665	@,
.L594:
	mov	r1, r4	@, D.38269
	mov	r2, #7	@,
	mov	r0, r5	@, pBs
	bl	Vp6_Vfmw_BoolRead	@
	mov	r2, r0, asl #1	@ tmp903,,
	mov	r0, r5	@, pBs
	uxtb	ip, r2	@ temp.3941, tmp903
	ldrb	r2, [r7, #4]	@ zero_extendqisi2	@, VP6_AcUpdateProbs
	cmp	ip, #0	@ temp.3941,
	addeq	ip, ip, #1	@,, tmp906, temp.3941
	uxtb	r1, ip	@ temp.3943, tmp906
	strb	r1, [sp, #35]	@ temp.3943, LastProb
	strb	r1, [sl, #3]	@ temp.3943, <variable>.AcProbs
	mov	r1, r4	@, D.38269
	bl	Vp6_Vfmw_DecodeBool	@
	cmp	r0, #0	@,
	beq	.L666	@,
.L596:
	mov	r1, r4	@, D.38269
	mov	r2, #7	@,
	mov	r0, r5	@, pBs
	bl	Vp6_Vfmw_BoolRead	@
	ldrb	r2, [r7, #5]	@ zero_extendqisi2	@, VP6_AcUpdateProbs
	mov	r1, r0, asl #1	@ tmp913,,
	uxtb	r3, r1	@ temp.3950, tmp913
	mov	r1, r4	@, D.38269
	cmp	r3, #0	@ temp.3950,
	addeq	r3, r3, #1	@,, tmp916, temp.3950
	uxtb	r0, r3	@ temp.3952, tmp916
	strb	r0, [sp, #36]	@ temp.3952, LastProb
	strb	r0, [sl, #4]	@ temp.3952, <variable>.AcProbs
	mov	r0, r5	@, pBs
	bl	Vp6_Vfmw_DecodeBool	@
	cmp	r0, #0	@,
	beq	.L667	@,
.L598:
	mov	r1, r4	@, D.38269
	mov	r2, #7	@,
	mov	r0, r5	@, pBs
	bl	Vp6_Vfmw_BoolRead	@
	mov	r1, r4	@, D.38269
	mov	r3, r0, asl #1	@ tmp923,,
	uxtb	r0, r3	@ temp.3960, tmp923
	cmp	r0, #0	@ temp.3960,
	addeq	r0, r0, #1	@,, tmp926, temp.3960
	uxtb	r2, r0	@ temp.3962, tmp926
	mov	r0, r5	@, pBs
	strb	r2, [sp, #37]	@ temp.3962, LastProb
	strb	r2, [sl, #5]	@ temp.3962, <variable>.AcProbs
	ldrb	r2, [r7, #6]	@ zero_extendqisi2	@, VP6_AcUpdateProbs
	bl	Vp6_Vfmw_DecodeBool	@
	cmp	r0, #0	@,
	beq	.L668	@,
.L600:
	mov	r1, r4	@, D.38269
	mov	r2, #7	@,
	mov	r0, r5	@, pBs
	bl	Vp6_Vfmw_BoolRead	@
	mov	r2, r0, asl #1	@ tmp933,,
	mov	r0, r5	@, pBs
	uxtb	ip, r2	@ temp.3968, tmp933
	ldrb	r2, [r7, #7]	@ zero_extendqisi2	@, VP6_AcUpdateProbs
	cmp	ip, #0	@ temp.3968,
	addeq	ip, ip, #1	@,, tmp936, temp.3968
	uxtb	r1, ip	@ temp.3970, tmp936
	strb	r1, [sp, #38]	@ temp.3970, LastProb
	strb	r1, [sl, #6]	@ temp.3970, <variable>.AcProbs
	mov	r1, r4	@, D.38269
	bl	Vp6_Vfmw_DecodeBool	@
	cmp	r0, #0	@,
	beq	.L669	@,
.L602:
	mov	r1, r4	@, D.38269
	mov	r2, #7	@,
	mov	r0, r5	@, pBs
	bl	Vp6_Vfmw_BoolRead	@
	ldrb	r2, [r7, #8]	@ zero_extendqisi2	@, VP6_AcUpdateProbs
	mov	ip, r0, asl #1	@ tmp943,,
	mov	r0, r5	@, pBs
	uxtb	r1, ip	@ temp.3980, tmp943
	cmp	r1, #0	@ temp.3980,
	addeq	r1, r1, #1	@,, tmp946, temp.3980
	uxtb	r3, r1	@ temp.3982, tmp946
	mov	r1, r4	@, D.38269
	strb	r3, [sp, #39]	@ temp.3982, LastProb
	strb	r3, [sl, #7]	@ temp.3982, <variable>.AcProbs
	bl	Vp6_Vfmw_DecodeBool	@
	cmp	r0, #0	@,
	beq	.L670	@,
.L604:
	mov	r1, r4	@, D.38269
	mov	r2, #7	@,
	mov	r0, r5	@, pBs
	bl	Vp6_Vfmw_BoolRead	@
	mov	r1, r4	@, D.38269
	mov	r3, r0, asl #1	@ tmp953,,
	uxtb	r0, r3	@ temp.3990, tmp953
	cmp	r0, #0	@ temp.3990,
	addeq	r0, r0, #1	@,, tmp956, temp.3990
	uxtb	r2, r0	@ temp.3992, tmp956
	mov	r0, r5	@, pBs
	strb	r2, [sp, #40]	@ temp.3992, LastProb
	strb	r2, [sl, #8]	@ temp.3992, <variable>.AcProbs
	ldrb	r2, [r7, #9]	@ zero_extendqisi2	@, VP6_AcUpdateProbs
	bl	Vp6_Vfmw_DecodeBool	@
	cmp	r0, #0	@,
	beq	.L671	@,
.L606:
	mov	r1, r4	@, D.38269
	mov	r2, #7	@,
	mov	r0, r5	@, pBs
	bl	Vp6_Vfmw_BoolRead	@
	mov	r1, r4	@, D.38269
	mov	r3, r0, asl #1	@ tmp963,,
	mov	r0, r5	@, pBs
	uxtb	r2, r3	@ temp.4000, tmp963
	cmp	r2, #0	@ temp.4000,
	addeq	r2, r2, #1	@,, tmp966, temp.4000
	uxtb	ip, r2	@ temp.4002, tmp966
	ldrb	r2, [r7, #10]	@ zero_extendqisi2	@, VP6_AcUpdateProbs
	strb	ip, [sp, #41]	@ temp.4002, LastProb
	strb	ip, [sl, #9]	@ temp.4002, <variable>.AcProbs
	bl	Vp6_Vfmw_DecodeBool	@
	cmp	r0, #0	@,
	beq	.L624	@,
.L661:
	mov	r2, #7	@,
	mov	r0, r5	@, pBs
	mov	r1, r4	@, D.38269
	add	r9, r9, #1	@ Band, Band,
	bl	Vp6_Vfmw_BoolRead	@
	add	r7, r7, #11	@ ivtmp.3625, ivtmp.3625,
	add	r8, r8, #11	@ ivtmp.3698, ivtmp.3698,
	mov	r2, r0, asl #1	@ tmp861,,
	uxtb	ip, r2	@ D.38318, tmp861
	cmp	ip, #0	@ D.38318,
	addeq	ip, ip, #1	@,, tmp864, D.38318
	cmp	r9, #6	@ Band,
	uxtb	r0, ip	@ temp.3685, tmp864
