	.arch armv7-a
	.fpu softvfp
	.eabi_attribute 20, 1	@ Tag_ABI_FP_denormal
	.eabi_attribute 21, 1	@ Tag_ABI_FP_exceptions
	.eabi_attribute 23, 3	@ Tag_ABI_FP_number_model
	.eabi_attribute 24, 1	@ Tag_ABI_align8_needed
	.eabi_attribute 25, 1	@ Tag_ABI_align8_preserved
	.eabi_attribute 26, 2	@ Tag_ABI_enum_size
	.eabi_attribute 30, 2	@ Tag_ABI_optimization_goals
	.eabi_attribute 34, 0	@ Tag_CPU_unaligned_access
	.eabi_attribute 18, 4	@ Tag_ABI_PCS_wchar_t
	.file	"h264.c"
@ GNU C (gcc-linaro-4.9-2014.09 + glibc-2.24 (Build by czyong) Wed Dec 21 10:39:16 CST 2016) version 4.9.2 20140904 (prerelease) (arm-gcc492_glibc224-linux-gnueabi)
@	compiled by GNU C version 4.1.2 20080704 (Red Hat 4.1.2-44), GMP version 5.0.5, MPFR version 3.1.2, MPC version 1.0.1
@ GGC heuristics: --param ggc-min-expand=100 --param ggc-min-heapsize=131072
@ options passed:  -nostdinc -I ./arch/arm/include
@ -I arch/arm/include/generated/uapi -I arch/arm/include/generated
@ -I include -I ./arch/arm/include/uapi -I arch/arm/include/generated/uapi
@ -I ./include/uapi -I include/generated/uapi
@ -I arch/arm/mach-hi3716mv310/include
@ -I /usr1/code/v1r4_v1r6_sourceCode/code/current/v1r6_hi3716mv330_pack/work/source/kernel/linux-4.4.y/../../../source/common/include
@ -I /usr1/code/v1r4_v1r6_sourceCode/code/current/v1r6_hi3716mv330_pack/work/source/kernel/linux-4.4.y/../../../source/common/drv/include
@ -I /usr1/code/v1r4_v1r6_sourceCode/code/current/v1r6_hi3716mv330_pack/work/source/kernel/linux-4.4.y/../../../source/msp/drv/vfmw/vfmw_v4.0/drv/memmap
@ -I /usr1/code/v1r4_v1r6_sourceCode/code/current/v1r6_hi3716mv330_pack/work/source/kernel/linux-4.4.y/../../../source/msp/drv/vfmw/vfmw_v4.0/model/scd
@ -I /usr1/code/v1r4_v1r6_sourceCode/code/current/v1r6_hi3716mv330_pack/work/source/kernel/linux-4.4.y/../../../source/msp/drv/vfmw/vfmw_v4.0/firmware/common/softlib
@ -I /usr1/code/v1r4_v1r6_sourceCode/code/current/v1r6_hi3716mv330_pack/work/source/kernel/linux-4.4.y/../../../source/msp/drv/vfmw/vfmw_v4.0/firmware/common
@ -I /usr1/code/v1r4_v1r6_sourceCode/code/current/v1r6_hi3716mv330_pack/work/source/kernel/linux-4.4.y/../../../source/msp/drv/vfmw/vfmw_v4.0/firmware/common/syntax
@ -I /usr1/code/v1r4_v1r6_sourceCode/code/current/v1r6_hi3716mv330_pack/work/source/kernel/linux-4.4.y/../../../source/msp/drv/vfmw/vfmw_v4.0/firmware/driver/HiSCDV200
@ -I /usr1/code/v1r4_v1r6_sourceCode/code/current/v1r6_hi3716mv330_pack/work/source/kernel/linux-4.4.y/../../../source/msp/drv/vfmw/vfmw_v4.0/firmware/driver/HiVDHV100
@ -I /usr1/code/v1r4_v1r6_sourceCode/code/current/v1r6_hi3716mv330_pack/work/source/kernel/linux-4.4.y/../../../source/msp/drv/vfmw/vfmw_v4.0/firmware/driver/HiVDHV200R001
@ -I /usr1/code/v1r4_v1r6_sourceCode/code/current/v1r6_hi3716mv330_pack/work/source/kernel/linux-4.4.y/../../../source/msp/drv/vfmw/vfmw_v4.0/firmware/driver/HiVDHV200R002
@ -I /usr1/code/v1r4_v1r6_sourceCode/code/current/v1r6_hi3716mv330_pack/work/source/kernel/linux-4.4.y/../../../source/msp/drv/vfmw/vfmw_v4.0/firmware/driver/HiVDHV200R003
@ -I /usr1/code/v1r4_v1r6_sourceCode/code/current/v1r6_hi3716mv330_pack/work/source/kernel/linux-4.4.y/../../../source/msp/drv/vfmw/vfmw_v4.0/firmware/driver/HiVDHV200R004
@ -I /usr1/code/v1r4_v1r6_sourceCode/code/current/v1r6_hi3716mv330_pack/work/source/kernel/linux-4.4.y/../../../source/msp/drv/vfmw/vfmw_v4.0/model/rawpacket
@ -I /usr1/code/v1r4_v1r6_sourceCode/code/current/v1r6_hi3716mv330_pack/work/source/kernel/linux-4.4.y/../../../source/msp/drv/vfmw/vfmw_v4.0/firmware/product/Hi3716MV310_advca_hisiv310/osal/linux_kernel
@ -I /usr1/code/v1r4_v1r6_sourceCode/code/current/v1r6_hi3716mv330_pack/work/source/kernel/linux-4.4.y/../../../source/msp/drv/vfmw/vfmw_v4.0/firmware/product/Hi3716MV310_advca_hisiv310
@ -I /usr1/code/v1r4_v1r6_sourceCode/code/current/v1r6_hi3716mv330_pack/work/source/kernel/linux-4.4.y/../../../source/msp/drv/vfmw/vfmw_v4.0/firmware/driver/HiDNR
@ -I /usr1/code/v1r4_v1r6_sourceCode/code/current/v1r6_hi3716mv330_pack/work/source/kernel/linux-4.4.y/../../../source/msp/drv/vfmw/vfmw_v4.0/firmware/driver/HiBTLV100
@ -I /usr1/code/v1r4_v1r6_sourceCode/code/current/v1r6_hi3716mv330_pack/work/source/kernel/linux-4.4.y/../../../source/msp/drv/vfmw/vfmw_v4.0/firmware/common_test/vdecko
@ -iprefix /opt/hisi-linux/x86-arm/arm-histbv310-linux/bin/../lib/gcc/arm-gcc492_glibc224-linux-gnueabi/4.9.2/
@ -isysroot /opt/hisi-linux/x86-arm/arm-histbv310-linux/bin/../target
@ -D __KERNEL__ -D __LINUX_ARM_ARCH__=7 -U arm -D CC_HAVE_ASM_GOTO
@ -D Hi3716MV310 -D ENV_ARMLINUX_KERNEL -D OFF_LINE_DNR_ENABLE
@ -D SCD_MP4_SLICE_ENABLE -D SUPPORT_JPEG_444 -D VFMW_EXTRA_TYPE_DEFINE
@ -D PRODUCT_STB -D __VFMW_REGISTER_ISR__ -D VFMW_VDH_V200R004_SUPPORT
@ -D VFMW_H264_SUPPORT -D VFMW_MPEG2_SUPPORT -D VFMW_MPEG4_SUPPORT
@ -D VFMW_BPD_H_SUPPORT -D VFMW_DNR_SUPPORT -D VFMW_RAW_SUPPORT
@ -D VFMW_USER_SUPPORT -D CFG_MAX_CHAN_NUM=1 -D CFG_MAX_CHAN_NUM=1
@ -D VFMW_DPRINT_SUPPORT -D VFMW_AVSPLUS_SUPPORT -D VFMW_SYSTEM_REG_DISABLE
@ -D REPAIR_ENABLE -D _FORTIFY_SOURCE=2 -D CHIP_TYPE_hi3716mv310
@ -D SDK_VERSION=HiSTBLinuxV100R006C00SPC052 -D HI_LOG_SUPPORT=0
@ -D HI_PROC_SUPPORT=0 -D HI_PNG_DECODER_SUPPORT -D HI_KEYLED_SUPPORT
@ -D HI_HDCP_SUPPORT -D HI_SCI_SUPPORT -D HI_GPIOI2C_SUPPORT
@ -D HI_IR_S2_SUPPORT -D HI_DSC_SUPPORT -D HI_ADVCA_SUPPORT
@ -D HI_ADVCA_TYPE_CONAX -D HI_ADVCA_FUNCTION_RELEASE -D MODULE
@ -D KBUILD_STR(s)=#s -D KBUILD_BASENAME=KBUILD_STR(h264)
@ -D KBUILD_MODNAME=KBUILD_STR(hi_vfmw)
@ -isystem /opt/hisi-linux/x86-arm/arm-histbv310-linux/bin/../lib/gcc/arm-gcc492_glibc224-linux-gnueabi/4.9.2/include
@ -include ./include/linux/kconfig.h
@ -MD /usr1/code/v1r4_v1r6_sourceCode/code/current/v1r6_hi3716mv330_pack/work/source/msp/drv/vfmw/vfmw_v4.0/firmware/common/syntax/.h264.o.d
@ /usr1/code/v1r4_v1r6_sourceCode/code/current/v1r6_hi3716mv330_pack/work/source/msp/drv/vfmw/vfmw_v4.0/firmware/common/syntax/h264.c
@ -mlittle-endian -mabi=aapcs-linux -mno-thumb-interwork -mfpu=vfp -marm
@ -march=armv7-a -mfloat-abi=soft -mtls-dialect=gnu -mno-unaligned-access
@ -mword-relocations
@ -auxbase-strip /usr1/code/v1r4_v1r6_sourceCode/code/current/v1r6_hi3716mv330_pack/work/source/msp/drv/vfmw/vfmw_v4.0/firmware/common/syntax/h264.o
@ -g0 -O2 -Wall -Wundef -Wstrict-prototypes -Wno-trigraphs
@ -Werror=implicit-function-declaration -Wno-maybe-uninitialized
@ -Wframe-larger-than=1024 -Wno-unused-but-set-variable
@ -Wdeclaration-after-statement -Wno-pointer-sign -Werror=implicit-int
@ -Werror=strict-prototypes -Wformat=1 -Wformat-security -std=gnu90
@ -fno-strict-aliasing -fno-common -fno-dwarf2-cfi-asm -fno-ipa-sra
@ -funwind-tables -fomit-frame-pointer -fno-var-tracking-assignments
@ -fno-strict-overflow -fconserve-stack -fno-pic -fstack-protector
@ -fverbose-asm -fno-delete-null-pointer-checks -fdiagnostics-color=auto
@ -fno-aggressive-loop-optimizations -fno-tree-vrp
@ --param allow-store-data-races=0 --param ssp-buffer-size=4
@ options enabled:  -fauto-inc-dec -fbranch-count-reg -fcaller-saves
@ -fcombine-stack-adjustments -fcompare-elim -fcprop-registers
@ -fcrossjumping -fcse-follow-jumps -fdefer-pop -fdevirtualize
@ -fdevirtualize-speculatively -fearly-inlining
@ -feliminate-unused-debug-types -fexpensive-optimizations
@ -fforward-propagate -ffunction-cse -fgcse -fgcse-lm -fgnu-runtime
@ -fgnu-unique -fguess-branch-probability -fhoist-adjacent-loads -fident
@ -fif-conversion -fif-conversion2 -findirect-inlining -finline
@ -finline-atomics -finline-functions-called-once -finline-small-functions
@ -fipa-cp -fipa-profile -fipa-pure-const -fipa-reference
@ -fira-hoist-pressure -fira-share-save-slots -fira-share-spill-slots
@ -fisolate-erroneous-paths-dereference -fivopts -fkeep-static-consts
@ -fleading-underscore -fmath-errno -fmerge-constants -fmerge-debug-strings
@ -fmove-loop-invariants -fomit-frame-pointer -foptimize-sibling-calls
@ -foptimize-strlen -fpartial-inlining -fpeephole -fpeephole2
@ -fprefetch-loop-arrays -freg-struct-return -freorder-blocks
@ -freorder-functions -frerun-cse-after-loop
@ -fsched-critical-path-heuristic -fsched-dep-count-heuristic
@ -fsched-group-heuristic -fsched-interblock -fsched-last-insn-heuristic
@ -fsched-pressure -fsched-rank-heuristic -fsched-spec
@ -fsched-spec-insn-heuristic -fsched-stalled-insns-dep -fschedule-insns
@ -fschedule-insns2 -fsection-anchors -fshow-column -fshrink-wrap
@ -fsigned-zeros -fsplit-ivs-in-unroller -fsplit-wide-types
@ -fstack-protector -fstrict-volatile-bitfields -fsync-libcalls
@ -fthread-jumps -ftoplevel-reorder -ftrapping-math -ftree-bit-ccp
@ -ftree-builtin-call-dce -ftree-ccp -ftree-ch -ftree-coalesce-vars
@ -ftree-copy-prop -ftree-copyrename -ftree-cselim -ftree-dce
@ -ftree-dominator-opts -ftree-dse -ftree-forwprop -ftree-fre
@ -ftree-loop-if-convert -ftree-loop-im -ftree-loop-ivcanon
@ -ftree-loop-optimize -ftree-parallelize-loops= -ftree-phiprop -ftree-pre
@ -ftree-pta -ftree-reassoc -ftree-scev-cprop -ftree-sink -ftree-slsr
@ -ftree-sra -ftree-switch-conversion -ftree-tail-merge -ftree-ter
@ -funit-at-a-time -funwind-tables -fverbose-asm -fzero-initialized-in-bss
@ -marm -mglibc -mlittle-endian -mlra -mpic-data-is-text-relative
@ -msched-prolog -mvectorize-with-neon-quad -mword-relocations

	.text
	.align	2
	.global	IsSTRefFlg
	.type	IsSTRefFlg, %function
IsSTRefFlg:
	.fnstart
	@ args = 0, pretend = 0, frame = 0
	@ frame_needed = 0, uses_anonymous_args = 0
	@ link register save eliminated.
	ldr	r0, [r0]	@ *s_2(D), *s_2(D)
	bic	r0, r0, #-16777216	@ D.43057, *s_2(D),
	bic	r0, r0, #255	@ D.43057, D.43057,
	sub	r0, r0, #65536	@, D.43057,
	clz	r0, r0	@,
	mov	r0, r0, lsr #5	@,,
	bx	lr	@
	.fnend
	.size	IsSTRefFlg, .-IsSTRefFlg
	.align	2
	.global	IsLTRefFlg
	.type	IsLTRefFlg, %function
IsLTRefFlg:
	.fnstart
	@ args = 0, pretend = 0, frame = 0
	@ frame_needed = 0, uses_anonymous_args = 0
	@ link register save eliminated.
	ldr	r0, [r0]	@ *s_2(D), *s_2(D)
	bic	r0, r0, #-16777216	@ D.43062, *s_2(D),
	bic	r0, r0, #255	@ D.43062, D.43062,
	sub	r0, r0, #256	@, D.43062,
	clz	r0, r0	@,
	mov	r0, r0, lsr #5	@,,
	bx	lr	@
	.fnend
	.size	IsLTRefFlg, .-IsLTRefFlg
	.align	2
	.global	compare_pic_by_pic_num_desc
	.type	compare_pic_by_pic_num_desc, %function
compare_pic_by_pic_num_desc:
	.fnstart
	@ args = 0, pretend = 0, frame = 0
	@ frame_needed = 0, uses_anonymous_args = 0
	@ link register save eliminated.
	ldr	r2, [r0]	@ MEM[(struct H264_STORABLEPIC_S * *)arg1_3(D)], MEM[(struct H264_STORABLEPIC_S * *)arg1_3(D)]
	ldr	r3, [r1]	@ MEM[(struct H264_STORABLEPIC_S * *)arg2_6(D)], MEM[(struct H264_STORABLEPIC_S * *)arg2_6(D)]
	ldr	r2, [r2, #12]	@ D.43069, _4->pic_num
	ldr	r3, [r3, #12]	@ D.43069, _7->pic_num
	cmp	r2, r3	@ D.43069, D.43069
	blt	.L5	@,
	mvngt	r0, #0	@ D.43067,
	movle	r0, #0	@ D.43067,
	bx	lr	@
.L5:
	mov	r0, #1	@ D.43067,
	bx	lr	@
	.fnend
	.size	compare_pic_by_pic_num_desc, .-compare_pic_by_pic_num_desc
	.align	2
	.global	compare_pic_by_lt_pic_num_asc
	.type	compare_pic_by_lt_pic_num_asc, %function
compare_pic_by_lt_pic_num_asc:
	.fnstart
	@ args = 0, pretend = 0, frame = 0
	@ frame_needed = 0, uses_anonymous_args = 0
	@ link register save eliminated.
	ldr	r2, [r0]	@ MEM[(struct H264_STORABLEPIC_S * *)arg1_3(D)], MEM[(struct H264_STORABLEPIC_S * *)arg1_3(D)]
	ldr	r3, [r1]	@ MEM[(struct H264_STORABLEPIC_S * *)arg2_6(D)], MEM[(struct H264_STORABLEPIC_S * *)arg2_6(D)]
	ldr	r2, [r2, #8]	@ D.43075, _4->long_term_pic_num
	ldr	r3, [r3, #8]	@ D.43075, _7->long_term_pic_num
	cmp	r2, r3	@ D.43075, D.43075
	blt	.L9	@,
	movgt	r0, #1	@ D.43073,
	movle	r0, #0	@ D.43073,
	bx	lr	@
.L9:
	mvn	r0, #0	@ D.43073,
	bx	lr	@
	.fnend
	.size	compare_pic_by_lt_pic_num_asc, .-compare_pic_by_lt_pic_num_asc
	.align	2
	.global	compare_fs_by_frame_num_desc
	.type	compare_fs_by_frame_num_desc, %function
compare_fs_by_frame_num_desc:
	.fnstart
	@ args = 0, pretend = 0, frame = 0
	@ frame_needed = 0, uses_anonymous_args = 0
	@ link register save eliminated.
	ldr	r2, [r0]	@ MEM[(struct H264_FRAMESTORE_S * *)arg1_3(D)], MEM[(struct H264_FRAMESTORE_S * *)arg1_3(D)]
	ldr	r3, [r1]	@ MEM[(struct H264_FRAMESTORE_S * *)arg2_6(D)], MEM[(struct H264_FRAMESTORE_S * *)arg2_6(D)]
	ldr	r2, [r2, #516]	@ D.43081, _4->frame_num_wrap
	ldr	r3, [r3, #516]	@ D.43081, _7->frame_num_wrap
	cmp	r2, r3	@ D.43081, D.43081
	blt	.L12	@,
	mvngt	r0, #0	@ D.43079,
	movle	r0, #0	@ D.43079,
	bx	lr	@
.L12:
	mov	r0, #1	@ D.43079,
	bx	lr	@
	.fnend
	.size	compare_fs_by_frame_num_desc, .-compare_fs_by_frame_num_desc
	.align	2
	.global	compare_fs_by_lt_pic_idx_asc
	.type	compare_fs_by_lt_pic_idx_asc, %function
compare_fs_by_lt_pic_idx_asc:
	.fnstart
	@ args = 0, pretend = 0, frame = 0
	@ frame_needed = 0, uses_anonymous_args = 0
	@ link register save eliminated.
	ldr	r2, [r0]	@ MEM[(struct H264_FRAMESTORE_S * *)arg1_3(D)], MEM[(struct H264_FRAMESTORE_S * *)arg1_3(D)]
	ldr	r3, [r1]	@ MEM[(struct H264_FRAMESTORE_S * *)arg2_6(D)], MEM[(struct H264_FRAMESTORE_S * *)arg2_6(D)]
	ldr	r2, [r2, #520]	@ D.43087, _4->long_term_frame_idx
	ldr	r3, [r3, #520]	@ D.43087, _7->long_term_frame_idx
	cmp	r2, r3	@ D.43087, D.43087
	bcc	.L15	@,
	movhi	r0, #1	@ D.43085,
	movls	r0, #0	@ D.43085,
	bx	lr	@
.L15:
	mvn	r0, #0	@ D.43085,
	bx	lr	@
	.fnend
	.size	compare_fs_by_lt_pic_idx_asc, .-compare_fs_by_lt_pic_idx_asc
	.align	2
	.global	compare_pic_by_poc_asc
	.type	compare_pic_by_poc_asc, %function
compare_pic_by_poc_asc:
	.fnstart
	@ args = 0, pretend = 0, frame = 0
	@ frame_needed = 0, uses_anonymous_args = 0
	@ link register save eliminated.
	ldr	r2, [r0]	@ MEM[(struct H264_STORABLEPIC_S * *)arg1_3(D)], MEM[(struct H264_STORABLEPIC_S * *)arg1_3(D)]
	ldr	r3, [r1]	@ MEM[(struct H264_STORABLEPIC_S * *)arg2_6(D)], MEM[(struct H264_STORABLEPIC_S * *)arg2_6(D)]
	ldr	r2, [r2, #16]	@ D.43093, _4->poc
	ldr	r3, [r3, #16]	@ D.43093, _7->poc
	cmp	r2, r3	@ D.43093, D.43093
	blt	.L18	@,
	movgt	r0, #1	@ D.43091,
	movle	r0, #0	@ D.43091,
	bx	lr	@
.L18:
	mvn	r0, #0	@ D.43091,
	bx	lr	@
	.fnend
	.size	compare_pic_by_poc_asc, .-compare_pic_by_poc_asc
	.align	2
	.global	compare_pic_by_poc_desc
	.type	compare_pic_by_poc_desc, %function
compare_pic_by_poc_desc:
	.fnstart
	@ args = 0, pretend = 0, frame = 0
	@ frame_needed = 0, uses_anonymous_args = 0
	@ link register save eliminated.
	ldr	r2, [r0]	@ MEM[(struct H264_STORABLEPIC_S * *)arg1_3(D)], MEM[(struct H264_STORABLEPIC_S * *)arg1_3(D)]
	ldr	r3, [r1]	@ MEM[(struct H264_STORABLEPIC_S * *)arg2_6(D)], MEM[(struct H264_STORABLEPIC_S * *)arg2_6(D)]
	ldr	r2, [r2, #16]	@ D.43099, _4->poc
	ldr	r3, [r3, #16]	@ D.43099, _7->poc
	cmp	r2, r3	@ D.43099, D.43099
	blt	.L21	@,
	mvngt	r0, #0	@ D.43097,
	movle	r0, #0	@ D.43097,
	bx	lr	@
.L21:
	mov	r0, #1	@ D.43097,
	bx	lr	@
	.fnend
	.size	compare_pic_by_poc_desc, .-compare_pic_by_poc_desc
	.align	2
	.global	compare_fs_by_poc_asc
	.type	compare_fs_by_poc_asc, %function
compare_fs_by_poc_asc:
	.fnstart
	@ args = 0, pretend = 0, frame = 0
	@ frame_needed = 0, uses_anonymous_args = 0
	@ link register save eliminated.
	ldr	r2, [r0]	@ MEM[(struct H264_FRAMESTORE_S * *)arg1_3(D)], MEM[(struct H264_FRAMESTORE_S * *)arg1_3(D)]
	ldr	r3, [r1]	@ MEM[(struct H264_FRAMESTORE_S * *)arg2_6(D)], MEM[(struct H264_FRAMESTORE_S * *)arg2_6(D)]
	ldr	r2, [r2, #524]	@ D.43105, _4->poc
	ldr	r3, [r3, #524]	@ D.43105, _7->poc
	cmp	r2, r3	@ D.43105, D.43105
	blt	.L24	@,
	movgt	r0, #1	@ D.43103,
	movle	r0, #0	@ D.43103,
	bx	lr	@
.L24:
	mvn	r0, #0	@ D.43103,
	bx	lr	@
	.fnend
	.size	compare_fs_by_poc_asc, .-compare_fs_by_poc_asc
	.align	2
	.global	compare_fs_by_poc_desc
	.type	compare_fs_by_poc_desc, %function
compare_fs_by_poc_desc:
	.fnstart
	@ args = 0, pretend = 0, frame = 0
	@ frame_needed = 0, uses_anonymous_args = 0
	@ link register save eliminated.
	ldr	r2, [r0]	@ MEM[(struct H264_FRAMESTORE_S * *)arg1_3(D)], MEM[(struct H264_FRAMESTORE_S * *)arg1_3(D)]
	ldr	r3, [r1]	@ MEM[(struct H264_FRAMESTORE_S * *)arg2_6(D)], MEM[(struct H264_FRAMESTORE_S * *)arg2_6(D)]
	ldr	r2, [r2, #524]	@ D.43111, _4->poc
	ldr	r3, [r3, #524]	@ D.43111, _7->poc
	cmp	r2, r3	@ D.43111, D.43111
	blt	.L27	@,
	mvngt	r0, #0	@ D.43109,
	movle	r0, #0	@ D.43109,
	bx	lr	@
.L27:
	mov	r0, #1	@ D.43109,
	bx	lr	@
	.fnend
	.size	compare_fs_by_poc_desc, .-compare_fs_by_poc_desc
	.align	2
	.type	SetFrmRepeatCount.part.1, %function
SetFrmRepeatCount.part.1:
	.fnstart
	@ args = 0, pretend = 0, frame = 0
	@ frame_needed = 0, uses_anonymous_args = 0
	add	ip, r0, #49152	@ tmp126, pH264Ctx,
	add	r0, r0, #24576	@ tmp133, pH264Ctx,
	str	lr, [sp, #-4]!	@,
	.save {lr}
	ldr	lr, [ip, #3712]	@ pH264Ctx_1(D)->PicOutCounter, pH264Ctx_1(D)->PicOutCounter
	ldr	r2, [r0, #2048]	@ pH264Ctx_1(D)->DPB.size, pH264Ctx_1(D)->DPB.size
	ldr	r3, [ip, #3708]	@ pH264Ctx_1(D)->NewPicCounter, pH264Ctx_1(D)->NewPicCounter
	add	r2, r2, lr, lsr #1	@ D.43115, pH264Ctx_1(D)->DPB.size, pH264Ctx_1(D)->PicOutCounter,
	add	r0, r2, #1	@ D.43115, D.43115,
	mov	r3, r3, lsr #1	@ D.43115, pH264Ctx_1(D)->NewPicCounter,
	cmp	r3, r0	@ D.43115, D.43115
	movcc	r3, #0	@ tmp152,
	strcc	r3, [r1, #84]	@ tmp152, p_image_11(D)->u32RepeatCnt
	ldrcc	pc, [sp], #4	@
	sub	r3, r3, #1	@ D.43115, D.43115,
	rsb	r3, r2, r3	@ D.43115, D.43115, D.43115
	cmp	r3, #1	@ D.43115,
	movhi	r3, #2	@ tmp138,
	movls	r3, #1	@ tmp145,
	strhi	r3, [r1, #84]	@ tmp138, p_image_11(D)->u32RepeatCnt
	strls	r3, [r1, #84]	@ tmp145, p_image_11(D)->u32RepeatCnt
	ldrhi	r3, [ip, #3712]	@ pH264Ctx_1(D)->PicOutCounter, pH264Ctx_1(D)->PicOutCounter
	ldrls	r3, [ip, #3712]	@ pH264Ctx_1(D)->PicOutCounter, pH264Ctx_1(D)->PicOutCounter
	addhi	r3, r3, #4	@ D.43115, pH264Ctx_1(D)->PicOutCounter,
	addls	r3, r3, #2	@ D.43115, pH264Ctx_1(D)->PicOutCounter,
	str	r3, [ip, #3712]	@ D.43115, pH264Ctx_1(D)->PicOutCounter
	ldr	pc, [sp], #4	@
	.fnend
	.size	SetFrmRepeatCount.part.1, .-SetFrmRepeatCount.part.1
	.align	2
	.type	DumpList.part.5, %function
DumpList.part.5:
	.fnstart
	@ args = 0, pretend = 0, frame = 0
	@ frame_needed = 0, uses_anonymous_args = 0
	stmfd	sp!, {r4, r5, r6, r7, r8, lr}	@,
	.save {r4, r5, r6, r7, r8, lr}
	add	r4, r0, #20480	@ tmp207, pH264Ctx,
	mov	r6, r0	@ pH264Ctx, pH264Ctx
	ldr	r3, [r4, #244]	@ pH264Ctx_3(D)->CurrSlice.listXsize, pH264Ctx_3(D)->CurrSlice.listXsize
	cmp	r3, #0	@ pH264Ctx_3(D)->CurrSlice.listXsize,
	movne	r5, #0	@ i,
	beq	.L74	@,
.L38:
	bl	vfmw_dprint_nothing	@
	ldr	r3, [r4, #244]	@ pH264Ctx_3(D)->CurrSlice.listXsize, pH264Ctx_3(D)->CurrSlice.listXsize
	add	r5, r5, #1	@ i, i,
	cmp	r3, r5	@ pH264Ctx_3(D)->CurrSlice.listXsize, i
	bhi	.L38	@,
	ldr	r2, [r4, #248]	@ pH264Ctx_3(D)->CurrSlice.listXsize, pH264Ctx_3(D)->CurrSlice.listXsize
	cmp	r2, #0	@ pH264Ctx_3(D)->CurrSlice.listXsize,
	beq	.L75	@,
.L36:
	mov	r5, #0	@ i,
.L40:
	bl	vfmw_dprint_nothing	@
	ldr	r3, [r4, #248]	@ D.43152, pH264Ctx_3(D)->CurrSlice.listXsize
	add	r5, r5, #1	@ i, i,
	cmp	r3, r5	@ D.43152, i
	bhi	.L40	@,
	ldr	r2, [r4, #244]	@ pH264Ctx_3(D)->CurrSlice.listXsize, pH264Ctx_3(D)->CurrSlice.listXsize
	cmp	r2, #0	@ pH264Ctx_3(D)->CurrSlice.listXsize,
	bne	.L58	@,
	cmp	r3, #0	@ D.43152,
	ldmeqfd	sp!, {r4, r5, r6, r7, r8, pc}	@
.L76:
	bl	vfmw_dprint_nothing	@
	ldr	r3, [r4, #248]	@ pH264Ctx_3(D)->CurrSlice.listXsize, pH264Ctx_3(D)->CurrSlice.listXsize
	cmp	r3, #0	@ pH264Ctx_3(D)->CurrSlice.listXsize,
	addne	r6, r6, #27136	@ ivtmp.346, pH264Ctx,
	movne	r5, #0	@ i,
	addne	r6, r6, #28	@ ivtmp.346, ivtmp.346,
	beq	.L57	@,
.L56:
	ldr	r3, [r6, #4]!	@ MEM[base: _60, offset: 0B], MEM[base: _60, offset: 0B]
	ldrb	r3, [r3]	@ zero_extendqisi2	@ _15->structure, _15->structure
	cmp	r3, #1	@ _15->structure,
	beq	.L55	@,
	bcc	.L55	@,
	cmp	r3, #2	@ _15->structure,
	bne	.L52	@,
.L55:
	bl	vfmw_dprint_nothing	@
.L52:
	ldr	r3, [r4, #248]	@ pH264Ctx_3(D)->CurrSlice.listXsize, pH264Ctx_3(D)->CurrSlice.listXsize
	add	r5, r5, #1	@ i, i,
	cmp	r5, r3	@ i, pH264Ctx_3(D)->CurrSlice.listXsize
	bcc	.L56	@,
.L57:
	ldmfd	sp!, {r4, r5, r6, r7, r8, lr}	@
	b	vfmw_dprint_nothing	@
.L75:
	cmp	r3, #0	@ pH264Ctx_3(D)->CurrSlice.listXsize,
	ldmeqfd	sp!, {r4, r5, r6, r7, r8, pc}	@
.L58:
	bl	vfmw_dprint_nothing	@
	ldr	r3, [r4, #244]	@ pH264Ctx_3(D)->CurrSlice.listXsize, pH264Ctx_3(D)->CurrSlice.listXsize
	cmp	r3, #0	@ pH264Ctx_3(D)->CurrSlice.listXsize,
	addne	r7, r6, #26880	@ ivtmp.358, pH264Ctx,
	movne	r5, #0	@ i,
	addne	r7, r7, #152	@ ivtmp.358, ivtmp.358,
	beq	.L48	@,
.L47:
	ldr	r3, [r7, #4]!	@ MEM[base: _22, offset: 0B], MEM[base: _22, offset: 0B]
	ldrb	r3, [r3]	@ zero_extendqisi2	@ _9->structure, _9->structure
	cmp	r3, #1	@ _9->structure,
	beq	.L46	@,
	bcc	.L46	@,
	cmp	r3, #2	@ _9->structure,
	bne	.L43	@,
.L46:
	bl	vfmw_dprint_nothing	@
.L43:
	ldr	r3, [r4, #244]	@ pH264Ctx_3(D)->CurrSlice.listXsize, pH264Ctx_3(D)->CurrSlice.listXsize
	add	r5, r5, #1	@ i, i,
	cmp	r5, r3	@ i, pH264Ctx_3(D)->CurrSlice.listXsize
	bcc	.L47	@,
.L48:
	bl	vfmw_dprint_nothing	@
	ldr	r3, [r4, #248]	@ D.43152, pH264Ctx_3(D)->CurrSlice.listXsize
	cmp	r3, #0	@ D.43152,
	ldmeqfd	sp!, {r4, r5, r6, r7, r8, pc}	@
	b	.L76	@
.L74:
	ldr	r3, [r4, #248]	@ pH264Ctx_3(D)->CurrSlice.listXsize, pH264Ctx_3(D)->CurrSlice.listXsize
	cmp	r3, #0	@ pH264Ctx_3(D)->CurrSlice.listXsize,
	bne	.L36	@,
	ldmfd	sp!, {r4, r5, r6, r7, r8, pc}	@
	.fnend
	.size	DumpList.part.5, .-DumpList.part.5
	.align	2
	.type	CombinePacket.part.9, %function
CombinePacket.part.9:
	.fnstart
	@ args = 0, pretend = 0, frame = 0
	@ frame_needed = 0, uses_anonymous_args = 0
	stmfd	sp!, {r4, r5, r6, lr}	@,
	.save {r4, r5, r6, lr}
	mov	r4, r0	@ pH264Ctx, pH264Ctx
	bl	vfmw_dprint_nothing	@
	bl	vfmw_dprint_nothing	@
	ldr	r3, [r4, #368]	@ D.43157, pH264Ctx_1(D)->pCurrNal
	mov	r5, #0	@ tmp147,
	ldr	r2, [r3, #12]	@ D.43159, _2->stream[0].bitstream_length
	ldr	r0, [r3, #36]	@ _2->stream[1].streamBuffer, _2->stream[1].streamBuffer
	ldr	r1, [r3, #8]	@, _2->stream[0].streamBuffer
	rsb	r0, r2, r0	@,, _2->stream[1].streamBuffer
	bl	memcpy	@
	ldr	r3, [r4, #368]	@ D.43157, pH264Ctx_1(D)->pCurrNal
	mov	r1, #1	@ tmp157,
	ldr	r2, [r3, #60]	@ _8->stream[1].StreamID, _8->stream[1].StreamID
	ldr	r6, [r3, #32]	@ StreamId, _8->stream[0].StreamID
	str	r2, [r3, #32]	@ _8->stream[1].StreamID, _8->stream[0].StreamID
	ldr	r3, [r4, #368]	@ D.43157, pH264Ctx_1(D)->pCurrNal
	str	r5, [r3, #24]	@ tmp147, _11->stream[0].bitsoffset
	ldr	r3, [r4, #368]	@ D.43157, pH264Ctx_1(D)->pCurrNal
	ldr	r0, [r3, #12]	@ _12->stream[0].bitstream_length, _12->stream[0].bitstream_length
	ldr	r2, [r3, #36]	@ _12->stream[1].streamBuffer, _12->stream[1].streamBuffer
	rsb	r2, r0, r2	@ D.43158, _12->stream[0].bitstream_length, _12->stream[1].streamBuffer
	str	r2, [r3, #8]	@ D.43158, _12->stream[0].streamBuffer
	ldr	r3, [r4, #368]	@ D.43157, pH264Ctx_1(D)->pCurrNal
	ldr	r0, [r3, #12]	@ _17->stream[0].bitstream_length, _17->stream[0].bitstream_length
	ldr	r2, [r3, #44]	@ _17->stream[1].stream_phy_addr, _17->stream[1].stream_phy_addr
	rsb	r2, r0, r2	@ D.43159, _17->stream[0].bitstream_length, _17->stream[1].stream_phy_addr
	str	r2, [r3, #16]	@ D.43159, _17->stream[0].stream_phy_addr
	ldr	r3, [r4, #368]	@ D.43157, pH264Ctx_1(D)->pCurrNal
	ldr	r2, [r3, #12]	@ _21->stream[0].bitstream_length, _21->stream[0].bitstream_length
	ldr	r0, [r3, #40]	@ _21->stream[1].bitstream_length, _21->stream[1].bitstream_length
	add	r2, r2, r0	@ D.43159, _21->stream[0].bitstream_length, _21->stream[1].bitstream_length
	str	r2, [r3, #12]	@ D.43159, _21->stream[0].bitstream_length
	ldr	r3, [r4, #368]	@ D.43157, pH264Ctx_1(D)->pCurrNal
	str	r1, [r3, #68]	@ tmp157, _25->nal_segment
	bl	vfmw_dprint_nothing	@
	add	r3, r4, #49152	@ tmp159, pH264Ctx,
	mov	r1, r6	@, StreamId
	ldr	r0, [r3, #3688]	@, pH264Ctx_1(D)->ChanID
	bl	SM_ReleaseStreamSeg	@
	ldr	r3, [r4, #368]	@ D.43157, pH264Ctx_1(D)->pCurrNal
	str	r5, [r3, #36]	@ tmp147, _27->stream[1].streamBuffer
	ldr	r3, [r4, #368]	@ D.43157, pH264Ctx_1(D)->pCurrNal
	str	r5, [r3, #52]	@ tmp147, _28->stream[1].bitsoffset
	ldr	r3, [r4, #368]	@ D.43157, pH264Ctx_1(D)->pCurrNal
	str	r5, [r3, #40]	@ tmp147, _29->stream[1].bitstream_length
	ldmfd	sp!, {r4, r5, r6, pc}	@
	.fnend
	.size	CombinePacket.part.9, .-CombinePacket.part.9
	.align	2
	.global	ue_v
	.type	ue_v, %function
ue_v:
	.fnstart
	@ args = 0, pretend = 0, frame = 0
	@ frame_needed = 0, uses_anonymous_args = 0
	stmfd	sp!, {r4, r5, r6, r7, r8, lr}	@,
	.save {r4, r5, r6, r7, r8, lr}
	add	r5, r0, #13504	@ D.43168, pH264Ctx,
	add	r5, r5, #24	@ D.43168, D.43168,
	mov	r1, #32	@,
	mov	r6, r0	@ pH264Ctx, pH264Ctx
	mov	r0, r5	@, D.43168
	bl	BsShow	@
	mov	r7, r0	@ D.43169,
	bl	ZerosMS_32	@
	cmp	r0, #15	@ zeros,
	mov	r4, r0	@ zeros,
	bls	.L84	@,
	cmp	r0, #31	@ zeros,
	bls	.L85	@,
	add	r2, r6, #49152	@ tmp138, pH264Ctx,
	mvn	r7, #0	@ INFO,
	mov	r5, #32	@ NumBits,
	mov	r3, #1	@ tmp139,
	str	r3, [r2, #3628]	@ tmp139, pH264Ctx_4(D)->SeErrFlg
.L81:
	ldr	r0, [r6, #368]	@ D.43171, pH264Ctx_4(D)->pCurrNal
	ldr	r2, [r0, #64]	@ _32->nal_bitoffset, _32->nal_bitoffset
	add	r3, r2, r5	@ D.43170, _32->nal_bitoffset, NumBits
	str	r3, [r0, #64]	@ D.43170, _32->nal_bitoffset
	bl	vfmw_dprint_nothing	@
	mov	r0, r7	@, INFO
	ldmfd	sp!, {r4, r5, r6, r7, r8, pc}	@
.L84:
	mov	r4, r0, asl #1	@ D.43170, zeros,
	mov	r0, r5	@, D.43168
	add	r5, r4, #1	@ NumBits, D.43170,
	rsb	r4, r4, #31	@ D.43170, D.43170,
	mov	r4, r7, lsr r4	@ D.43170, D.43169,
	mov	r1, r5	@, NumBits
	sub	r7, r4, #1	@ INFO, D.43170,
	bl	BsSkip	@
	b	.L81	@
.L85:
	add	r7, r0, #1	@ D.43169, zeros,
	mov	r1, r0	@, zeros
	mov	r0, r5	@, D.43168
	bl	BsSkip	@
	mov	r1, r7	@, D.43169
	mov	r0, r5	@, D.43168
	bl	BsShow	@
	mov	r1, r7	@, D.43169
	sub	r7, r0, #1	@ INFO,,
	mov	r0, r5	@, D.43168
	bl	BsSkip	@
	mov	r3, r4, asl #1	@ D.43170, zeros,
	add	r5, r3, #1	@ NumBits, D.43170,
	b	.L81	@
	.fnend
	.size	ue_v, .-ue_v
	.align	2
	.global	se_v
	.type	se_v, %function
se_v:
	.fnstart
	@ args = 0, pretend = 0, frame = 0
	@ frame_needed = 0, uses_anonymous_args = 0
	stmfd	sp!, {r4, r5, r6, r7, r8, lr}	@,
	.save {r4, r5, r6, r7, r8, lr}
	add	r5, r0, #13504	@ D.43174, pH264Ctx,
	add	r5, r5, #24	@ D.43174, D.43174,
	mov	r1, #32	@,
	mov	r7, r0	@ pH264Ctx, pH264Ctx
	mov	r0, r5	@, D.43174
	bl	BsShow	@
	mov	r6, r0	@ D.43175,
	bl	ZerosMS_32	@
	cmp	r0, #15	@ zeros,
	mov	r4, r0	@ zeros,
	bhi	.L87	@,
	mov	r4, r0, asl #1	@ D.43176, zeros,
	mov	r0, r5	@, D.43174
	rsb	r5, r4, #31	@ D.43176, D.43176,
	add	r4, r4, #1	@ NumBits, D.43176,
	mov	r6, r6, lsr r5	@ D.43176, D.43175,
	and	r3, r6, #1	@ D.43177, D.43176,
	mov	r1, r4	@, NumBits
	rsb	r5, r3, #0	@ D.43179, D.43177
	eor	r6, r5, r6, lsr #1	@ D.43179, D.43179, D.43176,
	add	r5, r6, r3	@ INFO, D.43179, D.43177
	bl	BsSkip	@
.L88:
	ldr	r2, [r7, #368]	@ D.43178, pH264Ctx_6(D)->pCurrNal
	ldr	r3, [r2, #64]	@ _37->nal_bitoffset, _37->nal_bitoffset
	add	r4, r3, r4	@ D.43176, _37->nal_bitoffset, NumBits
	str	r4, [r2, #64]	@ D.43176, _37->nal_bitoffset
	bl	vfmw_dprint_nothing	@
	mov	r0, r5	@, INFO
	ldmfd	sp!, {r4, r5, r6, r7, r8, pc}	@
.L87:
	cmp	r0, #31	@ zeros,
	bls	.L91	@,
	add	r3, r7, #49152	@ tmp153, pH264Ctx,
	mov	r2, #1	@ tmp154,
	mvn	r5, #-2147483648	@ INFO,
	mov	r4, #32	@ NumBits,
	str	r2, [r3, #3628]	@ tmp154, pH264Ctx_6(D)->SeErrFlg
	b	.L88	@
.L91:
	mov	r1, r0	@, zeros
	mov	r0, r5	@, D.43174
	bl	BsSkip	@
	mov	r1, r4	@, zeros
	mov	r0, r5	@, D.43174
	mov	r4, r4, asl #1	@ D.43176, zeros,
	bl	BsGet	@
	mov	r1, #1	@,
	add	r4, r4, #1	@ NumBits, D.43176,
	mov	r6, r0	@ INFO,
	mov	r0, r5	@, D.43174
	bl	BsGet	@
	and	r0, r0, #1	@ D.43177,,
	rsb	r5, r0, #0	@ D.43179, D.43177
	eor	r6, r6, r5	@ D.43179, INFO, D.43179
	add	r5, r6, r0	@ INFO, D.43179, D.43177
	b	.L88	@
	.fnend
	.size	se_v, .-se_v
	.align	2
	.global	u_v
	.type	u_v, %function
u_v:
	.fnstart
	@ args = 0, pretend = 0, frame = 0
	@ frame_needed = 0, uses_anonymous_args = 0
	stmfd	sp!, {r4, r5, r6, lr}	@,
	.save {r4, r5, r6, lr}
	mov	r4, r0	@ pH264Ctx, pH264Ctx
	add	r0, r0, #13504	@, pH264Ctx,
	mov	r6, r1	@ LenInBits, LenInBits
	add	r0, r0, #24	@,,
	bl	BsGet	@
	ldr	r2, [r4, #368]	@ D.43184, pH264Ctx_1(D)->pCurrNal
	ldr	r3, [r2, #64]	@ _8->nal_bitoffset, _8->nal_bitoffset
	add	r1, r3, r6	@ D.43185, _8->nal_bitoffset, LenInBits
	str	r1, [r2, #64]	@ D.43185, _8->nal_bitoffset
	mov	r5, r0	@ INFO,
	bl	vfmw_dprint_nothing	@
	mov	r0, r5	@, INFO
	ldmfd	sp!, {r4, r5, r6, pc}	@
	.fnend
	.size	u_v, .-u_v
	.align	2
	.global	u_1
	.type	u_1, %function
u_1:
	.fnstart
	@ args = 0, pretend = 0, frame = 0
	@ frame_needed = 0, uses_anonymous_args = 0
	stmfd	sp!, {r4, r5, r6, lr}	@,
	.save {r4, r5, r6, lr}
	mov	r4, r0	@ pH264Ctx, pH264Ctx
	add	r0, r0, #13504	@, pH264Ctx,
	mov	r1, #1	@,
	add	r0, r0, #24	@,,
	bl	BsGet	@
	ldr	r2, [r4, #368]	@ D.43190, pH264Ctx_1(D)->pCurrNal
	ldr	r3, [r2, #64]	@ _7->nal_bitoffset, _7->nal_bitoffset
	add	r3, r3, #1	@ D.43191, _7->nal_bitoffset,
	str	r3, [r2, #64]	@ D.43191, _7->nal_bitoffset
	mov	r5, r0	@ D.43189,
	bl	vfmw_dprint_nothing	@
	mov	r0, r5	@, D.43189
	ldmfd	sp!, {r4, r5, r6, pc}	@
	.fnend
	.size	u_1, .-u_1
	.align	2
	.global	GetMinPOC
	.type	GetMinPOC, %function
GetMinPOC:
	.fnstart
	@ args = 0, pretend = 0, frame = 0
	@ frame_needed = 0, uses_anonymous_args = 0
	stmfd	sp!, {r4, r5, lr}	@,
	.save {r4, r5, lr}
	add	r5, r0, #24576	@ tmp138, pH264Ctx,
	mov	ip, #0	@ tmp124,
	mvn	r3, #-2147483648	@ tmp125,
	str	ip, [r2]	@ tmp124, *pos_6(D)
	str	r3, [r1]	@ tmp125, *poc_8(D)
	ldr	r3, [r5, #2052]	@ D.43207, pH264Ctx_10(D)->DPB.used_size
	ldr	ip, [r5, #2048]	@ D.43207, pH264Ctx_10(D)->DPB.size
	cmp	r3, ip	@ D.43207, D.43207
	strhi	ip, [r5, #2052]	@ D.43207, pH264Ctx_10(D)->DPB.used_size
	movhi	r3, ip	@ D.43207, D.43207
	cmp	r3, #0	@ D.43207,
	ldmeqfd	sp!, {r4, r5, pc}	@
	add	r0, r0, #26368	@ ivtmp.385, pH264Ctx,
	mov	r3, #0	@ i,
	add	r0, r0, #60	@ ivtmp.385, ivtmp.385,
.L100:
	ldr	ip, [r0, #4]!	@ D.43209, MEM[base: _1, offset: 0B]
	ldr	r4, [r1]	@ *poc_8(D), *poc_8(D)
	ldr	lr, [ip, #524]	@ D.43208, _16->poc
	cmp	r4, lr	@ *poc_8(D), D.43208
	ble	.L99	@,
	ldrb	ip, [ip, #4]	@ zero_extendqisi2	@ _16->is_in_dpb, _16->is_in_dpb
	cmp	ip, #0	@ _16->is_in_dpb,
	strne	lr, [r1]	@ D.43208, *poc_8(D)
	strne	r3, [r2]	@ i, *pos_6(D)
.L99:
	ldr	ip, [r5, #2052]	@ pH264Ctx_10(D)->DPB.used_size, pH264Ctx_10(D)->DPB.used_size
	add	r3, r3, #1	@ i, i,
	cmp	ip, r3	@ pH264Ctx_10(D)->DPB.used_size, i
	bhi	.L100	@,
	ldmfd	sp!, {r4, r5, pc}	@
	.fnend
	.size	GetMinPOC, .-GetMinPOC
	.align	2
	.global	GetMaxPOC
	.type	GetMaxPOC, %function
GetMaxPOC:
	.fnstart
	@ args = 0, pretend = 0, frame = 0
	@ frame_needed = 0, uses_anonymous_args = 0
	stmfd	sp!, {r4, r5, lr}	@,
	.save {r4, r5, lr}
	add	r5, r0, #24576	@ tmp145, pH264Ctx,
	mov	r3, #0	@ tmp126,
	str	r3, [r2]	@ tmp126, *pos_6(D)
	ldr	r3, [r5, #2048]	@ D.43229, pH264Ctx_8(D)->DPB.size
	ldr	ip, [r5, #2052]	@ pH264Ctx_8(D)->DPB.used_size, pH264Ctx_8(D)->DPB.used_size
	cmp	ip, r3	@ pH264Ctx_8(D)->DPB.used_size, D.43229
	strhi	r3, [r5, #2052]	@ D.43229, pH264Ctx_8(D)->DPB.used_size
	ldr	r3, [r5, #1856]	@ pH264Ctx_8(D)->DPB.fs, pH264Ctx_8(D)->DPB.fs
	ldr	r4, [r3, #524]	@ D.43233, _12->poc
	str	r4, [r1]	@ D.43233, *poc_14(D)
	ldr	r3, [r5, #2052]	@ pH264Ctx_8(D)->DPB.used_size, pH264Ctx_8(D)->DPB.used_size
	cmp	r3, #0	@ pH264Ctx_8(D)->DPB.used_size,
	ldmeqfd	sp!, {r4, r5, pc}	@
	add	r0, r0, #26368	@ ivtmp.401, pH264Ctx,
	mov	r3, #0	@ i,
	add	r0, r0, #60	@ ivtmp.401, ivtmp.401,
.L112:
	ldr	ip, [r0, #4]!	@ D.43230, MEM[base: _31, offset: 0B]
	ldr	lr, [ip, #524]	@ D.43231, _18->poc
	cmp	lr, r4	@ D.43231, D.43233
	ble	.L110	@,
	ldrb	ip, [ip, #4]	@ zero_extendqisi2	@ _18->is_in_dpb, _18->is_in_dpb
	cmp	ip, #0	@ _18->is_in_dpb,
	strne	lr, [r1]	@ D.43231, *poc_14(D)
	strne	r3, [r2]	@ i, *pos_6(D)
.L110:
	ldr	ip, [r5, #2052]	@ pH264Ctx_8(D)->DPB.used_size, pH264Ctx_8(D)->DPB.used_size
	add	r3, r3, #1	@ i, i,
	cmp	ip, r3	@ pH264Ctx_8(D)->DPB.used_size, i
	ldmlsfd	sp!, {r4, r5, pc}	@
	ldr	r4, [r1]	@ D.43233, *poc_14(D)
	b	.L112	@
	.fnend
	.size	GetMaxPOC, .-GetMaxPOC
	.align	2
	.global	FrameStoreRefFlg
	.type	FrameStoreRefFlg, %function
FrameStoreRefFlg:
	.fnstart
	@ args = 0, pretend = 0, frame = 0
	@ frame_needed = 0, uses_anonymous_args = 0
	@ link register save eliminated.
	ldrb	r0, [r0, #2]	@ zero_extendqisi2	@ pFS_2(D)->is_reference, pFS_2(D)->is_reference
	adds	r0, r0, #0	@, pFS_2(D)->is_reference,
	movne	r0, #1	@,
	bx	lr	@
	.fnend
	.size	FrameStoreRefFlg, .-FrameStoreRefFlg
	.align	2
	.global	ShortTermRefFlg
	.type	ShortTermRefFlg, %function
ShortTermRefFlg:
	.fnstart
	@ args = 0, pretend = 0, frame = 0
	@ frame_needed = 0, uses_anonymous_args = 0
	@ link register save eliminated.
	ldrb	r3, [r0, #2]	@ zero_extendqisi2	@ D.43244, pFS_3(D)->is_reference
	cmp	r3, #3	@ D.43244,
	beq	.L133	@,
	tst	r3, #1	@ D.43244,
	bne	.L134	@,
.L122:
	and	r3, r3, #2	@ tmp134, D.43244,
	ands	r3, r3, #255	@ tmp136, tmp134,
	beq	.L126	@,
.L123:
	ldr	r0, [r0, #472]	@ *pFS_3(D), *pFS_3(D)
	bic	r0, r0, #-16777216	@ D.43245, *pFS_3(D),
	bic	r0, r0, #255	@ D.43245, D.43245,
	sub	r0, r0, #65536	@ D.43243, D.43245,
	clz	r0, r0	@ D.43243, D.43243
	mov	r0, r0, lsr #5	@ D.43243, D.43243,
	bx	lr	@
.L126:
	mov	r0, r3	@ D.43243, tmp136
	bx	lr	@
.L134:
	ldr	r2, [r0, #436]	@ *pFS_3(D), *pFS_3(D)
	bic	r2, r2, #-16777216	@ D.43245, *pFS_3(D),
	bic	r2, r2, #255	@ D.43245, D.43245,
	cmp	r2, #65536	@ D.43245,
	bne	.L122	@,
.L127:
	mov	r0, #1	@ D.43243,
	bx	lr	@
.L133:
	ldr	r3, [r0, #400]	@ *pFS_3(D), *pFS_3(D)
	bic	r3, r3, #-16777216	@ D.43245, *pFS_3(D),
	bic	r3, r3, #255	@ D.43245, D.43245,
	cmp	r3, #65536	@ D.43245,
	beq	.L127	@,
	ldr	r3, [r0, #436]	@ *pFS_3(D), *pFS_3(D)
	bic	r3, r3, #-16777216	@ D.43245, *pFS_3(D),
	bic	r3, r3, #255	@ D.43245, D.43245,
	cmp	r3, #65536	@ D.43245,
	bne	.L123	@,
	b	.L127	@
	.fnend
	.size	ShortTermRefFlg, .-ShortTermRefFlg
	.align	2
	.global	LongTermRefFlg
	.type	LongTermRefFlg, %function
LongTermRefFlg:
	.fnstart
	@ args = 0, pretend = 0, frame = 0
	@ frame_needed = 0, uses_anonymous_args = 0
	@ link register save eliminated.
	ldrb	r3, [r0, #2]	@ zero_extendqisi2	@ D.43250, pFS_3(D)->is_reference
	cmp	r3, #3	@ D.43250,
	beq	.L150	@,
	tst	r3, #1	@ D.43250,
	bne	.L151	@,
.L139:
	and	r3, r3, #2	@ tmp134, D.43250,
	ands	r3, r3, #255	@ tmp136, tmp134,
	beq	.L143	@,
.L140:
	ldr	r0, [r0, #472]	@ *pFS_3(D), *pFS_3(D)
	bic	r0, r0, #-16777216	@ D.43251, *pFS_3(D),
	bic	r0, r0, #255	@ D.43251, D.43251,
	sub	r0, r0, #256	@ D.43249, D.43251,
	clz	r0, r0	@ D.43249, D.43249
	mov	r0, r0, lsr #5	@ D.43249, D.43249,
	bx	lr	@
.L143:
	mov	r0, r3	@ D.43249, tmp136
	bx	lr	@
.L151:
	ldr	r2, [r0, #436]	@ *pFS_3(D), *pFS_3(D)
	bic	r2, r2, #-16777216	@ D.43251, *pFS_3(D),
	bic	r2, r2, #255	@ D.43251, D.43251,
	cmp	r2, #256	@ D.43251,
	bne	.L139	@,
.L144:
	mov	r0, #1	@ D.43249,
	bx	lr	@
.L150:
	ldr	r3, [r0, #400]	@ *pFS_3(D), *pFS_3(D)
	bic	r3, r3, #-16777216	@ D.43251, *pFS_3(D),
	bic	r3, r3, #255	@ D.43251, D.43251,
	cmp	r3, #256	@ D.43251,
	beq	.L144	@,
	ldr	r3, [r0, #436]	@ *pFS_3(D), *pFS_3(D)
	bic	r3, r3, #-16777216	@ D.43251, *pFS_3(D),
	bic	r3, r3, #255	@ D.43251, D.43251,
	cmp	r3, #256	@ D.43251,
	bne	.L140	@,
	b	.L144	@
	.fnend
	.size	LongTermRefFlg, .-LongTermRefFlg
	.align	2
	.global	UpdateLTReflist
	.type	UpdateLTReflist, %function
UpdateLTReflist:
	.fnstart
	@ args = 0, pretend = 0, frame = 0
	@ frame_needed = 0, uses_anonymous_args = 0
	stmfd	sp!, {r4, r5, r6, r7, r8, r9, r10, lr}	@,
	.save {r4, r5, r6, r7, r8, r9, r10, lr}
	add	r10, r0, #24576	@ tmp139, pH264Ctx,
	mov	r6, r0	@ pH264Ctx, pH264Ctx
	ldr	r9, [r10, #2052]	@ D.43281, pH264Ctx_9(D)->DPB.used_size
	cmp	r9, #0	@ D.43281,
	beq	.L159	@,
	add	r8, r0, #26368	@ ivtmp.434, pH264Ctx,
	mov	r4, #0	@ j,
	add	r8, r8, #60	@ ivtmp.434, ivtmp.434,
	mov	r5, r4	@ i, j
.L155:
	ldr	r7, [r8, #4]!	@ D.43280, MEM[base: _36, offset: 0B]
	add	r5, r5, #1	@ i, i,
	mov	r0, r7	@, D.43280
	bl	LongTermRefFlg	@
	add	r3, r4, #6592	@ tmp130, j,
	add	r3, r3, #48	@ tmp130, tmp130,
	cmp	r0, #0	@,
	strne	r7, [r6, r3, asl #2]	@ D.43280, pH264Ctx_9(D)->DPB.fs_ltref
	addne	r4, r4, #1	@ j, j,
	cmp	r5, r9	@ i, D.43281
	bne	.L155	@,
.L153:
	ldr	r3, [r10, #2048]	@ D.43281, pH264Ctx_9(D)->DPB.size
	str	r4, [r10, #2060]	@ j, pH264Ctx_9(D)->DPB.ltref_frames_in_buffer
	cmp	r3, r4	@ D.43281, j
	ldmlsfd	sp!, {r4, r5, r6, r7, r8, r9, r10, pc}	@
	add	r0, r4, #6592	@ D.43282, j,
	mov	r2, #0	@ tmp140,
	add	r0, r0, #47	@ D.43282, D.43282,
	add	r0, r6, r0, lsl #2	@ ivtmp.423, pH264Ctx, D.43282,
.L157:
	add	r4, r4, #1	@ j, j,
	str	r2, [r0, #4]!	@ tmp140, MEM[base: _1, offset: 0B]
	cmp	r4, r3	@ j, D.43281
	bne	.L157	@,
	ldmfd	sp!, {r4, r5, r6, r7, r8, r9, r10, pc}	@
.L159:
	mov	r4, r9	@ j, D.43281
	b	.L153	@
	.fnend
	.size	UpdateLTReflist, .-UpdateLTReflist
	.align	2
	.global	UpdateReflist
	.type	UpdateReflist, %function
UpdateReflist:
	.fnstart
	@ args = 0, pretend = 0, frame = 0
	@ frame_needed = 0, uses_anonymous_args = 0
	stmfd	sp!, {r4, r5, r6, r7, r8, r9, r10, lr}	@,
	.save {r4, r5, r6, r7, r8, r9, r10, lr}
	add	r10, r0, #24576	@ tmp139, pH264Ctx,
	mov	r6, r0	@ pH264Ctx, pH264Ctx
	ldr	r9, [r10, #2052]	@ D.43312, pH264Ctx_9(D)->DPB.used_size
	cmp	r9, #0	@ D.43312,
	beq	.L173	@,
	add	r8, r0, #26368	@ ivtmp.459, pH264Ctx,
	mov	r4, #0	@ j,
	add	r8, r8, #60	@ ivtmp.459, ivtmp.459,
	mov	r5, r4	@ i, j
.L169:
	ldr	r7, [r8, #4]!	@ D.43311, MEM[base: _36, offset: 0B]
	add	r5, r5, #1	@ i, i,
	mov	r0, r7	@, D.43311
	bl	ShortTermRefFlg	@
	add	r3, r4, #6592	@ tmp130, j,
	add	r3, r3, #32	@ tmp130, tmp130,
	cmp	r0, #0	@,
	strne	r7, [r6, r3, asl #2]	@ D.43311, pH264Ctx_9(D)->DPB.fs_ref
	addne	r4, r4, #1	@ j, j,
	cmp	r5, r9	@ i, D.43312
	bne	.L169	@,
.L167:
	ldr	r3, [r10, #2048]	@ D.43312, pH264Ctx_9(D)->DPB.size
	str	r4, [r10, #2056]	@ j, pH264Ctx_9(D)->DPB.ref_frames_in_buffer
	cmp	r3, r4	@ D.43312, j
	ldmlsfd	sp!, {r4, r5, r6, r7, r8, r9, r10, pc}	@
	add	r0, r4, #6592	@ D.43313, j,
	mov	r2, #0	@ tmp140,
	add	r0, r0, #31	@ D.43313, D.43313,
	add	r0, r6, r0, lsl #2	@ ivtmp.448, pH264Ctx, D.43313,
.L171:
	add	r4, r4, #1	@ j, j,
	str	r2, [r0, #4]!	@ tmp140, MEM[base: _1, offset: 0B]
	cmp	r4, r3	@ j, D.43312
	bne	.L171	@,
	ldmfd	sp!, {r4, r5, r6, r7, r8, r9, r10, pc}	@
.L173:
	mov	r4, r9	@ j, D.43312
	b	.L167	@
	.fnend
	.size	UpdateReflist, .-UpdateReflist
	.align	2
	.global	GetPicNumX
	.type	GetPicNumX, %function
GetPicNumX:
	.fnstart
	@ args = 0, pretend = 0, frame = 0
	@ frame_needed = 0, uses_anonymous_args = 0
	@ link register save eliminated.
	ldrb	r3, [r0, #3]	@ zero_extendqisi2	@ pCurrPic_3(D)->structure, pCurrPic_3(D)->structure
	cmp	r3, #0	@ pCurrPic_3(D)->structure,
	ldr	r3, [r0, #416]	@ CurrPicNum, pCurrPic_3(D)->frame_num
	mvn	r0, r1	@ D.43318, difference_of_pic_nums_minus1
	movne	r3, r3, asl #1	@ D.43318, pCurrPic_3(D)->frame_num,
	addne	r3, r3, #1	@ CurrPicNum, D.43318,
	add	r0, r0, r3	@, D.43318, CurrPicNum
	bx	lr	@
	.fnend
	.size	GetPicNumX, .-GetPicNumX
	.align	2
	.global	UnMarkFrameStoreRef
	.type	UnMarkFrameStoreRef, %function
UnMarkFrameStoreRef:
	.fnstart
	@ args = 0, pretend = 0, frame = 0
	@ frame_needed = 0, uses_anonymous_args = 0
	@ link register save eliminated.
	ldrb	r3, [r1, #1]	@ zero_extendqisi2	@ D.43321, pFrameStore_5(D)->is_used
	tst	r3, #1	@ D.43321,
	beq	.L184	@,
	ldrb	r2, [r1, #2]	@ zero_extendqisi2	@ pFrameStore_5(D)->is_reference, pFrameStore_5(D)->is_reference
	mov	ip, #0	@ tmp128,
	strb	ip, [r1, #437]	@ tmp128, pFrameStore_5(D)->top_field.is_long_term
	and	r2, r2, #2	@ tmp126, pFrameStore_5(D)->is_reference,
	strb	ip, [r1, #438]	@ tmp128, pFrameStore_5(D)->top_field.is_short_term
	strb	r2, [r1, #2]	@ tmp126, pFrameStore_5(D)->is_reference
.L184:
	tst	r3, #2	@ D.43321,
	beq	.L185	@,
	ldrb	r2, [r1, #2]	@ zero_extendqisi2	@ pFrameStore_5(D)->is_reference, pFrameStore_5(D)->is_reference
	mov	ip, #0	@ tmp139,
	strb	ip, [r1, #473]	@ tmp139, pFrameStore_5(D)->bottom_field.is_long_term
	and	r2, r2, #1	@ tmp137, pFrameStore_5(D)->is_reference,
	strb	ip, [r1, #474]	@ tmp139, pFrameStore_5(D)->bottom_field.is_short_term
	strb	r2, [r1, #2]	@ tmp137, pFrameStore_5(D)->is_reference
.L185:
	cmp	r3, #3	@ D.43321,
	add	r0, r0, #49152	@ tmp151, pH264Ctx,
	moveq	r3, #0	@ tmp143,
	streqb	r3, [r1, #402]	@ tmp143, pFrameStore_5(D)->frame.is_short_term
	streqb	r3, [r1, #401]	@ tmp143, pFrameStore_5(D)->frame.is_long_term
	mov	r3, #0	@ tmp147,
	mov	r2, r3	@, tmp147
	strb	r3, [r1, #2]	@ tmp147, pFrameStore_5(D)->is_reference
	ldr	r1, [r1, #508]	@, pFrameStore_5(D)->logic_fs_id
	ldr	r0, [r0, #3688]	@, pH264Ctx_22(D)->ChanID
	b	FSP_SetRef	@
	.fnend
	.size	UnMarkFrameStoreRef, .-UnMarkFrameStoreRef
	.align	2
	.type	SlidingWinMark.part.2, %function
SlidingWinMark.part.2:
	.fnstart
	@ args = 0, pretend = 0, frame = 0
	@ frame_needed = 0, uses_anonymous_args = 0
	add	r3, r0, #24576	@ tmp120, pH264Ctx,
	stmfd	sp!, {r4, r5, r6, r7, r8, lr}	@,
	.save {r4, r5, r6, r7, r8, lr}
	ldr	r7, [r3, #2052]	@ D.43338, pH264Ctx_1(D)->DPB.used_size
	cmp	r7, #0	@ D.43338,
	ldmeqfd	sp!, {r4, r5, r6, r7, r8, pc}	@
	add	r6, r0, #26368	@ ivtmp.476, pH264Ctx,
	mov	r8, r0	@ pH264Ctx, pH264Ctx
	add	r6, r6, #60	@ ivtmp.476, ivtmp.476,
	mov	r4, #0	@ i,
.L196:
	ldr	r5, [r6, #4]!	@ D.43336, MEM[base: _17, offset: 0B]
	add	r4, r4, #1	@ i, i,
	ldrb	r3, [r5, #2]	@ zero_extendqisi2	@ _3->is_reference, _3->is_reference
	mov	r0, r5	@, D.43336
	cmp	r3, #0	@ _3->is_reference,
	beq	.L195	@,
	bl	ShortTermRefFlg	@
	cmp	r0, #0	@,
	bne	.L208	@,
.L195:
	cmp	r4, r7	@ i, D.43338
	bne	.L196	@,
	ldmfd	sp!, {r4, r5, r6, r7, r8, pc}	@
.L208:
	mov	r0, r8	@, pH264Ctx
	mov	r1, r5	@, D.43336
	bl	UnMarkFrameStoreRef	@
	mov	r0, r8	@, pH264Ctx
	ldmfd	sp!, {r4, r5, r6, r7, r8, lr}	@
	b	UpdateReflist	@
	.fnend
	.size	SlidingWinMark.part.2, .-SlidingWinMark.part.2
	.align	2
	.global	UnMarkLTFrmByFrmIdx
	.type	UnMarkLTFrmByFrmIdx, %function
UnMarkLTFrmByFrmIdx:
	.fnstart
	@ args = 0, pretend = 0, frame = 0
	@ frame_needed = 0, uses_anonymous_args = 0
	add	r3, r0, #24576	@ tmp121, pH264Ctx,
	stmfd	sp!, {r4, lr}	@,
	.save {r4, lr}
	ldr	r4, [r3, #2060]	@ D.43355, pH264Ctx_4(D)->DPB.ltref_frames_in_buffer
	cmp	r4, #0	@ D.43355,
	ldmeqfd	sp!, {r4, pc}	@
	ldr	ip, [r3, #1984]	@ D.43354, pH264Ctx_4(D)->DPB.fs_ltref
	ldr	r3, [ip, #520]	@ _14->long_term_frame_idx, _14->long_term_frame_idx
	cmp	r3, r1	@ _14->long_term_frame_idx, long_term_frame_idx
	addne	r2, r0, #26368	@ ivtmp.489, pH264Ctx,
	movne	r3, #0	@ i,
	addne	r2, r2, #192	@ ivtmp.489, ivtmp.489,
	bne	.L213	@,
	b	.L211	@
.L214:
	ldr	ip, [r2, #4]!	@ D.43354, MEM[base: _19, offset: 0B]
	ldr	lr, [ip, #520]	@ _6->long_term_frame_idx, _6->long_term_frame_idx
	cmp	lr, r1	@ _6->long_term_frame_idx, long_term_frame_idx
	beq	.L211	@,
.L213:
	add	r3, r3, #1	@ i, i,
	cmp	r3, r4	@ i, D.43355
	bne	.L214	@,
	ldmfd	sp!, {r4, pc}	@
.L211:
	mov	r1, ip	@, D.43354
	ldmfd	sp!, {r4, lr}	@
	b	UnMarkFrameStoreRef	@
	.fnend
	.size	UnMarkLTFrmByFrmIdx, .-UnMarkLTFrmByFrmIdx
	.align	2
	.global	UnMarkLTFldByFrmIdx
	.type	UnMarkLTFldByFrmIdx, %function
UnMarkLTFldByFrmIdx:
	.fnstart
	@ args = 0, pretend = 0, frame = 0
	@ frame_needed = 0, uses_anonymous_args = 0
	add	ip, r0, #24576	@ tmp130, pH264Ctx,
	stmfd	sp!, {r4, r5, r6, lr}	@,
	.save {r4, r5, r6, lr}
	ldr	r6, [ip, #2060]	@ D.43372, pH264Ctx_4(D)->DPB.ltref_frames_in_buffer
	cmp	r6, #0	@ D.43372,
	ldmeqfd	sp!, {r4, r5, r6, pc}	@
	add	r4, r0, #26368	@ ivtmp.502, pH264Ctx,
	mov	ip, #0	@ i,
	add	r4, r4, #188	@ ivtmp.502, ivtmp.502,
	b	.L225	@
.L223:
	cmp	ip, r6	@ i, D.43372
	beq	.L240	@,
.L225:
	ldr	lr, [r4, #4]!	@ D.43371, MEM[base: _27, offset: 0B]
	add	ip, ip, #1	@ i, i,
	ldr	r5, [lr, #520]	@ _6->long_term_frame_idx, _6->long_term_frame_idx
	cmp	r5, r3	@ _6->long_term_frame_idx, long_term_frame_idx
	bne	.L223	@,
	cmp	r2, #1	@ structure,
	ldreqb	r5, [lr, #473]	@ zero_extendqisi2	@ _6->bottom_field.is_long_term, _6->bottom_field.is_long_term
	beq	.L239	@,
	cmp	r2, #2	@ structure,
	bne	.L223	@,
	ldrb	r5, [lr, #437]	@ zero_extendqisi2	@ _6->top_field.is_long_term, _6->top_field.is_long_term
.L239:
	clz	r5, r5	@ tmp145, _6->top_field.is_long_term
	mov	r5, r5, lsr #5	@ tmp145, tmp145,
	cmp	lr, r1	@ D.43371, pFS
	orrne	r5, r5, #1	@,, tmp148, tmp145
	cmp	r5, #0	@ tmp148,
	beq	.L223	@,
	mov	r1, lr	@, D.43371
	ldmfd	sp!, {r4, r5, r6, lr}	@
	b	UnMarkFrameStoreRef	@
.L240:
	ldmfd	sp!, {r4, r5, r6, pc}	@
	.fnend
	.size	UnMarkLTFldByFrmIdx, .-UnMarkLTFldByFrmIdx
	.align	2
	.global	UnMarkSTRef
	.type	UnMarkSTRef, %function
UnMarkSTRef:
	.fnstart
	@ args = 0, pretend = 0, frame = 0
	@ frame_needed = 0, uses_anonymous_args = 0
	stmfd	sp!, {r4, r5, r6, lr}	@,
	.save {r4, r5, r6, lr}
	ldrb	r3, [r1, #3]	@ zero_extendqisi2	@ pCurrPic_9(D)->structure, pCurrPic_9(D)->structure
	cmp	r3, #0	@ pCurrPic_9(D)->structure,
	bne	.L242	@,
	add	ip, r0, #24576	@ tmp179, pH264Ctx,
	ldr	r1, [r1, #416]	@ pCurrPic_9(D)->frame_num, pCurrPic_9(D)->frame_num
	ldr	r4, [ip, #2056]	@ D.43403, pH264Ctx_10(D)->DPB.ref_frames_in_buffer
	sub	r1, r1, #1	@ D.43403, pCurrPic_9(D)->frame_num,
	rsb	r2, r2, r1	@ picNumX, difference_of_pic_nums_minus1, D.43403
	cmp	r4, #0	@ D.43403,
	beq	.L271	@,
	add	ip, r0, #26368	@ ivtmp.515, pH264Ctx,
	add	ip, ip, #124	@ ivtmp.515, ivtmp.515,
	b	.L248	@
.L247:
	cmp	r3, r4	@ i, D.43403
	beq	.L272	@,
.L248:
	ldr	r1, [ip, #4]!	@ D.43404, MEM[base: _29, offset: 0B]
	add	r3, r3, #1	@ i, i,
	ldr	lr, [r1, #412]	@ _12->frame.pic_num, _12->frame.pic_num
	cmp	lr, r2	@ _12->frame.pic_num, picNumX
	bne	.L247	@,
	ldrb	lr, [r1, #2]	@ zero_extendqisi2	@ _12->is_reference, _12->is_reference
	cmp	lr, #3	@ _12->is_reference,
	bne	.L247	@,
	ldr	lr, [r1, #400]	@ *_12, *_12
	bic	lr, lr, #-16777216	@ D.43403, *_12,
	bic	lr, lr, #255	@ D.43403, D.43403,
	cmp	lr, #65536	@ D.43403,
	bne	.L247	@,
	ldmfd	sp!, {r4, r5, r6, lr}	@
	b	UnMarkFrameStoreRef	@
.L242:
	add	r3, r0, #24576	@ tmp183, pH264Ctx,
	ldr	r1, [r1, #416]	@ pCurrPic_9(D)->frame_num, pCurrPic_9(D)->frame_num
	ldr	r5, [r3, #2056]	@ D.43403, pH264Ctx_10(D)->DPB.ref_frames_in_buffer
	rsb	r2, r2, r1, lsl #1	@ picNumX, difference_of_pic_nums_minus1, pCurrPic_9(D)->frame_num,
	cmp	r5, #0	@ D.43403,
	beq	.L273	@,
	add	r4, r0, #26368	@ ivtmp.526, pH264Ctx,
	mov	ip, #0	@ i,
	add	r4, r4, #124	@ ivtmp.526, ivtmp.526,
	b	.L253	@
.L249:
	tst	r3, #2	@ D.43406,
	beq	.L251	@,
	ldr	r3, [r1, #472]	@ *_21, *_21
	bic	r3, r3, #-16777216	@ D.43403, *_21,
	bic	r3, r3, #255	@ D.43403, D.43403,
	cmp	r3, #65536	@ D.43403,
	beq	.L274	@,
.L251:
	add	ip, ip, #1	@ i, i,
	cmp	ip, r5	@ i, D.43403
	beq	.L275	@,
.L253:
	ldr	r1, [r4, #4]!	@ D.43404, MEM[base: _1, offset: 0B]
	ldrb	r3, [r1, #2]	@ zero_extendqisi2	@ D.43406, _21->is_reference
	ands	r6, r3, #1	@ D.43406, D.43406,
	beq	.L249	@,
	ldr	lr, [r1, #436]	@ *_21, *_21
	bic	lr, lr, #-16777216	@ D.43403, *_21,
	bic	lr, lr, #255	@ D.43403, D.43403,
	cmp	lr, #65536	@ D.43403,
	bne	.L249	@,
	ldr	lr, [r1, #448]	@ _21->top_field.pic_num, _21->top_field.pic_num
	cmp	lr, r2	@ _21->top_field.pic_num, picNumX
	bne	.L249	@,
	add	r2, r0, ip, lsl #2	@ D.43409, pH264Ctx, i,
	and	r3, r3, #2	@ tmp196, D.43406,
	add	r2, r2, #24576	@ tmp200, D.43409,
	strb	r3, [r1, #2]	@ tmp196, _86->is_reference
	mov	r1, #0	@ tmp201,
	ldr	r3, [r2, #1920]	@ D.43404, MEM[(struct H264_CTX_S *)_107 + 26496B]
	strb	r1, [r3, #438]	@ tmp201, _58->top_field.is_short_term
	ldr	r3, [r2, #1920]	@ D.43404, MEM[(struct H264_CTX_S *)_107 + 26496B]
	ldrb	ip, [r3, #400]	@ zero_extendqisi2	@ D.43406, _60->frame.structure
	cmp	ip, #3	@ D.43406,
	cmpne	ip, r1	@, D.43406,
	streqb	r1, [r3, #402]	@ tmp201, _60->frame.is_short_term
	ldreq	r3, [r2, #1920]	@ D.43404, MEM[(struct H264_CTX_S *)_107 + 26496B]
	streqb	r1, [r3, #401]	@ tmp201, _66->frame.is_long_term
	ldreq	r3, [r2, #1920]	@ D.43404, MEM[(struct H264_CTX_S *)_107 + 26496B]
	ldrb	r1, [r3, #2]	@ zero_extendqisi2	@ _96->is_reference, _96->is_reference
	cmp	r1, #0	@ _96->is_reference,
	ldmnefd	sp!, {r4, r5, r6, pc}	@
	ldr	ip, [r3, #548]	@ D.43403, _96->pmv_address_idc
	add	lr, r0, #49152	@ tmp226, pH264Ctx,
	mov	r2, r1	@, _96->is_reference
	add	ip, ip, #12800	@ tmp222, D.43403,
	add	ip, ip, #12	@ tmp222, tmp222,
	str	r1, [r0, ip, asl #2]	@ _96->is_reference, pH264Ctx_10(D)->PmvStoreUsedFlag
	ldr	r0, [lr, #3688]	@, pH264Ctx_10(D)->ChanID
	ldr	r1, [r3, #508]	@, _96->logic_fs_id
	ldmfd	sp!, {r4, r5, r6, lr}	@
	b	FSP_SetRef	@
.L274:
	ldr	r3, [r1, #484]	@ _21->bottom_field.pic_num, _21->bottom_field.pic_num
	cmp	r3, r2	@ _21->bottom_field.pic_num, picNumX
	bne	.L251	@,
	add	r3, r0, ip, lsl #2	@ D.43409, pH264Ctx, i,
	strb	r6, [r1, #2]	@ D.43406, _84->is_reference
	add	r3, r3, #24576	@ tmp238, D.43409,
	mov	r2, #0	@ tmp239,
	ldr	r1, [r3, #1920]	@ D.43404, MEM[(struct H264_CTX_S *)_99 + 26496B]
	strb	r2, [r1, #474]	@ tmp239, _31->bottom_field.is_short_term
	ldr	r1, [r3, #1920]	@ D.43404, MEM[(struct H264_CTX_S *)_99 + 26496B]
	ldrb	ip, [r1, #400]	@ zero_extendqisi2	@ D.43406, _33->frame.structure
	cmp	ip, #3	@ D.43406,
	cmpne	ip, r2	@, D.43406,
	streqb	r2, [r1, #402]	@ tmp239, _33->frame.is_short_term
	ldreq	r1, [r3, #1920]	@ D.43404, MEM[(struct H264_CTX_S *)_99 + 26496B]
	streqb	r2, [r1, #401]	@ tmp239, _39->frame.is_long_term
	ldreq	r1, [r3, #1920]	@ D.43404, MEM[(struct H264_CTX_S *)_99 + 26496B]
	ldrb	r3, [r1, #2]	@ zero_extendqisi2	@ _43->is_reference, _43->is_reference
	cmp	r3, #0	@ _43->is_reference,
	ldmnefd	sp!, {r4, r5, r6, pc}	@
	ldr	ip, [r1, #548]	@ D.43403, _43->pmv_address_idc
	add	lr, r0, #49152	@ tmp264, pH264Ctx,
	mov	r2, r3	@, _43->is_reference
	add	ip, ip, #12800	@ tmp260, D.43403,
	add	ip, ip, #12	@ tmp260, tmp260,
	str	r3, [r0, ip, asl #2]	@ _43->is_reference, pH264Ctx_10(D)->PmvStoreUsedFlag
	ldr	r0, [lr, #3688]	@, pH264Ctx_10(D)->ChanID
	ldr	r1, [r1, #508]	@, _43->logic_fs_id
	ldmfd	sp!, {r4, r5, r6, lr}	@
	b	FSP_SetRef	@
.L275:
	ldmfd	sp!, {r4, r5, r6, pc}	@
.L272:
	ldmfd	sp!, {r4, r5, r6, pc}	@
.L271:
	ldmfd	sp!, {r4, r5, r6, pc}	@
.L273:
	ldmfd	sp!, {r4, r5, r6, pc}	@
	.fnend
	.size	UnMarkSTRef, .-UnMarkSTRef
	.align	2
	.global	UnMarkLTRef
	.type	UnMarkLTRef, %function
UnMarkLTRef:
	.fnstart
	@ args = 0, pretend = 0, frame = 0
	@ frame_needed = 0, uses_anonymous_args = 0
	stmfd	sp!, {r4, r5, r6, lr}	@,
	.save {r4, r5, r6, lr}
	ldrb	r3, [r1, #3]	@ zero_extendqisi2	@ pCurrPic_3(D)->structure, pCurrPic_3(D)->structure
	cmp	r3, #0	@ pCurrPic_3(D)->structure,
	beq	.L277	@,
	add	r3, r0, #24576	@ tmp164, pH264Ctx,
	ldr	r5, [r3, #2060]	@ D.43443, pH264Ctx_5(D)->DPB.ltref_frames_in_buffer
	cmp	r5, #0	@ D.43443,
	beq	.L306	@,
	add	r4, r0, #26368	@ ivtmp.550, pH264Ctx,
	mov	ip, #0	@ i,
	add	r4, r4, #188	@ ivtmp.550, ivtmp.550,
	b	.L286	@
.L282:
	tst	r3, #2	@ D.43439,
	beq	.L284	@,
	ldr	r3, [r1, #472]	@ *_21, *_21
	bic	r3, r3, #-16777216	@ D.43443, *_21,
	bic	r3, r3, #255	@ D.43443, D.43443,
	cmp	r3, #256	@ D.43443,
	beq	.L307	@,
.L284:
	add	ip, ip, #1	@ i, i,
	cmp	ip, r5	@ i, D.43443
	beq	.L308	@,
.L286:
	ldr	r1, [r4, #4]!	@ D.43441, MEM[base: _1, offset: 0B]
	ldrb	r3, [r1, #2]	@ zero_extendqisi2	@ D.43439, _21->is_reference
	ands	r6, r3, #1	@ D.43439, D.43439,
	beq	.L282	@,
	ldr	lr, [r1, #436]	@ *_21, *_21
	bic	lr, lr, #-16777216	@ D.43443, *_21,
	bic	lr, lr, #255	@ D.43443, D.43443,
	cmp	lr, #256	@ D.43443,
	bne	.L282	@,
	ldr	lr, [r1, #444]	@ _21->top_field.long_term_pic_num, _21->top_field.long_term_pic_num
	cmp	r2, lr	@ long_term_pic_num, _21->top_field.long_term_pic_num
	bne	.L282	@,
	add	r2, r0, ip, lsl #2	@ D.43446, pH264Ctx, i,
	and	r3, r3, #2	@ tmp173, D.43439,
	add	r2, r2, #24576	@ tmp177, D.43446,
	strb	r3, [r1, #2]	@ tmp173, _75->is_reference
	mov	r1, #0	@ tmp178,
	ldr	r3, [r2, #1984]	@ D.43441, MEM[(struct H264_CTX_S *)_91 + 26560B]
	strb	r1, [r3, #437]	@ tmp178, _30->top_field.is_long_term
	ldr	r3, [r2, #1984]	@ D.43441, MEM[(struct H264_CTX_S *)_91 + 26560B]
	ldrb	ip, [r3, #400]	@ zero_extendqisi2	@ D.43439, _31->frame.structure
	cmp	ip, #3	@ D.43439,
	cmpne	ip, r1	@, D.43439,
	streqb	r1, [r3, #402]	@ tmp178, _31->frame.is_short_term
	ldreq	r3, [r2, #1984]	@ D.43441, MEM[(struct H264_CTX_S *)_91 + 26560B]
	streqb	r1, [r3, #401]	@ tmp178, _36->frame.is_long_term
	ldreq	r3, [r2, #1984]	@ D.43441, MEM[(struct H264_CTX_S *)_91 + 26560B]
	ldrb	r2, [r3, #2]	@ zero_extendqisi2	@ _81->is_reference, _81->is_reference
	cmp	r2, #0	@ _81->is_reference,
	ldreq	r3, [r3, #548]	@ D.43443, _81->pmv_address_idc
	addeq	r3, r3, #12800	@ tmp199, D.43443,
	addeq	r3, r3, #12	@ tmp199, tmp199,
	streq	r2, [r0, r3, asl #2]	@ _81->is_reference, pH264Ctx_5(D)->PmvStoreUsedFlag
	ldmfd	sp!, {r4, r5, r6, pc}	@
.L277:
	add	r1, r0, #24576	@ tmp166, pH264Ctx,
	ldr	r4, [r1, #2060]	@ D.43443, pH264Ctx_5(D)->DPB.ltref_frames_in_buffer
	cmp	r4, #0	@ D.43443,
	beq	.L309	@,
	add	ip, r0, #26368	@ ivtmp.539, pH264Ctx,
	add	ip, ip, #188	@ ivtmp.539, ivtmp.539,
	b	.L288	@
.L287:
	cmp	r3, r4	@ i, D.43443
	beq	.L310	@,
.L288:
	ldr	r1, [ip, #4]!	@ D.43441, MEM[base: _45, offset: 0B]
	add	r3, r3, #1	@ i, i,
	ldr	lr, [r1, #408]	@ _7->frame.long_term_pic_num, _7->frame.long_term_pic_num
	cmp	lr, r2	@ _7->frame.long_term_pic_num, long_term_pic_num
	bne	.L287	@,
	ldrb	lr, [r1, #2]	@ zero_extendqisi2	@ _7->is_reference, _7->is_reference
	cmp	lr, #3	@ _7->is_reference,
	bne	.L287	@,
	ldr	lr, [r1, #400]	@ *_7, *_7
	bic	lr, lr, #-16777216	@ D.43443, *_7,
	bic	lr, lr, #255	@ D.43443, D.43443,
	cmp	lr, #256	@ D.43443,
	bne	.L287	@,
	ldmfd	sp!, {r4, r5, r6, lr}	@
	b	UnMarkFrameStoreRef	@
.L307:
	ldr	r3, [r1, #480]	@ _21->bottom_field.long_term_pic_num, _21->bottom_field.long_term_pic_num
	cmp	r2, r3	@ long_term_pic_num, _21->bottom_field.long_term_pic_num
	bne	.L284	@,
	add	r3, r0, ip, lsl #2	@ D.43446, pH264Ctx, i,
	strb	r6, [r1, #2]	@ D.43439, _71->is_reference
	add	r3, r3, #24576	@ tmp211, D.43446,
	mov	r1, #0	@ tmp212,
	ldr	r2, [r3, #1984]	@ D.43441, MEM[(struct H264_CTX_S *)_83 + 26560B]
	strb	r1, [r2, #473]	@ tmp212, _46->bottom_field.is_long_term
	ldr	r2, [r3, #1984]	@ D.43441, MEM[(struct H264_CTX_S *)_83 + 26560B]
	ldrb	ip, [r2, #400]	@ zero_extendqisi2	@ D.43439, _47->frame.structure
	cmp	ip, #3	@ D.43439,
	cmpne	ip, r1	@, D.43439,
	streqb	r1, [r2, #402]	@ tmp212, _47->frame.is_short_term
	ldreq	r2, [r3, #1984]	@ D.43441, MEM[(struct H264_CTX_S *)_83 + 26560B]
	streqb	r1, [r2, #401]	@ tmp212, _52->frame.is_long_term
	ldreq	r2, [r3, #1984]	@ D.43441, MEM[(struct H264_CTX_S *)_83 + 26560B]
	ldrb	r1, [r2, #2]	@ zero_extendqisi2	@ _79->is_reference, _79->is_reference
	cmp	r1, #0	@ _79->is_reference,
	ldreq	r3, [r2, #548]	@ D.43443, _79->pmv_address_idc
	addeq	r3, r3, #12800	@ tmp233, D.43443,
	addeq	r3, r3, #12	@ tmp233, tmp233,
	streq	r1, [r0, r3, asl #2]	@ _79->is_reference, pH264Ctx_5(D)->PmvStoreUsedFlag
	ldmfd	sp!, {r4, r5, r6, pc}	@
.L310:
	ldmfd	sp!, {r4, r5, r6, pc}	@
.L308:
	ldmfd	sp!, {r4, r5, r6, pc}	@
.L309:
	ldmfd	sp!, {r4, r5, r6, pc}	@
.L306:
	ldmfd	sp!, {r4, r5, r6, pc}	@
	.fnend
	.size	UnMarkLTRef, .-UnMarkLTRef
	.align	2
	.global	MarkPicLTRef
	.type	MarkPicLTRef, %function
MarkPicLTRef:
	.fnstart
	@ args = 0, pretend = 0, frame = 0
	@ frame_needed = 0, uses_anonymous_args = 0
	stmfd	sp!, {r4, r5, r6, r7, lr}	@,
	.save {r4, r5, r6, r7, lr}
	ldrb	r5, [r3, #3]	@ zero_extendqisi2	@ D.43471, pCurrPic_5(D)->structure
	add	r3, r0, #24576	@ tmp195, pH264Ctx,
	cmp	r5, #0	@ D.43471,
	beq	.L312	@,
	ldr	r7, [r3, #2056]	@ D.43474, pH264Ctx_11(D)->DPB.ref_frames_in_buffer
	cmp	r7, #0	@ D.43474,
	beq	.L342	@,
	add	r6, r0, #26368	@ ivtmp.574, pH264Ctx,
	mov	ip, #0	@ i,
	add	r6, r6, #124	@ ivtmp.574, ivtmp.574,
	b	.L326	@
.L318:
	tst	r4, #2	@ D.43471,
	beq	.L321	@,
	ldr	lr, [r3, #472]	@ *_13, *_13
	bic	lr, lr, #-16777216	@ D.43474, *_13,
	bic	lr, lr, #255	@ D.43474, D.43474,
	cmp	lr, #65536	@ D.43474,
	beq	.L343	@,
.L321:
	add	ip, ip, #1	@ i, i,
	cmp	ip, r7	@ i, D.43474
	beq	.L344	@,
.L326:
	ldr	r3, [r6, #4]!	@ D.43473, MEM[base: _119, offset: 0B]
	ldrb	r4, [r3, #2]	@ zero_extendqisi2	@ D.43471, _13->is_reference
	tst	r4, #1	@ D.43471,
	beq	.L318	@,
	ldr	lr, [r3, #436]	@ *_13, *_13
	bic	lr, lr, #-16777216	@ D.43474, *_13,
	bic	lr, lr, #255	@ D.43474, D.43474,
	cmp	lr, #65536	@ D.43474,
	bne	.L318	@,
	ldr	lr, [r3, #448]	@ _13->top_field.pic_num, _13->top_field.pic_num
	cmp	lr, r2	@ _13->top_field.pic_num, picNumX
	bne	.L318	@,
	ldrb	lr, [r3, #473]	@ zero_extendqisi2	@ _13->bottom_field.is_long_term, _13->bottom_field.is_long_term
	cmp	lr, #1	@ _13->bottom_field.is_long_term,
	bne	.L322	@,
	ldr	lr, [r3, #520]	@ _13->long_term_frame_idx, _13->long_term_frame_idx
	cmp	lr, r1	@ _13->long_term_frame_idx, long_term_frame_idx
	bne	.L321	@,
.L322:
	str	r1, [r3, #520]	@ long_term_frame_idx, _109->long_term_frame_idx
	sub	r3, r5, #1	@ D.43472, D.43471,
	add	r2, r0, ip, lsl #2	@ D.43479, pH264Ctx, i,
	clz	r3, r3	@ D.43472, D.43472
	add	r2, r2, #24576	@ tmp240, D.43479,
	mov	ip, #1	@ tmp247,
	mov	r3, r3, lsr #5	@ D.43472, D.43472,
	mov	r0, #0	@ tmp251,
	add	r1, r3, r1, lsl #1	@ D.43474, D.43472, long_term_frame_idx,
	ldr	r3, [r2, #1920]	@ D.43473, MEM[(struct H264_CTX_S *)_131 + 26496B]
	str	r1, [r3, #444]	@ D.43474, _56->top_field.long_term_pic_num
	ldr	r3, [r2, #1920]	@ D.43473, MEM[(struct H264_CTX_S *)_131 + 26496B]
	strb	ip, [r3, #437]	@ tmp247, _61->top_field.is_long_term
	ldr	r3, [r2, #1920]	@ D.43473, MEM[(struct H264_CTX_S *)_131 + 26496B]
	strb	r0, [r3, #438]	@ tmp251, _63->top_field.is_short_term
	ldr	r3, [r2, #1920]	@ D.43473, MEM[(struct H264_CTX_S *)_131 + 26496B]
	ldrb	r1, [r3, #400]	@ zero_extendqisi2	@ D.43471, _65->frame.structure
	cmp	r1, #3	@ D.43471,
	cmpne	r1, r0	@, D.43471,
	bne	.L345	@,
	ldrb	r1, [r3, #473]	@ zero_extendqisi2	@ _65->bottom_field.is_long_term, _65->bottom_field.is_long_term
	ldrb	r0, [r3, #437]	@ zero_extendqisi2	@ D.43471, _65->top_field.is_long_term
	cmp	r1, r0	@ _65->bottom_field.is_long_term, D.43471
	streqb	r1, [r3, #401]	@ _65->bottom_field.is_long_term, _65->frame.is_long_term
	ldreq	r3, [r2, #1920]	@ D.43473, MEM[(struct H264_CTX_S *)_131 + 26496B]
	ldreqb	r2, [r3, #438]	@ zero_extendqisi2	@ _73->top_field.is_short_term, _73->top_field.is_short_term
	streqb	r2, [r3, #402]	@ _73->top_field.is_short_term,
	ldmfd	sp!, {r4, r5, r6, r7, pc}	@
.L312:
	ldr	r6, [r3, #2056]	@ D.43474, pH264Ctx_11(D)->DPB.ref_frames_in_buffer
	cmp	r6, #0	@ D.43474,
	ldmeqfd	sp!, {r4, r5, r6, r7, pc}	@
	add	lr, r0, #26368	@ ivtmp.563, pH264Ctx,
	mov	r3, r5	@ i, D.43471
	add	lr, lr, #124	@ ivtmp.563, ivtmp.563,
	b	.L317	@
.L316:
	add	r3, r3, #1	@ i, i,
	cmp	r3, r6	@ i, D.43474
	beq	.L346	@,
.L317:
	ldr	ip, [lr, #4]!	@ D.43473, MEM[base: _114, offset: 0B]
	ldrb	r4, [ip, #2]	@ zero_extendqisi2	@ _77->is_reference, _77->is_reference
	cmp	r4, #3	@ _77->is_reference,
	bne	.L316	@,
	ldr	r4, [ip, #400]	@ *_77, *_77
	bic	r4, r4, #-16777216	@ D.43474, *_77,
	bic	r4, r4, #255	@ D.43474, D.43474,
	cmp	r4, #65536	@ D.43474,
	bne	.L316	@,
	ldr	r4, [ip, #412]	@ _77->frame.pic_num, _77->frame.pic_num
	cmp	r4, r2	@ _77->frame.pic_num, picNumX
	bne	.L316	@,
	add	r3, r0, r3, lsl #2	@ D.43479, pH264Ctx, i,
	str	r1, [ip, #520]	@ long_term_frame_idx, _12->long_term_frame_idx
	add	r3, r3, #24576	@ tmp204, D.43479,
	mov	r0, #1	@ tmp207,
	mov	r2, #0	@ tmp219,
	ldr	ip, [r3, #1920]	@ D.43473, MEM[(struct H264_CTX_S *)_141 + 26496B]
	str	r1, [ip, #408]	@ long_term_frame_idx, _84->frame.long_term_pic_num
	ldr	r1, [r3, #1920]	@ D.43473, MEM[(struct H264_CTX_S *)_141 + 26496B]
	strb	r0, [r1, #401]	@ tmp207, _87->frame.is_long_term
	ldr	r1, [r3, #1920]	@ D.43473, MEM[(struct H264_CTX_S *)_141 + 26496B]
	strb	r0, [r1, #437]	@ tmp207, _89->top_field.is_long_term
	ldr	r1, [r3, #1920]	@ D.43473, MEM[(struct H264_CTX_S *)_141 + 26496B]
	strb	r0, [r1, #473]	@ tmp207, _91->bottom_field.is_long_term
	ldr	r1, [r3, #1920]	@ D.43473, MEM[(struct H264_CTX_S *)_141 + 26496B]
	strb	r2, [r1, #402]	@ tmp219, _93->frame.is_short_term
	ldr	r1, [r3, #1920]	@ D.43473, MEM[(struct H264_CTX_S *)_141 + 26496B]
	strb	r2, [r1, #438]	@ tmp219, _95->top_field.is_short_term
	ldr	r3, [r3, #1920]	@ D.43473, MEM[(struct H264_CTX_S *)_141 + 26496B]
	strb	r2, [r3, #474]	@ tmp219, _97->bottom_field.is_short_term
	ldmfd	sp!, {r4, r5, r6, r7, pc}	@
.L343:
	ldr	lr, [r3, #484]	@ _13->bottom_field.pic_num, _13->bottom_field.pic_num
	cmp	lr, r2	@ _13->bottom_field.pic_num, picNumX
	bne	.L321	@,
	ldrb	lr, [r3, #437]	@ zero_extendqisi2	@ _13->top_field.is_long_term, _13->top_field.is_long_term
	cmp	lr, #1	@ _13->top_field.is_long_term,
	bne	.L325	@,
	ldr	lr, [r3, #520]	@ _13->long_term_frame_idx, _13->long_term_frame_idx
	cmp	lr, r1	@ _13->long_term_frame_idx, long_term_frame_idx
	bne	.L321	@,
.L325:
	str	r1, [r3, #520]	@ long_term_frame_idx, _110->long_term_frame_idx
	sub	r3, r5, #2	@ D.43472, D.43471,
	add	r2, r0, ip, lsl #2	@ D.43479, pH264Ctx, i,
	clz	r3, r3	@ D.43472, D.43472
	add	r2, r2, #24576	@ tmp279, D.43479,
	mov	ip, #1	@ tmp286,
	mov	r3, r3, lsr #5	@ D.43472, D.43472,
	mov	r0, #0	@ tmp290,
	add	r1, r3, r1, lsl #1	@ D.43474, D.43472, long_term_frame_idx,
	ldr	r3, [r2, #1920]	@ D.43473, MEM[(struct H264_CTX_S *)_121 + 26496B]
	str	r1, [r3, #480]	@ D.43474, _25->bottom_field.long_term_pic_num
	ldr	r3, [r2, #1920]	@ D.43473, MEM[(struct H264_CTX_S *)_121 + 26496B]
	strb	ip, [r3, #473]	@ tmp286, _30->bottom_field.is_long_term
	ldr	r3, [r2, #1920]	@ D.43473, MEM[(struct H264_CTX_S *)_121 + 26496B]
	strb	r0, [r3, #474]	@ tmp290, _32->bottom_field.is_short_term
	ldr	r3, [r2, #1920]	@ D.43473, MEM[(struct H264_CTX_S *)_121 + 26496B]
	ldrb	r1, [r3, #400]	@ zero_extendqisi2	@ D.43471, _34->frame.structure
	cmp	r1, #3	@ D.43471,
	cmpne	r1, r0	@, D.43471,
	bne	.L347	@,
	ldrb	r1, [r3, #473]	@ zero_extendqisi2	@ _34->bottom_field.is_long_term, _34->bottom_field.is_long_term
	ldrb	r0, [r3, #437]	@ zero_extendqisi2	@ D.43471, _34->top_field.is_long_term
	cmp	r1, r0	@ _34->bottom_field.is_long_term, D.43471
	streqb	r1, [r3, #401]	@ _34->bottom_field.is_long_term, _34->frame.is_long_term
	ldreq	r3, [r2, #1920]	@ D.43473, MEM[(struct H264_CTX_S *)_121 + 26496B]
	ldreqb	r2, [r3, #474]	@ zero_extendqisi2	@ _45->bottom_field.is_short_term, _45->bottom_field.is_short_term
	streqb	r2, [r3, #402]	@ _45->bottom_field.is_short_term,
	ldmfd	sp!, {r4, r5, r6, r7, pc}	@
.L344:
	ldmfd	sp!, {r4, r5, r6, r7, pc}	@
.L346:
	ldmfd	sp!, {r4, r5, r6, r7, pc}	@
.L345:
	ldmfd	sp!, {r4, r5, r6, r7, pc}	@
.L347:
	ldmfd	sp!, {r4, r5, r6, r7, pc}	@
.L342:
	ldmfd	sp!, {r4, r5, r6, r7, pc}	@
	.fnend
	.size	MarkPicLTRef, .-MarkPicLTRef
	.align	2
	.global	MarkSTToLTRef
	.type	MarkSTToLTRef, %function
MarkSTToLTRef:
	.fnstart
	@ args = 0, pretend = 0, frame = 0
	@ frame_needed = 0, uses_anonymous_args = 0
	stmfd	sp!, {r4, r5, r6, r7, r8, r9, r10, lr}	@,
	.save {r4, r5, r6, r7, r8, r9, r10, lr}
	mov	r7, r1	@ pCurrPic, pCurrPic
	ldrb	r1, [r1, #3]	@ zero_extendqisi2	@ pCurrPic_4(D)->structure, pCurrPic_4(D)->structure
	mov	r9, r3	@ long_term_frame_idx, long_term_frame_idx
	mov	r8, r0	@ pH264Ctx, pH264Ctx
	cmp	r1, #0	@ pCurrPic_4(D)->structure,
	bne	.L349	@,
	ldr	r6, [r7, #416]	@ pCurrPic_4(D)->frame_num, pCurrPic_4(D)->frame_num
	mov	r1, r3	@, long_term_frame_idx
	sub	r6, r6, #1	@ D.43496, pCurrPic_4(D)->frame_num,
	rsb	r6, r2, r6	@ picNumX, difference_of_pic_nums_minus1, D.43496
	bl	UnMarkLTFrmByFrmIdx	@
.L350:
	mov	r3, r7	@, pCurrPic
	mov	r2, r6	@, picNumX
	mov	r1, r9	@, long_term_frame_idx
	mov	r0, r8	@, pH264Ctx
	ldmfd	sp!, {r4, r5, r6, r7, r8, r9, r10, lr}	@
	b	MarkPicLTRef	@
.L349:
	add	r3, r0, #24576	@ tmp143, pH264Ctx,
	ldr	r6, [r7, #416]	@ pCurrPic_4(D)->frame_num, pCurrPic_4(D)->frame_num
	ldr	r1, [r3, #2056]	@ D.43496, pH264Ctx_6(D)->DPB.ref_frames_in_buffer
	rsb	r6, r2, r6, lsl #1	@ picNumX, difference_of_pic_nums_minus1, pCurrPic_4(D)->frame_num,
	cmp	r1, #0	@ D.43496,
	beq	.L350	@,
	add	r2, r0, #26368	@ ivtmp.587, pH264Ctx,
	mov	lr, #0	@ i,
	add	r2, r2, #124	@ ivtmp.587, ivtmp.587,
	b	.L353	@
.L351:
	tst	r5, #2	@ D.43495,
	beq	.L352	@,
	ldr	r3, [ip, #472]	@ *_10, *_10
	bic	r3, r3, #-16777216	@ D.43496, *_10,
	bic	r3, r3, #255	@ D.43496, D.43496,
	cmp	r3, #65536	@ D.43496,
	beq	.L365	@,
.L352:
	cmp	lr, r1	@ i, D.43496
	beq	.L350	@,
.L353:
	ldr	ip, [r2, #4]!	@ D.43494, MEM[base: _9, offset: 0B]
	add	lr, lr, #1	@ i, i,
	ldrb	r5, [ip, #2]	@ zero_extendqisi2	@ D.43495, _10->is_reference
	tst	r5, #1	@ D.43495,
	beq	.L351	@,
	ldr	r4, [ip, #436]	@ *_10, *_10
	bic	r4, r4, #-16777216	@ D.43496, *_10,
	bic	r4, r4, #255	@ D.43496, D.43496,
	cmp	r4, #65536	@ D.43496,
	bne	.L351	@,
	ldr	r3, [ip, #448]	@ _10->top_field.pic_num, _10->top_field.pic_num
	cmp	r3, r6	@ _10->top_field.pic_num, picNumX
	bne	.L351	@,
	mov	r1, ip	@, D.43494
	mov	r3, r9	@, long_term_frame_idx
	mov	r2, #1	@,
	mov	r0, r8	@, pH264Ctx
	bl	UnMarkLTFldByFrmIdx	@
	b	.L350	@
.L365:
	ldr	r3, [ip, #484]	@ _10->bottom_field.pic_num, _10->bottom_field.pic_num
	cmp	r3, r6	@ _10->bottom_field.pic_num, picNumX
	bne	.L352	@,
	mov	r1, ip	@, D.43494
	mov	r3, r9	@, long_term_frame_idx
	mov	r2, #2	@,
	mov	r0, r8	@, pH264Ctx
	bl	UnMarkLTFldByFrmIdx	@
	b	.L350	@
	.fnend
	.size	MarkSTToLTRef, .-MarkSTToLTRef
	.align	2
	.global	UpdateMaxLTFrmIdx
	.type	UpdateMaxLTFrmIdx, %function
UpdateMaxLTFrmIdx:
	.fnstart
	@ args = 0, pretend = 0, frame = 0
	@ frame_needed = 0, uses_anonymous_args = 0
	stmfd	sp!, {r4, r5, r6, r7, r8, lr}	@,
	.save {r4, r5, r6, r7, r8, lr}
	add	r6, r0, #24576	@ tmp133, pH264Ctx,
	ldr	r3, [r6, #2060]	@ pH264Ctx_5(D)->DPB.ltref_frames_in_buffer, pH264Ctx_5(D)->DPB.ltref_frames_in_buffer
	str	r1, [r6, #2064]	@ max_long_term_frame_idx_plus1, pH264Ctx_5(D)->DPB.max_long_term_pic_idx
	cmp	r3, #0	@ pH264Ctx_5(D)->DPB.ltref_frames_in_buffer,
	ldmeqfd	sp!, {r4, r5, r6, r7, r8, pc}	@
	add	r5, r0, #26368	@ ivtmp.603, pH264Ctx,
	mov	r7, r0	@ pH264Ctx, pH264Ctx
	mov	r3, r1	@ D.43519, max_long_term_frame_idx_plus1
	add	r5, r5, #188	@ ivtmp.603, ivtmp.603,
	mov	r4, #0	@ i,
	b	.L370	@
.L368:
	ldr	r3, [r6, #2060]	@ pH264Ctx_5(D)->DPB.ltref_frames_in_buffer, pH264Ctx_5(D)->DPB.ltref_frames_in_buffer
	cmp	r3, r4	@ pH264Ctx_5(D)->DPB.ltref_frames_in_buffer, i
	ldmlsfd	sp!, {r4, r5, r6, r7, r8, pc}	@
	ldr	r3, [r6, #2064]	@ D.43519, pH264Ctx_5(D)->DPB.max_long_term_pic_idx
.L370:
	ldr	r1, [r5, #4]!	@ D.43518, MEM[base: _21, offset: 0B]
	add	r4, r4, #1	@ i, i,
	ldr	r2, [r1, #520]	@ _9->long_term_frame_idx, _9->long_term_frame_idx
	cmp	r2, r3	@ _9->long_term_frame_idx, D.43519
	bcc	.L368	@,
	mov	r0, r7	@, pH264Ctx
	bl	UnMarkFrameStoreRef	@
	b	.L368	@
	.fnend
	.size	UpdateMaxLTFrmIdx, .-UpdateMaxLTFrmIdx
	.align	2
	.global	UnMarkAllSTRef
	.type	UnMarkAllSTRef, %function
UnMarkAllSTRef:
	.fnstart
	@ args = 0, pretend = 0, frame = 0
	@ frame_needed = 0, uses_anonymous_args = 0
	stmfd	sp!, {r4, r5, r6, r7, r8, lr}	@,
	.save {r4, r5, r6, r7, r8, lr}
	add	r7, r0, #24576	@ tmp126, pH264Ctx,
	ldr	r3, [r7, #2056]	@ pH264Ctx_4(D)->DPB.ref_frames_in_buffer, pH264Ctx_4(D)->DPB.ref_frames_in_buffer
	cmp	r3, #0	@ pH264Ctx_4(D)->DPB.ref_frames_in_buffer,
	ldmeqfd	sp!, {r4, r5, r6, r7, r8, pc}	@
	add	r5, r0, #26368	@ ivtmp.618, pH264Ctx,
	mov	r6, r0	@ pH264Ctx, pH264Ctx
	add	r5, r5, #124	@ ivtmp.618, ivtmp.618,
	mov	r4, #0	@ i,
.L374:
	ldr	r1, [r5, #4]!	@, MEM[base: _15, offset: 0B]
	mov	r0, r6	@, pH264Ctx
	bl	UnMarkFrameStoreRef	@
	ldr	r3, [r7, #2056]	@ pH264Ctx_4(D)->DPB.ref_frames_in_buffer, pH264Ctx_4(D)->DPB.ref_frames_in_buffer
	add	r4, r4, #1	@ i, i,
	cmp	r3, r4	@ pH264Ctx_4(D)->DPB.ref_frames_in_buffer, i
	bhi	.L374	@,
	ldmfd	sp!, {r4, r5, r6, r7, r8, pc}	@
	.fnend
	.size	UnMarkAllSTRef, .-UnMarkAllSTRef
	.align	2
	.global	MarkCurrPicLT
	.type	MarkCurrPicLT, %function
MarkCurrPicLT:
	.fnstart
	@ args = 0, pretend = 0, frame = 0
	@ frame_needed = 0, uses_anonymous_args = 0
	stmfd	sp!, {r4, r5, r6, lr}	@,
	.save {r4, r5, r6, lr}
	mov	r5, r2	@ long_term_frame_idx, long_term_frame_idx
	ldrb	r2, [r1, #3]	@ zero_extendqisi2	@ D.43541, pCurrPic_3(D)->structure
	mov	r4, r1	@ pCurrPic, pCurrPic
	cmp	r2, #0	@ D.43541,
	beq	.L382	@,
	mov	r3, r5	@, long_term_frame_idx
	ldr	r1, [r1, #408]	@, pCurrPic_3(D)->frame_store
	bl	UnMarkLTFldByFrmIdx	@
.L380:
	mov	r2, #1	@ tmp117,
	mov	r3, #0	@ tmp119,
	str	r5, [r4, #420]	@ long_term_frame_idx, pCurrPic_3(D)->long_term_frame_idx
	strb	r2, [r4, #4]	@ tmp117, pCurrPic_3(D)->is_long_term
	strb	r3, [r4, #5]	@ tmp119, pCurrPic_3(D)->is_short_term
	ldmfd	sp!, {r4, r5, r6, pc}	@
.L382:
	mov	r1, r5	@, long_term_frame_idx
	bl	UnMarkLTFrmByFrmIdx	@
	b	.L380	@
	.fnend
	.size	MarkCurrPicLT, .-MarkCurrPicLT
	.align	2
	.global	RemoveFrameStoreOutDPB
	.type	RemoveFrameStoreOutDPB, %function
RemoveFrameStoreOutDPB:
	.fnstart
	@ args = 0, pretend = 0, frame = 0
	@ frame_needed = 0, uses_anonymous_args = 0
	stmfd	sp!, {r4, r5, r6, r7, r8, lr}	@,
	.save {r4, r5, r6, r7, r8, lr}
	add	r5, r0, r1, lsl #2	@ D.43567, pH264Ctx, pos,
	add	r5, r5, #24576	@ tmp193, D.43567,
	mov	r4, r1	@ pos, pos
	mov	r6, r0	@ pH264Ctx, pH264Ctx
	ldr	r2, [r5, #1856]	@ D.43568, MEM[(struct H264_CTX_S *)_54 + 26432B]
	cmp	r2, #0	@ D.43568,
	ldmeqfd	sp!, {r4, r5, r6, r7, r8, pc}	@
	ldr	r3, [r2, #552]	@ D.43569, _10->apc_idc
	add	r7, r0, #24576	@ tmp194, pH264Ctx,
	mov	r1, #0	@ tmp145,
	add	r8, r0, #49152	@ tmp195, pH264Ctx,
	add	r3, r3, #6656	@ tmp142, D.43569,
	add	r3, r3, #4	@ tmp142, tmp142,
	add	r3, r0, r3, lsl #2	@ tmp143, pH264Ctx, tmp142,
	str	r1, [r3, #4]	@ tmp145, pH264Ctx_8(D)->APC.is_used
	ldr	r3, [r7, #2328]	@ D.43566, pH264Ctx_8(D)->APC.used_size
	cmp	r3, r1	@ D.43566,
	subne	r3, r3, #1	@ D.43566, D.43566,
	str	r3, [r7, #2328]	@ D.43566, pH264Ctx_8(D)->APC.used_size
	ldr	r1, [r2, #508]	@, _10->logic_fs_id
	ldr	r0, [r8, #3688]	@, pH264Ctx_8(D)->ChanID
	bl	FSP_GetLogicFs	@
	cmp	r0, #0	@ pstLogic
	beq	.L386	@,
	ldrsb	r3, [r0, #1]	@ pstLogic_19->s32DispState, pstLogic_19->s32DispState
	cmp	r3, #3	@ pstLogic_19->s32DispState,
	beq	.L387	@,
	ldr	r3, [r5, #1856]	@ MEM[(struct H264_CTX_S *)_54 + 26432B], MEM[(struct H264_CTX_S *)_54 + 26432B]
	mov	r2, #0	@,
	ldr	r0, [r8, #3688]	@, pH264Ctx_8(D)->ChanID
	ldr	r1, [r3, #508]	@, _22->logic_fs_id
	bl	FSP_SetDisplay	@
.L387:
	ldr	r3, [r5, #1856]	@ MEM[(struct H264_CTX_S *)_54 + 26432B], MEM[(struct H264_CTX_S *)_54 + 26432B]
	mov	r2, #0	@,
	ldr	r0, [r8, #3688]	@, pH264Ctx_8(D)->ChanID
	ldr	r1, [r3, #508]	@, _26->logic_fs_id
	bl	FSP_SetRef	@
.L386:
	ldr	r2, [r5, #1856]	@ D.43568, MEM[(struct H264_CTX_S *)_54 + 26432B]
	mov	r3, #0	@ tmp171,
	strb	r3, [r2, #1]	@ tmp171, _29->is_used
	ldr	r2, [r5, #1856]	@ D.43568, MEM[(struct H264_CTX_S *)_54 + 26432B]
	strb	r3, [r2, #4]	@ tmp171, _31->is_in_dpb
	ldr	r2, [r5, #1856]	@ D.43568, MEM[(struct H264_CTX_S *)_54 + 26432B]
	strb	r3, [r2, #2]	@ tmp171, _33->is_reference
	ldr	r1, [r7, #2052]	@ pH264Ctx_8(D)->DPB.used_size, pH264Ctx_8(D)->DPB.used_size
	sub	r1, r1, #1	@ D.43569, pH264Ctx_8(D)->DPB.used_size,
	cmp	r4, r1	@ pos, D.43569
	addcc	r3, r4, #6592	@ D.43565, pos,
	addcc	r3, r3, #16	@ D.43565, D.43565,
	addcc	r3, r6, r3, lsl #2	@ ivtmp.634, pH264Ctx, D.43565,
	bcs	.L390	@,
.L389:
	add	r4, r4, #1	@ pos, pos,
	ldr	r2, [r3, #4]!	@ MEM[base: _45, offset: 0B], MEM[base: _45, offset: 0B]
	cmp	r4, r1	@ pos, D.43569
	str	r2, [r3, #-4]	@ MEM[base: _45, offset: 0B], MEM[base: _45, offset: 4294967292B]
	bne	.L389	@,
.L390:
	add	r3, r1, #6592	@ tmp185, D.43569,
	mov	r2, #0	@ tmp186,
	add	r3, r3, #16	@ tmp185, tmp185,
	str	r2, [r6, r3, asl #2]	@ tmp186, pH264Ctx_8(D)->DPB.fs
	str	r1, [r7, #2052]	@ D.43569, pH264Ctx_8(D)->DPB.used_size
	ldmfd	sp!, {r4, r5, r6, r7, r8, pc}	@
	.fnend
	.size	RemoveFrameStoreOutDPB, .-RemoveFrameStoreOutDPB
	.align	2
	.global	RemoveUnUsedFrameStore
	.type	RemoveUnUsedFrameStore, %function
RemoveUnUsedFrameStore:
	.fnstart
	@ args = 0, pretend = 0, frame = 0
	@ frame_needed = 0, uses_anonymous_args = 0
	stmfd	sp!, {r3, r4, r5, r6, r7, r8, r9, r10, fp, lr}	@,
	.save {r3, r4, r5, r6, r7, r8, r9, r10, fp, lr}
	subs	r5, r0, #0	@ pH264Ctx, pH264Ctx
	beq	.L424	@,
	add	r3, r5, #24576	@ tmp142, pH264Ctx,
	ldr	r6, [r3, #2052]	@ k, pH264Ctx_10(D)->DPB.used_size
	cmp	r6, #0	@ k,
	beq	.L415	@,
	mov	r10, #0	@ j,
	add	r7, r5, #49152	@ tmp185, pH264Ctx,
	mov	fp, r10	@ i, j
	mov	r9, r10	@ tmp188, j
	mvn	r8, #0	@ tmp187,
	b	.L414	@
.L426:
	ldrb	r2, [r3, #4]	@ zero_extendqisi2	@ _40->is_in_dpb, _40->is_in_dpb
	cmp	r2, #0	@ _40->is_in_dpb,
	bne	.L412	@,
	ldr	r1, [r3, #528]	@ _40->eFoState, _40->eFoState
	cmp	r1, #1	@ _40->eFoState,
	beq	.L412	@,
	strb	r2, [r3, #1]	@ _40->is_in_dpb, _40->is_used
	mov	r1, r10	@, j
	mov	r0, r5	@, pH264Ctx
	add	fp, fp, #1	@ i, i,
	bl	RemoveFrameStoreOutDPB	@
	cmp	fp, r6	@ i, k
	beq	.L415	@,
.L414:
	add	r4, r5, r10, lsl #2	@ D.43577, pH264Ctx, j,
	ldr	r0, [r7, #3688]	@, pH264Ctx_10(D)->ChanID
	add	r4, r4, #24576	@ tmp186, D.43577,
	ldr	r3, [r4, #1856]	@ MEM[(struct H264_CTX_S *)_3 + 26432B], MEM[(struct H264_CTX_S *)_3 + 26432B]
	ldr	r1, [r3, #508]	@, _15->logic_fs_id
	bl	FSP_GetLogicFs	@
	cmp	r0, #0	@ pstLogicFs
	beq	.L409	@,
	ldrsh	r3, [r0]	@ *pstLogicFs_18, *pstLogicFs_18
	cmp	r3, #0	@ *pstLogicFs_18,
	bne	.L410	@,
	ldr	r3, [r4, #1856]	@ D.43581, MEM[(struct H264_CTX_S *)_3 + 26432B]
	ldrb	r2, [r3, #2]	@ zero_extendqisi2	@ _20->is_reference, _20->is_reference
	cmp	r2, #0	@ _20->is_reference,
	bne	.L411	@,
	ldrsb	r1, [r0]	@ pstLogicFs_18->s32IsRef, pstLogicFs_18->s32IsRef
	cmp	r1, #0	@ pstLogicFs_18->s32IsRef,
	bne	.L425	@,
.L411:
	str	r8, [r3, #508]	@ tmp187, _54->logic_fs_id
	ldr	r3, [r4, #1856]	@ D.43581, MEM[(struct H264_CTX_S *)_3 + 26432B]
	strb	r9, [r3, #2]	@ tmp188, _28->is_reference
.L409:
	ldr	r2, [r4, #1856]	@ D.43581, MEM[(struct H264_CTX_S *)_3 + 26432B]
	ldr	r3, [r2, #528]	@ _35->eFoState,
	sub	r3, r3, #1	@ tmp175, _35->eFoState,
	clz	r3, r3	@ tmp175, tmp175
	mov	r3, r3, lsr #5	@ tmp175, tmp175,
	strb	r3, [r2, #4]	@ tmp175,
.L410:
	ldr	r3, [r4, #1856]	@ D.43581, MEM[(struct H264_CTX_S *)_3 + 26432B]
	ldrb	r2, [r3, #2]	@ zero_extendqisi2	@ MEM[(const struct H264_FRAMESTORE_S *)_40].is_reference, MEM[(const struct H264_FRAMESTORE_S *)_40].is_reference
	cmp	r2, #0	@ MEM[(const struct H264_FRAMESTORE_S *)_40].is_reference,
	beq	.L426	@,
.L412:
	add	fp, fp, #1	@ i, i,
	add	r10, r10, #1	@ j, j,
	cmp	fp, r6	@ i, k
	bne	.L414	@,
.L415:
	mov	r0, #0	@ D.43578,
	ldmfd	sp!, {r3, r4, r5, r6, r7, r8, r9, r10, fp, pc}	@
.L425:
	ldr	r1, [r3, #508]	@, _20->logic_fs_id
	ldr	r0, [r7, #3688]	@, pH264Ctx_10(D)->ChanID
	bl	FSP_SetRef	@
	ldr	r3, [r4, #1856]	@ D.43581, MEM[(struct H264_CTX_S *)_3 + 26432B]
	b	.L411	@
.L424:
	bl	vfmw_dprint_nothing	@
	mvn	r0, #0	@ D.43578,
	ldmfd	sp!, {r3, r4, r5, r6, r7, r8, r9, r10, fp, pc}	@
	.fnend
	.size	RemoveUnUsedFrameStore, .-RemoveUnUsedFrameStore
	.align	2
	.global	CheckFrameStore
	.type	CheckFrameStore, %function
CheckFrameStore:
	.fnstart
	@ args = 0, pretend = 0, frame = 0
	@ frame_needed = 0, uses_anonymous_args = 0
	add	r3, r0, #49152	@ tmp185, pH264Ctx,
	stmfd	sp!, {r4, r5, r6, lr}	@,
	.save {r4, r5, r6, lr}
	ldr	r2, [r3, #2180]	@ pH264Ctx_7(D)->IDRFound, pH264Ctx_7(D)->IDRFound
	cmp	r2, #0	@ pH264Ctx_7(D)->IDRFound,
	bne	.L428	@,
	ldr	r2, [r1, #528]	@ pFrameStore_9(D)->eFoState, pFrameStore_9(D)->eFoState
	cmp	r2, #1	@ pFrameStore_9(D)->eFoState,
	beq	.L429	@,
	ldr	r2, [r3, #3616]	@ pH264Ctx_7(D)->OldDecMode, pH264Ctx_7(D)->OldDecMode
	cmp	r2, #0	@ pH264Ctx_7(D)->OldDecMode,
	beq	.L452	@,
.L429:
	mov	r2, #1	@ tmp150,
	str	r2, [r3, #2180]	@ tmp150, pH264Ctx_7(D)->IDRFound
.L428:
	mov	r4, r1	@ pFrameStore, pFrameStore
	mov	r5, r0	@ pH264Ctx, pH264Ctx
	ldr	r1, [r1, #508]	@, pFrameStore_9(D)->logic_fs_id
	ldr	r0, [r3, #3688]	@, pH264Ctx_7(D)->ChanID
	bl	FSP_GetLogicFs	@
	cmp	r0, #0	@ pstLogicFs
	beq	.L431	@,
	ldrsb	r3, [r0, #1]	@ D.43594, pstLogicFs_18->s32DispState
	cmp	r3, #3	@ D.43594,
	cmpne	r3, #0	@, D.43594,
	beq	.L431	@,
	ldrb	r2, [r4, #1]	@ zero_extendqisi2	@ D.43596, pFrameStore_9(D)->is_used
	cmp	r2, #0	@ D.43596,
	beq	.L434	@,
	ldrb	r3, [r4]	@ zero_extendqisi2	@ pFrameStore_9(D)->non_existing, pFrameStore_9(D)->non_existing
	cmp	r3, #1	@ pFrameStore_9(D)->non_existing,
	beq	.L434	@,
	ldr	r3, [r4]	@ *pFrameStore_9(D), *pFrameStore_9(D)
	mov	r1, #768	@ tmp170,
	movt	r1, 768	@ tmp170,
	bic	r3, r3, #16711680	@ D.43590, *pFrameStore_9(D),
	bic	r3, r3, #255	@ D.43590, D.43590,
	cmp	r3, r1	@ D.43590, tmp170
	beq	.L434	@,
	cmp	r2, #1	@ D.43596,
	beq	.L453	@,
	cmp	r2, #2	@ D.43596,
	beq	.L454	@,
.L436:
	ldr	r3, [r5]	@ pH264Ctx_7(D)->pstExtraData, pH264Ctx_7(D)->pstExtraData
	ldr	r2, [r0, #188]	@ pstLogicFs_18->stDispImg.error_level, pstLogicFs_18->stDispImg.error_level
	ldr	r3, [r3, #4]	@ _38->s32OutErrThr, _38->s32OutErrThr
	cmp	r2, r3	@ pstLogicFs_18->stDispImg.error_level, _38->s32OutErrThr
	bhi	.L434	@,
	mov	r0, #0	@ D.43589,
	ldmfd	sp!, {r4, r5, r6, pc}	@
.L452:
	ldr	r2, [r0]	@ pH264Ctx_7(D)->pstExtraData, pH264Ctx_7(D)->pstExtraData
	ldr	r2, [r2, #12]	@ _12->s32DecOrderOutput, _12->s32DecOrderOutput
	cmp	r2, #0	@ _12->s32DecOrderOutput,
	bne	.L429	@,
	mvn	r0, #0	@ D.43589,
	ldmfd	sp!, {r4, r5, r6, pc}	@
.L431:
	bl	vfmw_dprint_nothing	@
	ldr	r3, [r4, #528]	@ pFrameStore_9(D)->eFoState, pFrameStore_9(D)->eFoState
	cmp	r3, #1	@ pFrameStore_9(D)->eFoState,
	beq	.L455	@,
	mvn	r0, #2	@ D.43589,
	ldmfd	sp!, {r4, r5, r6, pc}	@
.L453:
	ldrb	r3, [r4, #3]	@ zero_extendqisi2	@ pFrameStore_9(D)->mode_skip_flag, pFrameStore_9(D)->mode_skip_flag
	tst	r3, #1	@ pFrameStore_9(D)->mode_skip_flag,
	beq	.L436	@,
.L434:
	bl	vfmw_dprint_nothing	@
	mvn	r0, #0	@ D.43589,
	ldmfd	sp!, {r4, r5, r6, pc}	@
.L454:
	ldrb	r3, [r4, #3]	@ zero_extendqisi2	@ pFrameStore_9(D)->mode_skip_flag, pFrameStore_9(D)->mode_skip_flag
	tst	r3, #2	@ pFrameStore_9(D)->mode_skip_flag,
	beq	.L436	@,
	b	.L434	@
.L455:
	mov	r3, #2	@ tmp165,
	mvn	r0, #2	@ D.43589,
	str	r3, [r4, #528]	@ tmp165, pFrameStore_9(D)->eFoState
	ldmfd	sp!, {r4, r5, r6, pc}	@
	.fnend
	.size	CheckFrameStore, .-CheckFrameStore
	.align	2
	.global	ExchangePts
	.type	ExchangePts, %function
ExchangePts:
	.fnstart
	@ args = 0, pretend = 0, frame = 8
	@ frame_needed = 0, uses_anonymous_args = 0
	stmfd	sp!, {r4, r5, r6, r7, r8, r9, r10, fp, lr}	@,
	.save {r4, r5, r6, r7, r8, r9, r10, fp, lr}
	mvn	r5, #0	@,
	ldrd	r2, [r1, #16]	@ pFrameStore_10(D)->fs_image.PTS, pFrameStore,
	mvn	r4, #0	@ tmp136,
	.pad #12
	sub	sp, sp, #12	@,,
	cmp	r3, r5	@ pFrameStore_10(D)->fs_image.PTS,
	cmpeq	r2, r4	@ pFrameStore_10(D)->fs_image.PTS, tmp136
	beq	.L456	@,
	add	r6, r0, #24576	@ tmp161, pH264Ctx,
	ldr	r3, [r6, #2052]	@ pH264Ctx_14(D)->DPB.used_size, pH264Ctx_14(D)->DPB.used_size
	cmp	r3, #0	@ pH264Ctx_14(D)->DPB.used_size,
	beq	.L456	@,
	add	fp, r0, #26368	@ ivtmp.660, pH264Ctx,
	add	r10, r0, #49152	@ tmp162, pH264Ctx,
	add	fp, fp, #60	@ ivtmp.660, ivtmp.660,
	mov	r7, r1	@ pFrameStore, pFrameStore
	mvn	r4, #1	@ MinPts,
	mvn	r5, #0	@ MinPts,
	mvn	r9, #0	@ MinPtsPos,
	mov	r8, #0	@ MinPtsPos,
	str	r0, [sp, #4]	@ pH264Ctx, %sfp
.L461:
	ldr	r3, [fp, #4]!	@ D.43612, MEM[base: _40, offset: 0B]
	cmp	r3, #0	@ D.43612,
	beq	.L460	@,
	ldr	r1, [r3, #508]	@, _16->logic_fs_id
	ldr	r0, [r10, #3688]	@, pH264Ctx_14(D)->ChanID
	bl	FSP_GetLogicFs	@
	cmp	r0, #0	@ pstLogicFs
	beq	.L460	@,
	ldrsb	r3, [r0, #1]	@ D.43614, pstLogicFs_21->s32DispState
	cmp	r3, #3	@ D.43614,
	cmpne	r3, #0	@, D.43614,
	beq	.L460	@,
	ldr	r3, [fp]	@ MEM[base: _40, offset: 0B], MEM[base: _40, offset: 0B]
	ldrd	r0, [r3, #16]	@ MinPts, MEM[base: _40, offset: 0B],
	cmp	r1, r5	@ MinPts, MinPts
	cmpeq	r0, r4	@ MinPts, MinPts
	movcc	r4, r0	@ MinPts, MinPts
	movcc	r5, r1	@ MinPts, MinPts
	movcc	r9, r8	@ MinPtsPos, MinPtsPos
.L460:
	ldr	r3, [r6, #2052]	@ pH264Ctx_14(D)->DPB.used_size, pH264Ctx_14(D)->DPB.used_size
	add	r8, r8, #1	@ MinPtsPos, MinPtsPos,
	cmp	r8, r3	@ MinPtsPos, pH264Ctx_14(D)->DPB.used_size
	bcc	.L461	@,
	cmn	r9, #1	@ MinPtsPos,
	beq	.L456	@,
	ldrd	r2, [r7, #16]	@ pFrameStore_10(D)->fs_image.PTS, pFrameStore,
	cmp	r3, r5	@ pFrameStore_10(D)->fs_image.PTS, MinPts
	cmpeq	r2, r4	@ pFrameStore_10(D)->fs_image.PTS, MinPts
	bhi	.L476	@,
.L456:
	add	sp, sp, #12	@,,
	@ sp needed	@
	ldmfd	sp!, {r4, r5, r6, r7, r8, r9, r10, fp, pc}	@
.L476:
	bl	vfmw_dprint_nothing	@
	add	r9, r9, #6592	@ tmp160, MinPtsPos,
	add	r9, r9, #16	@ tmp160, tmp160,
	ldrd	r2, [r7, #16]	@ D.43610, pFrameStore,
	ldr	r1, [sp, #4]	@ pH264Ctx, %sfp
	ldr	r1, [r1, r9, asl #2]	@ D.43612, pH264Ctx_14(D)->DPB.fs
	strd	r2, [r1, #16]	@ D.43610, D.43612,
	strd	r4, [r7, #16]	@ MinPts, pFrameStore,
	add	sp, sp, #12	@,,
	@ sp needed	@
	ldmfd	sp!, {r4, r5, r6, r7, r8, r9, r10, fp, pc}	@
	.fnend
	.size	ExchangePts, .-ExchangePts
	.align	2
	.global	GetImagePara
	.type	GetImagePara, %function
GetImagePara:
	.fnstart
	@ args = 0, pretend = 0, frame = 0
	@ frame_needed = 0, uses_anonymous_args = 0
	stmfd	sp!, {r4, r5, r6, r7, r8, r9, r10, lr}	@,
	.save {r4, r5, r6, r7, r8, r9, r10, lr}
	add	r2, r0, #20480	@ tmp198, pH264Ctx,
	add	lr, r0, #12288	@ tmp195, pH264Ctx,
	mov	r8, #2208	@ tmp203,
	ldr	r2, [r2, #212]	@ pH264Ctx_21(D)->CurrSlice.pic_parameter_set_id, pH264Ctx_21(D)->CurrSlice.pic_parameter_set_id
	mov	r4, r1	@ pFrameStore, pFrameStore
	ldr	r3, [lr, #1296]	@ pH264Ctx_21(D)->PPS, pH264Ctx_21(D)->PPS
	add	r5, r0, #49152	@ tmp285, pH264Ctx,
	ldr	ip, [r1, #148]	@ D.43626, pFrameStore_30(D)->fs_image.format
	mov	r7, #4000	@ tmp207,
	ldr	r6, [lr, #1292]	@ pH264Ctx_21(D)->SPS, pH264Ctx_21(D)->SPS
	mla	r1, r8, r2, r3	@ tmp204, tmp203, pH264Ctx_21(D)->CurrSlice.pic_parameter_set_id, pH264Ctx_21(D)->PPS
	bic	r2, ip, #768	@ D.43626, D.43626,
	bic	r2, r2, #3	@ D.43626, D.43626,
	ldrb	lr, [r4, #1]	@ zero_extendqisi2	@ pFrameStore_30(D)->is_used, pFrameStore_30(D)->is_used
	ldr	r3, [r1, #28]	@ pps_25->seq_parameter_set_id, pps_25->seq_parameter_set_id
	str	r2, [r4, #148]	@ D.43626, pFrameStore_30(D)->fs_image.format
	ldr	r1, [r5, #2188]	@ pH264Ctx_21(D)->frame_rate, pH264Ctx_21(D)->frame_rate
	mla	r3, r7, r3, r6	@ sps, tmp207, pps_25->seq_parameter_set_id, pH264Ctx_21(D)->SPS
	mov	r1, r1, asl #10	@ D.43626, pH264Ctx_21(D)->frame_rate,
	str	r1, [r4, #176]	@ D.43626, pFrameStore_30(D)->fs_image.frame_rate
	cmp	lr, #3	@ pFrameStore_30(D)->is_used,
	ldrls	pc, [pc, lr, asl #2]	@ pFrameStore_30(D)->is_used
	b	.L513	@
.L480:
	.word	.L479
	.word	.L481
	.word	.L482
	.word	.L479
.L482:
	ldr	r1, [r4, #540]	@ pFrameStore_30(D)->pic_type, pFrameStore_30(D)->pic_type
	add	r6, r0, #24576	@ tmp284, pH264Ctx,
	ldr	ip, [r4, #544]	@ pFrameStore_30(D)->err_level, pFrameStore_30(D)->err_level
	and	r1, r1, #3	@ D.43626, pFrameStore_30(D)->pic_type,
	orr	r2, r2, r1	@ D.43626, D.43626, D.43626
	orr	r2, r2, #2816	@ D.43626, D.43626,
	str	ip, [r4, #188]	@ pFrameStore_30(D)->err_level, pFrameStore_30(D)->fs_image.error_level
	str	r2, [r4, #148]	@ D.43626, pFrameStore_30(D)->fs_image.format
.L478:
	ldrb	r2, [r3, #18]	@ zero_extendqisi2	@ D.43629, sps_29->frame_mbs_only_flag
	str	r2, [r4, #348]	@ D.43629, pFrameStore_30(D)->fs_image.optm_inf.IsProgressiveSeq
	str	r2, [r4, #352]	@ D.43629, pFrameStore_30(D)->fs_image.optm_inf.IsProgressiveFrm
	ldrb	r2, [r3, #22]	@ zero_extendqisi2	@ sps_29->vui_parameters_present_flag, sps_29->vui_parameters_present_flag
	cmp	r2, #0	@ sps_29->vui_parameters_present_flag,
	ldrne	r2, [r3, #68]	@ D.43623, sps_29->vui_seq_parameters.matrix_coefficients
	mov	r3, #1	@ tmp252,
	str	r3, [r4, #356]	@ tmp252, pFrameStore_30(D)->fs_image.optm_inf.RealFrmRate
	str	r2, [r4, #360]	@ D.43623, pFrameStore_30(D)->fs_image.optm_inf.MatrixCoef
	ldr	r3, [r0]	@ pH264Ctx_21(D)->pstExtraData, pH264Ctx_21(D)->pstExtraData
	ldr	r3, [r3, #12]	@ _115->s32DecOrderOutput, _115->s32DecOrderOutput
	cmp	r3, #0	@ _115->s32DecOrderOutput,
	ble	.L498	@,
	ldrb	r3, [r4, #400]	@ zero_extendqisi2	@ pFrameStore_30(D)->frame.structure, pFrameStore_30(D)->frame.structure
	cmp	r3, #0	@ pFrameStore_30(D)->frame.structure,
	bne	.L498	@,
	ldrb	r3, [r4, #1]	@ zero_extendqisi2	@ pFrameStore_30(D)->is_used, pFrameStore_30(D)->is_used
	cmp	r3, #3	@ pFrameStore_30(D)->is_used,
	ldreq	r3, [r4, #148]	@ pFrameStore_30(D)->fs_image.format, pFrameStore_30(D)->fs_image.format
	biceq	r3, r3, #768	@ D.43626, pFrameStore_30(D)->fs_image.format,
	streq	r3, [r4, #148]	@ D.43626, pFrameStore_30(D)->fs_image.format
.L498:
	mov	r1, r4	@, pFrameStore
	bl	ExchangePts	@
	ldrb	r3, [r6, #1808]	@ zero_extendqisi2	@ pH264Ctx_21(D)->FramePackSEI.frame_packing_dec_ok, pH264Ctx_21(D)->FramePackSEI.frame_packing_dec_ok
	cmp	r3, #0	@ pH264Ctx_21(D)->FramePackSEI.frame_packing_dec_ok,
	beq	.L499	@,
	ldr	r3, [r6, #1824]	@ D.43629, pH264Ctx_21(D)->FramePackSEI.frame_packing_arrangement_type
	cmp	r3, #3	@ D.43629,
	moveq	r3, #1	@ tmp265,
	streq	r3, [r4, #288]	@ tmp265, pFrameStore_30(D)->fs_image.eFramePackingType
	beq	.L499	@,
	cmp	r3, #4	@ D.43629,
	moveq	r3, #2	@ tmp266,
	streq	r3, [r4, #288]	@ tmp266, pFrameStore_30(D)->fs_image.eFramePackingType
	beq	.L499	@,
	cmp	r3, #5	@ D.43629,
	moveq	r3, #3	@ tmp267,
	streq	r3, [r4, #288]	@ tmp267, pFrameStore_30(D)->fs_image.eFramePackingType
	beq	.L499	@,
	mov	r3, #0	@ tmp268,
	str	r3, [r4, #288]	@ tmp268, pFrameStore_30(D)->fs_image.eFramePackingType
	bl	vfmw_dprint_nothing	@
.L499:
	ldr	r0, [r5, #3688]	@, pH264Ctx_21(D)->ChanID
	ldr	r1, [r4, #508]	@, pFrameStore_30(D)->logic_fs_id
	bl	FSP_GetFsImagePtr	@
	subs	r5, r0, #0	@ pstLogicFsImage,
	ldmeqfd	sp!, {r4, r5, r6, r7, r8, r9, r10, pc}	@
	mov	r2, #392	@,
	add	r1, r4, #8	@, pFrameStore,
	bl	memcpy	@
	mov	r3, #0	@ tmp278,
	str	r3, [r5, #300]	@ tmp278, pstLogicFsImage_133->ImageDnr.video_standard
	mov	r2, #1	@ tmp280,
	ldrb	r3, [r4, #400]	@ zero_extendqisi2	@ D.43624, pFrameStore_30(D)->frame.structure
	strb	r2, [r5, #295]	@ tmp280, pstLogicFsImage_133->ImageDnr.use_pic_qp_en
	cmp	r3, #0	@ D.43624,
	movne	r3, #4	@ D.43624,
	strb	r3, [r5, #288]	@ D.43624, pstLogicFsImage_133->ImageDnr.pic_structure
	ldr	r3, [r4, #428]	@ D.43629, pFrameStore_30(D)->frame.MaxQp
	strb	r2, [r5, #293]	@ tmp280, pstLogicFsImage_133->ImageDnr.chroma_format_idc
	str	r3, [r5, #304]	@ D.43629, pstLogicFsImage_133->ImageDnr.QP_Y
	str	r3, [r5, #312]	@ D.43629, pstLogicFsImage_133->ImageDnr.QP_V
	str	r3, [r5, #308]	@ D.43629, pstLogicFsImage_133->ImageDnr.QP_U
	ldmfd	sp!, {r4, r5, r6, r7, r8, r9, r10, pc}	@
.L481:
	ldr	r1, [r4, #540]	@ pFrameStore_30(D)->pic_type, pFrameStore_30(D)->pic_type
	add	r6, r0, #24576	@ tmp284, pH264Ctx,
	ldr	ip, [r4, #544]	@ pFrameStore_30(D)->err_level, pFrameStore_30(D)->err_level
	and	r1, r1, #3	@ D.43626, pFrameStore_30(D)->pic_type,
	orr	r2, r2, r1	@ D.43626, D.43626, D.43626
	orr	r2, r2, #1792	@ D.43626, D.43626,
	str	ip, [r4, #188]	@ pFrameStore_30(D)->err_level, pFrameStore_30(D)->fs_image.error_level
	str	r2, [r4, #148]	@ D.43626, pFrameStore_30(D)->fs_image.format
	b	.L478	@
.L479:
	ldrb	r2, [r4, #400]	@ zero_extendqisi2	@ pFrameStore_30(D)->frame.structure, pFrameStore_30(D)->frame.structure
	cmp	r2, #0	@ pFrameStore_30(D)->frame.structure,
	bne	.L483	@,
	ldr	r2, [r4, #536]	@ pFrameStore_30(D)->MbaffFrameFlag, pFrameStore_30(D)->MbaffFrameFlag
	mov	r7, #3072	@ D.43626,
	ldr	lr, [r4, #544]	@ pFrameStore_30(D)->err_level, pFrameStore_30(D)->err_level
	cmp	r2, #0	@ pFrameStore_30(D)->MbaffFrameFlag,
	ldr	r2, [r4, #540]	@ pic_type, pFrameStore_30(D)->pic_type
	moveq	r1, #512	@ D.43626,
	movne	r1, #768	@ D.43626,
	str	lr, [r4, #188]	@ pFrameStore_30(D)->err_level, pFrameStore_30(D)->fs_image.error_level
.L484:
	ldr	r6, [r4, #452]	@ D.43629, pFrameStore_30(D)->top_field.poc
	ldr	lr, [r4, #488]	@ D.43629, pFrameStore_30(D)->bottom_field.poc
	cmp	r6, lr	@ D.43629, D.43629
	beq	.L522	@,
	movle	lr, #1	@ top_field_first,
	movgt	lr, #0	@ top_field_first,
.L495:
	add	r6, r0, #24576	@ tmp284, pH264Ctx,
	ldrb	r8, [r6, #1844]	@ zero_extendqisi2	@ D.43628, pH264Ctx_21(D)->PicTimingSEI.pic_struct
	cmp	r8, #3	@ D.43628,
	moveq	lr, #4096	@ D.43626,
	beq	.L496	@,
	cmp	r8, #4	@ D.43628,
	movne	lr, lr, asl #12	@ D.43626, top_field_first,
	moveq	lr, #0	@ D.43626,
.L496:
	bic	ip, ip, #13056	@ D.43626, D.43626,
	orr	r1, r7, r1	@ D.43626, D.43626, D.43626
	bic	ip, ip, #3	@ D.43626, D.43626,
	and	r2, r2, #3	@ D.43626, pic_type,
	orr	ip, r1, ip	@ D.43626, D.43626, D.43626
	orr	ip, ip, r2	@ D.43626, D.43626, D.43626
	orr	ip, ip, lr	@ D.43626, D.43626, D.43626
	str	ip, [r4, #148]	@ D.43626, pFrameStore_30(D)->fs_image.format
	b	.L478	@
.L483:
	ldr	r6, [r4, #456]	@ D.43626, pFrameStore_30(D)->top_field.err_level
	ldr	r2, [r5, #3684]	@ D.43626, pH264Ctx_21(D)->out_error_thr
	cmp	r6, r2	@ D.43626, D.43626
	bhi	.L523	@,
	ldr	r1, [r4, #492]	@ pFrameStore_30(D)->bottom_field.err_level, pFrameStore_30(D)->bottom_field.err_level
	cmp	r2, r1	@ D.43626, pFrameStore_30(D)->bottom_field.err_level
	bcc	.L488	@,
.L486:
	ldr	lr, [r4, #544]	@ pFrameStore_30(D)->err_level, pFrameStore_30(D)->err_level
	mov	r1, #3	@ valid_field,
	ldr	r2, [r4, #540]	@ pic_type, pFrameStore_30(D)->pic_type
	ldr	r9, [r4, #460]	@ pic_type, pFrameStore_30(D)->top_field.pic_type
	ldr	r8, [r4, #496]	@ pic_type, pFrameStore_30(D)->bottom_field.pic_type
	str	lr, [r4, #188]	@ pFrameStore_30(D)->err_level, pFrameStore_30(D)->fs_image.error_level
.L489:
	ldrb	lr, [r4, #3]	@ zero_extendqisi2	@ D.43628, pFrameStore_30(D)->mode_skip_flag
	cmp	lr, #1	@ D.43628,
	beq	.L524	@,
	cmp	lr, #2	@ D.43628,
	streq	r6, [r4, #188]	@ D.43626, pFrameStore_30(D)->fs_image.error_level
	movne	r7, r1, asl #10	@ D.43626, valid_field,
	moveq	r2, r9	@ pic_type, pic_type
	moveq	r7, #1024	@ D.43626,
.L491:
	mov	r1, #768	@ D.43626,
	str	r9, [r4, #140]	@ pic_type, pFrameStore_30(D)->fs_image.top_fld_type
	str	r8, [r4, #144]	@ pic_type, pFrameStore_30(D)->fs_image.bottom_fld_type
	b	.L484	@
.L488:
	ldr	r2, [r4, #460]	@ pic_type, pFrameStore_30(D)->top_field.pic_type
	mov	r1, #1	@ valid_field,
	ldr	r8, [r4, #496]	@ pic_type, pFrameStore_30(D)->bottom_field.pic_type
	str	r6, [r4, #188]	@ D.43626, pFrameStore_30(D)->fs_image.error_level
	mov	r9, r2	@ pic_type, pic_type
	b	.L489	@
.L522:
	ldr	lr, [r4, #152]	@ pFrameStore_30(D)->fs_image.image_width, pFrameStore_30(D)->fs_image.image_width
	cmp	lr, #720	@ pFrameStore_30(D)->fs_image.image_width,
	movne	lr, #1	@ top_field_first,
	bne	.L495	@,
	ldr	lr, [r4, #156]	@ pFrameStore_30(D)->fs_image.image_height, pFrameStore_30(D)->fs_image.image_height
	subs	lr, lr, #480	@ top_field_first, pFrameStore_30(D)->fs_image.image_height,
	movne	lr, #1	@ top_field_first,
	b	.L495	@
.L523:
	ldr	lr, [r4, #492]	@ D.43626, pFrameStore_30(D)->bottom_field.err_level
	cmp	r2, lr	@ D.43626, D.43626
	bcc	.L486	@,
	ldr	r2, [r4, #496]	@ pic_type, pFrameStore_30(D)->bottom_field.pic_type
	mov	r1, #2	@ valid_field,
	str	lr, [r4, #188]	@ D.43626, pFrameStore_30(D)->fs_image.error_level
	ldr	r9, [r4, #460]	@ pic_type, pFrameStore_30(D)->top_field.pic_type
	mov	r8, r2	@ pic_type, pic_type
	b	.L489	@
.L524:
	ldr	r1, [r4, #492]	@ pFrameStore_30(D)->bottom_field.err_level, pFrameStore_30(D)->bottom_field.err_level
	mov	r2, r8	@ pic_type, pic_type
	mov	r7, #2048	@ D.43626,
	str	r1, [r4, #188]	@ pFrameStore_30(D)->bottom_field.err_level, pFrameStore_30(D)->fs_image.error_level
	b	.L491	@
.L513:
	add	r6, r0, #24576	@ tmp284, pH264Ctx,
	b	.L478	@
	.fnend
	.size	GetImagePara, .-GetImagePara
	.align	2
	.global	SetFrmRepeatCount
	.type	SetFrmRepeatCount, %function
SetFrmRepeatCount:
	.fnstart
	@ args = 0, pretend = 0, frame = 0
	@ frame_needed = 0, uses_anonymous_args = 0
	@ link register save eliminated.
	ldr	r3, [r0]	@ pH264Ctx_2(D)->pstExtraData, pH264Ctx_2(D)->pstExtraData
	ldr	r3, [r3, #520]	@ _3->s32FastForwardBackwardSpeed, _3->s32FastForwardBackwardSpeed
	add	r3, r3, #2032	@ D.43642, _3->s32FastForwardBackwardSpeed,
	add	r3, r3, #15	@ D.43642, D.43642,
	cmp	r3, #4096	@ D.43642,
	movcc	r3, #0	@ tmp120,
	strcc	r3, [r1, #84]	@ tmp120, p_image_7(D)->u32RepeatCnt
	bxcc	lr	@
	b	SetFrmRepeatCount.part.1	@
	.fnend
	.size	SetFrmRepeatCount, .-SetFrmRepeatCount
	.align	2
	.global	SplitFrmToFlds
	.type	SplitFrmToFlds, %function
SplitFrmToFlds:
	.fnstart
	@ args = 0, pretend = 0, frame = 0
	@ frame_needed = 0, uses_anonymous_args = 0
	stmfd	sp!, {r4, r5, lr}	@,
	.save {r4, r5, lr}
	mov	r5, #1	@ tmp118,
	ldrb	lr, [r0, #401]	@ zero_extendqisi2	@ D.43645, pFrameStore_2(D)->frame.is_long_term
	mov	r4, #2	@ tmp122,
	ldrb	ip, [r0, #402]	@ zero_extendqisi2	@ D.43645, pFrameStore_2(D)->frame.is_short_term
	ldr	r1, [r0, #420]	@ D.43646, pFrameStore_2(D)->frame.err_level
	ldr	r2, [r0, #424]	@ D.43646, pFrameStore_2(D)->frame.pic_type
	ldr	r3, [r0, #404]	@ D.43647, pFrameStore_2(D)->frame.frame_store
	strb	r5, [r0, #436]	@ tmp118, pFrameStore_2(D)->top_field.structure
	strb	r4, [r0, #472]	@ tmp122, pFrameStore_2(D)->bottom_field.structure
	strb	lr, [r0, #437]	@ D.43645, pFrameStore_2(D)->top_field.is_long_term
	strb	lr, [r0, #473]	@ D.43645, pFrameStore_2(D)->bottom_field.is_long_term
	strb	ip, [r0, #438]	@ D.43645, pFrameStore_2(D)->top_field.is_short_term
	strb	ip, [r0, #474]	@ D.43645, pFrameStore_2(D)->bottom_field.is_short_term
	str	r1, [r0, #456]	@ D.43646, pFrameStore_2(D)->top_field.err_level
	str	r1, [r0, #492]	@ D.43646, pFrameStore_2(D)->bottom_field.err_level
	str	r2, [r0, #460]	@ D.43646, pFrameStore_2(D)->top_field.pic_type
	str	r2, [r0, #496]	@ D.43646, pFrameStore_2(D)->bottom_field.pic_type
	str	r3, [r0, #440]	@ D.43647, pFrameStore_2(D)->top_field.frame_store
	str	r3, [r0, #476]	@ D.43647, pFrameStore_2(D)->bottom_field.frame_store
	ldmfd	sp!, {r4, r5, pc}	@
	.fnend
	.size	SplitFrmToFlds, .-SplitFrmToFlds
	.align	2
	.global	CombineFldsToFrm
	.type	CombineFldsToFrm, %function
CombineFldsToFrm:
	.fnstart
	@ args = 0, pretend = 0, frame = 0
	@ frame_needed = 0, uses_anonymous_args = 0
	ldr	r2, [r0, #488]	@ pFrameStore_4(D)->bottom_field.poc, pFrameStore_4(D)->bottom_field.poc
	ldr	r1, [r0, #452]	@ pFrameStore_4(D)->top_field.poc, pFrameStore_4(D)->top_field.poc
	stmfd	sp!, {r4, r5, lr}	@,
	.save {r4, r5, lr}
	cmp	r2, r1	@ pFrameStore_4(D)->bottom_field.poc, pFrameStore_4(D)->top_field.poc
	ldr	r3, [r0, #492]	@ pFrameStore_4(D)->bottom_field.err_level, pFrameStore_4(D)->bottom_field.err_level
	mov	lr, #3	@ tmp133,
	ldr	r5, [r0, #456]	@ pFrameStore_4(D)->top_field.err_level, pFrameStore_4(D)->top_field.err_level
	movge	r2, r1	@ D.43650, pFrameStore_4(D)->top_field.poc
	ldrb	r4, [r0, #473]	@ zero_extendqisi2	@ pFrameStore_4(D)->bottom_field.is_long_term, pFrameStore_4(D)->bottom_field.is_long_term
	ldr	ip, [r0, #440]	@ pFrameStore_4(D)->top_field.frame_store, pFrameStore_4(D)->top_field.frame_store
	add	r3, r3, r5	@ D.43651, pFrameStore_4(D)->bottom_field.err_level, pFrameStore_4(D)->top_field.err_level
	cmp	r4, #0	@ pFrameStore_4(D)->bottom_field.is_long_term,
	strb	lr, [r0, #400]	@ tmp133, pFrameStore_4(D)->frame.structure
	mov	r3, r3, lsr #1	@ D.43651, D.43651,
	str	r2, [r0, #416]	@ D.43650, pFrameStore_4(D)->frame.poc
	str	ip, [r0, #404]	@ pFrameStore_4(D)->top_field.frame_store, pFrameStore_4(D)->frame.frame_store
	str	r2, [r0, #524]	@ D.43650, pFrameStore_4(D)->poc
	str	r3, [r0, #420]	@ D.43651, pFrameStore_4(D)->frame.err_level
	beq	.L530	@,
	ldrb	r2, [r0, #437]	@ zero_extendqisi2	@ pFrameStore_4(D)->top_field.is_long_term, pFrameStore_4(D)->top_field.is_long_term
	cmp	r2, #0	@ pFrameStore_4(D)->top_field.is_long_term,
	bne	.L531	@,
.L530:
	ldr	r2, [r0, #472]	@ *pFrameStore_4(D), *pFrameStore_4(D)
	mov	r1, #0	@ tmp141,
	strb	r1, [r0, #401]	@ tmp141, pFrameStore_4(D)->frame.is_long_term
	bic	r2, r2, #-16777216	@ D.43651, *pFrameStore_4(D),
	bic	r2, r2, #255	@ D.43651, D.43651,
	cmp	r2, r1	@ D.43651,
	beq	.L535	@,
	ldr	r2, [r0, #436]	@ *pFrameStore_4(D), *pFrameStore_4(D)
	bic	r2, r2, #-16777216	@ D.43651, *pFrameStore_4(D),
	bic	r2, r2, #255	@ D.43651, D.43651,
	cmp	r2, #0	@ D.43651,
	movne	ip, #1	@ D.43653,
	bne	.L533	@,
.L535:
	mov	ip, #0	@ D.43653,
.L533:
	ldr	r2, [r0, #496]	@ pFrameStore_4(D)->bottom_field.pic_type, pFrameStore_4(D)->bottom_field.pic_type
	ldr	r1, [r0, #460]	@ pFrameStore_4(D)->top_field.pic_type, pFrameStore_4(D)->top_field.pic_type
	str	r3, [r0, #544]	@ D.43651, pFrameStore_4(D)->err_level
	cmp	r2, r1	@ pFrameStore_4(D)->bottom_field.pic_type, pFrameStore_4(D)->top_field.pic_type
	strb	ip, [r0, #402]	@ D.43653, pFrameStore_4(D)->frame.is_short_term
	movcs	r3, r2	@ D.43651, pFrameStore_4(D)->bottom_field.pic_type
	movcc	r3, r1	@ D.43651, pFrameStore_4(D)->top_field.pic_type
	str	r3, [r0, #424]	@ D.43651, pFrameStore_4(D)->frame.pic_type
	str	r3, [r0, #540]	@ D.43651, pFrameStore_4(D)->pic_type
	ldmfd	sp!, {r4, r5, pc}	@
.L531:
	mov	r1, #1	@ tmp152,
	strb	r1, [r0, #401]	@ tmp152, pFrameStore_4(D)->frame.is_long_term
	b	.L535	@
	.fnend
	.size	CombineFldsToFrm, .-CombineFldsToFrm
	.align	2
	.global	GetAPC
	.type	GetAPC, %function
GetAPC:
	.fnstart
	@ args = 0, pretend = 0, frame = 0
	@ frame_needed = 0, uses_anonymous_args = 0
	stmfd	sp!, {r4, r5, r6, r7, r8, r9, r10, lr}	@,
	.save {r4, r5, r6, r7, r8, r9, r10, lr}
	subs	r7, r1, #0	@ pFrameStore, pFrameStore
	beq	.L554	@,
	cmp	r2, #1	@ structure,
	mov	r5, r0	@ pH264Ctx, pH264Ctx
	beq	.L548	@,
	cmp	r2, #2	@ structure,
	beq	.L549	@,
	ldr	r8, [r7, #452]	@ bottompoc, pFrameStore_7(D)->top_field.poc
	ldr	r9, [r7, #488]	@ bottompoc, pFrameStore_7(D)->bottom_field.poc
.L550:
	add	r6, r5, #24576	@ tmp166, pH264Ctx,
	ldr	ip, [r6, #2324]	@ D.43669, pH264Ctx_15(D)->APC.size
	cmp	ip, #0	@ D.43669,
	beq	.L557	@,
	ldr	r4, [r6, #2068]	@ pH264Ctx_15(D)->APC.is_used, pH264Ctx_15(D)->APC.is_used
	cmp	r4, #0	@ pH264Ctx_15(D)->APC.is_used,
	addne	r3, r5, #26624	@ ivtmp.681, pH264Ctx,
	movne	r4, #0	@ i,
	addne	r3, r3, #20	@ ivtmp.681, ivtmp.681,
	bne	.L553	@,
	b	.L551	@
.L556:
	ldr	r2, [r3, #4]!	@ MEM[base: _46, offset: 0B], MEM[base: _46, offset: 0B]
	cmp	r2, #0	@ MEM[base: _46, offset: 0B],
	beq	.L551	@,
.L553:
	add	r4, r4, #1	@ i, i,
	cmp	r4, ip	@ i, D.43669
	bne	.L556	@,
.L557:
	mvn	r0, #0	@ D.43667,
	ldmfd	sp!, {r4, r5, r6, r7, r8, r9, r10, pc}	@
.L549:
	ldr	r8, [r7, #488]	@ bottompoc, pFrameStore_7(D)->bottom_field.poc
	mov	r9, r8	@ bottompoc, bottompoc
	b	.L550	@
.L551:
	add	r3, r5, #49152	@ tmp145, pH264Ctx,
	ldr	r1, [r7, #508]	@, pFrameStore_7(D)->logic_fs_id
	ldr	r0, [r3, #3688]	@, pH264Ctx_15(D)->ChanID
	bl	FSP_GetLogicFs	@
	cmp	r0, #0	@ pstLogicFs
	beq	.L554	@,
	ldr	r3, [r0, #408]	@ pstLogicFs_22->pstDecodeFs, pstLogicFs_22->pstDecodeFs
	cmp	r3, #0	@ pstLogicFs_22->pstDecodeFs,
	beq	.L554	@,
	add	r5, r5, r4, lsl #2	@ D.43675, pH264Ctx, i,
	mov	r3, #1	@ tmp151,
	add	r5, r5, #24576	@ tmp150, D.43675,
	str	r3, [r5, #2068]	@ tmp151, MEM[(struct H264_CTX_S *)_48 + 26644B]
	ldr	r3, [r0, #408]	@ pstLogicFs_22->pstDecodeFs, pstLogicFs_22->pstDecodeFs
	ldr	r3, [r3, #4]	@ _25->PhyFsID, _25->PhyFsID
	str	r8, [r5, #2196]	@ bottompoc, MEM[(struct H264_CTX_S *)_48 + 26772B]
	str	r9, [r5, #2260]	@ bottompoc, MEM[(struct H264_CTX_S *)_48 + 26836B]
	str	r3, [r5, #2132]	@ _25->PhyFsID, MEM[(struct H264_CTX_S *)_48 + 26708B]
	ldr	r3, [r6, #2328]	@ D.43669, pH264Ctx_15(D)->APC.used_size
	cmp	r3, #15	@ D.43669,
	addls	r3, r3, #1	@ D.43668, D.43669,
	movhi	r3, #16	@ D.43668,
	str	r3, [r6, #2328]	@ D.43668, pH264Ctx_15(D)->APC.used_size
	bl	vfmw_dprint_nothing	@
	str	r4, [r7, #552]	@ i, pFrameStore_7(D)->apc_idc
	mov	r0, #0	@ D.43667,
	ldmfd	sp!, {r4, r5, r6, r7, r8, r9, r10, pc}	@
.L548:
	ldr	r8, [r7, #452]	@ bottompoc, pFrameStore_7(D)->top_field.poc
	mov	r9, r8	@ bottompoc, bottompoc
	b	.L550	@
.L554:
	bl	vfmw_dprint_nothing	@
	mvn	r0, #0	@ D.43667,
	ldmfd	sp!, {r4, r5, r6, r7, r8, r9, r10, pc}	@
	.fnend
	.size	GetAPC, .-GetAPC
	.align	2
	.global	SlidingWinMark
	.type	SlidingWinMark, %function
SlidingWinMark:
	.fnstart
	@ args = 0, pretend = 0, frame = 0
	@ frame_needed = 0, uses_anonymous_args = 0
	@ link register save eliminated.
	add	r2, r0, #24576	@ tmp116, pH264Ctx,
	add	r3, r0, #16384	@ tmp118, pH264Ctx,
	ldr	r1, [r2, #2060]	@ pH264Ctx_2(D)->DPB.ltref_frames_in_buffer, pH264Ctx_2(D)->DPB.ltref_frames_in_buffer
	ldr	r3, [r3, #1156]	@ pH264Ctx_2(D)->CurrSPS.num_ref_frames, pH264Ctx_2(D)->CurrSPS.num_ref_frames
	ldr	r2, [r2, #2056]	@ pH264Ctx_2(D)->DPB.ref_frames_in_buffer, pH264Ctx_2(D)->DPB.ref_frames_in_buffer
	rsb	r3, r1, r3	@ D.43678, pH264Ctx_2(D)->DPB.ltref_frames_in_buffer, pH264Ctx_2(D)->CurrSPS.num_ref_frames
	cmp	r2, r3	@ pH264Ctx_2(D)->DPB.ref_frames_in_buffer, D.43678
	bxne	lr	@
	b	SlidingWinMark.part.2	@
	.fnend
	.size	SlidingWinMark, .-SlidingWinMark
	.align	2
	.global	SimpleSlideDPB
	.type	SimpleSlideDPB, %function
SimpleSlideDPB:
	.fnstart
	@ args = 0, pretend = 0, frame = 0
	@ frame_needed = 0, uses_anonymous_args = 0
	add	r3, r0, #24576	@ tmp116, pH264Ctx,
	stmfd	sp!, {r4, lr}	@,
	.save {r4, lr}
	mov	r4, r0	@ pH264Ctx, pH264Ctx
	ldr	r1, [r3, #2052]	@ pH264Ctx_4(D)->DPB.used_size, pH264Ctx_4(D)->DPB.used_size
	ldr	r2, [r3, #2048]	@ pH264Ctx_4(D)->DPB.size, pH264Ctx_4(D)->DPB.size
	cmp	r1, r2	@ pH264Ctx_4(D)->DPB.used_size, pH264Ctx_4(D)->DPB.size
	bcs	.L580	@,
.L574:
	add	r0, r4, #49152	@ tmp125, pH264Ctx,
	mov	r2, #0	@ tmp126,
	ldr	r3, [r0, #976]	@ pH264Ctx_4(D)->CurrPic.nal_ref_idc, pH264Ctx_4(D)->CurrPic.nal_ref_idc
	strb	r2, [r0, #556]	@ tmp126, pH264Ctx_4(D)->CurrPic.is_long_term
	cmp	r3, r2	@ pH264Ctx_4(D)->CurrPic.nal_ref_idc,
	movne	r3, #1	@ tmp133,
	strneb	r3, [r0, #557]	@ tmp133, pH264Ctx_4(D)->CurrPic.is_short_term
	ldmfd	sp!, {r4, pc}	@
.L580:
	ldr	r1, [r3, #1856]	@, pH264Ctx_4(D)->DPB.fs
	bl	UnMarkFrameStoreRef	@
	mov	r1, #0	@,
	mov	r0, r4	@, pH264Ctx
	bl	RemoveFrameStoreOutDPB	@
	b	.L574	@
	.fnend
	.size	SimpleSlideDPB, .-SimpleSlideDPB
	.align	2
	.global	ReleaseNAL
	.type	ReleaseNAL, %function
ReleaseNAL:
	.fnstart
	@ args = 0, pretend = 0, frame = 0
	@ frame_needed = 0, uses_anonymous_args = 0
	cmp	r1, #0	@ pNalu
	beq	.L590	@,
	stmfd	sp!, {r4, r5, r6, r7, r8, lr}	@,
	.save {r4, r5, r6, r7, r8, lr}
	mov	r3, #0	@ tmp118,
	add	r8, r1, #56	@ D.43703, pNalu,
	mov	r7, r0	@ ChanID, ChanID
	mov	r5, r1	@ pNalu, pNalu
	mov	r6, r3	@ tmp130, tmp118
	mov	r4, r1	@ ivtmp.702, pNalu
	strb	r3, [r1, #1]	@ tmp118, pNalu_3(D)->is_valid
	strb	r3, [r1, #3]	@ tmp118, pNalu_3(D)->nal_integ
.L584:
	ldr	r3, [r4, #8]	@ MEM[base: _26, offset: 8B], MEM[base: _26, offset: 8B]
	mov	r0, r7	@, ChanID
	cmp	r3, #0	@ MEM[base: _26, offset: 8B],
	beq	.L583	@,
	ldr	r1, [r4, #32]	@, MEM[base: _26, offset: 32B]
	bl	SM_ReleaseStreamSeg	@
	bl	vfmw_dprint_nothing	@
	str	r6, [r4, #8]	@ tmp130, MEM[base: _26, offset: 8B]
	str	r6, [r4, #24]	@ tmp130, MEM[base: _26, offset: 24B]
	str	r6, [r4, #12]	@ tmp130, MEM[base: _26, offset: 12B]
.L583:
	add	r4, r4, #28	@ ivtmp.702, ivtmp.702,
	cmp	r4, r8	@ ivtmp.702, D.43703
	bne	.L584	@,
	mov	r3, #0	@ tmp127,
	strb	r3, [r5]	@ tmp127, pNalu_3(D)->nal_used_segment
	str	r3, [r5, #68]	@ tmp127, pNalu_3(D)->nal_segment
	ldmfd	sp!, {r4, r5, r6, r7, r8, pc}	@
.L590:
	b	vfmw_dprint_nothing	@
	.fnend
	.size	ReleaseNAL, .-ReleaseNAL
	.align	2
	.global	ClearCurrNal
	.type	ClearCurrNal, %function
ClearCurrNal:
	.fnstart
	@ args = 0, pretend = 0, frame = 0
	@ frame_needed = 0, uses_anonymous_args = 0
	ldr	r1, [r0, #368]	@ D.43706, pH264Ctx_3(D)->pCurrNal
	cmp	r1, #0	@ D.43706,
	beq	.L597	@,
	add	r3, r0, #49152	@ tmp115, pH264Ctx,
	stmfd	sp!, {r4, lr}	@,
	.save {r4, lr}
	mov	r4, r0	@ pH264Ctx, pH264Ctx
	ldr	r0, [r3, #3688]	@, pH264Ctx_3(D)->ChanID
	bl	ReleaseNAL	@
	mov	r3, #0	@ tmp117,
	mov	r0, #0	@,
	str	r3, [r4, #368]	@ tmp117, pH264Ctx_3(D)->pCurrNal
	ldmfd	sp!, {r4, pc}	@
.L597:
	mov	r0, #0	@,
	bx	lr	@
	.fnend
	.size	ClearCurrNal, .-ClearCurrNal
	.align	2
	.global	ClearCurrSlice
	.type	ClearCurrSlice, %function
ClearCurrSlice:
	.fnstart
	@ args = 0, pretend = 0, frame = 0
	@ frame_needed = 0, uses_anonymous_args = 0
	stmfd	sp!, {r4, r5, r6, lr}	@,
	.save {r4, r5, r6, lr}
	mov	r5, r0	@ pH264Ctx, pH264Ctx
	bl	vfmw_dprint_nothing	@
	ldr	r1, [r5, #368]	@ D.43711, pH264Ctx_3(D)->pCurrNal
	add	r4, r5, #49152	@ tmp127, pH264Ctx,
	cmp	r1, #0	@ D.43711,
	beq	.L599	@,
	ldr	r0, [r4, #3688]	@, pH264Ctx_3(D)->ChanID
	bl	ReleaseNAL	@
	mov	r3, #0	@ tmp119,
	str	r3, [r5, #368]	@ tmp119, pH264Ctx_3(D)->pCurrNal
.L599:
	ldr	r3, [r4, #3644]	@ pH264Ctx_3(D)->TotalSlice, pH264Ctx_3(D)->TotalSlice
	mov	r0, #0	@,
	add	r3, r3, #1	@ D.43710, pH264Ctx_3(D)->TotalSlice,
	str	r3, [r4, #3644]	@ D.43710, pH264Ctx_3(D)->TotalSlice
	ldmfd	sp!, {r4, r5, r6, pc}	@
	.fnend
	.size	ClearCurrSlice, .-ClearCurrSlice
	.align	2
	.global	ClearAllNal
	.type	ClearAllNal, %function
ClearAllNal:
	.fnstart
	@ args = 0, pretend = 0, frame = 0
	@ frame_needed = 0, uses_anonymous_args = 0
	stmfd	sp!, {r4, r5, r6, lr}	@,
	.save {r4, r5, r6, lr}
	add	r5, r0, #13504	@ D.43729, pH264Ctx,
	add	r5, r5, #24	@ D.43729, D.43729,
	add	r4, r0, #376	@ ivtmp.720, pH264Ctx,
	add	r6, r0, #49152	@ tmp156, pH264Ctx,
	b	.L606	@
.L605:
	add	r4, r4, #96	@ ivtmp.720, ivtmp.720,
	cmp	r4, r5	@ ivtmp.720, D.43729
	beq	.L609	@,
.L606:
	ldrb	r3, [r4, #1]	@ zero_extendqisi2	@ MEM[base: _17, offset: 1B], MEM[base: _17, offset: 1B]
	cmp	r3, #1	@ MEM[base: _17, offset: 1B],
	bne	.L605	@,
	mov	r1, r4	@, ivtmp.720
	ldr	r0, [r6, #3688]	@, pH264Ctx_5(D)->ChanID
	add	r4, r4, #96	@ ivtmp.720, ivtmp.720,
	bl	ReleaseNAL	@
	cmp	r4, r5	@ ivtmp.720, D.43729
	bne	.L606	@,
.L609:
	mov	r0, #0	@,
	ldmfd	sp!, {r4, r5, r6, pc}	@
	.fnend
	.size	ClearAllNal, .-ClearAllNal
	.align	2
	.global	ClearAllSlice
	.type	ClearAllSlice, %function
ClearAllSlice:
	.fnstart
	@ args = 0, pretend = 0, frame = 0
	@ frame_needed = 0, uses_anonymous_args = 0
	stmfd	sp!, {r4, r5, r6, r7, r8, lr}	@,
	.save {r4, r5, r6, r7, r8, lr}
	add	r4, r0, #50688	@ ivtmp.729, pH264Ctx,
	add	r5, r0, #51200	@ D.43751, pH264Ctx,
	add	r4, r4, #12	@ ivtmp.729, ivtmp.729,
	add	r5, r5, #44	@ D.43751, D.43751,
	add	r6, r0, #49152	@ tmp132, pH264Ctx,
	mov	r7, #0	@ tmp133,
.L612:
	ldr	r1, [r4, #4]!	@ D.43746, MEM[base: _19, offset: 0B]
	cmp	r1, #0	@ D.43746,
	beq	.L611	@,
	ldr	r0, [r6, #3688]	@, pH264Ctx_5(D)->ChanID
	bl	ReleaseNAL	@
	str	r7, [r4]	@ tmp133, MEM[base: _19, offset: 0B]
.L611:
	cmp	r4, r5	@ ivtmp.729, D.43751
	bne	.L612	@,
	mov	r0, #0	@ tmp127,
	str	r0, [r6, #3612]	@ tmp127, pH264Ctx_5(D)->SliceParaNum
	str	r0, [r6, #3672]	@ tmp127, pH264Ctx_5(D)->MaxBytesReceived
	ldmfd	sp!, {r4, r5, r6, r7, r8, pc}	@
	.fnend
	.size	ClearAllSlice, .-ClearAllSlice
	.align	2
	.global	H264_ClearCurrPic
	.type	H264_ClearCurrPic, %function
H264_ClearCurrPic:
	.fnstart
	@ args = 0, pretend = 0, frame = 0
	@ frame_needed = 0, uses_anonymous_args = 0
	stmfd	sp!, {r4, lr}	@,
	.save {r4, lr}
	mov	r4, r0	@ pH264Ctx, pH264Ctx
	bl	ClearAllSlice	@
	add	r0, r4, #12288	@ tmp117, pH264Ctx,
	add	r3, r4, #20480	@ tmp115, pH264Ctx,
	mov	r2, #0	@ tmp124,
	movw	r1, #23352	@ tmp121,
	ldr	r0, [r0, #1288]	@ pH264Ctx_2(D)->MaxPpsNum, pH264Ctx_2(D)->MaxPpsNum
	movt	r1, 1	@ tmp121,
	mov	ip, #2	@ tmp128,
	str	r1, [r3, #1864]	@ tmp121, pH264Ctx_2(D)->PrevSlice.frame_num
	strb	ip, [r3, #1849]	@ tmp128, pH264Ctx_2(D)->PrevSlice.bottom_field_flag
	mov	r1, #7	@ tmp132,
	str	r0, [r3, #1856]	@ pH264Ctx_2(D)->MaxPpsNum, pH264Ctx_2(D)->PrevSlice.pic_parameter_set_id
	mov	r0, #32	@ tmp135,
	str	r1, [r3, #1860]	@ tmp132, pH264Ctx_2(D)->PrevSlice.nal_ref_idc
	mov	r1, #3	@ tmp139,
	strb	r0, [r3, #1850]	@ tmp135, pH264Ctx_2(D)->PrevSlice.nal_unit_type
	mvn	r0, #0	@ tmp142,
	str	r1, [r3, #1872]	@ tmp139, pH264Ctx_2(D)->PrevSlice.pic_oder_cnt_lsb
	mov	r1, #262144	@ tmp151,
	str	r0, [r3, #1876]	@ tmp142, pH264Ctx_2(D)->PrevSlice.delta_pic_oder_cnt_bottom
	mov	r0, r2	@, tmp124
	str	r1, [r3, #1888]	@ tmp151, pH264Ctx_2(D)->PrevSlice.first_mb_in_slice
	strb	r2, [r3, #1848]	@ tmp124, pH264Ctx_2(D)->PrevSlice.field_pic_flag
	str	r2, [r3, #1880]	@ tmp124, pH264Ctx_2(D)->PrevSlice.delta_pic_order_cnt
	str	r2, [r3, #1884]	@ tmp124, pH264Ctx_2(D)->PrevSlice.delta_pic_order_cnt
	ldmfd	sp!, {r4, pc}	@
	.fnend
	.size	H264_ClearCurrPic, .-H264_ClearCurrPic
	.align	2
	.global	H264_ArrangeVahbMem
	.type	H264_ArrangeVahbMem, %function
H264_ArrangeVahbMem:
	.fnstart
	@ args = 4, pretend = 0, frame = 40
	@ frame_needed = 0, uses_anonymous_args = 0
	stmfd	sp!, {r4, r5, r6, lr}	@,
	.save {r4, r5, r6, lr}
	.pad #40
	sub	sp, sp, #40	@,,
	mov	r4, r1	@ ImgWidth, ImgWidth
	mov	r5, r0	@ pH264Ctx, pH264Ctx
	mov	r1, #36	@,
	add	r0, sp, #4	@ tmp177,,
	mov	r6, r2	@ ImgHeight, ImgHeight
	bl	__memzero	@
	ldr	r2, [r5]	@ D.43760, pH264Ctx_7(D)->pstExtraData
	mov	r3, #0	@ tmp138,
	ldr	r1, [r2, #20]	@ _8->s32DnrDispOutEnable, _8->s32DnrDispOutEnable
	str	r6, [sp, #36]	@ ImgHeight, FspInstCfg.s32DispFsHeight
	ldr	r2, [r2, #32]	@ _8->eCapLevel, _8->eCapLevel
	str	r4, [sp, #16]	@ ImgWidth, FspInstCfg.s32DecFsWidth
	cmp	r2, #24	@ _8->eCapLevel,
	str	r6, [sp, #20]	@ ImgHeight, FspInstCfg.s32DecFsHeight
	strb	r1, [sp, #4]	@ _8->s32DnrDispOutEnable, FspInstCfg.s32DispLoopEnable
	str	r4, [sp, #24]	@ ImgWidth, FspInstCfg.s32TfFsWidth
	str	r6, [sp, #28]	@ ImgHeight, FspInstCfg.s32TfFsHeight
	str	r4, [sp, #32]	@ ImgWidth, FspInstCfg.s32DispFsWidth
	strb	r3, [sp, #5]	@ tmp138, FspInstCfg.s32TfEnable
	strb	r3, [sp, #6]	@ tmp138, FspInstCfg.s32RprEnable
	beq	.L621	@,
	add	r1, r5, #24576	@ tmp144, pH264Ctx,
	ldrb	r2, [sp, #56]	@ zero_extendqisi2	@ D.43758, PmvBlkNum
	strb	r3, [sp, #10]	@ tmp138, FspInstCfg.s32ExpectedTfFsNum
	mov	r0, #5	@ tmp151,
	ldr	r3, [r1, #2048]	@ pH264Ctx_7(D)->DPB.size, pH264Ctx_7(D)->DPB.size
	strb	r0, [sp, #11]	@ tmp151, FspInstCfg.s32ExpectedDispFsNum
	add	r3, r3, #1	@ tmp147, pH264Ctx_7(D)->DPB.size,
	strb	r3, [sp, #9]	@ tmp147, FspInstCfg.s32ExpectedDecFsNum
.L625:
	add	r6, r5, #49152	@ tmp160, pH264Ctx,
	add	r1, sp, #4	@ tmp178,,
	mov	r3, #0	@ tmp154,
	strb	r2, [sp, #12]	@ D.43758, FspInstCfg.s32ExpectedPmvNum
	ldr	r0, [r6, #3688]	@, pH264Ctx_7(D)->ChanID
	mov	r4, #1	@ tmp156,
	strb	r3, [sp, #8]	@ tmp154, FspInstCfg.s32UserDec
	strb	r4, [sp, #7]	@ tmp156, FspInstCfg.s8SubLevelEnable
	bl	FSP_ConfigInstance	@
	cmp	r0, #0	@,
	bne	.L622	@,
	ldr	r1, [r5]	@ D.43760, pH264Ctx_7(D)->pstExtraData
	mov	r3, sp	@,
	ldr	r0, [r6, #3688]	@, pH264Ctx_7(D)->ChanID
	ldr	r2, [r1, #28]	@, _41->s32SyntaxMemSize
	ldr	r1, [r1, #24]	@, _41->s32SyntaxMemAddr
	bl	FSP_PartitionFsMemory	@
	cmp	r0, #0	@,
	moveq	r0, r4	@ D.43759, tmp156
	bne	.L622	@,
.L626:
	add	sp, sp, #40	@,,
	@ sp needed	@
	ldmfd	sp!, {r4, r5, r6, pc}	@
.L621:
	mov	r1, #5	@ tmp173,
	strb	r3, [sp, #9]	@ tmp138, FspInstCfg.s32ExpectedDecFsNum
	strb	r3, [sp, #10]	@ tmp138, FspInstCfg.s32ExpectedTfFsNum
	mov	r2, #1	@ D.43758,
	strb	r1, [sp, #11]	@ tmp173, FspInstCfg.s32ExpectedDispFsNum
	b	.L625	@
.L622:
	bl	vfmw_dprint_nothing	@
	mvn	r0, #19	@ D.43759,
	b	.L626	@
	.fnend
	.size	H264_ArrangeVahbMem, .-H264_ArrangeVahbMem
	.align	2
	.global	RepairList
	.type	RepairList, %function
RepairList:
	.fnstart
	@ args = 0, pretend = 0, frame = 0
	@ frame_needed = 0, uses_anonymous_args = 0
	add	r3, r0, #20480	@ tmp142, pH264Ctx,
	stmfd	sp!, {r4, r5, r6, r7, r8, r9, r10, lr}	@,
	.save {r4, r5, r6, r7, r8, r9, r10, lr}
	mov	r7, r0	@ pH264Ctx, pH264Ctx
	ldrb	r3, [r3, #200]	@ zero_extendqisi2	@ pH264Ctx_17(D)->CurrSlice.slice_type, pH264Ctx_17(D)->CurrSlice.slice_type
	cmp	r3, #1	@ pH264Ctx_17(D)->CurrSlice.slice_type,
	beq	.L630	@,
	bcc	.L645	@,
	cmp	r3, #2	@ pH264Ctx_17(D)->CurrSlice.slice_type,
	bne	.L652	@,
.L646:
	mov	r0, #0	@ D.43820,
	ldmfd	sp!, {r4, r5, r6, r7, r8, r9, r10, pc}	@
.L642:
	mov	r0, r7	@, pH264Ctx
.L652:
	bl	ClearCurrSlice	@
	mvn	r0, #0	@ D.43820,
	ldmfd	sp!, {r4, r5, r6, r7, r8, r9, r10, pc}	@
.L630:
	mov	r0, #2	@ i_list_cnt,
.L631:
	add	r6, r7, #20480	@ ivtmp.775, pH264Ctx,
	add	r4, r7, #26880	@ ivtmp.783, pH264Ctx,
	add	r6, r6, #240	@ ivtmp.775, ivtmp.775,
	add	r4, r4, #156	@ ivtmp.783, ivtmp.783,
	add	r8, r7, #49152	@ tmp161, pH264Ctx,
	mov	r5, #0	@ i_list,
	ldr	r2, [r6, #4]!	@ D.43822, MEM[base: _62, offset: 0B]
	mov	r9, #1	@ tmp160,
	cmp	r2, #0	@ D.43822,
	beq	.L633	@,
.L654:
	ldr	ip, [r4]	@ pRepairPic, MEM[base: _65, offset: 0B]
	cmp	ip, #0	@ pRepairPic,
	bne	.L647	@,
	mov	r1, r4	@ ivtmp.764, ivtmp.783
	mov	r3, ip	@ i, pRepairPic
	b	.L635	@
.L636:
	ldr	lr, [r1, #4]!	@ pRepairPic, MEM[base: _4, offset: 0B]
	cmp	lr, #0	@ pRepairPic,
	bne	.L638	@,
.L635:
	add	r3, r3, #1	@ i, i,
	cmp	r3, r2	@ i, D.43822
	bne	.L636	@,
	ldr	r3, [r7]	@ pH264Ctx_17(D)->pstExtraData, pH264Ctx_17(D)->pstExtraData
	ldr	r3, [r3, #12]	@ _38->s32DecOrderOutput, _38->s32DecOrderOutput
	cmp	r3, #2	@ _38->s32DecOrderOutput,
	bne	.L642	@,
	ldr	lr, [r8, #960]	@ pH264Ctx_17(D)->CurrPic.frame_store, pH264Ctx_17(D)->CurrPic.frame_store
	add	lr, lr, #400	@ pRepairPic, pH264Ctx_17(D)->CurrPic.frame_store,
.L638:
	mov	r1, r4	@ ivtmp.749, ivtmp.783
	mov	r3, #0	@ i,
	b	.L644	@
.L640:
	ldr	ip, [r1, #4]!	@ D.43826, MEM[base: _32, offset: 0B]
.L644:
	add	r3, r3, #1	@ i, i,
	cmp	ip, #0	@ D.43826,
	streq	lr, [r1]	@ pRepairPic, MEM[base: _5, offset: 0B]
	cmp	r3, r2	@ i, D.43822
	bne	.L640	@,
	add	r5, r5, #1	@ i_list, i_list,
	add	r4, r4, #132	@ ivtmp.783, ivtmp.783,
	cmp	r0, r5	@ i_list_cnt, i_list
	bls	.L646	@,
.L653:
	ldr	r2, [r6, #4]!	@ D.43822, MEM[base: _62, offset: 0B]
	cmp	r2, #0	@ D.43822,
	bne	.L654	@,
.L633:
	ldr	r3, [r7]	@ pH264Ctx_17(D)->pstExtraData, pH264Ctx_17(D)->pstExtraData
	ldr	r3, [r3, #12]	@ _21->s32DecOrderOutput, _21->s32DecOrderOutput
	cmp	r3, #2	@ _21->s32DecOrderOutput,
	bne	.L642	@,
	add	r5, r5, #1	@ i_list, i_list,
	str	r9, [r6]	@ tmp160, MEM[base: _62, offset: 0B]
	cmp	r0, r5	@ i_list_cnt, i_list
	ldr	r3, [r8, #960]	@ pH264Ctx_17(D)->CurrPic.frame_store, pH264Ctx_17(D)->CurrPic.frame_store
	add	r4, r4, #132	@ ivtmp.783, ivtmp.783,
	add	r3, r3, #400	@ D.43826, pH264Ctx_17(D)->CurrPic.frame_store,
	str	r3, [r4, #-132]	@ D.43826, MEM[base: _64, offset: 0B]
	bhi	.L653	@,
	b	.L646	@
.L647:
	mov	lr, ip	@ pRepairPic, pRepairPic
	b	.L638	@
.L645:
	mov	r0, #1	@ i_list_cnt,
	b	.L631	@
	.fnend
	.size	RepairList, .-RepairList
	.align	2
	.global	GetShortTermPicPoint
	.type	GetShortTermPicPoint, %function
GetShortTermPicPoint:
	.fnstart
	@ args = 0, pretend = 0, frame = 0
	@ frame_needed = 0, uses_anonymous_args = 0
	add	r3, r0, #20480	@ tmp139, pH264Ctx,
	stmfd	sp!, {r4, r5, lr}	@,
	.save {r4, r5, lr}
	ldrb	r4, [r3, #201]	@ zero_extendqisi2	@ pH264Ctx_6(D)->CurrSlice.field_pic_flag, pH264Ctx_6(D)->CurrSlice.field_pic_flag
	cmp	r4, #0	@ pH264Ctx_6(D)->CurrSlice.field_pic_flag,
	beq	.L656	@,
	ldrb	r3, [r3, #202]	@ zero_extendqisi2	@ pH264Ctx_6(D)->CurrSlice.bottom_field_flag, pH264Ctx_6(D)->CurrSlice.bottom_field_flag
	cmp	r3, #0	@ pH264Ctx_6(D)->CurrSlice.bottom_field_flag,
	movne	r4, #2	@ structure,
	moveq	r4, #1	@ structure,
.L656:
	add	r3, r0, #24576	@ tmp145, pH264Ctx,
	ldr	r5, [r3, #2056]	@ D.43840, pH264Ctx_6(D)->DPB.ref_frames_in_buffer
	cmp	r5, #0	@ D.43840,
	beq	.L664	@,
	add	r3, r0, #26368	@ ivtmp.790, pH264Ctx,
	mov	r2, #0	@ i,
	add	r3, r3, #128	@ ivtmp.790, ivtmp.790,
	b	.L661	@
.L675:
	ldrb	ip, [r0, #2]	@ zero_extendqisi2	@ _25->is_reference, _25->is_reference
	cmp	ip, #3	@ _25->is_reference,
	beq	.L673	@,
.L659:
	add	r2, r2, #1	@ i, i,
	add	r3, r3, #4	@ ivtmp.790, ivtmp.790,
	cmp	r2, r5	@ i, D.43840
	beq	.L674	@,
.L661:
	cmp	r4, #0	@ structure,
	ldr	r0, [r3]	@ D.43837,* ivtmp.790
	beq	.L675	@,
	ldrb	lr, [r0, #2]	@ zero_extendqisi2	@ D.43839, _10->is_reference
	tst	lr, #1	@ D.43839,
	beq	.L660	@,
	ldr	ip, [r0, #436]	@ *_10, *_10
	bic	ip, ip, #-16777216	@ D.43840, *_10,
	bic	ip, ip, #255	@ D.43840, D.43840,
	cmp	ip, #65536	@ D.43840,
	beq	.L676	@,
.L660:
	tst	lr, #2	@ D.43839,
	beq	.L659	@,
	ldr	ip, [r0, #472]	@ *_10, *_10
	bic	ip, ip, #-16777216	@ D.43840, *_10,
	bic	ip, ip, #255	@ D.43840, D.43840,
	cmp	ip, #65536	@ D.43840,
	bne	.L659	@,
	ldr	ip, [r0, #484]	@ _10->bottom_field.pic_num, _10->bottom_field.pic_num
	cmp	ip, r1	@ _10->bottom_field.pic_num, picNum
	bne	.L659	@,
	add	r0, r0, #472	@ D.43838, D.43837,
	ldmfd	sp!, {r4, r5, pc}	@
.L673:
	ldr	ip, [r0, #400]	@ *_25, *_25
	bic	ip, ip, #-16777216	@ D.43840, *_25,
	bic	ip, ip, #255	@ D.43840, D.43840,
	cmp	ip, #65536	@ D.43840,
	bne	.L659	@,
	ldr	ip, [r0, #412]	@ _25->frame.pic_num, _25->frame.pic_num
	cmp	ip, r1	@ _25->frame.pic_num, picNum
	bne	.L659	@,
	add	r0, r0, #400	@ D.43838, D.43837,
	ldmfd	sp!, {r4, r5, pc}	@
.L676:
	ldr	ip, [r0, #448]	@ _10->top_field.pic_num, _10->top_field.pic_num
	cmp	ip, r1	@ _10->top_field.pic_num, picNum
	bne	.L660	@,
	add	r0, r0, #436	@ D.43838, D.43837,
	ldmfd	sp!, {r4, r5, pc}	@
.L674:
	mov	r0, #0	@ D.43838,
	ldmfd	sp!, {r4, r5, pc}	@
.L664:
	mov	r0, r5	@ D.43838, D.43840
	ldmfd	sp!, {r4, r5, pc}	@
	.fnend
	.size	GetShortTermPicPoint, .-GetShortTermPicPoint
	.align	2
	.global	GetLongTermPicPoint
	.type	GetLongTermPicPoint, %function
GetLongTermPicPoint:
	.fnstart
	@ args = 0, pretend = 0, frame = 0
	@ frame_needed = 0, uses_anonymous_args = 0
	add	r3, r0, #20480	@ tmp139, pH264Ctx,
	stmfd	sp!, {r4, r5, lr}	@,
	.save {r4, r5, lr}
	ldrb	r4, [r3, #201]	@ zero_extendqisi2	@ pH264Ctx_6(D)->CurrSlice.field_pic_flag, pH264Ctx_6(D)->CurrSlice.field_pic_flag
	cmp	r4, #0	@ pH264Ctx_6(D)->CurrSlice.field_pic_flag,
	beq	.L678	@,
	ldrb	r3, [r3, #202]	@ zero_extendqisi2	@ pH264Ctx_6(D)->CurrSlice.bottom_field_flag, pH264Ctx_6(D)->CurrSlice.bottom_field_flag
	cmp	r3, #0	@ pH264Ctx_6(D)->CurrSlice.bottom_field_flag,
	movne	r4, #2	@ structure,
	moveq	r4, #1	@ structure,
.L678:
	add	r3, r0, #24576	@ tmp145, pH264Ctx,
	ldr	r5, [r3, #2060]	@ D.43854, pH264Ctx_6(D)->DPB.ltref_frames_in_buffer
	cmp	r5, #0	@ D.43854,
	beq	.L686	@,
	add	r3, r0, #26368	@ ivtmp.797, pH264Ctx,
	mov	r2, #0	@ i,
	add	r3, r3, #192	@ ivtmp.797, ivtmp.797,
	b	.L683	@
.L697:
	ldrb	ip, [r0, #2]	@ zero_extendqisi2	@ _25->is_reference, _25->is_reference
	cmp	ip, #3	@ _25->is_reference,
	beq	.L695	@,
.L681:
	add	r2, r2, #1	@ i, i,
	add	r3, r3, #4	@ ivtmp.797, ivtmp.797,
	cmp	r2, r5	@ i, D.43854
	beq	.L696	@,
.L683:
	cmp	r4, #0	@ structure,
	ldr	r0, [r3]	@ D.43851,* ivtmp.797
	beq	.L697	@,
	ldrb	lr, [r0, #2]	@ zero_extendqisi2	@ D.43853, _10->is_reference
	tst	lr, #1	@ D.43853,
	beq	.L682	@,
	ldr	ip, [r0, #436]	@ *_10, *_10
	bic	ip, ip, #-16777216	@ D.43854, *_10,
	bic	ip, ip, #255	@ D.43854, D.43854,
	cmp	ip, #256	@ D.43854,
	beq	.L698	@,
.L682:
	tst	lr, #2	@ D.43853,
	beq	.L681	@,
	ldr	ip, [r0, #472]	@ *_10, *_10
	bic	ip, ip, #-16777216	@ D.43854, *_10,
	bic	ip, ip, #255	@ D.43854, D.43854,
	cmp	ip, #256	@ D.43854,
	bne	.L681	@,
	ldr	ip, [r0, #480]	@ _10->bottom_field.long_term_pic_num, _10->bottom_field.long_term_pic_num
	cmp	ip, r1	@ _10->bottom_field.long_term_pic_num, LongtermPicNum
	bne	.L681	@,
	add	r0, r0, #472	@ D.43852, D.43851,
	ldmfd	sp!, {r4, r5, pc}	@
.L695:
	ldr	ip, [r0, #400]	@ *_25, *_25
	bic	ip, ip, #-16777216	@ D.43854, *_25,
	bic	ip, ip, #255	@ D.43854, D.43854,
	cmp	ip, #256	@ D.43854,
	bne	.L681	@,
	ldr	ip, [r0, #408]	@ _25->frame.long_term_pic_num, _25->frame.long_term_pic_num
	cmp	ip, r1	@ _25->frame.long_term_pic_num, LongtermPicNum
	bne	.L681	@,
	add	r0, r0, #400	@ D.43852, D.43851,
	ldmfd	sp!, {r4, r5, pc}	@
.L698:
	ldr	ip, [r0, #444]	@ _10->top_field.long_term_pic_num, _10->top_field.long_term_pic_num
	cmp	ip, r1	@ _10->top_field.long_term_pic_num, LongtermPicNum
	bne	.L682	@,
	add	r0, r0, #436	@ D.43852, D.43851,
	ldmfd	sp!, {r4, r5, pc}	@
.L696:
	mov	r0, #0	@ D.43852,
	ldmfd	sp!, {r4, r5, pc}	@
.L686:
	mov	r0, r5	@ D.43852, D.43854
	ldmfd	sp!, {r4, r5, pc}	@
	.fnend
	.size	GetLongTermPicPoint, .-GetLongTermPicPoint
	.align	2
	.global	ReorderSTList
	.type	ReorderSTList, %function
ReorderSTList:
	.fnstart
	@ args = 4, pretend = 0, frame = 0
	@ frame_needed = 0, uses_anonymous_args = 0
	stmfd	sp!, {r4, r5, r6, r7, r8, lr}	@,
	.save {r4, r5, r6, r7, r8, lr}
	mov	r5, r1	@ RefPicListX, RefPicListX
	ldr	r7, [sp, #24]	@ refIdxLX, refIdxLX
	mov	r1, r3	@, picNumLX
	mov	r8, r2	@ num_ref_idx_lX_active_minus1, num_ref_idx_lX_active_minus1
	mov	r6, r3	@ picNumLX, picNumLX
	bl	GetShortTermPicPoint	@
	add	r2, r8, #1	@ cIdx, num_ref_idx_lX_active_minus1,
	ldr	r4, [r7]	@ D.43885, *refIdxLX_14(D)
	cmp	r2, r4	@ cIdx, D.43885
	ble	.L700	@,
	add	lr, r5, r2, lsl #2	@ ivtmp.816, RefPicListX, cIdx,
	mov	ip, r2	@ cIdx, cIdx
.L701:
	ldr	r4, [lr, #-4]!	@ MEM[base: _47, offset: 0B], MEM[base: _47, offset: 0B]
	sub	ip, ip, #1	@ cIdx, cIdx,
	str	r4, [lr, #4]	@ MEM[base: _47, offset: 0B], MEM[base: _47, offset: 4B]
	ldr	r4, [r7]	@ D.43885, *refIdxLX_14(D)
	cmp	r4, ip	@ D.43885, cIdx
	blt	.L701	@,
.L700:
	add	r3, r4, #1	@ D.43885, D.43885,
	str	r3, [r7]	@ D.43885, *refIdxLX_14(D)
	str	r0, [r5, r4, asl #2]	@ picLX, *_31
	ldr	ip, [r7]	@ nIdx, *refIdxLX_14(D)
	cmp	r2, ip	@ cIdx, nIdx
	ldmltfd	sp!, {r4, r5, r6, r7, r8, pc}	@
	add	r4, r5, ip, lsl #2	@ ivtmp.807, RefPicListX, nIdx,
	mov	lr, ip	@ nIdx, nIdx
.L705:
	ldr	r0, [r4], #4	@ D.43886, MEM[base: _61, offset: 0B]
	add	ip, ip, #1	@ nIdx, nIdx,
	cmp	r0, #0	@ D.43886,
	beq	.L703	@,
	ldrb	r3, [r0, #1]	@ zero_extendqisi2	@ _37->is_long_term, _37->is_long_term
	cmp	r3, #0	@ _37->is_long_term,
	bne	.L704	@,
	ldr	r3, [r0, #12]	@ _37->pic_num, _37->pic_num
	cmp	r3, r6	@ _37->pic_num, picNumLX
	beq	.L703	@,
.L704:
	str	r0, [r5, lr, asl #2]	@ D.43886, *_43
	add	lr, lr, #1	@ nIdx, nIdx,
.L703:
	cmp	r2, ip	@ cIdx, nIdx
	bge	.L705	@,
	ldmfd	sp!, {r4, r5, r6, r7, r8, pc}	@
	.fnend
	.size	ReorderSTList, .-ReorderSTList
	.align	2
	.global	ReorderLTList
	.type	ReorderLTList, %function
ReorderLTList:
	.fnstart
	@ args = 4, pretend = 0, frame = 0
	@ frame_needed = 0, uses_anonymous_args = 0
	stmfd	sp!, {r4, r5, r6, r7, r8, lr}	@,
	.save {r4, r5, r6, r7, r8, lr}
	mov	r5, r1	@ RefPicListX, RefPicListX
	ldr	r7, [sp, #24]	@ refIdxLX, refIdxLX
	mov	r1, r3	@, LongTermPicNum
	mov	r8, r2	@ num_ref_idx_lX_active_minus1, num_ref_idx_lX_active_minus1
	mov	r6, r3	@ LongTermPicNum, LongTermPicNum
	bl	GetLongTermPicPoint	@
	add	r2, r8, #1	@ cIdx, num_ref_idx_lX_active_minus1,
	ldr	r4, [r7]	@ D.43920, *refIdxLX_14(D)
	cmp	r2, r4	@ cIdx, D.43920
	ble	.L714	@,
	add	lr, r5, r2, lsl #2	@ ivtmp.844, RefPicListX, cIdx,
	mov	ip, r2	@ cIdx, cIdx
.L715:
	ldr	r4, [lr, #-4]!	@ MEM[base: _47, offset: 0B], MEM[base: _47, offset: 0B]
	sub	ip, ip, #1	@ cIdx, cIdx,
	str	r4, [lr, #4]	@ MEM[base: _47, offset: 0B], MEM[base: _47, offset: 4B]
	ldr	r4, [r7]	@ D.43920, *refIdxLX_14(D)
	cmp	r4, ip	@ D.43920, cIdx
	blt	.L715	@,
.L714:
	add	r3, r4, #1	@ D.43920, D.43920,
	str	r3, [r7]	@ D.43920, *refIdxLX_14(D)
	str	r0, [r5, r4, asl #2]	@ picLX, *_31
	ldr	ip, [r7]	@ nIdx, *refIdxLX_14(D)
	cmp	r2, ip	@ cIdx, nIdx
	ldmltfd	sp!, {r4, r5, r6, r7, r8, pc}	@
	add	r4, r5, ip, lsl #2	@ ivtmp.835, RefPicListX, nIdx,
	mov	lr, ip	@ nIdx, nIdx
.L719:
	ldr	r0, [r4], #4	@ D.43921, MEM[base: _61, offset: 0B]
	add	ip, ip, #1	@ nIdx, nIdx,
	cmp	r0, #0	@ D.43921,
	beq	.L717	@,
	ldrb	r3, [r0, #1]	@ zero_extendqisi2	@ _37->is_long_term, _37->is_long_term
	cmp	r3, #0	@ _37->is_long_term,
	beq	.L718	@,
	ldr	r3, [r0, #8]	@ _37->long_term_pic_num, _37->long_term_pic_num
	cmp	r3, r6	@ _37->long_term_pic_num, LongTermPicNum
	beq	.L717	@,
.L718:
	str	r0, [r5, lr, asl #2]	@ D.43921, *_43
	add	lr, lr, #1	@ nIdx, nIdx,
.L717:
	cmp	r2, ip	@ cIdx, nIdx
	bge	.L719	@,
	ldmfd	sp!, {r4, r5, r6, r7, r8, pc}	@
	.fnend
	.size	ReorderLTList, .-ReorderLTList
	.align	2
	.global	ReorderRefPiclist
	.type	ReorderRefPiclist, %function
ReorderRefPiclist:
	.fnstart
	@ args = 12, pretend = 0, frame = 24
	@ frame_needed = 0, uses_anonymous_args = 0
	add	r2, r0, #20480	@ tmp169, pH264Ctx,
	mov	ip, #0	@ tmp167,
	stmfd	sp!, {r4, r5, r6, r7, r8, r9, r10, fp, lr}	@,
	.save {r4, r5, r6, r7, r8, r9, r10, fp, lr}
	.pad #36
	sub	sp, sp, #36	@,,
	ldrb	lr, [r2, #201]	@ zero_extendqisi2	@ pH264Ctx_14(D)->CurrSlice.field_pic_flag, pH264Ctx_14(D)->CurrSlice.field_pic_flag
	mov	r8, #2208	@ tmp178,
	str	ip, [sp, #28]	@ tmp167, refIdxLX
	mov	r6, #4000	@ tmp185,
	cmp	lr, ip	@ pH264Ctx_14(D)->CurrSlice.field_pic_flag,
	add	lr, r0, #12288	@ tmp176, pH264Ctx,
	ldr	ip, [sp, #72]	@ reordering_of_pic_nums_idc, reordering_of_pic_nums_idc
	ldr	r5, [r2, #212]	@ pH264Ctx_14(D)->CurrSlice.pic_parameter_set_id, pH264Ctx_14(D)->CurrSlice.pic_parameter_set_id
	ldr	r9, [lr, #1296]	@ pH264Ctx_14(D)->PPS, pH264Ctx_14(D)->PPS
	beq	.L731	@,
	ldr	r2, [r2, #220]	@ pH264Ctx_14(D)->CurrSlice.frame_num, pH264Ctx_14(D)->CurrSlice.frame_num
	mov	r4, #2	@ maxPicNum,
	ldr	r7, [lr, #1292]	@ pH264Ctx_14(D)->SPS, pH264Ctx_14(D)->SPS
	mla	lr, r8, r5, r9	@ tmp179, tmp178, pH264Ctx_14(D)->CurrSlice.pic_parameter_set_id, pH264Ctx_14(D)->PPS
	mov	r5, r2, asl #1	@ D.43945, pH264Ctx_14(D)->CurrSlice.frame_num,
	add	r2, r5, #1	@ picNumLXPred, D.43945,
	str	r2, [sp, #20]	@ picNumLXPred, %sfp
.L750:
	ldr	lr, [lr, #28]	@ pps_82->seq_parameter_set_id,
	adds	r10, r3, #2	@ D.43945, num_ref_idx_lX_active_minus1,
	mla	r2, r6, lr, r7	@ tmp186, tmp185, pps_82->seq_parameter_set_id, pH264Ctx_14(D)->SPS
	ldr	r2, [r2, #2904]	@ sps_86->log2_max_frame_num_minus4,
	add	r2, r2, #4	@ D.43945, sps_86->log2_max_frame_num_minus4,
	mov	r2, r4, asl r2	@ maxPicNum, maxPicNum,
	str	r2, [sp, #16]	@ maxPicNum, %sfp
	beq	.L730	@,
	ldr	r2, [ip]	@ D.43945, *reordering_of_pic_nums_idc_39(D)
	cmp	r2, #3	@ D.43945,
	beq	.L730	@,
	mov	r8, r3	@ num_ref_idx_lX_active_minus1, num_ref_idx_lX_active_minus1
	mov	r9, r1	@ list, list
	str	r0, [sp, #12]	@ pH264Ctx, %sfp
	mov	r7, ip	@ ivtmp.863, reordering_of_pic_nums_idc
	ldr	r6, [sp, #76]	@ ivtmp.871, abs_diff_pic_num_minus1
	mov	r4, #0	@ i,
	ldr	r5, [sp, #20]	@ picNumLXPred, %sfp
	add	fp, sp, #28	@ tmp222,,
	b	.L734	@
.L735:
	ldr	r3, [sp, #80]	@ tmp243, long_term_pic_idx
	mov	r2, r8	@, num_ref_idx_lX_active_minus1
	mov	r1, r9	@, list
	ldr	r0, [sp, #12]	@, %sfp
	ldr	r3, [r3, r4, asl #2]	@ MEM[base: long_term_pic_idx_60(D), index: i_73, step: 4, offset: 0B], MEM[base: long_term_pic_idx_60(D), index: i_73, step: 4, offset: 0B]
	add	r4, r4, #1	@ i, i,
	str	fp, [sp]	@ tmp222,
	bl	ReorderLTList	@
	cmp	r4, r10	@ i, D.43945
	beq	.L730	@,
.L740:
	ldr	r2, [r7, #4]!	@ D.43945, MEM[base: _68, offset: 0B]
	add	r6, r6, #4	@ ivtmp.871, ivtmp.871,
	cmp	r2, #3	@ D.43945,
	beq	.L730	@,
.L734:
	cmp	r2, #1	@ D.43945,
	bhi	.L735	@,
	cmp	r2, #0	@ D.43945,
	ldr	r3, [r6]	@ MEM[base: _6, offset: 0B],* ivtmp.871
	bne	.L736	@,
	mvn	r3, r3	@ D.43946, MEM[base: _6, offset: 0B]
	adds	r5, r5, r3	@ picNumLXPred, picNumLXPred, D.43946
	ldrmi	r3, [sp, #16]	@ maxPicNum, %sfp
	addmi	r5, r5, r3	@ picNumLXPred, picNumLXPred, maxPicNum
.L737:
	ldr	r3, [sp, #20]	@ picNumLXPred, %sfp
	mov	r2, r8	@, num_ref_idx_lX_active_minus1
	str	fp, [sp]	@ tmp222,
	mov	r1, r9	@, list
	cmp	r3, r5	@ picNumLXPred, picNumLXPred
	ldr	r0, [sp, #12]	@, %sfp
	add	r4, r4, #1	@ i, i,
	ldrlt	r3, [sp, #16]	@ maxPicNum, %sfp
	movge	r3, r5	@ picNumLXPred, picNumLXPred
	rsblt	r3, r3, r5	@ picNumLXPred, maxPicNum, picNumLXPred
	bl	ReorderSTList	@
	cmp	r4, r10	@ i, D.43945
	bne	.L740	@,
.L730:
	add	sp, sp, #36	@,,
	@ sp needed	@
	ldmfd	sp!, {r4, r5, r6, r7, r8, r9, r10, fp, pc}	@
.L736:
	add	r3, r3, #1	@ D.43946, MEM[base: _11, offset: 0B],
	add	r5, r5, r3	@ picNumLXPred, picNumLXPred, D.43946
	ldr	r3, [sp, #16]	@ maxPicNum, %sfp
	cmp	r3, r5	@ maxPicNum, picNumLXPred
	rsble	r5, r3, r5	@ picNumLXPred, maxPicNum, picNumLXPred
	b	.L737	@
.L731:
	ldr	r2, [r2, #220]	@ picNumLXPred, pH264Ctx_14(D)->CurrSlice.frame_num
	mov	r4, #1	@ tmp219,
	ldr	r7, [lr, #1292]	@ pH264Ctx_14(D)->SPS, pH264Ctx_14(D)->SPS
	mla	lr, r8, r5, r9	@ tmp209, tmp208, pH264Ctx_14(D)->CurrSlice.pic_parameter_set_id, pH264Ctx_14(D)->PPS
	str	r2, [sp, #20]	@ picNumLXPred, %sfp
	b	.L750	@
	.fnend
	.size	ReorderRefPiclist, .-ReorderRefPiclist
	.align	2
	.global	ReorderListX
	.type	ReorderListX, %function
ReorderListX:
	.fnstart
	@ args = 0, pretend = 0, frame = 0
	@ frame_needed = 0, uses_anonymous_args = 0
	stmfd	sp!, {r4, r5, r6, r7, lr}	@,
	.save {r4, r5, r6, r7, lr}
	add	r5, r0, #20480	@ tmp178, pH264Ctx,
	.pad #20
	sub	sp, sp, #20	@,,
	mov	r4, r0	@ pH264Ctx, pH264Ctx
	ldrb	r3, [r5, #200]	@ zero_extendqisi2	@ D.43952, pH264Ctx_4(D)->CurrSlice.slice_type
	cmp	r3, #2	@ D.43952,
	beq	.L751	@,
	add	r6, r0, #16384	@ tmp179, pH264Ctx,
	ldrb	r2, [r6, #3504]	@ zero_extendqisi2	@ pH264Ctx_4(D)->CurrReorder.ref_pic_list_reordering_flag_l0, pH264Ctx_4(D)->CurrReorder.ref_pic_list_reordering_flag_l0
	cmp	r2, #0	@ pH264Ctx_4(D)->CurrReorder.ref_pic_list_reordering_flag_l0,
	bne	.L764	@,
.L754:
	cmp	r3, #1	@ D.43952,
	ldr	r3, [r5, #256]	@ pH264Ctx_4(D)->CurrSlice.num_ref_idx_l0_active_minus1, pH264Ctx_4(D)->CurrSlice.num_ref_idx_l0_active_minus1
	add	r3, r3, #1	@ D.43955, pH264Ctx_4(D)->CurrSlice.num_ref_idx_l0_active_minus1,
	str	r3, [r5, #244]	@ D.43955, pH264Ctx_4(D)->CurrSlice.listXsize
	bne	.L751	@,
	ldrb	r3, [r6, #3505]	@ zero_extendqisi2	@ pH264Ctx_4(D)->CurrReorder.ref_pic_list_reordering_flag_l1, pH264Ctx_4(D)->CurrReorder.ref_pic_list_reordering_flag_l1
	cmp	r3, #0	@ pH264Ctx_4(D)->CurrReorder.ref_pic_list_reordering_flag_l1,
	bne	.L765	@,
.L756:
	ldr	r3, [r5, #260]	@ pH264Ctx_4(D)->CurrSlice.num_ref_idx_l1_active_minus1, pH264Ctx_4(D)->CurrSlice.num_ref_idx_l1_active_minus1
	add	r3, r3, #1	@ D.43955, pH264Ctx_4(D)->CurrSlice.num_ref_idx_l1_active_minus1,
	str	r3, [r5, #248]	@ D.43955, pH264Ctx_4(D)->CurrSlice.listXsize
.L751:
	add	sp, sp, #20	@,,
	@ sp needed	@
	ldmfd	sp!, {r4, r5, r6, r7, pc}	@
.L764:
	add	r7, r0, #20224	@ D.43957, pH264Ctx,
	add	lr, r0, #19968	@ D.43956, pH264Ctx,
	add	ip, r0, #19712	@ D.43956, pH264Ctx,
	add	r1, r0, #26880	@, pH264Ctx,
	ldr	r3, [r5, #256]	@ pH264Ctx_4(D)->CurrSlice.num_ref_idx_l0_active_minus1, pH264Ctx_4(D)->CurrSlice.num_ref_idx_l0_active_minus1
	add	lr, lr, #188	@ D.43956, D.43956,
	add	ip, ip, #180	@ D.43956, D.43956,
	add	r7, r7, #196	@ D.43957, D.43957,
	stmia	sp, {ip, lr}	@,,
	add	r2, r5, #244	@, tmp2,
	str	r7, [sp, #8]	@ D.43957,
	add	r1, r1, #156	@,,
	bl	ReorderRefPiclist	@
	ldrb	r3, [r5, #200]	@ zero_extendqisi2	@ D.43952, pH264Ctx_4(D)->CurrSlice.slice_type
	b	.L754	@
.L765:
	add	lr, r4, #20480	@ D.43957, pH264Ctx,
	add	ip, r4, #20224	@ D.43956, pH264Ctx,
	add	r0, r4, #19968	@ D.43956, pH264Ctx,
	add	r1, r4, #27136	@, pH264Ctx,
	ldr	r3, [r5, #260]	@ pH264Ctx_4(D)->CurrSlice.num_ref_idx_l1_active_minus1, pH264Ctx_4(D)->CurrSlice.num_ref_idx_l1_active_minus1
	mov	r2, lr	@, D.43957
	add	ip, ip, #64	@ D.43956, D.43956,
	add	lr, lr, #68	@ D.43957, D.43957,
	add	r0, r0, #56	@ D.43956, D.43956,
	str	lr, [sp, #8]	@ D.43957,
	stmia	sp, {r0, ip}	@,,
	add	r2, r2, #248	@,,
	add	r1, r1, #32	@,,
	mov	r0, r4	@, pH264Ctx
	bl	ReorderRefPiclist	@
	b	.L756	@
	.fnend
	.size	ReorderListX, .-ReorderListX
	.align	2
	.global	GenPiclistfromFrmlist
	.type	GenPiclistfromFrmlist, %function
GenPiclistfromFrmlist:
	.fnstart
	@ args = 8, pretend = 0, frame = 8
	@ frame_needed = 0, uses_anonymous_args = 0
	stmfd	sp!, {r4, r5, r6, r7, r8, r9, r10, fp, lr}	@,
	.save {r4, r5, r6, r7, r8, r9, r10, fp, lr}
	.pad #12
	sub	sp, sp, #12	@,,
	cmp	r2, #31	@ list_idx,
	ldr	lr, .L830	@ tmp256,
	ldr	r7, [sp, #52]	@ long_term, long_term
	mov	r8, r1	@ fs_list, fs_list
	ldr	ip, .L830+4	@ tmp257,
	movcc	r4, r2	@ list_idx, list_idx
	movcs	r4, #31	@ list_idx,
	cmp	r7, #0	@ long_term,
	str	r3, [sp, #4]	@ list, %sfp
	movne	r7, lr	@ is_ref, tmp256
	moveq	r7, ip	@ is_ref, tmp257
	cmp	r0, #1	@ currStrcture,
	ldr	r10, [sp, #48]	@ list_size, list_size
	moveq	r5, #0	@ bot_idx,
	moveq	r6, r5	@ top_idx, bot_idx
	beq	.L769	@,
	cmp	r0, #2	@ currStrcture,
	moveq	r5, #0	@ bot_idx,
	moveq	r6, r5	@ top_idx, bot_idx
	bne	.L777	@,
.L778:
	cmp	r6, r4	@ top_idx, list_idx
	movcs	r3, #0	@ D.43998,
	movcc	r3, #1	@ D.43998,
	cmp	r5, r4	@ bot_idx, list_idx
	mov	r2, r3	@ D.43998, D.43998
	str	r3, [sp]	@ D.43998, %sfp
	movcs	r3, #0	@ D.43998,
	movcc	r3, #1	@ D.43998,
	orrs	r2, r3, r2	@ tmp259, D.43998, D.43998
	beq	.L777	@,
	cmp	r3, #0	@ D.43998,
	beq	.L783	@,
	add	fp, r8, r5, lsl #2	@ ivtmp.908, fs_list, bot_idx,
	b	.L782	@
.L779:
	add	r5, r5, #1	@ bot_idx, bot_idx,
	cmp	r4, r5	@ list_idx, bot_idx
	bls	.L783	@,
.L782:
	mov	r9, fp	@ D.43997, ivtmp.908
	ldr	r0, [fp], #4	@ D.43999, MEM[base: _90, offset: 0B]
	ldrb	r2, [r0, #1]	@ zero_extendqisi2	@ _91->is_used, _91->is_used
	tst	r2, #2	@ _91->is_used,
	beq	.L779	@,
	add	r0, r0, #472	@, D.43999,
	blx	r7	@ is_ref
	cmp	r0, #0	@,
	beq	.L779	@,
	ldr	r2, [r10]	@ *list_size_47(D), *list_size_47(D)
	add	r5, r5, #1	@ bot_idx, bot_idx,
	ldr	r1, [sp, #4]	@ list, %sfp
	ldr	r3, [r9]	@ *_164, *_164
	add	r3, r3, #472	@ D.44001, *_164,
	str	r3, [r1, r2, asl #2]	@ D.44001, *_102
	ldr	r3, [r10]	@ *list_size_47(D), *list_size_47(D)
	add	r3, r3, #1	@ D.43996, *list_size_47(D),
	str	r3, [r10]	@ D.43996, *list_size_47(D)
.L783:
	ldr	r3, [sp]	@ D.43998, %sfp
	cmp	r3, #0	@ D.43998,
	addne	r9, r8, r6, lsl #2	@ ivtmp.899, fs_list, top_idx,
	bne	.L785	@,
	b	.L778	@
.L784:
	add	r6, r6, #1	@ top_idx, top_idx,
	cmp	r4, r6	@ list_idx, top_idx
	bls	.L778	@,
.L785:
	mov	fp, r9	@ D.43997, ivtmp.899
	ldr	r0, [r9], #4	@ D.43999, MEM[base: _114, offset: 0B]
	ldrb	r3, [r0, #1]	@ zero_extendqisi2	@ _115->is_used, _115->is_used
	tst	r3, #1	@ _115->is_used,
	beq	.L784	@,
	add	r0, r0, #436	@, D.43999,
	blx	r7	@ is_ref
	cmp	r0, #0	@,
	beq	.L784	@,
	ldr	r1, [r10]	@ *list_size_47(D), *list_size_47(D)
	add	r6, r6, #1	@ top_idx, top_idx,
	ldr	r2, [sp, #4]	@ list, %sfp
	ldr	r3, [fp]	@ *_162, *_162
	add	r3, r3, #436	@ D.44001, *_162,
	str	r3, [r2, r1, asl #2]	@ D.44001, *_127
	ldr	r3, [r10]	@ *list_size_47(D), *list_size_47(D)
	add	r3, r3, #1	@ D.43996, *list_size_47(D),
	str	r3, [r10]	@ D.43996, *list_size_47(D)
	b	.L778	@
.L829:
	add	r0, r0, #436	@, D.43999,
	blx	r7	@ is_ref
	cmp	r0, #0	@,
	beq	.L770	@,
	ldr	r2, [r10]	@ *list_size_47(D), *list_size_47(D)
	add	r6, r6, #1	@ top_idx, top_idx,
	ldr	r1, [sp, #4]	@ list, %sfp
	ldr	r3, [r9]	@ *_168, *_168
	add	r3, r3, #436	@ D.44001, *_168,
	str	r3, [r1, r2, asl #2]	@ D.44001, *_51
	ldr	r3, [r10]	@ *list_size_47(D), *list_size_47(D)
	add	r3, r3, #1	@ D.43996, *list_size_47(D),
	str	r3, [r10]	@ D.43996, *list_size_47(D)
.L774:
	ldr	r3, [sp]	@ D.43998, %sfp
	cmp	r3, #0	@ D.43998,
	addne	r9, r8, r5, lsl #2	@ ivtmp.881, fs_list, bot_idx,
	bne	.L776	@,
	b	.L769	@
.L775:
	add	r5, r5, #1	@ bot_idx, bot_idx,
	cmp	r4, r5	@ list_idx, bot_idx
	bls	.L769	@,
.L776:
	mov	fp, r9	@ D.43997, ivtmp.881
	ldr	r0, [r9], #4	@ D.43999, MEM[base: _63, offset: 0B]
	ldrb	r3, [r0, #1]	@ zero_extendqisi2	@ _64->is_used, _64->is_used
	tst	r3, #2	@ _64->is_used,
	beq	.L775	@,
	add	r0, r0, #472	@, D.43999,
	blx	r7	@ is_ref
	cmp	r0, #0	@,
	beq	.L775	@,
	ldr	r1, [r10]	@ *list_size_47(D), *list_size_47(D)
	add	r5, r5, #1	@ bot_idx, bot_idx,
	ldr	r2, [sp, #4]	@ list, %sfp
	ldr	r3, [fp]	@ *_166, *_166
	add	r3, r3, #472	@ D.44001, *_166,
	str	r3, [r2, r1, asl #2]	@ D.44001, *_76
	ldr	r3, [r10]	@ *list_size_47(D), *list_size_47(D)
	add	r3, r3, #1	@ D.43996, *list_size_47(D),
	str	r3, [r10]	@ D.43996, *list_size_47(D)
.L769:
	cmp	r6, r4	@ top_idx, list_idx
	movcs	r3, #0	@ D.43998,
	movcc	r3, #1	@ D.43998,
	cmp	r5, r4	@ bot_idx, list_idx
	movcs	r2, #0	@ D.43998,
	movcc	r2, #1	@ D.43998,
	str	r2, [sp]	@ D.43998, %sfp
	orrs	r2, r2, r3	@ tmp258, D.43998, D.43998
	beq	.L777	@,
	cmp	r3, #0	@ D.43998,
	beq	.L774	@,
	add	fp, r8, r6, lsl #2	@ ivtmp.890, fs_list, top_idx,
	b	.L773	@
.L770:
	add	r6, r6, #1	@ top_idx, top_idx,
	cmp	r4, r6	@ list_idx, top_idx
	bls	.L774	@,
.L773:
	mov	r9, fp	@ D.43997, ivtmp.890
	ldr	r0, [fp], #4	@ D.43999, MEM[base: _37, offset: 0B]
	ldrb	r2, [r0, #1]	@ zero_extendqisi2	@ _38->is_used, _38->is_used
	tst	r2, #1	@ _38->is_used,
	beq	.L770	@,
	b	.L829	@
.L777:
	mov	r0, #0	@,
	add	sp, sp, #12	@,,
	@ sp needed	@
	ldmfd	sp!, {r4, r5, r6, r7, r8, r9, r10, fp, pc}	@
.L831:
	.align	2
.L830:
	.word	IsLTRefFlg
	.word	IsSTRefFlg
	.fnend
	.size	GenPiclistfromFrmlist, .-GenPiclistfromFrmlist
	.align	2
	.global	InitListX
	.type	InitListX, %function
InitListX:
	.fnstart
	@ args = 0, pretend = 0, frame = 208
	@ frame_needed = 0, uses_anonymous_args = 0
	stmfd	sp!, {r4, r5, r6, r7, r8, r9, r10, fp, lr}	@,
	.save {r4, r5, r6, r7, r8, r9, r10, fp, lr}
	add	r6, r0, #20480	@ tmp662, pH264Ctx,
	add	r8, r0, #49152	@ tmp660, pH264Ctx,
	.pad #220
	sub	sp, sp, #220	@,,
	ldrb	r3, [r6, #200]	@ zero_extendqisi2	@ pH264Ctx_69(D)->CurrSlice.slice_type, pH264Ctx_69(D)->CurrSlice.slice_type
	mov	r4, r0	@ pH264Ctx, pH264Ctx
	ldrb	r7, [r8, #555]	@ zero_extendqisi2	@ pH264Ctx_69(D)->CurrPic.structure, pH264Ctx_69(D)->CurrPic.structure
	cmp	r3, #0	@ pH264Ctx_69(D)->CurrSlice.slice_type,
	bne	.L833	@,
	cmp	r7, #0	@ pH264Ctx_69(D)->CurrPic.structure,
	bne	.L960	@,
	add	r3, r0, #24576	@ tmp664, pH264Ctx,
	str	r3, [sp, #12]	@ tmp664, %sfp
	ldr	ip, [r3, #2056]	@ D.44243, pH264Ctx_69(D)->DPB.ref_frames_in_buffer
	cmp	ip, #0	@ D.44243,
	beq	.L900	@,
	add	r1, r0, #26368	@ ivtmp.952, pH264Ctx,
	mov	r3, r7	@ i, j
	add	r1, r1, #124	@ ivtmp.952, ivtmp.952,
	b	.L839	@
.L838:
	cmp	r3, ip	@ i, D.44243
	beq	.L837	@,
.L839:
	ldr	r2, [r1, #4]!	@ D.44242, MEM[base: _93, offset: 0B]
	add	r3, r3, #1	@ i, i,
	ldrb	r0, [r2, #2]	@ zero_extendqisi2	@ _73->is_reference, _73->is_reference
	cmp	r0, #3	@ _73->is_reference,
	bne	.L838	@,
	ldr	r0, [r2, #400]	@ *_73, *_73
	bic	r0, r0, #-16777216	@ D.44243, *_73,
	bic	r0, r0, #255	@ D.44243, D.44243,
	cmp	r0, #65536	@ D.44243,
	bne	.L838	@,
	add	r0, r7, #6720	@ tmp353, j,
	cmp	r3, ip	@ i, D.44243
	add	r0, r0, #38	@ tmp353, tmp353,
	add	r2, r2, #400	@ D.44244, D.44242,
	add	r7, r7, #1	@ j, j,
	add	r0, r4, r0, lsl #2	@ tmp354, pH264Ctx, tmp353,
	str	r2, [r0, #4]	@ D.44244, pH264Ctx_69(D)->pListX
	bne	.L839	@,
.L837:
	add	r0, r4, #26880	@, pH264Ctx,
	ldr	r3, .L968	@,
	mov	r1, r7	@, j
	add	r0, r0, #156	@,,
	mov	r2, #4	@,
	bl	qsort	@
	str	r7, [r6, #244]	@ j, pH264Ctx_69(D)->CurrSlice.listXsize
	ldr	r3, [sp, #12]	@ tmp664, %sfp
	ldr	r1, [r3, #2060]	@ D.44243, pH264Ctx_69(D)->DPB.ltref_frames_in_buffer
	cmp	r1, #0	@ D.44243,
	beq	.L901	@,
	add	r0, r4, #26368	@ ivtmp.941, pH264Ctx,
	mov	r5, r7	@ j, j
	add	r0, r0, #188	@ ivtmp.941, ivtmp.941,
	mov	r3, #0	@ i,
	b	.L842	@
.L841:
	cmp	r3, r1	@ i, D.44243
	beq	.L961	@,
.L842:
	ldr	r2, [r0, #4]!	@ D.44242, MEM[base: _185, offset: 0B]
	add	r3, r3, #1	@ i, i,
	ldrb	ip, [r2, #2]	@ zero_extendqisi2	@ _85->is_reference, _85->is_reference
	cmp	ip, #3	@ _85->is_reference,
	bne	.L841	@,
	ldr	ip, [r2, #400]	@ *_85, *_85
	bic	ip, ip, #-16777216	@ D.44243, *_85,
	bic	ip, ip, #255	@ D.44243, D.44243,
	cmp	ip, #256	@ D.44243,
	bne	.L841	@,
	add	ip, r5, #6720	@ tmp370, j,
	cmp	r3, r1	@ i, D.44243
	add	ip, ip, #38	@ tmp370, tmp370,
	add	r2, r2, #400	@ D.44244, D.44242,
	add	r5, r5, #1	@ j, j,
	add	ip, r4, ip, lsl #2	@ tmp371, pH264Ctx, tmp370,
	str	r2, [ip, #4]	@ D.44244, pH264Ctx_69(D)->pListX
	bne	.L842	@,
.L961:
	rsb	r1, r7, r5	@ D.44243, j, j
.L840:
	add	r0, r4, r7, lsl #2	@ tmp378, pH264Ctx, j,
	ldr	r3, .L968+4	@,
	add	r0, r0, #26880	@, tmp378,
	mov	r2, #4	@,
	add	r0, r0, #156	@,,
	bl	qsort	@
	mov	r2, r5	@ D.44236, j
	cmp	r2, #0	@ D.44236,
	mov	r3, #0	@ tmp413,
	str	r5, [r6, #244]	@ j, pH264Ctx_69(D)->CurrSlice.listXsize
	str	r3, [r6, #248]	@ tmp413, pH264Ctx_69(D)->CurrSlice.listXsize
	beq	.L962	@,
.L848:
	ldr	r0, [r6, #256]	@ pH264Ctx_69(D)->CurrSlice.num_ref_idx_l0_active_minus1, pH264Ctx_69(D)->CurrSlice.num_ref_idx_l0_active_minus1
	ldr	r1, [r6, #260]	@ pH264Ctx_69(D)->CurrSlice.num_ref_idx_l1_active_minus1, pH264Ctx_69(D)->CurrSlice.num_ref_idx_l1_active_minus1
	add	r0, r0, #1	@ D.44243, pH264Ctx_69(D)->CurrSlice.num_ref_idx_l0_active_minus1,
	cmp	r2, r0	@ D.44236, D.44243
	add	r1, r1, #1	@ D.44243, pH264Ctx_69(D)->CurrSlice.num_ref_idx_l1_active_minus1,
	movcs	r2, r0	@ i, D.44243
	cmp	r3, r1	@ D.44236, D.44243
	str	r2, [r6, #244]	@ i, pH264Ctx_69(D)->CurrSlice.listXsize
	movcs	r3, r1	@ i, D.44243
	cmp	r2, #32	@ i,
	str	r3, [r6, #248]	@ i, pH264Ctx_69(D)->CurrSlice.listXsize
	bhi	.L892	@,
	add	r2, r2, #6720	@ D.44237, i,
	add	r1, r4, #27136	@ D.44249, pH264Ctx,
	add	r2, r2, #38	@ D.44237, D.44237,
	add	r1, r1, #28	@ D.44249, D.44249,
	mov	r0, #0	@ tmp670,
	add	r2, r4, r2, lsl #2	@ ivtmp.930, pH264Ctx, D.44237,
.L891:
	str	r0, [r2, #4]!	@ tmp670, MEM[base: _266, offset: 0B]
	cmp	r2, r1	@ ivtmp.930, D.44249
	bne	.L891	@,
.L892:
	cmp	r3, #32	@ i,
	bhi	.L890	@,
	add	r3, r3, #6784	@ D.44237, i,
	add	r2, r4, #27136	@ D.44249, pH264Ctx,
	add	r3, r3, #7	@ D.44237, D.44237,
	add	r2, r2, #160	@ D.44249, D.44249,
	mov	r1, #0	@ tmp669,
	add	r4, r4, r3, lsl #2	@ ivtmp.918, pH264Ctx, D.44237,
.L893:
	str	r1, [r4, #4]!	@ tmp669, MEM[base: _205, offset: 0B]
	cmp	r4, r2	@ ivtmp.918, D.44249
	bne	.L893	@,
.L890:
	mov	r0, #0	@ D.44240,
.L946:
	add	sp, sp, #220	@,,
	@ sp needed	@
	ldmfd	sp!, {r4, r5, r6, r7, r8, r9, r10, fp, pc}	@
.L833:
	cmp	r7, #0	@ pH264Ctx_69(D)->CurrPic.structure,
	add	r3, r0, #24576	@ tmp664, pH264Ctx,
	str	r3, [sp, #12]	@ tmp664, %sfp
	beq	.L854	@,
	ldr	r10, [r3, #2056]	@ D.44243, pH264Ctx_69(D)->DPB.ref_frames_in_buffer
	cmp	r10, #0	@ D.44243,
	beq	.L963	@,
	add	r9, r0, #26368	@ ivtmp.1123, pH264Ctx,
	mov	r5, #0	@ j,
	add	r9, r9, #124	@ ivtmp.1123, ivtmp.1123,
	mov	r3, r5	@ i, j
	mov	r1, r9	@ ivtmp.1134, ivtmp.1123
.L873:
	ldr	r2, [r1, #4]!	@ D.44242, MEM[base: _458, offset: 0B]
	add	r3, r3, #1	@ i, i,
	ldrb	r0, [r2, #1]	@ zero_extendqisi2	@ _196->is_used, _196->is_used
	cmp	r0, #0	@ _196->is_used,
	beq	.L872	@,
	add	r0, sp, #216	@ tmp845,,
	ldr	ip, [r8, #980]	@ pH264Ctx_69(D)->CurrPic.thispoc, pH264Ctx_69(D)->CurrPic.thispoc
	add	lr, r0, r5, lsl #2	@ tmp526, tmp845, j,
	ldr	r0, [r2, #524]	@ _196->poc, _196->poc
	cmp	ip, r0	@ pH264Ctx_69(D)->CurrPic.thispoc, _196->poc
	strge	r2, [lr, #-192]	@ D.44242, fs_list0
	addge	r5, r5, #1	@ j, j,
.L872:
	cmp	r3, r10	@ i, D.44243
	bne	.L873	@,
	add	fp, sp, #24	@ tmp661,,
	ldr	r3, .L968+8	@,
	mov	r2, #4	@,
	mov	r1, r5	@, j
	mov	r0, fp	@, tmp661
	bl	qsort	@
	ldr	r3, [sp, #12]	@ tmp664, %sfp
	ldr	r7, [r3, #2056]	@ D.44243, pH264Ctx_69(D)->DPB.ref_frames_in_buffer
	cmp	r7, #0	@ D.44243,
	beq	.L957	@,
.L898:
	mov	r1, r9	@ ivtmp.1123, ivtmp.1123
	mov	r3, #0	@ i,
	mov	r9, r5	@ j, j
.L876:
	ldr	r2, [r1, #4]!	@ D.44242, MEM[base: _453, offset: 0B]
	add	r3, r3, #1	@ i, i,
	ldrb	r0, [r2, #1]	@ zero_extendqisi2	@ _206->is_used, _206->is_used
	cmp	r0, #0	@ _206->is_used,
	beq	.L875	@,
	add	r0, sp, #216	@ tmp847,,
	ldr	ip, [r8, #980]	@ pH264Ctx_69(D)->CurrPic.thispoc, pH264Ctx_69(D)->CurrPic.thispoc
	add	lr, r0, r9, lsl #2	@ tmp538, tmp847, j,
	ldr	r0, [r2, #524]	@ _206->poc, _206->poc
	cmp	ip, r0	@ pH264Ctx_69(D)->CurrPic.thispoc, _206->poc
	strlt	r2, [lr, #-192]	@ D.44242, fs_list0
	addlt	r9, r9, #1	@ j, j,
.L875:
	cmp	r3, r7	@ i, D.44243
	bne	.L876	@,
	rsb	r7, r5, r9	@ D.44243, j, j
	mov	r10, r5, asl #2	@ D.44237, j,
	add	r0, fp, r10	@, tmp661, D.44237
	ldr	r3, .L968+12	@,
	mov	r1, r7	@, D.44243
	mov	r2, #4	@,
	bl	qsort	@
	cmp	r5, #0	@ j,
	addeq	ip, sp, #88	@ tmp663,,
	beq	.L877	@,
.L895:
	add	ip, sp, #88	@ tmp663,,
	mov	r2, fp	@ ivtmp.1111, tmp661
	add	r7, ip, r7, lsl #2	@ ivtmp.1117, tmp663, D.44243,
	mov	r3, #0	@ j,
.L878:
	add	r3, r3, #1	@ j, j,
	ldr	r1, [r2], #4	@ D.44242, MEM[base: _448, offset: 0B]
	cmp	r3, r5	@ j, j
	str	r1, [r7], #4	@ D.44242, MEM[base: _449, offset: 0B]
	bcc	.L878	@,
.L877:
	cmp	r9, r5	@ j, j
	bls	.L879	@,
	add	r10, fp, r10	@ ivtmp.1098, tmp661, D.44237
	mov	r3, ip	@ ivtmp.1104, tmp663
.L880:
	add	r5, r5, #1	@ j, j,
	ldr	r2, [r10], #4	@ D.44242, MEM[base: _439, offset: 0B]
	cmp	r5, r9	@ j, j
	str	r2, [r3], #4	@ D.44242, MEM[base: _440, offset: 0B]
	bne	.L880	@,
.L879:
	add	r5, r4, #26880	@ ivtmp.990, pH264Ctx,
	add	r10, r4, #20480	@ D.44246, pH264Ctx,
	add	r5, r5, #156	@ ivtmp.990, ivtmp.990,
	mov	r7, #0	@ tmp550,
	mov	r1, fp	@, tmp661
	str	r7, [r6, #244]	@ tmp550, pH264Ctx_69(D)->CurrSlice.listXsize
	str	r7, [r6, #248]	@ tmp550, pH264Ctx_69(D)->CurrSlice.listXsize
	mov	r2, r9	@, j
	ldrb	r0, [r8, #555]	@ zero_extendqisi2	@ D.44243, pH264Ctx_69(D)->CurrPic.structure
	mov	r3, r5	@, ivtmp.990
	str	r7, [sp, #4]	@ tmp550,
	add	r10, r10, #244	@ D.44246, D.44246,
	str	r10, [sp]	@ D.44246,
	str	ip, [sp, #20]	@ tmp663, %sfp
	bl	GenPiclistfromFrmlist	@
	add	r2, r4, #20480	@ D.44246, pH264Ctx,
	add	r3, r4, #27136	@ D.44245, pH264Ctx,
	ldrb	r0, [r8, #555]	@ zero_extendqisi2	@ D.44243, pH264Ctx_69(D)->CurrPic.structure
	add	r3, r3, #32	@ D.44245, D.44245,
	mov	lr, r2	@ D.44246, D.44246
	mov	r2, r9	@, j
	ldr	ip, [sp, #20]	@ tmp663, %sfp
	str	r7, [sp, #4]	@ tmp550,
	str	r3, [sp, #16]	@ D.44245, %sfp
	mov	r1, ip	@, tmp663
	add	ip, lr, #248	@ D.44246, D.44246,
	str	ip, [sp]	@ D.44246,
	str	ip, [sp, #20]	@ D.44246, %sfp
	bl	GenPiclistfromFrmlist	@
	ldr	r3, [sp, #12]	@ tmp664, %sfp
	ldr	r9, [r3, #2060]	@ listltidx, pH264Ctx_69(D)->DPB.ltref_frames_in_buffer
	cmp	r9, r7	@ listltidx,
	addeq	fp, sp, #152	@ tmp667,,
	beq	.L881	@,
	add	r3, r4, #26368	@ ivtmp.1080, pH264Ctx,
	add	fp, sp, #152	@ tmp667,,
	add	r3, r3, #188	@ ivtmp.1080, ivtmp.1080,
	mov	r2, fp	@ ivtmp.1090, tmp667
.L882:
	add	r7, r7, #1	@ i, i,
	ldr	r1, [r3, #4]!	@ MEM[base: _431, offset: 0B], MEM[base: _431, offset: 0B]
	cmp	r7, r9	@ i, listltidx
	str	r1, [r2], #4	@ MEM[base: _431, offset: 0B], MEM[base: _432, offset: 0B]
	bne	.L882	@,
.L881:
	ldr	r3, .L968+16	@,
	mov	r2, #4	@,
	mov	r1, r9	@, listltidx
	mov	r0, fp	@, tmp667
	bl	qsort	@
	mov	r7, #1	@ tmp578,
	ldrb	r0, [r8, #555]	@ zero_extendqisi2	@ D.44243, pH264Ctx_69(D)->CurrPic.structure
	mov	r3, r5	@, ivtmp.990
	mov	r2, r9	@, listltidx
	mov	r1, fp	@, tmp667
	str	r10, [sp]	@ D.44246,
	str	r7, [sp, #4]	@ tmp578,
	bl	GenPiclistfromFrmlist	@
	ldrb	r0, [r8, #555]	@ zero_extendqisi2	@ D.44243, pH264Ctx_69(D)->CurrPic.structure
	mov	r2, r9	@, listltidx
	mov	r1, fp	@, tmp667
	ldr	ip, [sp, #20]	@ D.44246, %sfp
	ldr	r3, [sp, #16]	@, %sfp
	str	r7, [sp, #4]	@ tmp578,
	str	ip, [sp]	@ D.44246,
	bl	GenPiclistfromFrmlist	@
	ldr	r2, [r6, #244]	@ D.44236, pH264Ctx_69(D)->CurrSlice.listXsize
	ldr	r3, [r6, #248]	@ D.44236, pH264Ctx_69(D)->CurrSlice.listXsize
	rsb	r1, r3, r2	@ D.44239, D.44236, D.44236
	clz	r1, r1	@ D.44239, D.44239
	mov	r1, r1, lsr #5	@ D.44239, D.44239,
.L871:
	cmp	r2, #1	@ D.44236,
	movls	r1, #0	@, tmp594
	andhi	r1, r1, #1	@,, tmp594, D.44239
	cmp	r1, #0	@ tmp594,
	beq	.L883	@,
	cmp	r2, #0	@ D.44236,
	ldr	r1, [sp, #12]	@ tmp664, %sfp
	beq	.L884	@,
	ldr	r7, [r1, #2460]	@ D.44244, pH264Ctx_69(D)->pListX
	ldr	r1, [r1, #2592]	@ pH264Ctx_69(D)->pListX, pH264Ctx_69(D)->pListX
	cmp	r7, r1	@ D.44244, pH264Ctx_69(D)->pListX
	bne	.L883	@,
	add	r0, r4, #27136	@ ivtmp.999, pH264Ctx,
	mov	r1, #0	@ j,
	add	r0, r0, #32	@ ivtmp.999, ivtmp.999,
	b	.L885	@
.L886:
	ldr	lr, [r5, #4]!	@ MEM[base: _299, offset: 0B], MEM[base: _299, offset: 0B]
	ldr	ip, [r0, #4]!	@ MEM[base: _270, offset: 0B], MEM[base: _270, offset: 0B]
	cmp	lr, ip	@ MEM[base: _299, offset: 0B], MEM[base: _270, offset: 0B]
	bne	.L883	@,
.L885:
	add	r1, r1, #1	@ j, j,
	cmp	r1, r2	@ j, D.44236
	bne	.L886	@,
.L887:
	ldr	r0, [sp, #12]	@ tmp664, %sfp
	ldr	r1, [r0, #2596]	@ pH264Ctx_69(D)->pListX, pH264Ctx_69(D)->pListX
	str	r7, [r0, #2596]	@ D.44244, pH264Ctx_69(D)->pListX
	str	r1, [r0, #2592]	@ pH264Ctx_69(D)->pListX, pH264Ctx_69(D)->pListX
.L883:
	orrs	r1, r2, r3	@ tmp826, D.44236, D.44236
	bne	.L848	@,
.L849:
	bl	vfmw_dprint_nothing	@
	mov	r0, r4	@, pH264Ctx
	bl	ClearCurrSlice	@
	mvn	r0, #0	@ D.44240,
	b	.L946	@
.L854:
	ldr	fp, [r3, #2056]	@ D.44243, pH264Ctx_69(D)->DPB.ref_frames_in_buffer
	cmp	fp, #0	@ D.44243,
	beq	.L857	@,
	add	r9, r0, #26368	@ ivtmp.1123, pH264Ctx,
	mov	r3, r7	@ i, j
	add	r9, r9, #124	@ ivtmp.1123, ivtmp.1123,
	mov	r1, r9	@ ivtmp.1069, ivtmp.1123
	b	.L859	@
.L858:
	cmp	r3, fp	@ i, D.44243
	beq	.L964	@,
.L859:
	ldr	r2, [r1, #4]!	@ D.44242, MEM[base: _423, offset: 0B]
	add	r3, r3, #1	@ i, i,
	ldrb	r0, [r2, #2]	@ zero_extendqisi2	@ _140->is_reference, _140->is_reference
	cmp	r0, #3	@ _140->is_reference,
	bne	.L858	@,
	add	r0, r7, #6720	@ tmp450, j,
	ldr	ip, [r2, #416]	@ _140->frame.poc, _140->frame.poc
	add	r0, r0, #38	@ tmp450, tmp450,
	ldr	lr, [r8, #984]	@ pH264Ctx_69(D)->CurrPic.framepoc, pH264Ctx_69(D)->CurrPic.framepoc
	add	r2, r2, #400	@ D.44244, D.44242,
	add	r0, r4, r0, lsl #2	@ tmp451, pH264Ctx, tmp450,
	cmp	lr, ip	@ pH264Ctx_69(D)->CurrPic.framepoc, _140->frame.poc
	addge	r7, r7, #1	@ j, j,
	strge	r2, [r0, #4]	@ D.44244, pH264Ctx_69(D)->pListX
	cmp	r3, fp	@ i, D.44243
	bne	.L859	@,
.L964:
	add	r5, r4, #26880	@ ivtmp.990, pH264Ctx,
	ldr	r3, .L968+20	@,
	add	r5, r5, #156	@ ivtmp.990, ivtmp.990,
	mov	r2, #4	@,
	mov	r1, r7	@, j
	mov	r0, r5	@, ivtmp.990
	bl	qsort	@
	ldr	r3, [sp, #12]	@ tmp664, %sfp
	ldr	r10, [r3, #2056]	@ D.44243, pH264Ctx_69(D)->DPB.ref_frames_in_buffer
	cmp	r10, #0	@ D.44243,
	beq	.L956	@,
.L896:
	mov	fp, r7	@ j, j
	mov	r3, #0	@ i,
	b	.L862	@
.L861:
	cmp	r3, r10	@ i, D.44243
	beq	.L965	@,
.L862:
	ldr	r2, [r9, #4]!	@ D.44242, MEM[base: _315, offset: 0B]
	add	r3, r3, #1	@ i, i,
	ldrb	r1, [r2, #2]	@ zero_extendqisi2	@ _152->is_reference, _152->is_reference
	cmp	r1, #3	@ _152->is_reference,
	bne	.L861	@,
	add	r1, fp, #6720	@ tmp466, j,
	ldr	r0, [r2, #416]	@ _152->frame.poc, _152->frame.poc
	add	r1, r1, #38	@ tmp466, tmp466,
	ldr	ip, [r8, #984]	@ pH264Ctx_69(D)->CurrPic.framepoc, pH264Ctx_69(D)->CurrPic.framepoc
	add	r2, r2, #400	@ D.44244, D.44242,
	add	r1, r4, r1, lsl #2	@ tmp467, pH264Ctx, tmp466,
	cmp	ip, r0	@ pH264Ctx_69(D)->CurrPic.framepoc, _152->frame.poc
	addlt	fp, fp, #1	@ j, j,
	strlt	r2, [r1, #4]	@ D.44244, pH264Ctx_69(D)->pListX
	cmp	r3, r10	@ i, D.44243
	bne	.L862	@,
.L965:
	add	r9, r7, #6720	@ D.44237, j,
	rsb	r10, r7, fp	@ D.44243, j, j
	add	r9, r9, #38	@ D.44237, D.44237,
	mov	r2, #4	@,
	ldr	r3, .L968+24	@,
	mov	r1, r10	@, D.44243
	add	r0, r4, r9, lsl #2	@ tmp474, pH264Ctx, D.44237,
	add	r8, r4, fp, lsl #2	@ tmp483, pH264Ctx, j,
	add	r0, r0, r2	@, tmp474,
	add	r8, r8, #26880	@ D.44234, tmp483,
	bl	qsort	@
	cmp	r7, #0	@ j,
	add	r8, r8, #156	@ D.44234, D.44234,
	beq	.L864	@,
.L894:
	add	r10, r10, #6784	@ D.44237, D.44243,
	add	r2, r4, #26880	@ ivtmp.1039, pH264Ctx,
	add	r10, r10, #7	@ D.44237, D.44237,
	add	r2, r2, #152	@ ivtmp.1039, ivtmp.1039,
	mov	r3, #0	@ j,
	add	r10, r4, r10, lsl #2	@ ivtmp.1048, pH264Ctx, D.44237,
.L865:
	add	r3, r3, #1	@ j, j,
	ldr	r1, [r2, #4]!	@ D.44244, MEM[base: _309, offset: 0B]
	cmp	r3, r7	@ j, j
	str	r1, [r10, #4]!	@ D.44244, MEM[base: _308, offset: 0B]
	bcc	.L865	@,
.L864:
	cmp	fp, r7	@ j, j
	bls	.L866	@,
	add	r3, r4, #27136	@ ivtmp.1029, pH264Ctx,
	add	r9, r4, r9, lsl #2	@ ivtmp.1020, pH264Ctx, D.44237,
	add	r3, r3, #28	@ ivtmp.1029, ivtmp.1029,
.L867:
	add	r7, r7, #1	@ j, j,
	ldr	r2, [r9, #4]!	@ D.44244, MEM[base: _23, offset: 0B]
	cmp	r7, fp	@ j, j
	str	r2, [r3, #4]!	@ D.44244, MEM[base: _3, offset: 0B]
	bne	.L867	@,
.L866:
	ldr	r3, [sp, #12]	@ tmp664, %sfp
	str	fp, [r6, #248]	@ j, pH264Ctx_69(D)->CurrSlice.listXsize
	str	fp, [r6, #244]	@ j, pH264Ctx_69(D)->CurrSlice.listXsize
	ldr	r1, [r3, #2060]	@ D.44243, pH264Ctx_69(D)->DPB.ltref_frames_in_buffer
	cmp	r1, #0	@ D.44243,
	beq	.L903	@,
	add	r0, r4, #26368	@ ivtmp.1008, pH264Ctx,
	mov	r7, fp	@ j, j
	add	r0, r0, #188	@ ivtmp.1008, ivtmp.1008,
	mov	r3, #0	@ i,
	b	.L870	@
.L869:
	cmp	r3, r1	@ i, D.44243
	beq	.L966	@,
.L870:
	ldr	r2, [r0, #4]!	@ D.44242, MEM[base: _59, offset: 0B]
	add	r3, r3, #1	@ i, i,
	ldrb	ip, [r2, #1]	@ zero_extendqisi2	@ _175->is_used, _175->is_used
	cmp	ip, #3	@ _175->is_used,
	bne	.L869	@,
	ldrb	ip, [r2, #401]	@ zero_extendqisi2	@ _175->frame.is_long_term, _175->frame.is_long_term
	cmp	ip, #1	@ _175->frame.is_long_term,
	bne	.L869	@,
	add	ip, r4, r7, lsl #2	@ D.44233, pH264Ctx, j,
	cmp	r3, r1	@ i, D.44243
	add	ip, ip, #24576	@ tmp503, D.44233,
	add	r2, r2, #400	@ D.44244, D.44242,
	add	r7, r7, #1	@ j, j,
	str	r2, [ip, #2460]	@ D.44244, MEM[(struct H264_CTX_S *)_460 + 27036B]
	str	r2, [ip, #2592]	@ D.44244, MEM[(struct H264_CTX_S *)_460 + 27168B]
	bne	.L870	@,
.L966:
	rsb	r1, fp, r7	@ D.44243, j, j
.L868:
	mov	r0, r8	@, D.44234
	ldr	r3, .L968+4	@,
	mov	r2, #4	@,
	bl	qsort	@
	ldr	r0, [r6, #244]	@ D.44243, pH264Ctx_69(D)->CurrSlice.listXsize
	ldr	r3, .L968+4	@,
	mov	r2, #4	@,
	rsb	r1, r0, r7	@, D.44243, j
	add	r0, r4, r0, lsl #2	@ tmp514, pH264Ctx, D.44243,
	add	r0, r0, #27136	@, tmp514,
	add	r0, r0, #32	@,,
	bl	qsort	@
	mov	r3, r7	@ D.44236, j
	str	r7, [r6, #248]	@ j, pH264Ctx_69(D)->CurrSlice.listXsize
	mov	r2, r7	@ D.44236, D.44236
	str	r7, [r6, #244]	@ j, pH264Ctx_69(D)->CurrSlice.listXsize
	mov	r1, #1	@ D.44239,
	b	.L871	@
.L960:
	add	r2, r0, #24576	@ tmp664, pH264Ctx,
	str	r2, [sp, #12]	@ tmp664, %sfp
	ldr	lr, [r2, #2056]	@ D.44243, pH264Ctx_69(D)->DPB.ref_frames_in_buffer
	cmp	lr, #0	@ D.44243,
	moveq	r7, lr	@ j, D.44243
	beq	.L836	@,
	add	r1, r0, #26368	@ ivtmp.979, pH264Ctx,
	mov	r7, r3	@ j, pH264Ctx_69(D)->CurrSlice.slice_type
	add	r1, r1, #124	@ ivtmp.979, ivtmp.979,
.L845:
	ldr	r2, [r1, #4]!	@ D.44242, MEM[base: _269, offset: 0B]
	add	r0, sp, #216	@ tmp832,,
	add	ip, r0, r7, lsl #2	@ tmp384, tmp832, j,
	add	r3, r3, #1	@ i, i,
	ldrb	r0, [r2, #2]	@ zero_extendqisi2	@ _100->is_reference, _100->is_reference
	cmp	r0, #0	@ _100->is_reference,
	strne	r2, [ip, #-192]	@ D.44242, fs_list0
	addne	r7, r7, #1	@ j, j,
	cmp	r3, lr	@ i, D.44243
	bne	.L845	@,
.L836:
	mov	r1, r7	@, j
	ldr	r3, .L968+28	@,
	mov	r2, #4	@,
	add	r0, sp, #24	@ tmp833,,
	bl	qsort	@
	add	r10, r4, #26880	@ D.44245, pH264Ctx,
	add	r10, r10, #156	@ D.44245, D.44245,
	add	r9, r4, #20480	@ D.44246, pH264Ctx,
	mov	r5, #0	@ tmp390,
	mov	r2, r7	@, j
	str	r5, [r6, #244]	@ tmp390, pH264Ctx_69(D)->CurrSlice.listXsize
	mov	r3, r10	@, D.44245
	ldrb	r0, [r8, #555]	@ zero_extendqisi2	@ D.44243, pH264Ctx_69(D)->CurrPic.structure
	add	r9, r9, #244	@ D.44246, D.44246,
	add	r1, sp, #24	@ tmp834,,
	str	r5, [sp, #4]	@ tmp390,
	str	r9, [sp]	@ D.44246,
	bl	GenPiclistfromFrmlist	@
	ldr	r3, [sp, #12]	@ tmp664, %sfp
	ldr	r7, [r3, #2060]	@ listltidx, pH264Ctx_69(D)->DPB.ltref_frames_in_buffer
	cmp	r7, r5	@ listltidx,
	addeq	fp, sp, #152	@ tmp667,,
	beq	.L846	@,
	add	r3, r4, #26368	@ ivtmp.963, pH264Ctx,
	add	fp, sp, #152	@ tmp667,,
	add	r3, r3, #188	@ ivtmp.963, ivtmp.963,
	mov	r2, fp	@ ivtmp.973, tmp667
.L847:
	add	r5, r5, #1	@ i, i,
	ldr	r1, [r3, #4]!	@ MEM[base: _11, offset: 0B], MEM[base: _11, offset: 0B]
	cmp	r5, r7	@ i, listltidx
	str	r1, [r2], #4	@ MEM[base: _11, offset: 0B], MEM[base: _10, offset: 0B]
	bne	.L847	@,
.L846:
	ldr	r3, .L968+16	@,
	mov	r2, #4	@,
	mov	r1, r7	@, listltidx
	mov	r0, fp	@, tmp667
	bl	qsort	@
	ldrb	r0, [r8, #555]	@ zero_extendqisi2	@ D.44243, pH264Ctx_69(D)->CurrPic.structure
	mov	r3, r10	@, D.44245
	mov	r2, r7	@, listltidx
	mov	ip, #1	@ tmp408,
	mov	r1, fp	@, tmp667
	stmia	sp, {r9, ip}	@,,
	bl	GenPiclistfromFrmlist	@
	ldr	r2, [r6, #244]	@ D.44236, pH264Ctx_69(D)->CurrSlice.listXsize
	mov	r3, #0	@ tmp413,
	str	r3, [r6, #248]	@ tmp413, pH264Ctx_69(D)->CurrSlice.listXsize
	cmp	r2, #0	@ D.44236,
	bne	.L848	@,
.L962:
	ldr	r3, [r4]	@ pH264Ctx_69(D)->pstExtraData, pH264Ctx_69(D)->pstExtraData
	ldr	r3, [r3, #12]	@ _123->s32DecOrderOutput, _123->s32DecOrderOutput
	cmp	r3, #2	@ _123->s32DecOrderOutput,
	bne	.L849	@,
	ldrb	r3, [r8, #555]	@ zero_extendqisi2	@ D.44241, pH264Ctx_69(D)->CurrPic.structure
	cmp	r3, #0	@ D.44241,
	beq	.L967	@,
	cmp	r3, #1	@ D.44241,
	ldr	r2, [sp, #12]	@ tmp664, %sfp
	ldr	r3, [r8, #960]	@ pH264Ctx_69(D)->CurrPic.frame_store, pH264Ctx_69(D)->CurrPic.frame_store
	addeq	r3, r3, #436	@ D.44244, pH264Ctx_69(D)->CurrPic.frame_store,
	addne	r3, r3, #472	@ D.44244, pH264Ctx_69(D)->CurrPic.frame_store,
	str	r3, [r2, #2460]	@ D.44244, pH264Ctx_69(D)->pListX
.L851:
	mov	r3, #0	@ D.44236,
	mov	r2, #1	@ D.44236,
	b	.L848	@
.L967:
	ldr	r2, [sp, #12]	@ tmp664, %sfp
	ldr	r3, [r8, #960]	@ pH264Ctx_69(D)->CurrPic.frame_store, pH264Ctx_69(D)->CurrPic.frame_store
	add	r3, r3, #400	@ D.44244, pH264Ctx_69(D)->CurrPic.frame_store,
	str	r3, [r2, #2460]	@ D.44244, pH264Ctx_69(D)->pListX
	b	.L851	@
.L884:
	ldr	r7, [r1, #2592]	@ D.44244, pH264Ctx_69(D)->pListX
	b	.L887	@
.L957:
	mov	r10, r5, asl #2	@ D.44237, j,
	ldr	r3, .L968+12	@,
	add	r0, fp, r10	@, tmp661, D.44237
	mov	r2, #4	@,
	mov	r1, r7	@, D.44243
	bl	qsort	@
	subs	r9, r5, #0	@ j, j
	bne	.L895	@,
.L953:
	add	ip, sp, #88	@ tmp663,,
	b	.L879	@
.L956:
	add	r9, r7, #6720	@ D.44237, j,
	mov	r2, #4	@,
	add	r9, r9, #38	@ D.44237, D.44237,
	ldr	r3, .L968+24	@,
	mov	r1, r10	@, D.44243
	add	r8, r4, r9, lsl #2	@ tmp631, pH264Ctx, D.44237,
	add	r8, r8, r2	@ D.44234, tmp631,
	mov	r0, r8	@, D.44234
	bl	qsort	@
	subs	fp, r7, #0	@ j, j
	bne	.L894	@,
	b	.L866	@
.L901:
	mov	r5, r7	@ j, j
	b	.L840	@
.L963:
	add	fp, sp, #24	@ tmp661,,
	ldr	r3, .L968+8	@,
	mov	r2, #4	@,
	mov	r1, r10	@, D.44243
	mov	r0, fp	@, tmp661
	bl	qsort	@
	ldr	r3, [sp, #12]	@ tmp664, %sfp
	ldr	r7, [r3, #2056]	@ D.44243, pH264Ctx_69(D)->DPB.ref_frames_in_buffer
	cmp	r7, #0	@ D.44243,
	addne	r9, r4, #26368	@ ivtmp.1123, pH264Ctx,
	movne	r5, r10	@ j, D.44243
	addne	r9, r9, #124	@ ivtmp.1123, ivtmp.1123,
	bne	.L898	@,
	ldr	r3, .L968+12	@,
	mov	r2, #4	@,
	mov	r1, r7	@, D.44243
	mov	r0, fp	@, tmp661
	mov	r9, r7	@ j, tmp1
	bl	qsort	@
	b	.L953	@
.L857:
	add	r5, r0, #26880	@ ivtmp.990, pH264Ctx,
	ldr	r3, .L968+20	@,
	add	r5, r5, #156	@ ivtmp.990, ivtmp.990,
	mov	r2, #4	@,
	mov	r1, fp	@, D.44243
	mov	r0, r5	@, ivtmp.990
	bl	qsort	@
	ldr	r3, [sp, #12]	@ tmp664, %sfp
	ldr	r10, [r3, #2056]	@ D.44243, pH264Ctx_69(D)->DPB.ref_frames_in_buffer
	cmp	r10, #0	@ D.44243,
	addne	r9, r4, #26368	@ ivtmp.1123, pH264Ctx,
	movne	r7, fp	@ j, D.44243
	addne	r9, r9, #124	@ ivtmp.1123, ivtmp.1123,
	bne	.L896	@,
	ldr	r3, .L968+24	@,
	mov	r2, #4	@,
	mov	r1, r10	@, D.44243
	mov	r0, r5	@, ivtmp.990
	mov	fp, r10	@ j, tmp1
	bl	qsort	@
	mov	r8, r5	@ D.44234, ivtmp.990
	b	.L866	@
.L900:
	mov	r7, ip	@ j, D.44243
	b	.L837	@
.L903:
	mov	r7, fp	@ j, j
	b	.L868	@
.L969:
	.align	2
.L968:
	.word	compare_pic_by_pic_num_desc
	.word	compare_pic_by_lt_pic_num_asc
	.word	compare_fs_by_poc_desc
	.word	compare_fs_by_poc_asc
	.word	compare_fs_by_lt_pic_idx_asc
	.word	compare_pic_by_poc_desc
	.word	compare_pic_by_poc_asc
	.word	compare_fs_by_frame_num_desc
	.fnend
	.size	InitListX, .-InitListX
	.align	2
	.global	DumpList
	.type	DumpList, %function
DumpList:
	.fnstart
	@ args = 0, pretend = 0, frame = 0
	@ frame_needed = 0, uses_anonymous_args = 0
	@ link register save eliminated.
	ldr	r3, .L972	@ tmp113,
	ldr	r3, [r3]	@ g_PrintEnable, g_PrintEnable
	tst	r3, #8192	@ g_PrintEnable,
	bxeq	lr	@
	b	DumpList.part.5	@
.L973:
	.align	2
.L972:
	.word	g_PrintEnable
	.fnend
	.size	DumpList, .-DumpList
	.align	2
	.global	FindNearestPOCPicId
	.type	FindNearestPOCPicId, %function
FindNearestPOCPicId:
	.fnstart
	@ args = 0, pretend = 0, frame = 0
	@ frame_needed = 0, uses_anonymous_args = 0
	add	r3, r0, #24576	@ tmp130, pH264Ctx,
	stmfd	sp!, {r4, r5, lr}	@,
	.save {r4, r5, lr}
	ldr	r4, [r3, #2052]	@ D.44271, pH264Ctx_8(D)->DPB.used_size
	cmp	r4, #0	@ D.44271,
	beq	.L979	@,
	ldr	r3, [r3, #1856]	@ pH264Ctx_8(D)->DPB.fs, pH264Ctx_8(D)->DPB.fs
	add	r2, r0, #49152	@ tmp132, pH264Ctx,
	ldr	r5, [r2, #980]	@ curr_poc, pH264Ctx_8(D)->CurrPic.thispoc
	ldr	lr, [r3, #524]	@ _11->poc, _11->poc
	rsb	lr, lr, r5	@ D.44273, _11->poc, curr_poc
	cmp	lr, #0	@ nearest_poc_diff,
	rsblt	lr, lr, #0	@ nearest_poc_diff, D.44273,
	cmp	r4, #1	@ D.44271,
	bls	.L980	@,
	add	r1, r0, #26368	@ ivtmp.1150, pH264Ctx,
	mov	r2, #1	@ i,
	add	r1, r1, #64	@ ivtmp.1150, ivtmp.1150,
	mov	r0, #0	@ nearest_pic_id,
.L978:
	ldr	ip, [r1, #4]!	@ D.44272, MEM[base: _1, offset: 0B]
	add	r2, r2, #1	@ i, i,
	ldr	r3, [ip, #524]	@ _15->poc, _15->poc
	rsb	r3, r3, r5	@ D.44273, _15->poc, curr_poc
	cmp	r3, #0	@ nearest_poc_diff,
	rsblt	r3, r3, #0	@ nearest_poc_diff, D.44273,
	cmp	r3, lr	@ nearest_poc_diff, nearest_poc_diff
	ldrlt	r0, [ip, #184]	@ nearest_pic_id, _15->fs_image.image_id
	movlt	lr, r3	@ nearest_poc_diff, nearest_poc_diff
	cmp	r2, r4	@ i, D.44271
	bne	.L978	@,
	ldmfd	sp!, {r4, r5, pc}	@
.L980:
	mov	r0, #0	@ nearest_pic_id,
	ldmfd	sp!, {r4, r5, pc}	@
.L979:
	mvn	r0, #0	@ D.44270,
	ldmfd	sp!, {r4, r5, pc}	@
	.fnend
	.size	FindNearestPOCPicId, .-FindNearestPOCPicId
	.align	2
	.global	FindMinRefIdx
	.type	FindMinRefIdx, %function
FindMinRefIdx:
	.fnstart
	@ args = 0, pretend = 0, frame = 0
	@ frame_needed = 0, uses_anonymous_args = 0
	add	r3, r0, #20480	@ tmp151, pH264Ctx,
	ldrb	r2, [r3, #200]	@ zero_extendqisi2	@ pH264Ctx_10(D)->CurrSlice.slice_type, pH264Ctx_10(D)->CurrSlice.slice_type
	cmp	r2, #2	@ pH264Ctx_10(D)->CurrSlice.slice_type,
	bxeq	lr	@
	add	r2, r0, #49152	@ tmp154, pH264Ctx,
	stmfd	sp!, {r4, r5, r6, r7, r8, lr}	@,
	.save {r4, r5, r6, r7, r8, lr}
	ldrb	ip, [r2, #555]	@ zero_extendqisi2	@ pH264Ctx_10(D)->CurrPic.structure, pH264Ctx_10(D)->CurrPic.structure
	cmp	ip, #0	@ pH264Ctx_10(D)->CurrPic.structure,
	bne	.L1015	@,
	ldr	lr, [r3, #244]	@ D.44324, pH264Ctx_10(D)->CurrSlice.listXsize
	add	r5, r0, #26880	@ ivtmp.1176, pH264Ctx,
	mov	r7, ip	@ j, i
	cmp	lr, #0	@ D.44324,
	mov	r4, r5	@ ivtmp.1179, ivtmp.1176
	mov	r6, r5	@ ivtmp.1163, ivtmp.1179
	add	r4, r4, #32	@ ivtmp.1179, ivtmp.1179,
	add	r5, r5, #28	@ ivtmp.1176, ivtmp.1176,
	add	r6, r6, #152	@ ivtmp.1163, ivtmp.1163,
	beq	.L991	@,
.L1017:
	mov	r2, r6	@ ivtmp.1163, ivtmp.1163
	mov	r0, #32	@ minrefidx,
	mov	r3, #0	@ j,
	b	.L989	@
.L988:
	add	r3, r3, #1	@ j, j,
	cmp	r3, lr	@ j, D.44324
	beq	.L1016	@,
.L989:
	ldr	r1, [r2, #4]!	@ MEM[base: _61, offset: 0B], MEM[base: _61, offset: 0B]
	ldr	r1, [r1, #4]	@ _34->frame_store, _34->frame_store
	ldr	r1, [r1, #552]	@ _35->apc_idc, _35->apc_idc
	cmp	r1, ip	@ _35->apc_idc, i
	bne	.L988	@,
	cmp	r0, r3	@ minrefidx, j
	movcs	r0, r3	@ minrefidx, j
	add	r3, r3, #1	@ j, j,
	cmp	r3, lr	@ j, D.44324
	str	r0, [r4, #-4]	@ minrefidx, MEM[base: _67, offset: 4294967292B]
	str	r0, [r5, #4]	@ minrefidx, MEM[base: _57, offset: 4B]
	bne	.L989	@,
.L1016:
	cmp	r0, #31	@ minrefidx,
	bhi	.L991	@,
.L990:
	add	ip, ip, #1	@ i, i,
	add	r5, r5, #8	@ ivtmp.1176, ivtmp.1176,
	cmp	ip, #16	@ i,
	add	r4, r4, #8	@ ivtmp.1179, ivtmp.1179,
	ldmeqfd	sp!, {r4, r5, r6, r7, r8, pc}	@
	cmp	lr, #0	@ D.44324,
	bne	.L1017	@,
.L991:
	str	r7, [r4, #-4]	@ j, MEM[base: _18, offset: 4294967292B]
	str	r7, [r5, #4]	@ j, MEM[base: _68, offset: 4B]
	b	.L990	@
.L1015:
	ldr	r5, [r3, #244]	@ D.44324, pH264Ctx_10(D)->CurrSlice.listXsize
	add	r6, r0, #26880	@ ivtmp.1196, pH264Ctx,
	mov	lr, #0	@ i,
	cmp	r5, #0	@ D.44324,
	mov	r7, r6	@ ivtmp.1183, ivtmp.1196
	mov	r8, lr	@ j, i
	add	r6, r6, #28	@ ivtmp.1196, ivtmp.1196,
	add	r7, r7, #152	@ ivtmp.1183, ivtmp.1183,
	beq	.L995	@,
.L1019:
	mov	r1, r7	@ ivtmp.1183, ivtmp.1183
	mov	r4, #32	@ minrefidx,
	mov	r2, #0	@ j,
	b	.L993	@
.L992:
	add	r2, r2, #1	@ j, j,
	cmp	r2, r5	@ j, D.44324
	beq	.L1018	@,
.L993:
	ldr	r3, [r1, #4]!	@ D.44322, MEM[base: _45, offset: 0B]
	ldr	ip, [r3, #4]	@ _14->frame_store, _14->frame_store
	ldrb	r0, [r3]	@ zero_extendqisi2	@ _14->structure, _14->structure
	ldr	r3, [ip, #552]	@ _15->apc_idc, _15->apc_idc
	mov	r3, r3, asl #1	@ D.44324, _15->apc_idc,
	cmp	r0, #2	@ _14->structure,
	orreq	r3, r3, #1	@,, D.44324, D.44324
	cmp	r3, lr	@ D.44324, i
	bne	.L992	@,
	cmp	r4, r2	@ minrefidx, j
	movcs	r4, r2	@ minrefidx, j
	add	r2, r2, #1	@ j, j,
	cmp	r2, r5	@ j, D.44324
	str	r4, [r6]	@ minrefidx, MEM[base: _6, offset: 0B]
	bne	.L993	@,
.L1018:
	cmp	r4, #31	@ minrefidx,
	bhi	.L995	@,
.L994:
	add	lr, lr, #1	@ i, i,
	add	r6, r6, #4	@ ivtmp.1196, ivtmp.1196,
	cmp	lr, #32	@ i,
	ldmeqfd	sp!, {r4, r5, r6, r7, r8, pc}	@
	cmp	r5, #0	@ D.44324,
	bne	.L1019	@,
.L995:
	str	r8, [r6]	@ j, MEM[base: _4, offset: 0B]
	b	.L994	@
	.fnend
	.size	FindMinRefIdx, .-FindMinRefIdx
	.align	2
	.global	DecList
	.type	DecList, %function
DecList:
	.fnstart
	@ args = 0, pretend = 0, frame = 0
	@ frame_needed = 0, uses_anonymous_args = 0
	stmfd	sp!, {r4, r5, r6, lr}	@,
	.save {r4, r5, r6, lr}
	mov	r6, r0	@ pH264Ctx, pH264Ctx
	bl	FindNearestPOCPicId	@
	add	r5, r6, #20480	@ tmp151, pH264Ctx,
	mvn	r4, #0	@ tmp129,
	ldrb	r3, [r5, #200]	@ zero_extendqisi2	@ pH264Ctx_4(D)->CurrSlice.slice_type, pH264Ctx_4(D)->CurrSlice.slice_type
	str	r4, [r5, #1828]	@ tmp129, pH264Ctx_4(D)->CurrSlice.picid_refidx0
	cmp	r3, #2	@ pH264Ctx_4(D)->CurrSlice.slice_type,
	str	r0, [r5, #1832]	@, pH264Ctx_4(D)->CurrSlice.picid_nearpoc
	beq	.L1034	@,
	mov	r0, r6	@, pH264Ctx
	bl	InitListX	@
	cmp	r0, #0	@,
	bne	.L1035	@,
	ldr	r4, .L1038	@ tmp152,
	bl	vfmw_dprint_nothing	@
	ldr	r3, [r4]	@ g_PrintEnable, g_PrintEnable
	tst	r3, #8192	@ g_PrintEnable,
	bne	.L1036	@,
.L1024:
	mov	r0, r6	@, pH264Ctx
	bl	ReorderListX	@
	mov	r0, r6	@, pH264Ctx
	bl	RepairList	@
	cmp	r0, #0	@,
	bne	.L1026	@,
	mov	r0, r6	@, pH264Ctx
	bl	FindMinRefIdx	@
	add	r3, r6, #24576	@ tmp143, pH264Ctx,
	ldr	r3, [r3, #2460]	@ D.44338, pH264Ctx_4(D)->pListX
	cmp	r3, #0	@ D.44338,
	ldrne	r3, [r3, #4]	@ _24->frame_store, _24->frame_store
	mvneq	r3, #0	@ D.44334,
	ldrne	r3, [r3, #184]	@ D.44334, _25->fs_image.image_id
	str	r3, [r5, #1828]	@ D.44334, pH264Ctx_4(D)->CurrSlice.picid_refidx0
	bl	vfmw_dprint_nothing	@
	ldr	r4, [r4]	@ g_PrintEnable, g_PrintEnable
	ands	r4, r4, #8192	@ D.44337, g_PrintEnable,
	bne	.L1037	@,
	mov	r0, #0	@ D.44334,
	ldmfd	sp!, {r4, r5, r6, pc}	@
.L1037:
	mov	r0, r6	@, pH264Ctx
	bl	DumpList.part.5	@
	mov	r0, #0	@ D.44334,
	ldmfd	sp!, {r4, r5, r6, pc}	@
.L1034:
	mov	r0, #0	@ tmp135,
	str	r0, [r5, #244]	@ tmp135, pH264Ctx_4(D)->CurrSlice.listXsize
	str	r0, [r5, #248]	@ tmp135, pH264Ctx_4(D)->CurrSlice.listXsize
	ldmfd	sp!, {r4, r5, r6, pc}	@
.L1036:
	mov	r0, r6	@, pH264Ctx
	bl	DumpList.part.5	@
	b	.L1024	@
.L1026:
	mvn	r0, #0	@ D.44334,
	ldmfd	sp!, {r4, r5, r6, pc}	@
.L1035:
	bl	vfmw_dprint_nothing	@
	mov	r0, r4	@ D.44334, tmp129
	ldmfd	sp!, {r4, r5, r6, pc}	@
.L1039:
	.align	2
.L1038:
	.word	g_PrintEnable
	.fnend
	.size	DecList, .-DecList
	.align	2
	.global	GetBackPicFromVOQueue
	.type	GetBackPicFromVOQueue, %function
GetBackPicFromVOQueue:
	.fnstart
	@ args = 0, pretend = 0, frame = 0
	@ frame_needed = 0, uses_anonymous_args = 0
	stmfd	sp!, {r4, r5, r6, r7, r8, r9, r10, lr}	@,
	.save {r4, r5, r6, r7, r8, r9, r10, lr}
	add	r7, r0, #49152	@ tmp152, pH264Ctx,
	mov	r9, r0	@ pH264Ctx, pH264Ctx
	ldr	r0, [r7, #3688]	@, pH264Ctx_10(D)->ChanID
	bl	FSP_GetFspType	@
	cmp	r0, #0	@,
	beq	.L1058	@,
.L1041:
	ldr	r3, [r7, #2164]	@ pH264Ctx_10(D)->TotalFsNum, pH264Ctx_10(D)->TotalFsNum
	cmp	r3, #0	@ pH264Ctx_10(D)->TotalFsNum,
	addne	r5, r9, #27392	@ ivtmp.1234, pH264Ctx,
	movne	r8, #0	@ i,
	addne	r5, r5, #124	@ ivtmp.1234, ivtmp.1234,
	movne	r6, r8	@ tmp155, i
	beq	.L1048	@,
.L1047:
	sub	r4, r5, #16	@ ivtmp.1220, ivtmp.1234,
	strb	r6, [r5, #-211]	@ tmp155, MEM[base: _51, offset: 4294967085B]
	strb	r6, [r5, #-210]	@ tmp155, MEM[base: _51, offset: 4294967086B]
.L1046:
	ldr	r1, [r4, #4]!	@ D.44380, MEM[base: _38, offset: 0B]
	cmp	r1, #0	@ D.44380,
	beq	.L1045	@,
	ldr	r0, [r7, #3688]	@, pH264Ctx_10(D)->ChanID
	bl	FreeUsdByDec	@
	str	r6, [r4]	@ tmp155, MEM[base: _38, offset: 0B]
.L1045:
	cmp	r4, r5	@ ivtmp.1220, ivtmp.1234
	bne	.L1046	@,
	ldr	r3, [r7, #2164]	@ pH264Ctx_10(D)->TotalFsNum, pH264Ctx_10(D)->TotalFsNum
	add	r8, r8, #1	@ i, i,
	add	r5, r5, #560	@ ivtmp.1234, ivtmp.1234,
	cmp	r3, r8	@ pH264Ctx_10(D)->TotalFsNum, i
	bhi	.L1047	@,
.L1048:
	ldr	r1, [r7, #2168]	@ D.44378, pH264Ctx_10(D)->TotalPmvNum
	cmp	r1, #0	@ D.44378,
	beq	.L1059	@,
	add	r2, r9, #51200	@ ivtmp.1206, pH264Ctx,
	mov	r3, #0	@ i,
	add	r2, r2, #44	@ ivtmp.1206, ivtmp.1206,
	mov	r0, r3	@ tmp153, i
.L1049:
	add	r3, r3, #1	@ i, i,
	str	r0, [r2, #4]!	@ tmp153, MEM[base: _19, offset: 0B]
	cmp	r3, r1	@ i, D.44378
	bne	.L1049	@,
	ldmfd	sp!, {r4, r5, r6, r7, r8, r9, r10, pc}	@
.L1058:
	add	r0, r9, #8	@, pH264Ctx,
	bl	ResetVoQueue	@
	b	.L1041	@
.L1059:
	ldmfd	sp!, {r4, r5, r6, r7, r8, r9, r10, pc}	@
	.fnend
	.size	GetBackPicFromVOQueue, .-GetBackPicFromVOQueue
	.align	2
	.global	wait_vo
	.type	wait_vo, %function
wait_vo:
	.fnstart
	@ args = 0, pretend = 0, frame = 0
	@ frame_needed = 0, uses_anonymous_args = 0
	@ link register save eliminated.
	bx	lr	@
	.fnend
	.size	wait_vo, .-wait_vo
	.align	2
	.global	GetReRangeFlag
	.type	GetReRangeFlag, %function
GetReRangeFlag:
	.fnstart
	@ args = 0, pretend = 0, frame = 8
	@ frame_needed = 0, uses_anonymous_args = 0
	stmfd	sp!, {r4, r5, r6, r7, r8, lr}	@,
	.save {r4, r5, r6, r7, r8, lr}
	add	r3, r0, #20480	@ tmp164, pH264Ctx,
	add	r6, r0, #12288	@ tmp222, pH264Ctx,
	mov	lr, #2208	@ tmp169,
	ldr	r3, [r3, #212]	@ pH264Ctx_4(D)->CurrSlice.pic_parameter_set_id, pH264Ctx_4(D)->CurrSlice.pic_parameter_set_id
	mov	r4, #4000	@ tmp173,
	ldr	ip, [r6, #1296]	@ pH264Ctx_4(D)->PPS, pH264Ctx_4(D)->PPS
	mov	r7, r0	@ pH264Ctx, pH264Ctx
	ldr	r2, [r6, #1292]	@ pH264Ctx_4(D)->SPS, pH264Ctx_4(D)->SPS
	mov	r5, r1	@ p_dpb_changed, p_dpb_changed
	ldr	r0, [r6, #1272]	@ D.44389, pH264Ctx_4(D)->CurWidthInMb
	.pad #8
	sub	sp, sp, #8	@,,
	mla	r3, lr, r3, ip	@ tmp170, tmp169, pH264Ctx_4(D)->CurrSlice.pic_parameter_set_id, pH264Ctx_4(D)->PPS
	ldr	r1, [r6, #1276]	@ D.44389, pH264Ctx_4(D)->CurHeightInMb
	ldr	r3, [r3, #28]	@ pPPS_8->seq_parameter_set_id, pPPS_8->seq_parameter_set_id
	mla	r4, r4, r3, r2	@ pSPS, tmp173, pPPS_8->seq_parameter_set_id, pH264Ctx_4(D)->SPS
	ldrb	r3, [r4, #18]	@ zero_extendqisi2	@ D.44389, pSPS_12->frame_mbs_only_flag
	ldr	ip, [r4, #3960]	@ pSPS_12->pic_height_in_map_units_minus1, pSPS_12->pic_height_in_map_units_minus1
	rsb	r3, r3, #2	@ D.44389, D.44389,
	ldr	r2, [r4, #3956]	@ pSPS_12->pic_width_in_mbs_minus1, pSPS_12->pic_width_in_mbs_minus1
	mla	r3, ip, r3, r3	@ newh, pSPS_12->pic_height_in_map_units_minus1, D.44389, D.44389
	add	r2, r2, #1	@ neww, pSPS_12->pic_width_in_mbs_minus1,
	cmp	r2, r0	@ neww, D.44389
	cmpeq	r3, r1	@, newh, D.44389
	movne	ip, #1	@ tmp190,
	moveq	ip, #0	@ tmp190,
	bne	.L1062	@,
	add	r8, r7, #24576	@ tmp192, pH264Ctx,
	ldr	lr, [r4, #3980]	@ D.44394, pSPS_12->dpb_size_plus1
	ldr	r8, [r8, #2048]	@ pH264Ctx_4(D)->DPB.size, pH264Ctx_4(D)->DPB.size
	add	r8, r8, #1	@ D.44387, pH264Ctx_4(D)->DPB.size,
	cmp	lr, r8	@ D.44394, D.44387
	movls	r2, ip	@ D.44387, tmp190
	movls	r0, r2	@ ReRangeFlg, D.44387
	bls	.L1063	@,
.L1062:
	ldr	ip, .L1068	@ tmp195,
	ldr	ip, [ip]	@ D.44392, g_event_report
	cmp	ip, #0	@ D.44392,
	beq	.L1067	@,
	add	lr, r7, #49152	@ tmp206, pH264Ctx,
	mov	r0, r0, asl #4	@ tmp197, D.44389,
	mov	r1, r1, asl #4	@ tmp199, D.44389,
	strh	r0, [sp]	@ movhi	@ tmp197, para
	strh	r1, [sp, #2]	@ movhi	@ tmp199, para
	mov	r2, r2, asl #4	@ tmp201, neww,
	mov	r3, r3, asl #4	@ tmp203, newh,
	strh	r2, [sp, #4]	@ movhi	@ tmp201, para
	ldr	r0, [lr, #3688]	@, pH264Ctx_4(D)->ChanID
	mov	r2, sp	@,
	strh	r3, [sp, #6]	@ movhi	@ tmp203, para
	mov	r1, #2	@,
	blx	ip	@ D.44392
	ldr	lr, [r4, #3980]	@ D.44394, pSPS_12->dpb_size_plus1
	mov	r2, #1	@ D.44387,
	mov	r0, r2	@ ReRangeFlg, D.44387
.L1063:
	add	r3, r7, #16384	@ tmp209, pH264Ctx,
	ldr	r6, [r6, #2044]	@ pH264Ctx_4(D)->CurrSPS.seq_parameter_set_id, pH264Ctx_4(D)->CurrSPS.seq_parameter_set_id
	ldr	ip, [r4, #744]	@ pSPS_12->seq_parameter_set_id, pSPS_12->seq_parameter_set_id
	ldr	r1, [r3, #1184]	@ pH264Ctx_4(D)->CurrSPS.dpb_size_plus1, pH264Ctx_4(D)->CurrSPS.dpb_size_plus1
	cmp	r6, ip	@ pH264Ctx_4(D)->CurrSPS.seq_parameter_set_id, pSPS_12->seq_parameter_set_id
	cmpeq	r1, lr	@, pH264Ctx_4(D)->CurrSPS.dpb_size_plus1, D.44394
	movne	r3, #1	@ dpb_changed,
	moveq	r3, #0	@ dpb_changed,
	orr	r2, r3, r2	@ dpb_changed, dpb_changed, D.44387
	str	r2, [r5]	@ dpb_changed, *p_dpb_changed_59(D)
	add	sp, sp, #8	@,,
	@ sp needed	@
	ldmfd	sp!, {r4, r5, r6, r7, r8, pc}	@
.L1067:
	mov	r2, #1	@ D.44387,
	ldr	lr, [r4, #3980]	@ D.44394, pSPS_12->dpb_size_plus1
	mov	r0, r2	@ ReRangeFlg, D.44387
	b	.L1063	@
.L1069:
	.align	2
.L1068:
	.word	g_event_report
	.fnend
	.size	GetReRangeFlag, .-GetReRangeFlag
	.global	__aeabi_uidiv
	.global	__aeabi_uidivmod
	.align	2
	.global	DecPOC
	.type	DecPOC, %function
DecPOC:
	.fnstart
	@ args = 0, pretend = 0, frame = 0
	@ frame_needed = 0, uses_anonymous_args = 0
	stmfd	sp!, {r4, r5, r6, r7, r8, r9, r10, lr}	@,
	.save {r4, r5, r6, r7, r8, r9, r10, lr}
	add	r2, r0, #12288	@ tmp233, pH264Ctx,
	add	r6, r0, #20480	@ tmp539, pH264Ctx,
	mov	r4, #2208	@ tmp241,
	ldr	r3, [r2, #1296]	@ pH264Ctx_22(D)->PPS, pH264Ctx_22(D)->PPS
	mov	r5, #4000	@ tmp245,
	ldr	r1, [r6, #212]	@ pH264Ctx_22(D)->CurrSlice.pic_parameter_set_id, pH264Ctx_22(D)->CurrSlice.pic_parameter_set_id
	mov	ip, #1	@ tmp249,
	ldr	lr, [r2, #1292]	@ pH264Ctx_22(D)->SPS, pH264Ctx_22(D)->SPS
	ldrb	r2, [r6, #203]	@ zero_extendqisi2	@ pH264Ctx_22(D)->CurrSlice.nal_unit_type, pH264Ctx_22(D)->CurrSlice.nal_unit_type
	mla	r3, r4, r1, r3	@ tmp242, tmp241, pH264Ctx_22(D)->CurrSlice.pic_parameter_set_id, pH264Ctx_22(D)->PPS
	sub	r2, r2, #5	@ D.44422, pH264Ctx_22(D)->CurrSlice.nal_unit_type,
	clz	r2, r2	@ D.44422, D.44422
	mov	r2, r2, lsr #5	@ D.44422, D.44422,
	ldr	r3, [r3, #28]	@ pps_29->seq_parameter_set_id, pps_29->seq_parameter_set_id
	mla	r5, r5, r3, lr	@ sps, tmp245, pps_29->seq_parameter_set_id, pH264Ctx_22(D)->SPS
	ldr	r1, [r5, #2908]	@ D.44424, sps_33->pic_order_cnt_type
	ldr	r3, [r5, #2904]	@ sps_33->log2_max_frame_num_minus4, sps_33->log2_max_frame_num_minus4
	cmp	r1, ip	@ D.44424,
	ldr	lr, [r5, #2912]	@ D.44424, sps_33->log2_max_pic_order_cnt_lsb_minus4
	add	r3, r3, #4	@ D.44424, sps_33->log2_max_frame_num_minus4,
	mov	r3, ip, asl r3	@ MaxFrameNum, tmp249,
	beq	.L1072	@,
	bcc	.L1073	@,
	cmp	r1, #2	@ D.44424,
	ldmnefd	sp!, {r4, r5, r6, r7, r8, r9, r10, pc}	@
	cmp	r2, #0	@ D.44422,
	add	r4, r0, #16384	@ tmp538, pH264Ctx,
	bne	.L1129	@,
	ldr	r1, [r4, #3436]	@ pH264Ctx_22(D)->CurrPOC.last_has_mmco_5, pH264Ctx_22(D)->CurrPOC.last_has_mmco_5
	cmp	r1, #0	@ pH264Ctx_22(D)->CurrPOC.last_has_mmco_5,
	bne	.L1106	@,
	ldr	r2, [r4, #3476]	@ D.44424, pH264Ctx_22(D)->CurrPOC.frame_num
	ldr	r0, [r4, #3472]	@ pH264Ctx_22(D)->CurrPOC.PreviousFrameNum, pH264Ctx_22(D)->CurrPOC.PreviousFrameNum
	ldr	r1, [r4, #3484]	@ D.44424, pH264Ctx_22(D)->CurrPOC.PrevFrameNumOffset
	cmp	r2, r0	@ D.44424, pH264Ctx_22(D)->CurrPOC.PreviousFrameNum
	addcc	r1, r1, r3	@ D.44424, D.44424, MaxFrameNum
	strcc	r1, [r4, #3480]	@ D.44424, pH264Ctx_22(D)->CurrPOC.FrameNumOffset
	bcs	.L1108	@,
.L1109:
	add	r3, r1, r2	@ D.44424, D.44424, D.44424
	str	r3, [r4, #3468]	@ D.44424, pH264Ctx_22(D)->CurrPOC.AbsFrameNum
	ldr	r0, [r6, #232]	@ pH264Ctx_22(D)->CurrSlice.nal_ref_idc, pH264Ctx_22(D)->CurrSlice.nal_ref_idc
	mov	r3, r3, asl #1	@ D.44424, D.44424,
	cmp	r0, #0	@ pH264Ctx_22(D)->CurrSlice.nal_ref_idc,
	subeq	r3, r3, #1	@ D.44426, D.44424,
	str	r3, [r4, #3456]	@ D.44426, pH264Ctx_22(D)->CurrPOC.ThisPOC
	ldrb	r0, [r6, #201]	@ zero_extendqisi2	@ pH264Ctx_22(D)->CurrSlice.field_pic_flag, pH264Ctx_22(D)->CurrSlice.field_pic_flag
	cmp	r0, #0	@ pH264Ctx_22(D)->CurrSlice.field_pic_flag,
	bne	.L1112	@,
	str	r3, [r4, #3452]	@ D.44426, pH264Ctx_22(D)->CurrPOC.framepoc
	str	r3, [r4, #3448]	@ D.44426, pH264Ctx_22(D)->CurrPOC.bottompoc
	str	r3, [r4, #3444]	@ D.44426, pH264Ctx_22(D)->CurrPOC.toppoc
.L1105:
	str	r2, [r4, #3472]	@ D.44424, pH264Ctx_22(D)->CurrPOC.PreviousFrameNum
	str	r1, [r4, #3484]	@ D.44426, pH264Ctx_22(D)->CurrPOC.PrevFrameNumOffset
	ldmfd	sp!, {r4, r5, r6, r7, r8, r9, r10, pc}	@
.L1073:
	cmp	r2, #0	@ D.44422,
	add	lr, lr, #4	@ D.44424, D.44424,
	add	r4, r0, #16384	@ tmp538, pH264Ctx,
	mov	ip, ip, asl lr	@ MaxPicOrderCntLsb, tmp249,
	bne	.L1079	@,
	ldr	r3, [r4, #3436]	@ pH264Ctx_22(D)->CurrPOC.last_has_mmco_5, pH264Ctx_22(D)->CurrPOC.last_has_mmco_5
	cmp	r3, #0	@ pH264Ctx_22(D)->CurrPOC.last_has_mmco_5,
	bne	.L1077	@,
	ldr	lr, [r4, #3420]	@ D.44430, pH264Ctx_22(D)->CurrPOC.PrevPicOrderCntMsb
	ldr	r1, [r4, #3424]	@ D.44424, pH264Ctx_22(D)->CurrPOC.PrevPicOrderCntLsb
	mov	r2, lr	@ D.44424, D.44430
.L1078:
	ldr	r0, [r4, #3412]	@ D.44424, pH264Ctx_22(D)->CurrPOC.pic_order_cnt_lsb
	cmp	r0, r1	@ D.44424, D.44424
	bcs	.L1076	@,
	rsb	r3, r0, r1	@ D.44424, D.44424, D.44424
	cmp	r3, ip, lsr #1	@ D.44424, MaxPicOrderCntLsb,
	addcs	r2, r2, ip	@ D.44424, D.44424, MaxPicOrderCntLsb
	strcs	r2, [r4, #3428]	@ D.44424, pH264Ctx_22(D)->CurrPOC.PicOrderCntMsb
	bcc	.L1076	@,
.L1080:
	ldrb	r3, [r6, #201]	@ zero_extendqisi2	@ pH264Ctx_22(D)->CurrSlice.field_pic_flag, pH264Ctx_22(D)->CurrSlice.field_pic_flag
	cmp	r3, #0	@ pH264Ctx_22(D)->CurrSlice.field_pic_flag,
	bne	.L1082	@,
.L1131:
	ldr	r3, [r4, #3416]	@ pH264Ctx_22(D)->CurrPOC.delta_pic_order_cnt_bottom, pH264Ctx_22(D)->CurrPOC.delta_pic_order_cnt_bottom
	add	r2, r2, r0	@ D.44426, D.44424, D.44424
	str	r2, [r4, #3444]	@ D.44426, pH264Ctx_22(D)->CurrPOC.toppoc
	add	r3, r2, r3	@ D.44426, D.44426, pH264Ctx_22(D)->CurrPOC.delta_pic_order_cnt_bottom
	str	r3, [r4, #3448]	@ D.44426, pH264Ctx_22(D)->CurrPOC.bottompoc
	cmp	r3, r2	@ D.44426, D.44426
	movge	r3, r2	@ D.44426, D.44426
	str	r3, [r4, #3456]	@ D.44426, pH264Ctx_22(D)->CurrPOC.ThisPOC
.L1083:
	ldr	r2, [r4, #3476]	@ D.44424, pH264Ctx_22(D)->CurrPOC.frame_num
	ldr	r1, [r4, #3472]	@ pH264Ctx_22(D)->CurrPOC.PreviousFrameNum, pH264Ctx_22(D)->CurrPOC.PreviousFrameNum
	str	r3, [r4, #3452]	@ D.44426, pH264Ctx_22(D)->CurrPOC.framepoc
	cmp	r2, r1	@ D.44424, pH264Ctx_22(D)->CurrPOC.PreviousFrameNum
	strne	r2, [r4, #3472]	@ D.44424, pH264Ctx_22(D)->CurrPOC.PreviousFrameNum
	ldr	r3, [r6, #232]	@ pH264Ctx_22(D)->CurrSlice.nal_ref_idc, pH264Ctx_22(D)->CurrSlice.nal_ref_idc
	cmp	r3, #0	@ pH264Ctx_22(D)->CurrSlice.nal_ref_idc,
	ldrne	r2, [r4, #3412]	@ pH264Ctx_22(D)->CurrPOC.pic_order_cnt_lsb, pH264Ctx_22(D)->CurrPOC.pic_order_cnt_lsb
	ldrne	r3, [r4, #3428]	@ pH264Ctx_22(D)->CurrPOC.PicOrderCntMsb, pH264Ctx_22(D)->CurrPOC.PicOrderCntMsb
	strne	r2, [r4, #3424]	@ pH264Ctx_22(D)->CurrPOC.pic_order_cnt_lsb, pH264Ctx_22(D)->CurrPOC.PrevPicOrderCntLsb
	strne	r3, [r4, #3420]	@ pH264Ctx_22(D)->CurrPOC.PicOrderCntMsb, pH264Ctx_22(D)->CurrPOC.PrevPicOrderCntMsb
	ldmfd	sp!, {r4, r5, r6, r7, r8, r9, r10, pc}	@
.L1072:
	cmp	r2, #0	@ D.44422,
	add	r4, r0, #16384	@ tmp538, pH264Ctx,
	movne	r3, #0	@ tmp335,
	strne	r3, [r4, #3480]	@ tmp335, pH264Ctx_22(D)->CurrPOC.FrameNumOffset
	bne	.L1087	@,
	ldr	r1, [r4, #3436]	@ pH264Ctx_22(D)->CurrPOC.last_has_mmco_5, pH264Ctx_22(D)->CurrPOC.last_has_mmco_5
	cmp	r1, #0	@ pH264Ctx_22(D)->CurrPOC.last_has_mmco_5,
	beq	.L1088	@,
	mov	r3, r2	@ D.44424, D.44422
	str	r2, [r4, #3484]	@ D.44422, pH264Ctx_22(D)->CurrPOC.PrevFrameNumOffset
	str	r2, [r4, #3472]	@ D.44422, pH264Ctx_22(D)->CurrPOC.PreviousFrameNum
.L1089:
	str	r3, [r4, #3480]	@ D.44424, pH264Ctx_22(D)->CurrPOC.FrameNumOffset
.L1087:
	ldr	r3, [r5, #2924]	@ sps_33->num_ref_frames_in_pic_order_cnt_cycle, sps_33->num_ref_frames_in_pic_order_cnt_cycle
	cmp	r3, #0	@ sps_33->num_ref_frames_in_pic_order_cnt_cycle,
	beq	.L1091	@,
	ldr	r3, [r4, #3476]	@ pH264Ctx_22(D)->CurrPOC.frame_num, pH264Ctx_22(D)->CurrPOC.frame_num
	ldr	r0, [r4, #3480]	@ pH264Ctx_22(D)->CurrPOC.FrameNumOffset, pH264Ctx_22(D)->CurrPOC.FrameNumOffset
	add	r0, r3, r0	@ D.44428, pH264Ctx_22(D)->CurrPOC.frame_num, pH264Ctx_22(D)->CurrPOC.FrameNumOffset
	str	r0, [r4, #3468]	@ D.44428, pH264Ctx_22(D)->CurrPOC.AbsFrameNum
	ldr	r7, [r6, #232]	@ D.44428, pH264Ctx_22(D)->CurrSlice.nal_ref_idc
	cmp	r7, #0	@ D.44428,
	bne	.L1093	@,
	cmp	r0, #0	@ D.44428,
	beq	.L1094	@,
	sub	r0, r0, #1	@ D.44428, D.44428,
	str	r0, [r4, #3468]	@ D.44428, pH264Ctx_22(D)->CurrPOC.AbsFrameNum
.L1093:
	mov	r3, #0	@ tmp381,
	str	r3, [r4, #3500]	@ tmp381, pH264Ctx_22(D)->CurrPOC.ExpectedDeltaPerPicOrderCntCycle
	ldr	r1, [r5, #2924]	@ D.44424, sps_33->num_ref_frames_in_pic_order_cnt_cycle
	cmp	r1, r3	@ D.44424,
	bgt	.L1114	@,
	cmp	r0, #0	@ D.44428,
	beq	.L1097	@,
.L1132:
	sub	r8, r0, #1	@ D.44424, D.44428,
	mov	r0, r8	@, D.44424
	bl	__aeabi_uidiv	@
	mov	r9, r0	@ D.44424,
	mov	r0, r8	@, D.44424
	str	r9, [r4, #3492]	@ D.44424, pH264Ctx_22(D)->CurrPOC.PicOrderCntCycleCnt
	ldr	r1, [r5, #2924]	@, sps_33->num_ref_frames_in_pic_order_cnt_cycle
	bl	__aeabi_uidivmod	@
	ldr	r0, [r4, #3500]	@ pH264Ctx_22(D)->CurrPOC.ExpectedDeltaPerPicOrderCntCycle, pH264Ctx_22(D)->CurrPOC.ExpectedDeltaPerPicOrderCntCycle
	mul	r0, r0, r9	@ D.44426, pH264Ctx_22(D)->CurrPOC.ExpectedDeltaPerPicOrderCntCycle, D.44424
	str	r0, [r4, #3496]	@ D.44426, pH264Ctx_22(D)->CurrPOC.ExpectedPicOrderCnt
	cmp	r1, #0	@ D.44426,
	str	r1, [r4, #3488]	@ D.44426, pH264Ctx_22(D)->CurrPOC.FrameNumInPicOrderCntCycle
	blt	.L1098	@,
	add	r2, r5, #2912	@ ivtmp.1245, sps,
	mov	r3, #0	@ i,
	add	r2, r2, #12	@ ivtmp.1245, ivtmp.1245,
.L1099:
	add	r3, r3, #1	@ i, i,
	ldr	ip, [r2, #4]!	@ MEM[base: _236, offset: 0B], MEM[base: _236, offset: 0B]
	cmp	r1, r3	@ D.44426, i
	add	r0, r0, ip	@ D.44426, D.44426, MEM[base: _236, offset: 0B]
	str	r0, [r4, #3496]	@ D.44426, pH264Ctx_22(D)->CurrPOC.ExpectedPicOrderCnt
	bge	.L1099	@,
.L1098:
	cmp	r7, #0	@ D.44428,
	ldreq	r3, [r5, #2916]	@ sps_33->offset_for_non_ref_pic, sps_33->offset_for_non_ref_pic
	addeq	r0, r0, r3	@ D.44426, D.44426, sps_33->offset_for_non_ref_pic
	streq	r0, [r4, #3496]	@ D.44426, pH264Ctx_22(D)->CurrPOC.ExpectedPicOrderCnt
	ldrb	r3, [r6, #201]	@ zero_extendqisi2	@ pH264Ctx_22(D)->CurrSlice.field_pic_flag, pH264Ctx_22(D)->CurrSlice.field_pic_flag
	cmp	r3, #0	@ pH264Ctx_22(D)->CurrSlice.field_pic_flag,
	bne	.L1101	@,
	ldr	r2, [r4, #3460]	@ pH264Ctx_22(D)->CurrPOC.delta_pic_order_cnt, pH264Ctx_22(D)->CurrPOC.delta_pic_order_cnt
	ldr	r1, [r4, #3464]	@ pH264Ctx_22(D)->CurrPOC.delta_pic_order_cnt, pH264Ctx_22(D)->CurrPOC.delta_pic_order_cnt
	add	r2, r0, r2	@ D.44426, D.44426, pH264Ctx_22(D)->CurrPOC.delta_pic_order_cnt
	str	r2, [r4, #3444]	@ D.44426, pH264Ctx_22(D)->CurrPOC.toppoc
	ldr	r3, [r5, #2920]	@ sps_33->offset_for_top_to_bottom_field, sps_33->offset_for_top_to_bottom_field
	add	r3, r2, r3	@ D.44426, D.44426, sps_33->offset_for_top_to_bottom_field
	add	r0, r3, r1	@ D.44426, D.44426, pH264Ctx_22(D)->CurrPOC.delta_pic_order_cnt
	str	r0, [r4, #3448]	@ D.44426, pH264Ctx_22(D)->CurrPOC.bottompoc
	cmp	r0, r2	@ D.44426, D.44426
	movge	r0, r2	@ D.44426, D.44426
	str	r0, [r4, #3456]	@ D.44426, pH264Ctx_22(D)->CurrPOC.ThisPOC
.L1102:
	ldr	r2, [r4, #3476]	@ pH264Ctx_22(D)->CurrPOC.frame_num, pH264Ctx_22(D)->CurrPOC.frame_num
	ldr	r3, [r4, #3480]	@ pH264Ctx_22(D)->CurrPOC.FrameNumOffset, pH264Ctx_22(D)->CurrPOC.FrameNumOffset
	str	r0, [r4, #3452]	@ D.44426, pH264Ctx_22(D)->CurrPOC.framepoc
	str	r2, [r4, #3472]	@ pH264Ctx_22(D)->CurrPOC.frame_num, pH264Ctx_22(D)->CurrPOC.PreviousFrameNum
	str	r3, [r4, #3484]	@ pH264Ctx_22(D)->CurrPOC.FrameNumOffset, pH264Ctx_22(D)->CurrPOC.PrevFrameNumOffset
	ldmfd	sp!, {r4, r5, r6, r7, r8, r9, r10, pc}	@
.L1077:
	ldr	lr, [r4, #3440]	@ D.44430, pH264Ctx_22(D)->CurrPOC.last_pic_bottom_field
	cmp	lr, #0	@ D.44430,
	beq	.L1130	@,
.L1079:
	ldr	r0, [r4, #3412]	@ D.44424, pH264Ctx_22(D)->CurrPOC.pic_order_cnt_lsb
	mov	r3, #0	@ tmp254,
	mov	lr, r3	@ D.44430, tmp254
	mov	r2, r1	@ D.44424, D.44424
	str	r3, [r4, #3420]	@ tmp254, pH264Ctx_22(D)->CurrPOC.PrevPicOrderCntMsb
	str	r3, [r4, #3424]	@ tmp254, pH264Ctx_22(D)->CurrPOC.PrevPicOrderCntLsb
.L1076:
	cmp	r0, r1	@ D.44424, D.44424
	bls	.L1081	@,
	rsb	r1, r1, r0	@ D.44424, D.44424, D.44424
	cmp	r1, ip, lsr #1	@ D.44424, MaxPicOrderCntLsb,
	rsbhi	r2, ip, r2	@ D.44424, MaxPicOrderCntLsb, D.44424
	strhi	r2, [r4, #3428]	@ D.44424, pH264Ctx_22(D)->CurrPOC.PicOrderCntMsb
	bhi	.L1080	@,
.L1081:
	str	lr, [r4, #3428]	@ D.44430, pH264Ctx_22(D)->CurrPOC.PicOrderCntMsb
	ldrb	r3, [r6, #201]	@ zero_extendqisi2	@ pH264Ctx_22(D)->CurrSlice.field_pic_flag, pH264Ctx_22(D)->CurrSlice.field_pic_flag
	cmp	r3, #0	@ pH264Ctx_22(D)->CurrSlice.field_pic_flag,
	beq	.L1131	@,
.L1082:
	ldrb	r3, [r6, #202]	@ zero_extendqisi2	@ pH264Ctx_22(D)->CurrSlice.bottom_field_flag, pH264Ctx_22(D)->CurrSlice.bottom_field_flag
	cmp	r3, #0	@ pH264Ctx_22(D)->CurrSlice.bottom_field_flag,
	add	r3, r2, r0	@ D.44426, D.44424, D.44424
	streq	r3, [r4, #3444]	@ D.44426, pH264Ctx_22(D)->CurrPOC.toppoc
	strne	r3, [r4, #3448]	@ D.44426, pH264Ctx_22(D)->CurrPOC.bottompoc
	str	r3, [r4, #3456]	@ D.44426, pH264Ctx_22(D)->CurrPOC.ThisPOC
	b	.L1083	@
.L1129:
	mov	r3, #0	@ tmp463,
	ldr	r2, [r4, #3476]	@ D.44424, pH264Ctx_22(D)->CurrPOC.frame_num
	mov	r1, r3	@ D.44426, tmp463
	str	r3, [r4, #3480]	@ tmp463, pH264Ctx_22(D)->CurrPOC.FrameNumOffset
	str	r3, [r4, #3448]	@ tmp463, pH264Ctx_22(D)->CurrPOC.bottompoc
	str	r3, [r4, #3444]	@ tmp463, pH264Ctx_22(D)->CurrPOC.toppoc
	str	r3, [r4, #3452]	@ tmp463, pH264Ctx_22(D)->CurrPOC.framepoc
	str	r3, [r4, #3456]	@ tmp463, pH264Ctx_22(D)->CurrPOC.ThisPOC
	b	.L1105	@
.L1091:
	str	r3, [r4, #3468]	@ sps_33->num_ref_frames_in_pic_order_cnt_cycle, pH264Ctx_22(D)->CurrPOC.AbsFrameNum
	ldr	r7, [r6, #232]	@ D.44428, pH264Ctx_22(D)->CurrSlice.nal_ref_idc
.L1094:
	mov	r0, #0	@ tmp536,
	str	r0, [r4, #3500]	@ tmp536, pH264Ctx_22(D)->CurrPOC.ExpectedDeltaPerPicOrderCntCycle
	ldr	r3, [r5, #2924]	@ sps_33->num_ref_frames_in_pic_order_cnt_cycle, sps_33->num_ref_frames_in_pic_order_cnt_cycle
	cmp	r3, r0	@ sps_33->num_ref_frames_in_pic_order_cnt_cycle,
	ble	.L1097	@,
.L1114:
	add	ip, r5, #2912	@ ivtmp.1256, sps,
	mov	r3, #0	@ D.44426,
	add	ip, ip, #12	@ ivtmp.1256, ivtmp.1256,
	mov	r2, r3	@ i, D.44426
.L1096:
	ldr	r1, [ip, #4]!	@ MEM[base: _55, offset: 0B], MEM[base: _55, offset: 0B]
	add	r2, r2, #1	@ i, i,
	add	r3, r3, r1	@ D.44426, D.44426, MEM[base: _55, offset: 0B]
	str	r3, [r4, #3500]	@ D.44426, pH264Ctx_22(D)->CurrPOC.ExpectedDeltaPerPicOrderCntCycle
	ldr	r1, [r5, #2924]	@ D.44424, sps_33->num_ref_frames_in_pic_order_cnt_cycle
	cmp	r1, r2	@ D.44424, i
	bgt	.L1096	@,
	cmp	r0, #0	@ D.44428,
	bne	.L1132	@,
.L1097:
	mov	r0, #0	@ tmp409,
	str	r0, [r4, #3496]	@ tmp409, pH264Ctx_22(D)->CurrPOC.ExpectedPicOrderCnt
	b	.L1098	@
.L1101:
	ldrb	r3, [r6, #202]	@ zero_extendqisi2	@ pH264Ctx_22(D)->CurrSlice.bottom_field_flag, pH264Ctx_22(D)->CurrSlice.bottom_field_flag
	cmp	r3, #0	@ pH264Ctx_22(D)->CurrSlice.bottom_field_flag,
	ldrne	r2, [r5, #2920]	@ sps_33->offset_for_top_to_bottom_field, sps_33->offset_for_top_to_bottom_field
	ldreq	r3, [r4, #3460]	@ pH264Ctx_22(D)->CurrPOC.delta_pic_order_cnt, pH264Ctx_22(D)->CurrPOC.delta_pic_order_cnt
	ldrne	r3, [r4, #3460]	@ pH264Ctx_22(D)->CurrPOC.delta_pic_order_cnt, pH264Ctx_22(D)->CurrPOC.delta_pic_order_cnt
	addne	r0, r0, r2	@ D.44426, D.44426, sps_33->offset_for_top_to_bottom_field
	addeq	r0, r0, r3	@ D.44426, D.44426, pH264Ctx_22(D)->CurrPOC.delta_pic_order_cnt
	streq	r0, [r4, #3444]	@ D.44426, pH264Ctx_22(D)->CurrPOC.toppoc
	addne	r0, r0, r3	@ D.44426, D.44426, pH264Ctx_22(D)->CurrPOC.delta_pic_order_cnt
	strne	r0, [r4, #3448]	@ D.44426, pH264Ctx_22(D)->CurrPOC.bottompoc
	str	r0, [r4, #3456]	@ D.44426, pH264Ctx_22(D)->CurrPOC.ThisPOC
	b	.L1102	@
.L1088:
	ldr	r1, [r4, #3476]	@ pH264Ctx_22(D)->CurrPOC.frame_num, pH264Ctx_22(D)->CurrPOC.frame_num
	ldr	r2, [r4, #3472]	@ pH264Ctx_22(D)->CurrPOC.PreviousFrameNum, pH264Ctx_22(D)->CurrPOC.PreviousFrameNum
	cmp	r1, r2	@ pH264Ctx_22(D)->CurrPOC.frame_num, pH264Ctx_22(D)->CurrPOC.PreviousFrameNum
	bcs	.L1090	@,
	ldr	r2, [r4, #3484]	@ pH264Ctx_22(D)->CurrPOC.PrevFrameNumOffset, pH264Ctx_22(D)->CurrPOC.PrevFrameNumOffset
	add	r3, r3, r2	@ D.44424, MaxFrameNum, pH264Ctx_22(D)->CurrPOC.PrevFrameNumOffset
	str	r3, [r4, #3480]	@ D.44424, pH264Ctx_22(D)->CurrPOC.FrameNumOffset
	b	.L1087	@
.L1112:
	ldrb	r0, [r6, #202]	@ zero_extendqisi2	@ pH264Ctx_22(D)->CurrSlice.bottom_field_flag, pH264Ctx_22(D)->CurrSlice.bottom_field_flag
	str	r3, [r4, #3452]	@ D.44426, pH264Ctx_22(D)->CurrPOC.framepoc
	cmp	r0, #0	@ pH264Ctx_22(D)->CurrSlice.bottom_field_flag,
	streq	r3, [r4, #3444]	@ D.44426, pH264Ctx_22(D)->CurrPOC.toppoc
	strne	r3, [r4, #3448]	@ D.44426, pH264Ctx_22(D)->CurrPOC.bottompoc
	b	.L1105	@
.L1106:
	str	r2, [r4, #3472]	@ D.44422, pH264Ctx_22(D)->CurrPOC.PreviousFrameNum
	mov	r1, r2	@ D.44424, D.44422
	str	r2, [r4, #3484]	@ D.44422, pH264Ctx_22(D)->CurrPOC.PrevFrameNumOffset
	ldr	r2, [r4, #3476]	@ D.44424, pH264Ctx_22(D)->CurrPOC.frame_num
.L1108:
	str	r1, [r4, #3480]	@ D.44424, pH264Ctx_22(D)->CurrPOC.FrameNumOffset
	b	.L1109	@
.L1130:
	ldr	r3, [r4, #3444]	@ D.44424, pH264Ctx_22(D)->CurrPOC.toppoc
	mov	r2, r1	@ D.44424, D.44424
	str	lr, [r4, #3420]	@ D.44430, pH264Ctx_22(D)->CurrPOC.PrevPicOrderCntMsb
	mov	r1, r3	@ D.44424, D.44424
	str	r3, [r4, #3424]	@ D.44424, pH264Ctx_22(D)->CurrPOC.PrevPicOrderCntLsb
	b	.L1078	@
.L1090:
	ldr	r3, [r4, #3484]	@ D.44424, pH264Ctx_22(D)->CurrPOC.PrevFrameNumOffset
	b	.L1089	@
	.fnend
	.size	DecPOC, .-DecPOC
	.align	2
	.global	CalcPicNum
	.type	CalcPicNum, %function
CalcPicNum:
	.fnstart
	@ args = 0, pretend = 0, frame = 0
	@ frame_needed = 0, uses_anonymous_args = 0
	add	r3, r0, #12288	@ tmp214, pH264Ctx,
	add	r2, r0, #20480	@ tmp211, pH264Ctx,
	stmfd	sp!, {r4, r5, r6, r7, r8, lr}	@,
	.save {r4, r5, r6, r7, r8, lr}
	mov	r4, #2208	@ tmp216,
	ldr	ip, [r2, #212]	@ pH264Ctx_19(D)->CurrSlice.pic_parameter_set_id, pH264Ctx_19(D)->CurrSlice.pic_parameter_set_id
	mov	lr, #4000	@ tmp223,
	ldr	r1, [r3, #1296]	@ pH264Ctx_19(D)->PPS, pH264Ctx_19(D)->PPS
	add	r6, r0, #49152	@ tmp318, pH264Ctx,
	ldr	r2, [r3, #1292]	@ pH264Ctx_19(D)->SPS, pH264Ctx_19(D)->SPS
	mov	r7, #1	@ tmp227,
	ldrb	r3, [r6, #555]	@ zero_extendqisi2	@ D.44484, pH264Ctx_19(D)->CurrPic.structure
	mla	r1, r4, ip, r1	@ tmp217, tmp216, pH264Ctx_19(D)->CurrSlice.pic_parameter_set_id, pH264Ctx_19(D)->PPS
	cmp	r3, #0	@ D.44484,
	ldr	r1, [r1, #28]	@ _24->seq_parameter_set_id, _24->seq_parameter_set_id
	mla	r2, lr, r1, r2	@ tmp224, tmp223, _24->seq_parameter_set_id, pH264Ctx_19(D)->SPS
	add	lr, r0, #24576	@ tmp317, pH264Ctx,
	ldr	r2, [r2, #2904]	@ pSPS_27->log2_max_frame_num_minus4, pSPS_27->log2_max_frame_num_minus4
	add	r2, r2, #4	@ D.44482, pSPS_27->log2_max_frame_num_minus4,
	mov	r7, r7, asl r2	@ MaxFrameNum, tmp227,
	beq	.L1134	@,
	sub	r5, r3, #1	@ D.44485, D.44484,
	sub	r4, r3, #2	@ D.44485, D.44484,
	ldr	r3, [lr, #2056]	@ pH264Ctx_19(D)->DPB.ref_frames_in_buffer, pH264Ctx_19(D)->DPB.ref_frames_in_buffer
	clz	r5, r5	@ D.44485, D.44485
	clz	r4, r4	@ D.44485, D.44485
	cmp	r3, #0	@ pH264Ctx_19(D)->DPB.ref_frames_in_buffer,
	mov	r5, r5, lsr #5	@ D.44485, D.44485,
	addne	ip, r0, #26368	@ ivtmp.1302, pH264Ctx,
	mov	r4, r4, lsr #5	@ D.44485, D.44485,
	movne	r2, #0	@ i,
	addne	ip, ip, #124	@ ivtmp.1302, ivtmp.1302,
	beq	.L1154	@,
.L1153:
	ldr	r1, [ip, #4]!	@ D.44477, MEM[base: _127, offset: 0B]
	ldrb	r3, [r1, #2]	@ zero_extendqisi2	@ _64->is_reference, _64->is_reference
	cmp	r3, #0	@ _64->is_reference,
	beq	.L1148	@,
	ldr	r3, [r1, #512]	@ D.44482, _64->frame_num
	ldr	r8, [r6, #968]	@ pH264Ctx_19(D)->CurrPic.frame_num, pH264Ctx_19(D)->CurrPic.frame_num
	cmp	r3, r8	@ D.44482, pH264Ctx_19(D)->CurrPic.frame_num
	rsbhi	r3, r7, r3	@ D.44482, MaxFrameNum, D.44482
	str	r3, [r1, #516]	@ D.44482, _64->frame_num_wrap
	ldr	r3, [ip]	@ D.44477, MEM[base: _127, offset: 0B]
	ldrb	r1, [r3, #2]	@ zero_extendqisi2	@ D.44484, _73->is_reference
	tst	r1, #1	@ D.44484,
	beq	.L1151	@,
	ldr	r8, [r3, #436]	@ *_73, *_73
	bic	r8, r8, #-16777216	@ D.44482, *_73,
	bic	r8, r8, #255	@ D.44482, D.44482,
	cmp	r8, #65536	@ D.44482,
	ldreq	r1, [r3, #516]	@ _73->frame_num_wrap, _73->frame_num_wrap
	addeq	r1, r5, r1, lsl #1	@ D.44483, D.44485, _73->frame_num_wrap,
	streq	r1, [r3, #448]	@ D.44483, _73->top_field.pic_num
	ldreq	r3, [ip]	@ D.44477, MEM[base: _127, offset: 0B]
	ldreqb	r1, [r3, #2]	@ zero_extendqisi2	@ D.44484, _147->is_reference
.L1151:
	tst	r1, #2	@ D.44484,
	beq	.L1148	@,
	ldr	r1, [r3, #472]	@ *_148, *_148
	bic	r1, r1, #-16777216	@ D.44482, *_148,
	bic	r1, r1, #255	@ D.44482, D.44482,
	cmp	r1, #65536	@ D.44482,
	ldreq	r1, [r3, #516]	@ _148->frame_num_wrap, _148->frame_num_wrap
	addeq	r1, r4, r1, lsl #1	@ D.44483, D.44485, _148->frame_num_wrap,
	streq	r1, [r3, #484]	@ D.44483, _148->bottom_field.pic_num
.L1148:
	ldr	r3, [lr, #2056]	@ pH264Ctx_19(D)->DPB.ref_frames_in_buffer, pH264Ctx_19(D)->DPB.ref_frames_in_buffer
	add	r2, r2, #1	@ i, i,
	cmp	r3, r2	@ pH264Ctx_19(D)->DPB.ref_frames_in_buffer, i
	bhi	.L1153	@,
.L1154:
	ldr	r3, [lr, #2060]	@ pH264Ctx_19(D)->DPB.ltref_frames_in_buffer, pH264Ctx_19(D)->DPB.ltref_frames_in_buffer
	cmp	r3, #0	@ pH264Ctx_19(D)->DPB.ltref_frames_in_buffer,
	beq	.L1179	@,
	add	r0, r0, #26368	@ ivtmp.1291, pH264Ctx,
	mov	r3, #0	@ i,
	add	r0, r0, #188	@ ivtmp.1291, ivtmp.1291,
.L1159:
	ldr	r1, [r0, #4]!	@ D.44477, MEM[base: _13, offset: 0B]
	add	r3, r3, #1	@ i, i,
	ldrb	r2, [r1, #2]	@ zero_extendqisi2	@ D.44484, _93->is_reference
	cmp	r2, #0	@ D.44484,
	beq	.L1156	@,
	tst	r2, #1	@ D.44484,
	beq	.L1157	@,
	ldr	ip, [r1, #436]	@ *_93, *_93
	bic	ip, ip, #-16777216	@ D.44482, *_93,
	bic	ip, ip, #255	@ D.44482, D.44482,
	cmp	ip, #256	@ D.44482,
	ldreq	r2, [r1, #520]	@ _93->long_term_frame_idx, _93->long_term_frame_idx
	addeq	r2, r5, r2, lsl #1	@ D.44482, D.44485, _93->long_term_frame_idx,
	streq	r2, [r1, #444]	@ D.44482, _93->top_field.long_term_pic_num
	ldreq	r1, [r0]	@ D.44477, MEM[base: _13, offset: 0B]
	ldreqb	r2, [r1, #2]	@ zero_extendqisi2	@ D.44484, _7->is_reference
.L1157:
	tst	r2, #2	@ D.44484,
	beq	.L1156	@,
	ldr	r2, [r1, #472]	@ *_1, *_1
	bic	r2, r2, #-16777216	@ D.44482, *_1,
	bic	r2, r2, #255	@ D.44482, D.44482,
	cmp	r2, #256	@ D.44482,
	ldreq	r2, [r1, #520]	@ _1->long_term_frame_idx, _1->long_term_frame_idx
	addeq	r2, r4, r2, lsl #1	@ D.44482, D.44485, _1->long_term_frame_idx,
	streq	r2, [r1, #480]	@ D.44482, _1->bottom_field.long_term_pic_num
.L1156:
	ldr	r2, [lr, #2060]	@ pH264Ctx_19(D)->DPB.ltref_frames_in_buffer, pH264Ctx_19(D)->DPB.ltref_frames_in_buffer
	cmp	r2, r3	@ pH264Ctx_19(D)->DPB.ltref_frames_in_buffer, i
	bhi	.L1159	@,
	ldmfd	sp!, {r4, r5, r6, r7, r8, pc}	@
.L1134:
	ldr	r2, [lr, #2056]	@ pH264Ctx_19(D)->DPB.ref_frames_in_buffer, pH264Ctx_19(D)->DPB.ref_frames_in_buffer
	cmp	r2, #0	@ pH264Ctx_19(D)->DPB.ref_frames_in_buffer,
	addne	r1, r0, #26368	@ ivtmp.1280, pH264Ctx,
	addne	r1, r1, #124	@ ivtmp.1280, ivtmp.1280,
	bne	.L1143	@,
.L1144:
	ldr	r3, [lr, #2060]	@ pH264Ctx_19(D)->DPB.ltref_frames_in_buffer, pH264Ctx_19(D)->DPB.ltref_frames_in_buffer
	cmp	r3, #0	@ pH264Ctx_19(D)->DPB.ltref_frames_in_buffer,
	beq	.L1180	@,
	add	r0, r0, #26368	@ ivtmp.1269, pH264Ctx,
	mov	r3, #0	@ i,
	add	r0, r0, #188	@ ivtmp.1269, ivtmp.1269,
	b	.L1146	@
.L1145:
	ldr	r2, [lr, #2060]	@ pH264Ctx_19(D)->DPB.ltref_frames_in_buffer, pH264Ctx_19(D)->DPB.ltref_frames_in_buffer
	cmp	r2, r3	@ pH264Ctx_19(D)->DPB.ltref_frames_in_buffer, i
	bls	.L1181	@,
.L1146:
	ldr	r2, [r0, #4]!	@ D.44477, MEM[base: _17, offset: 0B]
	add	r3, r3, #1	@ i, i,
	ldrb	r1, [r2, #2]	@ zero_extendqisi2	@ _55->is_reference, _55->is_reference
	cmp	r1, #3	@ _55->is_reference,
	bne	.L1145	@,
	ldr	r1, [r2, #400]	@ *_55, *_55
	bic	r1, r1, #-16777216	@ D.44482, *_55,
	bic	r1, r1, #255	@ D.44482, D.44482,
	cmp	r1, #256	@ D.44482,
	ldreq	r1, [r2, #520]	@ _55->long_term_frame_idx, _55->long_term_frame_idx
	streq	r1, [r2, #408]	@ _55->long_term_frame_idx, _55->frame.long_term_pic_num
	ldr	r2, [lr, #2060]	@ pH264Ctx_19(D)->DPB.ltref_frames_in_buffer, pH264Ctx_19(D)->DPB.ltref_frames_in_buffer
	cmp	r2, r3	@ pH264Ctx_19(D)->DPB.ltref_frames_in_buffer, i
	bhi	.L1146	@,
.L1181:
	ldmfd	sp!, {r4, r5, r6, r7, r8, pc}	@
.L1182:
	ldr	ip, [r2, #400]	@ *_39, *_39
	bic	ip, ip, #-16777216	@ D.44482, *_39,
	bic	ip, ip, #255	@ D.44482, D.44482,
	cmp	ip, #65536	@ D.44482,
	bne	.L1140	@,
	ldr	ip, [r2, #512]	@ D.44482, _39->frame_num
	ldr	r4, [r6, #968]	@ pH264Ctx_19(D)->CurrPic.frame_num, pH264Ctx_19(D)->CurrPic.frame_num
	rsb	r5, r7, ip	@ D.44482, MaxFrameNum, D.44482
	cmp	ip, r4	@ D.44482, pH264Ctx_19(D)->CurrPic.frame_num
	strhi	r5, [r2, #516]	@ D.44482, _39->frame_num_wrap
	strls	ip, [r2, #516]	@ D.44482, _39->frame_num_wrap
	ldr	r2, [r1]	@ D.44477, MEM[base: _122, offset: 0B]
	ldr	ip, [r2, #516]	@ _50->frame_num_wrap, _50->frame_num_wrap
	str	ip, [r2, #412]	@ _50->frame_num_wrap, _50->frame.pic_num
.L1140:
	ldr	r2, [lr, #2056]	@ pH264Ctx_19(D)->DPB.ref_frames_in_buffer, pH264Ctx_19(D)->DPB.ref_frames_in_buffer
	add	r3, r3, #1	@ i, i,
	cmp	r2, r3	@ pH264Ctx_19(D)->DPB.ref_frames_in_buffer, i
	bls	.L1144	@,
.L1143:
	ldr	r2, [r1, #4]!	@ D.44477, MEM[base: _122, offset: 0B]
	ldrb	ip, [r2, #2]	@ zero_extendqisi2	@ _39->is_reference, _39->is_reference
	cmp	ip, #3	@ _39->is_reference,
	bne	.L1140	@,
	b	.L1182	@
.L1180:
	ldmfd	sp!, {r4, r5, r6, r7, r8, pc}	@
.L1179:
	ldmfd	sp!, {r4, r5, r6, r7, r8, pc}	@
	.fnend
	.size	CalcPicNum, .-CalcPicNum
	.align	2
	.global	IsOutDPB
	.type	IsOutDPB, %function
IsOutDPB:
	.fnstart
	@ args = 0, pretend = 0, frame = 0
	@ frame_needed = 0, uses_anonymous_args = 0
	@ link register save eliminated.
	cmp	r1, #0	@ pFrameStore
	beq	.L1188	@,
	add	r3, r0, #24576	@ tmp122, pH264Ctx,
	ldr	ip, [r3, #2052]	@ D.44502, pH264Ctx_5(D)->DPB.used_size
	cmp	ip, #0	@ D.44502,
	beq	.L1188	@,
	ldr	r3, [r3, #1856]	@ pH264Ctx_5(D)->DPB.fs, pH264Ctx_5(D)->DPB.fs
	cmp	r3, r1	@ pH264Ctx_5(D)->DPB.fs, pFrameStore
	beq	.L1190	@,
	add	r0, r0, #26368	@ ivtmp.1315, pH264Ctx,
	mov	r3, #0	@ i,
	add	r0, r0, #64	@ ivtmp.1315, ivtmp.1315,
	b	.L1185	@
.L1186:
	ldr	r2, [r0, #4]!	@ MEM[base: _14, offset: 0B], MEM[base: _14, offset: 0B]
	cmp	r2, r1	@ MEM[base: _14, offset: 0B], pFrameStore
	beq	.L1190	@,
.L1185:
	add	r3, r3, #1	@ i, i,
	cmp	r3, ip	@ i, D.44502
	bne	.L1186	@,
.L1188:
	mov	r0, #1	@ D.44500,
	bx	lr	@
.L1190:
	mov	r0, #0	@ D.44500,
	bx	lr	@
	.fnend
	.size	IsOutDPB, .-IsOutDPB
	.align	2
	.global	WritePicMsg
	.type	WritePicMsg, %function
WritePicMsg:
	.fnstart
	@ args = 0, pretend = 0, frame = 0
	@ frame_needed = 0, uses_anonymous_args = 0
	stmfd	sp!, {r3, r4, r5, r6, r7, r8, r9, r10, fp, lr}	@,
	.save {r3, r4, r5, r6, r7, r8, r9, r10, fp, lr}
	add	r5, r0, #49152	@ tmp457, pH264Ctx,
	mov	r4, r0	@ pH264Ctx, pH264Ctx
	bl	vfmw_dprint_nothing	@
	movw	r3, #49728	@ tmp250,
	mov	r7, #0	@ tmp245,
	str	r7, [r5, #3612]	@ tmp245, pH264Ctx_22(D)->SliceParaNum
	add	r9, r4, #12288	@ tmp460, pH264Ctx,
	ldrd	r0, [r4, r3]	@ pH264Ctx_22(D)->CurrPic.fs_image.PTS, pH264Ctx, tmp250
	movw	r3, #51376	@ tmp247,
	add	r8, r4, #16384	@ tmp458, pH264Ctx,
	strd	r0, [r4, r3]	@ pH264Ctx_22(D)->CurrPic.fs_image.PTS, pH264Ctx, tmp247
	ldr	r0, [r5, #3608]	@ pH264Ctx_22(D)->DecSlicePara, pH264Ctx_22(D)->DecSlicePara
	ldr	r1, [r5, #740]	@ pH264Ctx_22(D)->CurrPic.fs_image.image_stride, pH264Ctx_22(D)->CurrPic.fs_image.image_stride
	ldr	r2, [r5, #976]	@ pH264Ctx_22(D)->CurrPic.nal_ref_idc, pH264Ctx_22(D)->CurrPic.nal_ref_idc
	ldrb	r3, [r5, #555]	@ zero_extendqisi2	@ pH264Ctx_22(D)->CurrPic.structure, pH264Ctx_22(D)->CurrPic.structure
	str	r0, [r5, #3340]	@ pH264Ctx_22(D)->DecSlicePara, pH264Ctx_22(D)->DecPicPara.pFirstSlice
	str	r1, [r5, #3128]	@ pH264Ctx_22(D)->CurrPic.fs_image.image_stride, pH264Ctx_22(D)->DecPicPara.imgstride
	strb	r3, [r5, #2216]	@ pH264Ctx_22(D)->CurrPic.structure, pH264Ctx_22(D)->DecPicPara.pic_structure
	str	r2, [r5, #2232]	@ pH264Ctx_22(D)->CurrPic.nal_ref_idc, pH264Ctx_22(D)->DecPicPara.nal_ref_idc
	ldr	r1, [r5, #1012]	@ pH264Ctx_22(D)->CurrPic.pic_height_in_mb, pH264Ctx_22(D)->CurrPic.pic_height_in_mb
	ldrb	r2, [r9, #1319]	@ zero_extendqisi2	@ pH264Ctx_22(D)->CurrSPS.mb_adaptive_frame_field_flag, pH264Ctx_22(D)->CurrSPS.mb_adaptive_frame_field_flag
	ldr	r3, [r5, #1016]	@ pH264Ctx_22(D)->CurrPic.frame_height_in_mb, pH264Ctx_22(D)->CurrPic.frame_height_in_mb
	str	r1, [r5, #2236]	@ pH264Ctx_22(D)->CurrPic.pic_height_in_mb, pH264Ctx_22(D)->DecPicPara.pic_height_in_mb
	str	r2, [r5, #2248]	@ pH264Ctx_22(D)->CurrSPS.mb_adaptive_frame_field_flag, pH264Ctx_22(D)->DecPicPara.mb_adaptive_frame_field_flag
	str	r3, [r5, #2240]	@ pH264Ctx_22(D)->CurrPic.frame_height_in_mb, pH264Ctx_22(D)->DecPicPara.frame_height_in_mb
	ldr	r3, [r8, #1160]	@ pH264Ctx_22(D)->CurrSPS.pic_width_in_mbs_minus1, pH264Ctx_22(D)->CurrSPS.pic_width_in_mbs_minus1
	add	r3, r3, #1	@ D.44673, pH264Ctx_22(D)->CurrSPS.pic_width_in_mbs_minus1,
	str	r3, [r5, #2244]	@ D.44673, pH264Ctx_22(D)->DecPicPara.pic_width_in_mb
	ldrb	r3, [r9, #1318]	@ zero_extendqisi2	@ pH264Ctx_22(D)->CurrSPS.frame_mbs_only_flag, pH264Ctx_22(D)->CurrSPS.frame_mbs_only_flag
	strb	r3, [r5, #2219]	@ pH264Ctx_22(D)->CurrSPS.frame_mbs_only_flag, pH264Ctx_22(D)->DecPicPara.frame_mbs_only_flag
	ldr	r3, [r8, #1264]	@ pH264Ctx_22(D)->CurrPPS.transform_8x8_mode_flag, pH264Ctx_22(D)->CurrPPS.transform_8x8_mode_flag
	str	r3, [r5, #2252]	@ pH264Ctx_22(D)->CurrPPS.transform_8x8_mode_flag, pH264Ctx_22(D)->DecPicPara.transform_8x8_mode_flag
	ldrb	r3, [r8, #1204]	@ zero_extendqisi2	@ pH264Ctx_22(D)->CurrPPS.entropy_coding_mode_flag, pH264Ctx_22(D)->CurrPPS.entropy_coding_mode_flag
	str	r3, [r5, #2256]	@ pH264Ctx_22(D)->CurrPPS.entropy_coding_mode_flag, pH264Ctx_22(D)->DecPicPara.entropy_coding_mode_flag
	ldr	r3, [r9, #2048]	@ pH264Ctx_22(D)->CurrSPS.chroma_format_idc, pH264Ctx_22(D)->CurrSPS.chroma_format_idc
	strb	r3, [r5, #2217]	@ pH264Ctx_22(D)->CurrSPS.chroma_format_idc, pH264Ctx_22(D)->DecPicPara.chroma_format_idc
	ldrb	r3, [r8, #1208]	@ zero_extendqisi2	@ pH264Ctx_22(D)->CurrPPS.constrained_intra_pred_flag, pH264Ctx_22(D)->CurrPPS.constrained_intra_pred_flag
	str	r3, [r5, #2260]	@ pH264Ctx_22(D)->CurrPPS.constrained_intra_pred_flag, pH264Ctx_22(D)->DecPicPara.constrained_intra_pred_flag
	ldr	r3, [r8, #3456]	@ pH264Ctx_22(D)->CurrPOC.ThisPOC, pH264Ctx_22(D)->CurrPOC.ThisPOC
	str	r3, [r5, #2264]	@ pH264Ctx_22(D)->CurrPOC.ThisPOC, pH264Ctx_22(D)->DecPicPara.ThisPoc
	ldr	r3, [r8, #3444]	@ pH264Ctx_22(D)->CurrPOC.toppoc, pH264Ctx_22(D)->CurrPOC.toppoc
	str	r3, [r5, #2268]	@ pH264Ctx_22(D)->CurrPOC.toppoc, pH264Ctx_22(D)->DecPicPara.TopPoc
	ldr	r2, [r8, #3448]	@ pH264Ctx_22(D)->CurrPOC.bottompoc, pH264Ctx_22(D)->CurrPOC.bottompoc
	ldr	r3, [r5, #960]	@ pH264Ctx_22(D)->CurrPic.frame_store, pH264Ctx_22(D)->CurrPic.frame_store
	ldr	r0, [r5, #3688]	@, pH264Ctx_22(D)->ChanID
	str	r2, [r5, #2272]	@ pH264Ctx_22(D)->CurrPOC.bottompoc, pH264Ctx_22(D)->DecPicPara.BottomPoc
	ldr	r1, [r3, #508]	@, _64->logic_fs_id
	bl	FSP_GetLogicFs	@
	subs	r10, r0, #0	@ pstLogicFs,
	beq	.L1194	@,
	ldr	r3, [r10, #408]	@ pstLogicFs_67->pstDecodeFs, pstLogicFs_67->pstDecodeFs
	cmp	r3, #0	@ pstLogicFs_67->pstDecodeFs,
	beq	.L1194	@,
	ldr	r3, [r10, #412]	@ pstLogicFs_67->pstDispOutFs, pstLogicFs_67->pstDispOutFs
	cmp	r3, #0	@ pstLogicFs_67->pstDispOutFs,
	beq	.L1194	@,
	add	r3, r4, #51712	@, pH264Ctx,
	add	r2, r4, #51456	@, pH264Ctx,
	add	r1, r4, #51968	@, pH264Ctx,
	add	r3, r3, #220	@,,
	add	r2, r2, #220	@,,
	add	r1, r1, #220	@,,
	ldr	r0, [r5, #3688]	@, pH264Ctx_22(D)->ChanID
	add	r6, r4, #24576	@ tmp459, pH264Ctx,
	bl	FSP_GetDecFsAddrTab	@
	ldr	r3, [r10, #408]	@ pstLogicFs_67->pstDecodeFs, pstLogicFs_67->pstDecodeFs
	add	r2, r4, #51968	@, pH264Ctx,
	add	r1, r4, #52224	@, pH264Ctx,
	ldr	r0, [r5, #3688]	@, pH264Ctx_22(D)->ChanID
	add	r2, r2, #224	@,,
	ldr	r3, [r3, #4]	@ _77->PhyFsID, _77->PhyFsID
	add	r1, r1, #48	@,,
	str	r3, [r5, #2508]	@ _77->PhyFsID, pH264Ctx_22(D)->DecPicPara.CurrPicImgIdc
	bl	FSP_GetPmvAddrTab	@
	ldr	r3, [r5, #1028]	@ pH264Ctx_22(D)->CurrPic.pmv_address_idc, pH264Ctx_22(D)->CurrPic.pmv_address_idc
	str	r3, [r5, #2516]	@ pH264Ctx_22(D)->CurrPic.pmv_address_idc, pH264Ctx_22(D)->DecPicPara.CurrPicPmvIdc
	ldr	r3, [r10, #424]	@ pstLogicFs_67->HalfPmvOffset, pstLogicFs_67->HalfPmvOffset
	str	r3, [r5, #3124]	@ pstLogicFs_67->HalfPmvOffset, pH264Ctx_22(D)->DecPicPara.half_pmvblk_offset
	ldr	r3, [r10, #412]	@ pstLogicFs_67->pstDispOutFs, pstLogicFs_67->pstDispOutFs
	ldr	r3, [r3, #12]	@ _90->PhyAddr, _90->PhyAddr
	str	r3, [r5, #2512]	@ _90->PhyAddr, pH264Ctx_22(D)->DecPicPara.CurrPicImg2DAddr
	ldr	r3, [r10, #412]	@ pstLogicFs_67->pstDispOutFs, pstLogicFs_67->pstDispOutFs
	ldr	r3, [r3, #32]	@ _94->ChromOffset, _94->ChromOffset
	str	r3, [r5, #2520]	@ _94->ChromOffset, pH264Ctx_22(D)->DecPicPara.uv_offset
	ldr	r0, [r6, #2324]	@ D.44673, pH264Ctx_22(D)->APC.size
	cmp	r0, #0	@ D.44673,
	str	r0, [r5, #3332]	@ D.44673, pH264Ctx_22(D)->DecPicPara.ApcSize
	beq	.L1199	@,
	add	fp, r4, #26624	@ ivtmp.1443, pH264Ctx,
	add	r10, r4, #52224	@ ivtmp.1452, pH264Ctx,
	mov	r3, r7	@ i, tmp245
	mov	lr, fp	@ ivtmp.1459, ivtmp.1443
	mov	ip, r10	@ ivtmp.1466, ivtmp.1452
	mov	r1, fp	@ ivtmp.1473, ivtmp.1459
	mov	r2, r10	@ ivtmp.1480, ivtmp.1466
	add	fp, fp, #80	@ ivtmp.1443, ivtmp.1443,
	add	r10, r10, #64	@ ivtmp.1452, ivtmp.1452,
	add	lr, lr, #144	@ ivtmp.1459, ivtmp.1459,
	add	ip, ip, #128	@ ivtmp.1466, ivtmp.1466,
	add	r1, r1, #208	@ ivtmp.1473, ivtmp.1473,
	add	r2, r2, #192	@ ivtmp.1480, ivtmp.1480,
.L1198:
	ldr	r7, [fp, #4]!	@ D.44673, MEM[base: _226, offset: 0B]
	add	r3, r3, #1	@ i, i,
	cmp	r3, r0	@ i, D.44673
	str	r7, [r10, #4]!	@ D.44673, MEM[base: _227, offset: 0B]
	ldr	r7, [lr, #4]!	@ D.44673, MEM[base: _228, offset: 0B]
	str	r7, [ip, #4]!	@ D.44673, MEM[base: _229, offset: 0B]
	ldr	r7, [r1, #4]!	@ D.44673, MEM[base: _230, offset: 0B]
	str	r7, [r2, #4]!	@ D.44673, MEM[base: _231, offset: 0B]
	bne	.L1198	@,
.L1199:
	ldrb	r3, [r9, #1325]	@ zero_extendqisi2	@ pH264Ctx_22(D)->CurrSPS.seq_scaling_matrix_present_flag, pH264Ctx_22(D)->CurrSPS.seq_scaling_matrix_present_flag
	cmp	r3, #0	@ pH264Ctx_22(D)->CurrSPS.seq_scaling_matrix_present_flag,
	bne	.L1230	@,
	ldrb	r3, [r8, #1222]	@ zero_extendqisi2	@ D.44670, pH264Ctx_22(D)->CurrPPS.pic_scaling_matrix_present_flag
	cmp	r3, #0	@ D.44670,
	bne	.L1200	@,
	add	r2, r4, #51200	@ ivtmp.1376, pH264Ctx,
	ldr	ip, .L1231	@ tmp456,
	add	r2, r2, #224	@ ivtmp.1376, ivtmp.1376,
.L1201:
	and	r1, r3, #3	@ D.44673, i,
	add	r3, r3, #1	@ i, i,
	cmp	r3, #24	@ i,
	ldr	r1, [ip, r1, asl #2]	@ D.44673, quant_org
	str	r1, [r2, #4]!	@ D.44673, MEM[base: _171, offset: 0B]
	bne	.L1201	@,
	add	r1, r4, #51456	@ ivtmp.1362, pH264Ctx,
	mov	r3, #0	@ i,
	add	r1, r1, #64	@ ivtmp.1362, ivtmp.1362,
.L1202:
	and	r2, r3, #15	@ D.44673, i,
	add	r3, r3, #1	@ i, i,
	cmp	r3, #32	@ i,
	add	r2, ip, r2, lsl #2	@ tmp403, tmp456, D.44673,
	ldr	r2, [r2, #16]	@ D.44673, quant8_org
	str	r2, [r1, #4]!	@ D.44673, MEM[base: _4, offset: 0B]
	bne	.L1202	@,
.L1207:
	cmp	r0, #0	@ D.44673,
	beq	.L1204	@,
	add	r9, r4, #52480	@ ivtmp.1337, pH264Ctx,
	add	r7, r4, #26624	@ ivtmp.1327, pH264Ctx,
	add	r7, r7, #84	@ ivtmp.1327, ivtmp.1327,
	mov	r8, #0	@ i,
	mov	r4, r9	@ ivtmp.1350, ivtmp.1337
	add	r9, r9, #140	@ ivtmp.1337, ivtmp.1337,
	add	r4, r4, #204	@ ivtmp.1350, ivtmp.1350,
.L1210:
	ldr	r2, [r7]	@, MEM[base: _69, offset: 0B]
	mov	r1, #0	@,
	ldr	r0, [r5, #3688]	@, pH264Ctx_22(D)->ChanID
	add	r8, r8, #1	@ i, i,
	bl	FSP_GetStoreType	@
	adds	r0, r0, #0	@ D.44681,,
	movne	r0, #1	@ D.44681,
	str	r0, [r9, #4]!	@ D.44681, MEM[base: _18, offset: 0B]
	ldr	r3, [r7], #4	@ D.44673, MEM[base: _69, offset: 0B]
	str	r3, [r4, #4]!	@ D.44673, MEM[base: _15, offset: 0B]
	ldr	r3, [r6, #2324]	@ pH264Ctx_22(D)->APC.size, pH264Ctx_22(D)->APC.size
	cmp	r3, r8	@ pH264Ctx_22(D)->APC.size, i
	bhi	.L1210	@,
.L1204:
	mov	r0, #0	@ D.44669,
	ldmfd	sp!, {r3, r4, r5, r6, r7, r8, r9, r10, fp, pc}	@
.L1230:
	ldrb	r3, [r8, #1222]	@ zero_extendqisi2	@ D.44670, pH264Ctx_22(D)->CurrPPS.pic_scaling_matrix_present_flag
.L1200:
	cmp	r3, #1	@ D.44670,
	add	r1, r4, #51200	@ ivtmp.1404, pH264Ctx,
	mov	r2, #0	@ i,
	add	r1, r1, #224	@ ivtmp.1404, ivtmp.1404,
	beq	.L1205	@,
.L1208:
	add	r3, r2, #4064	@ tmp427, i,
	add	r2, r2, #1	@ i, i,
	add	r3, r3, #2	@ tmp427, tmp427,
	cmp	r2, #24	@ i,
	add	r3, r4, r3, lsl #2	@ tmp428, pH264Ctx, tmp427,
	ldr	r3, [r3, #4]	@ D.44673, pH264Ctx_22(D)->CurrSPS.qmatrix4x4
	str	r3, [r1, #4]!	@ D.44673, MEM[base: _203, offset: 0B]
	bne	.L1208	@,
	add	r1, r4, #51456	@ ivtmp.1418, pH264Ctx,
	mov	r2, #0	@ i,
	add	r1, r1, #64	@ ivtmp.1418, ivtmp.1418,
.L1209:
	add	r3, r2, #4080	@ tmp436, i,
	add	r2, r2, #1	@ i, i,
	add	r3, r3, #10	@ tmp436, tmp436,
	cmp	r2, #32	@ i,
	add	r3, r4, r3, lsl #2	@ tmp437, pH264Ctx, tmp436,
	ldr	r3, [r3, #4]	@ D.44673, pH264Ctx_22(D)->CurrSPS.qmatrix8x8
	str	r3, [r1, #4]!	@ D.44673, MEM[base: _201, offset: 0B]
	bne	.L1209	@,
	b	.L1207	@
.L1205:
	add	r3, r2, #4864	@ tmp410, i,
	add	r2, r2, #1	@ i, i,
	add	r3, r3, #28	@ tmp410, tmp410,
	cmp	r2, #24	@ i,
	add	r3, r4, r3, lsl #2	@ tmp411, pH264Ctx, tmp410,
	ldr	r3, [r3, #4]	@ D.44673, pH264Ctx_22(D)->CurrPPS.qmatrix4x4
	str	r3, [r1, #4]!	@ D.44673, MEM[base: _182, offset: 0B]
	bne	.L1205	@,
	add	r1, r4, #51456	@ ivtmp.1390, pH264Ctx,
	mov	r2, #0	@ i,
	add	r1, r1, #64	@ ivtmp.1390, ivtmp.1390,
.L1206:
	add	r3, r2, #4864	@ tmp419, i,
	add	r2, r2, #1	@ i, i,
	add	r3, r3, #52	@ tmp419, tmp419,
	cmp	r2, #32	@ i,
	add	r3, r4, r3, lsl #2	@ tmp420, pH264Ctx, tmp419,
	ldr	r3, [r3, #4]	@ D.44673, pH264Ctx_22(D)->CurrPPS.qmatrix8x8
	str	r3, [r1, #4]!	@ D.44673, MEM[base: _10, offset: 0B]
	bne	.L1206	@,
	b	.L1207	@
.L1194:
	bl	vfmw_dprint_nothing	@
	mvn	r0, #0	@ D.44669,
	ldmfd	sp!, {r3, r4, r5, r6, r7, r8, r9, r10, fp, pc}	@
.L1232:
	.align	2
.L1231:
	.word	.LANCHOR0
	.fnend
	.size	WritePicMsg, .-WritePicMsg
	.align	2
	.global	UpdatePicQpInf
	.type	UpdatePicQpInf, %function
UpdatePicQpInf:
	.fnstart
	@ args = 0, pretend = 0, frame = 0
	@ frame_needed = 0, uses_anonymous_args = 0
	@ link register save eliminated.
	ldr	r2, [r1, #28]	@ pCurPic_2(D)->MaxQp, pCurPic_2(D)->MaxQp
	ldr	r3, [r1, #32]	@ pCurPic_2(D)->MinQp, pCurPic_2(D)->MinQp
	cmp	r2, r0	@ pCurPic_2(D)->MaxQp, SlcQp
	movlt	r2, r0	@ D.44684, SlcQp
	cmp	r3, r0	@ pCurPic_2(D)->MinQp, SlcQp
	str	r2, [r1, #28]	@ D.44684, pCurPic_2(D)->MaxQp
	movge	r3, r0	@ D.44684, SlcQp
	str	r3, [r1, #32]	@ D.44684, pCurPic_2(D)->MinQp
	bx	lr	@
	.fnend
	.size	UpdatePicQpInf, .-UpdatePicQpInf
	.align	2
	.global	WriteSliceMsg
	.type	WriteSliceMsg, %function
WriteSliceMsg:
	.fnstart
	@ args = 0, pretend = 0, frame = 24
	@ frame_needed = 0, uses_anonymous_args = 0
	stmfd	sp!, {r4, r5, r6, r7, r8, r9, r10, fp, lr}	@,
	.save {r4, r5, r6, r7, r8, r9, r10, fp, lr}
	add	r10, r0, #49152	@ tmp850, pH264Ctx,
	add	r4, r0, #12288	@ tmp849, pH264Ctx,
	.pad #28
	sub	sp, sp, #28	@,,
	ldr	r3, [r10, #3612]	@ CurrSliceSlotNum, pH264Ctx_42(D)->SliceParaNum
	movw	ip, #4060	@ tmp490,
	ldr	lr, [r10, #3608]	@ D.45282, pH264Ctx_42(D)->DecSlicePara
	mov	r5, r0	@ pH264Ctx, pH264Ctx
	mov	r2, r3	@ CurrSliceSlotNum, CurrSliceSlotNum
	str	r3, [sp, #8]	@ CurrSliceSlotNum, %sfp
	mul	ip, ip, r2	@ D.45281, tmp490, CurrSliceSlotNum
	add	r3, r3, #1	@ D.45281, CurrSliceSlotNum,
	str	r3, [r10, #3612]	@ D.45281, pH264Ctx_42(D)->SliceParaNum
	ldr	r3, [r4, #1280]	@ pH264Ctx_42(D)->MaxSliceNum, pH264Ctx_42(D)->MaxSliceNum
	add	r9, lr, ip	@ pCurrSlicePara, D.45282, D.45281
	sub	r3, r3, #1	@ D.45283, pH264Ctx_42(D)->MaxSliceNum,
	cmp	r2, r3	@ CurrSliceSlotNum, D.45283
	addcc	r1, ip, #4048	@ D.45284, D.45281,
	addcc	r1, r1, #12	@ D.45284, D.45284,
	movcs	r1, #0	@ tmp498,
	addcc	r1, lr, r1	@ D.45282, D.45282, D.45284
	str	r1, [r9, #4056]	@ tmp498, pCurrSlicePara_48->pNextSlice
	ldr	r0, [r0, #368]	@ D.45286, pH264Ctx_42(D)->pCurrNal
	ldrb	r6, [r0]	@ zero_extendqisi2	@ i, _56->nal_used_segment
	ldr	r1, [r0, #68]	@ i, _56->nal_segment
	cmp	r6, #1	@ i,
	cmpls	r6, r1	@, i, i
	bcs	.L1237	@,
	add	r7, r6, #3	@ D.45284, i,
	add	r7, r9, r7, lsl #2	@ ivtmp.2058, pCurrSlicePara, D.45284,
.L1238:
	mov	r3, r6, asl #5	@ tmp510, i,
	sub	r3, r3, r6, asl #2	@ tmp511, tmp510, i,
	add	r6, r6, #1	@ i, i,
	add	r0, r0, r3	@ tmp512, D.45286, tmp511
	ldr	r2, [r0, #24]	@ D.45281, _493->stream[i_467].bitsoffset
	str	r2, [r7, #4]!	@ D.45281, MEM[base: _693, offset: 0B]
	ldr	r2, [r5, #368]	@ pH264Ctx_42(D)->pCurrNal, pH264Ctx_42(D)->pCurrNal
	add	r2, r2, r3	@ tmp519, pH264Ctx_42(D)->pCurrNal, tmp511
	ldr	r2, [r2, #20]	@ D.45281, _63->stream[i_467].valid_bitlen
	str	r2, [r7, #-8]	@ D.45281, MEM[base: _693, offset: 4294967288B]
	ldr	r2, [r5, #368]	@ pH264Ctx_42(D)->pCurrNal, pH264Ctx_42(D)->pCurrNal
	add	r3, r2, r3	@ tmp526, pH264Ctx_42(D)->pCurrNal, tmp511
	ldr	r3, [r3, #28]	@ D.45281, _66->stream[i_467].bytespos
	str	r3, [r7, #8]	@ D.45281, MEM[base: _693, offset: 8B]
	ldr	r0, [r5, #368]	@ D.45286, pH264Ctx_42(D)->pCurrNal
	ldr	r1, [r0, #68]	@ i, _59->nal_segment
	cmp	r1, r6	@ i, i
	movhi	r3, #1	@ tmp534,
	movls	r3, #0	@ tmp534,
	cmp	r6, #1	@ i,
	movhi	r3, #0	@ tmp534,
	cmp	r3, #0	@ tmp534,
	bne	.L1238	@,
.L1237:
	cmp	r1, #1	@ i,
	bhi	.L1243	@,
	add	r1, r1, #3	@ D.45284, i,
	add	r6, r9, #20	@ D.45293, pCurrSlicePara,
	mov	r0, #0	@ tmp859,
	add	r1, r9, r1, lsl #2	@ ivtmp.2032, pCurrSlicePara, D.45284,
.L1242:
	str	r0, [r1, #4]!	@ tmp859, MEM[base: _683, offset: 0B]
	cmp	r1, r6	@ ivtmp.2032, D.45293
	str	r0, [r1, #-8]	@ tmp859, MEM[base: _683, offset: 4294967288B]
	str	r0, [r1, #8]	@ tmp859, MEM[base: _683, offset: 8B]
	bne	.L1242	@,
.L1243:
	ldrb	r1, [r10, #561]	@ zero_extendqisi2	@ D.45285, pH264Ctx_42(D)->CurrPic.MbaffFrameFlag
	add	r3, r5, #16384	@ tmp847, pH264Ctx,
	add	r7, r5, #20480	@ tmp848, pH264Ctx,
	ldr	r2, [sp, #8]	@ CurrSliceSlotNum, %sfp
	str	r3, [sp, #4]	@ tmp847, %sfp
	strb	r1, [r9, #1]	@ D.45285, pCurrSlicePara_48->MbaffFrameFlag
	cmp	r2, #0	@ CurrSliceSlotNum,
	ldr	r1, [r3, #1252]	@ pH264Ctx_42(D)->CurrPPS.pic_init_qp_minus26, pH264Ctx_42(D)->CurrPPS.pic_init_qp_minus26
	ldr	r0, [r7, #1812]	@ pH264Ctx_42(D)->CurrSlice.slice_qp_delta, pH264Ctx_42(D)->CurrSlice.slice_qp_delta
	add	r1, r1, #26	@ D.45283, pH264Ctx_42(D)->CurrPPS.pic_init_qp_minus26,
	add	r1, r1, r0	@ D.45283, D.45283, pH264Ctx_42(D)->CurrSlice.slice_qp_delta
	str	r1, [r9, #32]	@ D.45283, pCurrSlicePara_48->SliceQPy
	bne	.L1341	@,
	ldr	r0, [r10, #960]	@ D.45287, pH264Ctx_42(D)->CurrPic.frame_store
	str	r1, [r0, #428]	@ D.45283, _83->frame.MaxQp
	ldr	r1, [r10, #960]	@ D.45287, pH264Ctx_42(D)->CurrPic.frame_store
	ldr	r0, [r9, #32]	@ pCurrSlicePara_48->SliceQPy, pCurrSlicePara_48->SliceQPy
	str	r0, [r1, #432]	@ pCurrSlicePara_48->SliceQPy, _85->frame.MinQp
.L1244:
	ldr	r1, [r7, #1808]	@ D.45281, pH264Ctx_42(D)->CurrSlice.cabac_init_idc
	str	r1, [r9, #36]	@ D.45281, pCurrSlicePara_48->cabac_init_idc
	ldr	r1, [r7, #260]	@ D.45281, pH264Ctx_42(D)->CurrSlice.num_ref_idx_l1_active_minus1
	str	r1, [r9, #40]	@ D.45281, pCurrSlicePara_48->num_ref_idx_l1_active_minus1
	ldr	r1, [r7, #256]	@ D.45281, pH264Ctx_42(D)->CurrSlice.num_ref_idx_l0_active_minus1
	str	r1, [r9, #44]	@ D.45281, pCurrSlicePara_48->num_ref_idx_l0_active_minus1
	ldrb	r1, [r7, #200]	@ zero_extendqisi2	@ D.45285, pH264Ctx_42(D)->CurrSlice.slice_type
	strb	r1, [lr, ip]	@ D.45285, pCurrSlicePara_48->slice_type
	ldr	r1, [r7, #252]	@ D.45281, pH264Ctx_42(D)->CurrSlice.first_mb_in_slice
	str	r1, [r9, #48]	@ D.45281, pCurrSlicePara_48->first_mb_in_slice
	ldrb	r1, [r7, #206]	@ zero_extendqisi2	@ D.45285, pH264Ctx_42(D)->CurrSlice.direct_spatial_mv_pred_flag
	strb	r1, [r9, #2]	@ D.45285, pCurrSlicePara_48->direct_spatial_mv_pred_flag
	ldrb	r1, [r4, #1320]	@ zero_extendqisi2	@ D.45285, pH264Ctx_42(D)->CurrSPS.direct_8x8_inference_flag
	strb	r1, [r9, #3]	@ D.45285, pCurrSlicePara_48->direct_8x8_inference_flag
	ldr	r1, [r7, #244]	@ D.45281, pH264Ctx_42(D)->CurrSlice.listXsize
	str	r1, [r9, #52]	@ D.45281, pCurrSlicePara_48->listXsize
	ldr	r1, [r7, #248]	@ D.45281, pH264Ctx_42(D)->CurrSlice.listXsize
	str	r1, [r9, #56]	@ D.45281, pCurrSlicePara_48->listXsize
	ldrb	r1, [r7, #200]	@ zero_extendqisi2	@ D.45285, pH264Ctx_42(D)->CurrSlice.slice_type
	cmp	r1, #1	@ D.45285,
	beq	.L1342	@,
	cmp	r1, #0	@ D.45285,
	ldreq	r3, [sp, #4]	@ tmp847, %sfp
	movne	r1, #0	@ tmp591,
	ldreqb	r1, [r3, #1206]	@ zero_extendqisi2	@ D.45285, pH264Ctx_42(D)->CurrPPS.weighted_pred_flag
	strb	r1, [r9, #4]	@ tmp591, pCurrSlicePara_48->weight_flag
.L1246:
	ldr	r3, [sp, #4]	@ tmp847, %sfp
	ldr	r1, [r3, #1256]	@ D.45283, pH264Ctx_42(D)->CurrPPS.chroma_qp_index_offset
	str	r1, [r9, #60]	@ D.45283, pCurrSlicePara_48->chroma_qp_index_offset
	ldr	r1, [r3, #1260]	@ D.45283, pH264Ctx_42(D)->CurrPPS.second_chroma_qp_index_offset
	str	r1, [r9, #64]	@ D.45283, pCurrSlicePara_48->second_chroma_qp_index_offset
	ldr	r1, [r7, #1820]	@ D.45283, pH264Ctx_42(D)->CurrSlice.slice_alpha_c0_offset_div2
	str	r1, [r9, #68]	@ D.45283, pCurrSlicePara_48->slice_alpha_c0_offset_div2
	ldr	r1, [r7, #1824]	@ D.45283, pH264Ctx_42(D)->CurrSlice.slice_beta_offset_div2
	str	r1, [r9, #72]	@ D.45283, pCurrSlicePara_48->slice_beta_offset_div2
	ldr	r1, [r7, #1816]	@ D.45281, pH264Ctx_42(D)->CurrSlice.disable_deblocking_filter_idc
	str	r1, [r9, #76]	@ D.45281, pCurrSlicePara_48->disable_deblocking_filter_idc
	ldrb	r1, [r7, #200]	@ zero_extendqisi2	@ pH264Ctx_42(D)->CurrSlice.slice_type, pH264Ctx_42(D)->CurrSlice.slice_type
	cmp	r1, #2	@ pH264Ctx_42(D)->CurrSlice.slice_type,
	beq	.L1285	@,
	ldr	r8, [r7, #244]	@ D.45281, pH264Ctx_42(D)->CurrSlice.listXsize
	cmp	r8, #0	@ D.45281,
	beq	.L1288	@,
	add	r1, r5, #24576	@ tmp614, pH264Ctx,
	ldr	r1, [r1, #2460]	@ pH264Ctx_42(D)->pListX, pH264Ctx_42(D)->pListX
	ldr	ip, [r1, #4]	@ D.45289, _455->frame_store
	ldrb	r1, [ip]	@ zero_extendqisi2	@ _456->non_existing, _456->non_existing
	cmp	r1, #0	@ _456->non_existing,
	addne	r0, r5, #26880	@ ivtmp.2020, pH264Ctx,
	movne	r1, #0	@ i,
	addne	r0, r0, #156	@ ivtmp.2020, ivtmp.2020,
	bne	.L1253	@,
	b	.L1251	@
.L1255:
	ldr	r3, [r0, #4]!	@ MEM[base: _676, offset: 0B], MEM[base: _676, offset: 0B]
	ldr	ip, [r3, #4]	@ D.45289, _128->frame_store
	ldrb	r3, [ip]	@ zero_extendqisi2	@ _129->non_existing, _129->non_existing
	cmp	r3, #0	@ _129->non_existing,
	beq	.L1251	@,
.L1253:
	add	r1, r1, #1	@ i, i,
	cmp	r1, r8	@ i, D.45281
	bne	.L1255	@,
	mov	r3, #0	@ ExistImgIdc_0,
	str	r3, [sp, #12]	@ ExistImgIdc_0, %sfp
.L1250:
	ldr	r3, [r7, #248]	@ D.45281, pH264Ctx_42(D)->CurrSlice.listXsize
	cmp	r3, #0	@ D.45281,
	beq	.L1289	@,
	add	r1, r5, #24576	@ tmp628, pH264Ctx,
	ldr	r1, [r1, #2592]	@ pH264Ctx_42(D)->pListX, pH264Ctx_42(D)->pListX
	ldr	ip, [r1, #4]	@ D.45289, _450->frame_store
	ldrb	r1, [ip]	@ zero_extendqisi2	@ _451->non_existing, _451->non_existing
	cmp	r1, #0	@ _451->non_existing,
	addne	r0, r5, #27136	@ ivtmp.2009, pH264Ctx,
	movne	r1, #0	@ i,
	addne	r0, r0, #32	@ ivtmp.2009, ivtmp.2009,
	bne	.L1259	@,
	b	.L1257	@
.L1261:
	ldr	r2, [r0, #4]!	@ MEM[base: _671, offset: 0B], MEM[base: _671, offset: 0B]
	ldr	ip, [r2, #4]	@ D.45289, _142->frame_store
	ldrb	r2, [ip]	@ zero_extendqisi2	@ _143->non_existing, _143->non_existing
	cmp	r2, #0	@ _143->non_existing,
	beq	.L1257	@,
.L1259:
	add	r1, r1, #1	@ i, i,
	cmp	r1, r3	@ i, D.45281
	bne	.L1261	@,
	mov	r3, #0	@ ExistImgIdc_1,
	str	r3, [sp, #16]	@ ExistImgIdc_1, %sfp
.L1256:
	ldrb	ip, [r10, #555]	@ zero_extendqisi2	@ pH264Ctx_42(D)->CurrPic.structure, pH264Ctx_42(D)->CurrPic.structure
	ldr	r1, [r7, #244]	@ pH264Ctx_42(D)->CurrSlice.listXsize, pH264Ctx_42(D)->CurrSlice.listXsize
	cmp	ip, #0	@ pH264Ctx_42(D)->CurrPic.structure,
	beq	.L1262	@,
.L1345:
	cmp	r1, #0	@ pH264Ctx_42(D)->CurrSlice.listXsize,
	beq	.L1277	@,
	add	r4, r5, #26880	@ ivtmp.1934, pH264Ctx,
	mov	r6, r9	@ ivtmp.1951, pCurrSlicePara
	add	r4, r4, #156	@ ivtmp.1934, ivtmp.1934,
	mov	fp, #0	@ i,
	ldr	r8, [sp, #12]	@ ExistImgIdc_0, %sfp
	b	.L1276	@
.L1274:
	strb	r3, [r6, #1630]	@ D.45285, MEM[base: _643, offset: 1630B]
	ldr	r3, [r4]	@ MEM[base: _641, offset: 0B], MEM[base: _641, offset: 0B]
	ldrb	r3, [r3, #1]	@ zero_extendqisi2	@ D.45285, _305->is_long_term
	strb	r3, [r6, #1631]	@ D.45285, MEM[base: _643, offset: 1631B]
	ldr	r3, [r4]	@ MEM[base: _641, offset: 0B], MEM[base: _641, offset: 0B]
	ldr	r3, [r3, #16]	@ D.45283, _308->poc
	str	r3, [r6, #1656]	@ D.45283, MEM[base: _643, offset: 1656B]
.L1275:
	ldr	r3, [r7, #244]	@ pH264Ctx_42(D)->CurrSlice.listXsize, pH264Ctx_42(D)->CurrSlice.listXsize
	add	fp, fp, #1	@ i, i,
	add	r4, r4, #4	@ ivtmp.1934, ivtmp.1934,
	add	r6, r6, #36	@ ivtmp.1951, ivtmp.1951,
	cmp	r3, fp	@ pH264Ctx_42(D)->CurrSlice.listXsize, i
	bls	.L1277	@,
.L1276:
	ldr	r3, [r4]	@ MEM[base: _641, offset: 0B], MEM[base: _641, offset: 0B]
	ldr	r0, [r10, #3688]	@, pH264Ctx_42(D)->ChanID
	ldr	r3, [r3, #4]	@ _259->frame_store, _259->frame_store
	ldr	r1, [r3, #508]	@, _260->logic_fs_id
	bl	FSP_GetLogicFs	@
	ldr	r3, [r4]	@ MEM[base: _641, offset: 0B], MEM[base: _641, offset: 0B]
	ldr	r3, [r3, #4]	@ _264->frame_store, _264->frame_store
	ldr	r3, [r3, #548]	@ D.45281, _265->pmv_address_idc
	str	r3, [r6, #1636]	@ D.45281, MEM[base: _643, offset: 1636B]
	ldr	r3, [r4]	@ MEM[base: _641, offset: 0B], MEM[base: _641, offset: 0B]
	ldr	r3, [r3, #4]	@ _268->frame_store, _268->frame_store
	ldrb	r3, [r3, #1]	@ zero_extendqisi2	@ D.45285, _269->is_used
	strb	r3, [r6, #1625]	@ D.45285, MEM[base: _643, offset: 1625B]
	ldr	r3, [r4]	@ MEM[base: _641, offset: 0B], MEM[base: _641, offset: 0B]
	ldr	r3, [r3, #4]	@ _272->frame_store, _272->frame_store
	ldrb	r3, [r3]	@ zero_extendqisi2	@ _273->non_existing, _273->non_existing
	cmp	r3, #1	@ _273->non_existing,
	moveq	r0, r8	@ D.45279, ExistImgIdc_0
	beq	.L1273	@,
	cmp	r0, #0	@ pstLogicFs,
	ldrne	r3, [r0, #408]	@ pstLogicFs_263->pstDecodeFs, pstLogicFs_263->pstDecodeFs
	ldrne	r0, [r3, #4]	@ D.45279, _275->PhyFsID
.L1273:
	str	r0, [r6, #1640]	@ D.45279, MEM[base: _643, offset: 1640B]
	ldr	r3, [r4]	@ MEM[base: _641, offset: 0B], MEM[base: _641, offset: 0B]
	ldr	r3, [r3, #4]	@ _279->frame_store, _279->frame_store
	ldr	r3, [r3, #552]	@ D.45281, _280->apc_idc
	str	r3, [r6, #1644]	@ D.45281, MEM[base: _643, offset: 1644B]
	ldr	r3, [r4]	@ MEM[base: _641, offset: 0B], MEM[base: _641, offset: 0B]
	ldr	r3, [r3, #4]	@ _283->frame_store, _283->frame_store
	ldr	r3, [r3, #524]	@ D.45283, _284->poc
	str	r3, [r6, #1632]	@ D.45283, MEM[base: _643, offset: 1632B]
	ldr	r3, [r4]	@ MEM[base: _641, offset: 0B], MEM[base: _641, offset: 0B]
	ldrb	r3, [r3]	@ zero_extendqisi2	@ D.45285, _287->structure
	strb	r3, [r6, #1624]	@ D.45285, MEM[base: _643, offset: 1624B]
	ldr	r3, [r4]	@ MEM[base: _641, offset: 0B], MEM[base: _641, offset: 0B]
	ldr	r3, [r3, #4]	@ _290->frame_store, _290->frame_store
	ldrb	r3, [r3, #400]	@ zero_extendqisi2	@ D.45285, _291->frame.structure
	strb	r3, [r6, #1626]	@ D.45285, MEM[base: _643, offset: 1626B]
	ldr	r3, [r4]	@ MEM[base: _641, offset: 0B], MEM[base: _641, offset: 0B]
	ldrb	r3, [r3]	@ zero_extendqisi2	@ D.45285, _294->structure
	cmp	r3, #1	@ D.45285,
	bne	.L1274	@,
	strb	r3, [r6, #1628]	@ D.45285, MEM[base: _643, offset: 1628B]
	ldr	r3, [r4]	@ MEM[base: _641, offset: 0B], MEM[base: _641, offset: 0B]
	ldrb	r3, [r3, #1]	@ zero_extendqisi2	@ D.45285, _297->is_long_term
	strb	r3, [r6, #1629]	@ D.45285, MEM[base: _643, offset: 1629B]
	ldr	r3, [r4]	@ MEM[base: _641, offset: 0B], MEM[base: _641, offset: 0B]
	ldr	r3, [r3, #16]	@ D.45283, _300->poc
	str	r3, [r6, #1652]	@ D.45283, MEM[base: _643, offset: 1652B]
	b	.L1275	@
.L1277:
	ldrb	r1, [r7, #200]	@ zero_extendqisi2	@ pH264Ctx_42(D)->CurrSlice.slice_type, pH264Ctx_42(D)->CurrSlice.slice_type
	cmp	r1, #1	@ pH264Ctx_42(D)->CurrSlice.slice_type,
	beq	.L1343	@,
.L1265:
	add	r0, r5, #26880	@ ivtmp.1674, pH264Ctx,
	add	r1, r9, #3920	@ ivtmp.1683, pCurrSlicePara,
	add	lr, r9, #4048	@ D.45293, pCurrSlicePara,
	add	r0, r0, #24	@ ivtmp.1674, ivtmp.1674,
	add	r1, r1, #4	@ ivtmp.1683, ivtmp.1683,
	add	lr, lr, #4	@ D.45293, D.45293,
.L1282:
	ldr	r3, [r0, #4]!	@ D.45281, MEM[base: _543, offset: 0B]
	str	r3, [r1, #4]!	@ D.45281, MEM[base: _544, offset: 0B]
	cmp	r1, lr	@ ivtmp.1683, D.45293
	bne	.L1282	@,
	ldr	r3, [sp, #4]	@ tmp847, %sfp
	ldrb	r1, [r3, #1206]	@ zero_extendqisi2	@ D.45285, pH264Ctx_42(D)->CurrPPS.weighted_pred_flag
	cmp	r1, #0	@ D.45285,
	str	r1, [r10, #2500]	@ D.45285, pH264Ctx_42(D)->DecPicPara.weighted_pred_flag
	ldr	r1, [r3, #1248]	@ D.45281, pH264Ctx_42(D)->CurrPPS.weighted_bipred_idc
	str	r1, [r10, #2504]	@ D.45281, pH264Ctx_42(D)->DecPicPara.weighted_bipred_idc
	beq	.L1283	@,
	ldrb	r2, [r7, #200]	@ zero_extendqisi2	@ pH264Ctx_42(D)->CurrSlice.slice_type, pH264Ctx_42(D)->CurrSlice.slice_type
	cmp	r2, #0	@ pH264Ctx_42(D)->CurrSlice.slice_type,
	beq	.L1284	@,
.L1283:
	cmp	r1, #1	@ D.45281,
	beq	.L1344	@,
.L1285:
	ldr	r3, [sp, #8]	@ CurrSliceSlotNum, %sfp
	mov	r2, #0	@ tmp609,
	ldr	r1, [r5, #368]	@ pH264Ctx_42(D)->pCurrNal, pH264Ctx_42(D)->pCurrNal
	add	r3, r3, #12672	@ tmp607, CurrSliceSlotNum,
	add	r3, r3, #4	@ tmp607, tmp607,
	str	r1, [r5, r3, asl #2]	@ pH264Ctx_42(D)->pCurrNal, pH264Ctx_42(D)->SlcInfo[CurrSliceSlotNum_43].pSliceNal
	str	r2, [r5, #368]	@ tmp609, pH264Ctx_42(D)->pCurrNal
	add	sp, sp, #28	@,,
	@ sp needed	@
	ldmfd	sp!, {r4, r5, r6, r7, r8, r9, r10, fp, pc}	@
.L1341:
	ldr	r0, [r10, #960]	@ D.45287, pH264Ctx_42(D)->CurrPic.frame_store
	ldr	r8, [r0, #428]	@ MEM[(struct H264_STORABLEPIC_S *)_89 + 400B].MaxQp, MEM[(struct H264_STORABLEPIC_S *)_89 + 400B].MaxQp
	ldr	r6, [r0, #432]	@ MEM[(struct H264_STORABLEPIC_S *)_89 + 400B].MinQp, MEM[(struct H264_STORABLEPIC_S *)_89 + 400B].MinQp
	cmp	r8, r1	@ MEM[(struct H264_STORABLEPIC_S *)_89 + 400B].MaxQp, D.45283
	movlt	r8, r1	@ D.45283, D.45283
	cmp	r6, r1	@ MEM[(struct H264_STORABLEPIC_S *)_89 + 400B].MinQp, D.45283
	str	r8, [r0, #428]	@ D.45283, MEM[(struct H264_STORABLEPIC_S *)_89 + 400B].MaxQp
	movge	r6, r1	@ D.45283, D.45283
	str	r6, [r0, #432]	@ D.45283, MEM[(struct H264_STORABLEPIC_S *)_89 + 400B].MinQp
	b	.L1244	@
.L1251:
	ldr	r1, [ip, #508]	@, _495->logic_fs_id
	ldr	r0, [r10, #3688]	@, pH264Ctx_42(D)->ChanID
	bl	FSP_GetLogicFs	@
	cmp	r0, #0	@ pstLogicFs
	beq	.L1260	@,
	ldr	r1, [r0, #408]	@ pstLogicFs_136->pstDecodeFs, pstLogicFs_136->pstDecodeFs
	ldr	r3, [r1, #4]	@ ExistImgIdc_0, _138->PhyFsID
	str	r3, [sp, #12]	@ ExistImgIdc_0, %sfp
	b	.L1250	@
.L1344:
	ldrb	r2, [r7, #200]	@ zero_extendqisi2	@ pH264Ctx_42(D)->CurrSlice.slice_type, pH264Ctx_42(D)->CurrSlice.slice_type
	cmp	r2, #1	@ pH264Ctx_42(D)->CurrSlice.slice_type,
	bne	.L1285	@,
.L1284:
	ldr	r2, [r7, #264]	@ D.45281, pH264Ctx_42(D)->CurrSlice.luma_log2_weight_denom
	add	r3, r5, #20736	@ ivtmp.1582, pH264Ctx,
	add	r4, r5, #21504	@ ivtmp.1627, pH264Ctx,
	add	r6, r5, #20992	@ ivtmp.1613, pH264Ctx,
	add	ip, r5, #21760	@ ivtmp.1655, pH264Ctx,
	mov	r8, r3	@ ivtmp.1599, ivtmp.1582
	str	r2, [r9, #80]	@ D.45281, pCurrSlicePara_48->luma_log2_weight_denom
	mov	lr, r4	@ ivtmp.1641, ivtmp.1627
	ldr	r10, [r7, #268]	@ D.45281, pH264Ctx_42(D)->CurrSlice.chroma_log2_weight_denom
	add	r3, r3, #12	@ ivtmp.1582, ivtmp.1582,
	add	r8, r8, #140	@ ivtmp.1599, ivtmp.1599,
	add	r6, r6, #12	@ ivtmp.1613, ivtmp.1613,
	add	r4, r4, #12	@ ivtmp.1627, ivtmp.1627,
	add	lr, lr, #140	@ ivtmp.1641, ivtmp.1641,
	add	ip, ip, #12	@ ivtmp.1655, ivtmp.1655,
	add	fp, r9, #212	@ ivtmp.1606, pCurrSlicePara,
	mov	r0, r9	@ ivtmp.1591, pCurrSlicePara
	mov	r2, r9	@ ivtmp.1595, pCurrSlicePara
	mov	r1, #0	@ i,
	str	r9, [sp, #4]	@ pCurrSlicePara, %sfp
	str	r10, [r0, #84]!	@ D.45281, pCurrSlicePara_48->chroma_log2_weight_denom
.L1286:
	ldr	r10, [r3, #4]!	@ D.45283, MEM[base: _523, offset: 0B]
	add	r1, r1, #1	@ i, i,
	add	r2, r2, #4	@ ivtmp.1595, ivtmp.1595,
	str	r10, [r0, #4]!	@ D.45283, MEM[base: _524, offset: 0B]
	ldr	r10, [r8, #4]!	@ D.45283, MEM[base: _525, offset: 0B]
	str	r10, [fp, #4]!	@ D.45283, MEM[base: _526, offset: 0B]
	ldr	r10, [r6, #4]!	@ D.45283, MEM[base: _527, offset: 0B]
	str	r10, [r2, #340]	@ D.45283, MEM[base: _528, offset: 344B]
	ldr	r10, [r4, #4]!	@ D.45283, MEM[base: _529, offset: 0B]
	str	r10, [r2, #852]	@ D.45283, MEM[base: _528, offset: 856B]
	ldr	r10, [lr, #4]!	@ D.45283, MEM[base: _531, offset: 0B]
	str	r10, [r2, #980]	@ D.45283, MEM[base: _528, offset: 984B]
	ldr	r10, [ip, #4]!	@ D.45283, MEM[base: _533, offset: 0B]
	str	r10, [r2, #1108]	@ D.45283, MEM[base: _528, offset: 1112B]
	ldr	r10, [r7, #256]	@ pH264Ctx_42(D)->CurrSlice.num_ref_idx_l0_active_minus1, pH264Ctx_42(D)->CurrSlice.num_ref_idx_l0_active_minus1
	cmp	r10, r1	@ pH264Ctx_42(D)->CurrSlice.num_ref_idx_l0_active_minus1, i
	bcs	.L1286	@,
	ldrb	r2, [r7, #200]	@ zero_extendqisi2	@ pH264Ctx_42(D)->CurrSlice.slice_type, pH264Ctx_42(D)->CurrSlice.slice_type
	cmp	r2, #1	@ pH264Ctx_42(D)->CurrSlice.slice_type,
	bne	.L1285	@,
	add	r4, r5, #21248	@ ivtmp.1510, pH264Ctx,
	add	r0, r5, #22016	@ ivtmp.1552, pH264Ctx,
	add	r6, r5, #20992	@ ivtmp.1493, pH264Ctx,
	add	ip, r5, #21760	@ ivtmp.1538, pH264Ctx,
	add	r8, r9, #468	@ ivtmp.1502, pCurrSlicePara,
	add	r3, r9, #596	@ ivtmp.1517, pCurrSlicePara,
	ldr	r9, [sp, #4]	@ ivtmp.1506, %sfp
	mov	lr, r4	@ ivtmp.1524, ivtmp.1510
	mov	r1, r0	@ ivtmp.1566, ivtmp.1552
	add	r6, r6, #140	@ ivtmp.1493, ivtmp.1493,
	add	r4, r4, #12	@ ivtmp.1510, ivtmp.1510,
	add	lr, lr, #140	@ ivtmp.1524, ivtmp.1524,
	add	ip, ip, #140	@ ivtmp.1538, ivtmp.1538,
	add	r0, r0, #12	@ ivtmp.1552, ivtmp.1552,
	add	r1, r1, #140	@ ivtmp.1566, ivtmp.1566,
	mov	r2, #0	@ i,
.L1287:
	ldr	r10, [r6, #4]!	@ D.45283, MEM[base: _11, offset: 0B]
	add	r2, r2, #1	@ i, i,
	add	r9, r9, #4	@ ivtmp.1506, ivtmp.1506,
	str	r10, [r8, #4]!	@ D.45283, MEM[base: _38, offset: 0B]
	ldr	r10, [r4, #4]!	@ D.45283, MEM[base: _436, offset: 0B]
	str	r10, [r3, #4]!	@ D.45283, MEM[base: _29, offset: 0B]
	ldr	r10, [lr, #4]!	@ D.45283, MEM[base: _5, offset: 0B]
	str	r10, [r9, #724]	@ D.45283, MEM[base: _440, offset: 728B]
	ldr	r10, [ip, #4]!	@ D.45283, MEM[base: _439, offset: 0B]
	str	r10, [r9, #1236]	@ D.45283, MEM[base: _440, offset: 1240B]
	ldr	r10, [r0, #4]!	@ D.45283, MEM[base: _445, offset: 0B]
	str	r10, [r9, #1364]	@ D.45283, MEM[base: _440, offset: 1368B]
	ldr	r10, [r1, #4]!	@ D.45283, MEM[base: _448, offset: 0B]
	str	r10, [r9, #1492]	@ D.45283, MEM[base: _440, offset: 1496B]
	ldr	r10, [r7, #260]	@ pH264Ctx_42(D)->CurrSlice.num_ref_idx_l1_active_minus1, pH264Ctx_42(D)->CurrSlice.num_ref_idx_l1_active_minus1
	cmp	r10, r2	@ pH264Ctx_42(D)->CurrSlice.num_ref_idx_l1_active_minus1, i
	bcs	.L1287	@,
	b	.L1285	@
.L1257:
	ldr	r1, [ip, #508]	@, _496->logic_fs_id
	ldr	r0, [r10, #3688]	@, pH264Ctx_42(D)->ChanID
	bl	FSP_GetLogicFs	@
	cmp	r0, #0	@ pstLogicFs
	beq	.L1260	@,
	ldr	r1, [r0, #408]	@ pstLogicFs_150->pstDecodeFs, pstLogicFs_150->pstDecodeFs
	ldrb	ip, [r10, #555]	@ zero_extendqisi2	@ pH264Ctx_42(D)->CurrPic.structure, pH264Ctx_42(D)->CurrPic.structure
	ldr	r3, [r1, #4]	@ ExistImgIdc_1, _152->PhyFsID
	cmp	ip, #0	@ pH264Ctx_42(D)->CurrPic.structure,
	ldr	r1, [r7, #244]	@ pH264Ctx_42(D)->CurrSlice.listXsize, pH264Ctx_42(D)->CurrSlice.listXsize
	str	r3, [sp, #16]	@ ExistImgIdc_1, %sfp
	bne	.L1345	@,
.L1262:
	cmp	r1, #0	@ pH264Ctx_42(D)->CurrSlice.listXsize,
	beq	.L1270	@,
	add	r6, r5, #26880	@ ivtmp.1776, pH264Ctx,
	ldr	r8, [sp, #12]	@ ExistImgIdc_0, %sfp
	add	r6, r6, #156	@ ivtmp.1776, ivtmp.1776,
	str	r5, [sp, #20]	@ pH264Ctx, %sfp
	mov	fp, ip	@ D.45279, i
	mov	r5, r7	@ tmp848, tmp848
	mov	r4, r9	@ ivtmp.1793, pCurrSlicePara
	mov	r7, ip	@ i, i
.L1269:
	ldr	r2, [r6]	@ MEM[base: _579, offset: 0B], MEM[base: _579, offset: 0B]
	ldr	r0, [r10, #3688]	@, pH264Ctx_42(D)->ChanID
	ldr	r2, [r2, #4]	@ _158->frame_store, _158->frame_store
	ldr	r1, [r2, #508]	@, _159->logic_fs_id
	bl	FSP_GetLogicFs	@
	ldr	r2, [r6]	@ MEM[base: _579, offset: 0B], MEM[base: _579, offset: 0B]
	ldr	r2, [r2, #4]	@ _163->frame_store, _163->frame_store
	ldr	r2, [r2, #548]	@ D.45281, _164->pmv_address_idc
	str	r2, [r4, #1636]	@ D.45281, MEM[base: _581, offset: 1636B]
	ldr	r2, [r6]	@ MEM[base: _579, offset: 0B], MEM[base: _579, offset: 0B]
	ldr	r2, [r2, #4]	@ _167->frame_store, _167->frame_store
	ldrb	r2, [r2, #1]	@ zero_extendqisi2	@ D.45285, _168->is_used
	strb	r2, [r4, #1625]	@ D.45285, MEM[base: _581, offset: 1625B]
	ldr	r2, [r6]	@ MEM[base: _579, offset: 0B], MEM[base: _579, offset: 0B]
	ldr	r2, [r2, #4]	@ _171->frame_store, _171->frame_store
	ldrb	r2, [r2]	@ zero_extendqisi2	@ _172->non_existing, _172->non_existing
	cmp	r2, #1	@ _172->non_existing,
	moveq	r0, r8	@ D.45279, ExistImgIdc_0
	beq	.L1268	@,
	cmp	r0, #0	@ pstLogicFs,
	ldrne	r2, [r0, #408]	@ pstLogicFs_162->pstDecodeFs, pstLogicFs_162->pstDecodeFs
	ldrne	r0, [r2, #4]	@ D.45279, _174->PhyFsID
.L1268:
	str	r0, [r4, #1640]	@ D.45279, MEM[base: _581, offset: 1640B]
	add	r7, r7, #1	@ i, i,
	ldr	r2, [r6]	@ MEM[base: _579, offset: 0B], MEM[base: _579, offset: 0B]
	add	r4, r4, #36	@ ivtmp.1793, ivtmp.1793,
	ldr	r2, [r2, #4]	@ _178->frame_store, _178->frame_store
	ldr	r2, [r2, #552]	@ D.45281, _179->apc_idc
	str	r2, [r4, #1608]	@ D.45281, MEM[base: _581, offset: 1644B]
	ldr	r2, [r6]	@ MEM[base: _579, offset: 0B], MEM[base: _579, offset: 0B]
	ldr	r2, [r2, #4]	@ _182->frame_store, _182->frame_store
	ldr	r2, [r2, #524]	@ D.45283, _183->poc
	str	r2, [r4, #1596]	@ D.45283, MEM[base: _581, offset: 1632B]
	ldr	r2, [r6]	@ MEM[base: _579, offset: 0B], MEM[base: _579, offset: 0B]
	ldrb	r2, [r2, #1]	@ zero_extendqisi2	@ D.45285, _186->is_long_term
	strb	r2, [r4, #1591]	@ D.45285, MEM[base: _581, offset: 1627B]
	ldr	r2, [r6]	@ MEM[base: _579, offset: 0B], MEM[base: _579, offset: 0B]
	ldrb	r2, [r2]	@ zero_extendqisi2	@ D.45285, _189->structure
	strb	r2, [r4, #1590]	@ D.45285, MEM[base: _581, offset: 1626B]
	ldr	r2, [r6]	@ MEM[base: _579, offset: 0B], MEM[base: _579, offset: 0B]
	ldr	r2, [r2, #4]	@ _192->frame_store, _192->frame_store
	ldr	r2, [r2, #416]	@ D.45283, _193->frame.poc
	str	r2, [r4, #1612]	@ D.45283, MEM[base: _581, offset: 1648B]
	ldr	r2, [r6]	@ MEM[base: _579, offset: 0B], MEM[base: _579, offset: 0B]
	ldr	r2, [r2, #4]	@ _196->frame_store, _196->frame_store
	ldr	r2, [r2, #452]	@ D.45283, _197->top_field.poc
	str	r2, [r4, #1616]	@ D.45283, MEM[base: _581, offset: 1652B]
	ldr	r2, [r6], #4	@ MEM[base: _579, offset: 0B], MEM[base: _579, offset: 0B]
	ldr	r2, [r2, #4]	@ _200->frame_store, _200->frame_store
	ldr	r2, [r2, #488]	@ D.45283, _201->bottom_field.poc
	strb	fp, [r4, #1588]	@ D.45279, MEM[base: _581, offset: 1624B]
	str	r2, [r4, #1620]	@ D.45283, MEM[base: _581, offset: 1656B]
	ldr	r2, [r5, #244]	@ pH264Ctx_42(D)->CurrSlice.listXsize, pH264Ctx_42(D)->CurrSlice.listXsize
	cmp	r2, r7	@ pH264Ctx_42(D)->CurrSlice.listXsize, i
	bhi	.L1269	@,
	mov	r7, r5	@ tmp848, tmp848
	ldr	r5, [sp, #20]	@ pH264Ctx, %sfp
.L1270:
	ldrb	r1, [r7, #200]	@ zero_extendqisi2	@ pH264Ctx_42(D)->CurrSlice.slice_type, pH264Ctx_42(D)->CurrSlice.slice_type
	cmp	r1, #1	@ pH264Ctx_42(D)->CurrSlice.slice_type,
	bne	.L1265	@,
	ldr	r1, [r7, #248]	@ pH264Ctx_42(D)->CurrSlice.listXsize, pH264Ctx_42(D)->CurrSlice.listXsize
	cmp	r1, #0	@ pH264Ctx_42(D)->CurrSlice.listXsize,
	beq	.L1265	@,
	mov	fp, #0	@ i,
	add	r8, r5, #27136	@ ivtmp.1692, pH264Ctx,
	mov	r4, fp	@ D.45279, i
	str	r5, [sp, #12]	@ pH264Ctx, %sfp
	mov	r5, r7	@ tmp848, tmp848
	mov	r7, fp	@ i, i
	ldr	fp, [sp, #16]	@ ExistImgIdc_1, %sfp
	add	r8, r8, #32	@ ivtmp.1692, ivtmp.1692,
	mov	r6, r9	@ ivtmp.1709, pCurrSlicePara
.L1272:
	ldr	r2, [r8]	@ MEM[base: _550, offset: 0B], MEM[base: _550, offset: 0B]
	ldr	r0, [r10, #3688]	@, pH264Ctx_42(D)->ChanID
	ldr	r2, [r2, #4]	@ _209->frame_store, _209->frame_store
	ldr	r1, [r2, #508]	@, _210->logic_fs_id
	bl	FSP_GetLogicFs	@
	ldr	r2, [r8]	@ MEM[base: _550, offset: 0B], MEM[base: _550, offset: 0B]
	ldr	r2, [r2, #4]	@ _214->frame_store, _214->frame_store
	ldr	r2, [r2, #548]	@ D.45281, _215->pmv_address_idc
	str	r2, [r6, #2788]	@ D.45281, MEM[base: _552, offset: 2788B]
	ldr	r2, [r8]	@ MEM[base: _550, offset: 0B], MEM[base: _550, offset: 0B]
	ldr	r2, [r2, #4]	@ _218->frame_store, _218->frame_store
	ldrb	r2, [r2, #1]	@ zero_extendqisi2	@ D.45285, _219->is_used
	strb	r2, [r6, #2777]	@ D.45285, MEM[base: _552, offset: 2777B]
	ldr	r2, [r8]	@ MEM[base: _550, offset: 0B], MEM[base: _550, offset: 0B]
	ldr	r2, [r2, #4]	@ _222->frame_store, _222->frame_store
	ldrb	r2, [r2]	@ zero_extendqisi2	@ _223->non_existing, _223->non_existing
	cmp	r2, #1	@ _223->non_existing,
	moveq	r0, fp	@ D.45279, ExistImgIdc_1
	beq	.L1271	@,
	cmp	r0, #0	@ pstLogicFs,
	ldrne	r2, [r0, #408]	@ pstLogicFs_213->pstDecodeFs, pstLogicFs_213->pstDecodeFs
	ldrne	r0, [r2, #4]	@ D.45279, _225->PhyFsID
.L1271:
	str	r0, [r6, #1640]	@ D.45279, MEM[base: _552, offset: 1640B]
	add	r7, r7, #1	@ i, i,
	ldr	r2, [r8]	@ MEM[base: _550, offset: 0B], MEM[base: _550, offset: 0B]
	add	r6, r6, #36	@ ivtmp.1709, ivtmp.1709,
	ldr	r2, [r2, #4]	@ _229->frame_store, _229->frame_store
	ldr	r2, [r2, #552]	@ D.45281, _230->apc_idc
	str	r2, [r6, #2760]	@ D.45281, MEM[base: _552, offset: 2796B]
	ldr	r2, [r8]	@ MEM[base: _550, offset: 0B], MEM[base: _550, offset: 0B]
	ldr	r2, [r2, #4]	@ _233->frame_store, _233->frame_store
	ldr	r2, [r2, #524]	@ D.45283, _234->poc
	str	r2, [r6, #2748]	@ D.45283, MEM[base: _552, offset: 2784B]
	ldr	r2, [r8]	@ MEM[base: _550, offset: 0B], MEM[base: _550, offset: 0B]
	ldrb	r2, [r2, #1]	@ zero_extendqisi2	@ D.45285, _237->is_long_term
	strb	r2, [r6, #2743]	@ D.45285, MEM[base: _552, offset: 2779B]
	ldr	r2, [r8]	@ MEM[base: _550, offset: 0B], MEM[base: _550, offset: 0B]
	ldrb	r2, [r2]	@ zero_extendqisi2	@ D.45285, _240->structure
	strb	r2, [r6, #2742]	@ D.45285, MEM[base: _552, offset: 2778B]
	ldr	r2, [r8]	@ MEM[base: _550, offset: 0B], MEM[base: _550, offset: 0B]
	ldr	r2, [r2, #4]	@ _243->frame_store, _243->frame_store
	ldr	r2, [r2, #416]	@ D.45283, _244->frame.poc
	str	r2, [r6, #2764]	@ D.45283, MEM[base: _552, offset: 2800B]
	ldr	r2, [r8]	@ MEM[base: _550, offset: 0B], MEM[base: _550, offset: 0B]
	ldr	r2, [r2, #4]	@ _247->frame_store, _247->frame_store
	ldr	r2, [r2, #452]	@ D.45283, _248->top_field.poc
	str	r2, [r6, #2768]	@ D.45283, MEM[base: _552, offset: 2804B]
	ldr	r2, [r8], #4	@ MEM[base: _550, offset: 0B], MEM[base: _550, offset: 0B]
	ldr	r2, [r2, #4]	@ _251->frame_store, _251->frame_store
	ldr	r2, [r2, #488]	@ D.45283, _252->bottom_field.poc
	strb	r4, [r6, #2740]	@ D.45279, MEM[base: _552, offset: 2776B]
	str	r2, [r6, #2772]	@ D.45283, MEM[base: _552, offset: 2808B]
	ldr	r2, [r5, #248]	@ pH264Ctx_42(D)->CurrSlice.listXsize, pH264Ctx_42(D)->CurrSlice.listXsize
	cmp	r2, r7	@ pH264Ctx_42(D)->CurrSlice.listXsize, i
	bhi	.L1272	@,
	mov	r7, r5	@ tmp848, tmp848
	ldr	r5, [sp, #12]	@ pH264Ctx, %sfp
	b	.L1265	@
.L1342:
	ldr	r3, [sp, #4]	@ tmp847, %sfp
	ldr	r1, [r3, #1248]	@ pH264Ctx_42(D)->CurrPPS.weighted_bipred_idc, pH264Ctx_42(D)->CurrPPS.weighted_bipred_idc
	strb	r1, [r9, #4]	@ pH264Ctx_42(D)->CurrPPS.weighted_bipred_idc, pCurrSlicePara_48->weight_flag
	b	.L1246	@
.L1343:
	ldr	r1, [r7, #248]	@ pH264Ctx_42(D)->CurrSlice.listXsize, pH264Ctx_42(D)->CurrSlice.listXsize
	cmp	r1, #0	@ pH264Ctx_42(D)->CurrSlice.listXsize,
	beq	.L1265	@,
	add	r4, r5, #27136	@ ivtmp.1860, pH264Ctx,
	mov	r6, r9	@ ivtmp.1877, pCurrSlicePara
	add	r4, r4, #32	@ ivtmp.1860, ivtmp.1860,
	mov	r8, #0	@ i,
	ldr	fp, [sp, #16]	@ ExistImgIdc_1, %sfp
	b	.L1281	@
.L1279:
	strb	r3, [r6, #2782]	@ D.45285, MEM[base: _610, offset: 2782B]
	ldr	r3, [r4]	@ MEM[base: _608, offset: 0B], MEM[base: _608, offset: 0B]
	ldrb	r3, [r3, #1]	@ zero_extendqisi2	@ D.45285, _363->is_long_term
	strb	r3, [r6, #2783]	@ D.45285, MEM[base: _610, offset: 2783B]
	ldr	r3, [r4]	@ MEM[base: _608, offset: 0B], MEM[base: _608, offset: 0B]
	ldr	r3, [r3, #16]	@ D.45283, _366->poc
	str	r3, [r6, #2808]	@ D.45283, MEM[base: _610, offset: 2808B]
.L1280:
	ldr	r3, [r7, #248]	@ pH264Ctx_42(D)->CurrSlice.listXsize, pH264Ctx_42(D)->CurrSlice.listXsize
	add	r8, r8, #1	@ i, i,
	add	r4, r4, #4	@ ivtmp.1860, ivtmp.1860,
	add	r6, r6, #36	@ ivtmp.1877, ivtmp.1877,
	cmp	r3, r8	@ pH264Ctx_42(D)->CurrSlice.listXsize, i
	bls	.L1265	@,
.L1281:
	ldr	r3, [r4]	@ MEM[base: _608, offset: 0B], MEM[base: _608, offset: 0B]
	ldr	r0, [r10, #3688]	@, pH264Ctx_42(D)->ChanID
	ldr	r3, [r3, #4]	@ _315->frame_store, _315->frame_store
	ldr	r1, [r3, #508]	@, _316->logic_fs_id
	bl	FSP_GetLogicFs	@
	ldr	r3, [r4]	@ MEM[base: _608, offset: 0B], MEM[base: _608, offset: 0B]
	ldr	r3, [r3, #4]	@ _320->frame_store, _320->frame_store
	ldr	r3, [r3, #548]	@ D.45281, _321->pmv_address_idc
	str	r3, [r6, #2788]	@ D.45281, MEM[base: _610, offset: 2788B]
	ldr	r3, [r4]	@ MEM[base: _608, offset: 0B], MEM[base: _608, offset: 0B]
	ldr	r3, [r3, #4]	@ _324->frame_store, _324->frame_store
	ldrb	r3, [r3, #1]	@ zero_extendqisi2	@ D.45285, _325->is_used
	strb	r3, [r6, #2777]	@ D.45285, MEM[base: _610, offset: 2777B]
	ldr	r3, [r4]	@ MEM[base: _608, offset: 0B], MEM[base: _608, offset: 0B]
	ldr	r3, [r3, #4]	@ _328->frame_store, _328->frame_store
	ldrb	r3, [r3]	@ zero_extendqisi2	@ _329->non_existing, _329->non_existing
	cmp	r3, #1	@ _329->non_existing,
	moveq	r0, fp	@ D.45279, ExistImgIdc_1
	beq	.L1278	@,
	cmp	r0, #0	@ pstLogicFs,
	ldrne	r3, [r0, #408]	@ pstLogicFs_319->pstDecodeFs, pstLogicFs_319->pstDecodeFs
	ldrne	r0, [r3, #4]	@ D.45279, _331->PhyFsID
.L1278:
	str	r0, [r6, #2792]	@ D.45279, MEM[base: _610, offset: 2792B]
	ldr	r3, [r4]	@ MEM[base: _608, offset: 0B], MEM[base: _608, offset: 0B]
	ldr	r3, [r3, #4]	@ _336->frame_store, _336->frame_store
	ldr	r3, [r3, #552]	@ D.45281, _337->apc_idc
	str	r3, [r6, #2796]	@ D.45281, MEM[base: _610, offset: 2796B]
	ldr	r3, [r4]	@ MEM[base: _608, offset: 0B], MEM[base: _608, offset: 0B]
	ldr	r3, [r3, #4]	@ _340->frame_store, _340->frame_store
	ldr	r3, [r3, #524]	@ D.45283, _341->poc
	str	r3, [r6, #2784]	@ D.45283, MEM[base: _610, offset: 2784B]
	ldr	r3, [r4]	@ MEM[base: _608, offset: 0B], MEM[base: _608, offset: 0B]
	ldrb	r3, [r3]	@ zero_extendqisi2	@ D.45285, _344->structure
	strb	r3, [r6, #2776]	@ D.45285, MEM[base: _610, offset: 2776B]
	ldr	r3, [r4]	@ MEM[base: _608, offset: 0B], MEM[base: _608, offset: 0B]
	ldr	r3, [r3, #4]	@ _347->frame_store, _347->frame_store
	ldrb	r3, [r3, #400]	@ zero_extendqisi2	@ D.45285, _348->frame.structure
	strb	r3, [r6, #2778]	@ D.45285, MEM[base: _610, offset: 2778B]
	ldr	r3, [r4]	@ MEM[base: _608, offset: 0B], MEM[base: _608, offset: 0B]
	ldrb	r3, [r3]	@ zero_extendqisi2	@ D.45285, _351->structure
	cmp	r3, #1	@ D.45285,
	bne	.L1279	@,
	strb	r3, [r6, #2780]	@ D.45285, MEM[base: _610, offset: 2780B]
	ldr	r3, [r4]	@ MEM[base: _608, offset: 0B], MEM[base: _608, offset: 0B]
	ldrb	r3, [r3, #1]	@ zero_extendqisi2	@ D.45285, _355->is_long_term
	strb	r3, [r6, #2781]	@ D.45285, MEM[base: _610, offset: 2781B]
	ldr	r3, [r4]	@ MEM[base: _608, offset: 0B], MEM[base: _608, offset: 0B]
	ldr	r3, [r3, #16]	@ D.45283, _358->poc
	str	r3, [r6, #2804]	@ D.45283, MEM[base: _610, offset: 2804B]
	b	.L1280	@
.L1260:
	add	sp, sp, #28	@,,
	@ sp needed	@
	ldmfd	sp!, {r4, r5, r6, r7, r8, r9, r10, fp, lr}	@
	b	vfmw_dprint_nothing	@
.L1288:
	str	r8, [sp, #12]	@ D.45281, %sfp
	b	.L1250	@
.L1289:
	str	r3, [sp, #16]	@ D.45281, %sfp
	b	.L1256	@
	.fnend
	.size	WriteSliceMsg, .-WriteSliceMsg
	.align	2
	.global	H264_GetPicStreamSize
	.type	H264_GetPicStreamSize, %function
H264_GetPicStreamSize:
	.fnstart
	@ args = 0, pretend = 0, frame = 0
	@ frame_needed = 0, uses_anonymous_args = 0
	@ link register save eliminated.
	add	r0, r0, #49152	@ tmp122, pH264Ctx,
	ldr	r2, [r0, #3340]	@ pH264SliceParam, pH264Ctx_4(D)->DecPicPara.pFirstSlice
	cmp	r2, #0	@ pH264SliceParam,
	beq	.L1349	@,
	mov	r0, #0	@ TotalSize,
.L1348:
	ldr	r3, [r2, #8]	@ pH264SliceParam_18->valid_bitlen, pH264SliceParam_18->valid_bitlen
	ldr	r1, [r2, #12]	@ pH264SliceParam_18->valid_bitlen, pH264SliceParam_18->valid_bitlen
	ldr	r2, [r2, #4056]	@ pH264SliceParam, pH264SliceParam_18->pNextSlice
	add	r3, r3, r1	@ D.45296, pH264SliceParam_18->valid_bitlen, pH264SliceParam_18->valid_bitlen
	add	r3, r3, #7	@ D.45296, D.45296,
	cmp	r2, #0	@ pH264SliceParam,
	add	r0, r0, r3, lsr #3	@ TotalSize, TotalSize, D.45296,
	bne	.L1348	@,
	bx	lr	@
.L1349:
	mov	r0, r2	@ TotalSize, pH264SliceParam
	bx	lr	@
	.fnend
	.size	H264_GetPicStreamSize, .-H264_GetPicStreamSize
	.align	2
	.global	SliceCheck
	.type	SliceCheck, %function
SliceCheck:
	.fnstart
	@ args = 0, pretend = 0, frame = 0
	@ frame_needed = 0, uses_anonymous_args = 0
	stmfd	sp!, {r4, r5, r6, lr}	@,
	.save {r4, r5, r6, lr}
	add	r5, r0, #20480	@ tmp128, pH264Ctx,
	ldr	r1, .L1362	@,
	add	r6, r0, #49152	@ tmp130, pH264Ctx,
	mov	r4, r0	@ pH264Ctx, pH264Ctx
	bl	ue_v	@
	str	r0, [r5, #252]	@ D.45300, pH264Ctx_5(D)->CurrSlice.first_mb_in_slice
	ldr	r3, [r6, #3628]	@ pH264Ctx_5(D)->SeErrFlg, pH264Ctx_5(D)->SeErrFlg
	cmp	r3, #0	@ pH264Ctx_5(D)->SeErrFlg,
	bne	.L1361	@,
	cmp	r0, #262144	@ D.45300,
	bcs	.L1356	@,
	add	r2, r4, #12288	@ tmp134, pH264Ctx,
	ldr	r1, [r2, #1272]	@ pH264Ctx_5(D)->CurWidthInMb, pH264Ctx_5(D)->CurWidthInMb
	ldr	r3, [r2, #1276]	@ pH264Ctx_5(D)->CurHeightInMb, pH264Ctx_5(D)->CurHeightInMb
	mul	r3, r3, r1	@ D.45301, pH264Ctx_5(D)->CurHeightInMb, pH264Ctx_5(D)->CurWidthInMb
	sub	r3, r3, #1	@ D.45301, D.45301,
	cmp	r0, r3	@ D.45300, D.45301
	bhi	.L1361	@,
	mov	r0, r4	@, pH264Ctx
	ldr	r1, .L1362+4	@,
	bl	ue_v	@
	mov	r4, r0	@ SliceType,
	bl	vfmw_dprint_nothing	@
	ldr	r0, [r6, #3628]	@ pH264Ctx_5(D)->SeErrFlg, pH264Ctx_5(D)->SeErrFlg
	cmp	r0, #0	@ pH264Ctx_5(D)->SeErrFlg,
	bne	.L1361	@,
	cmp	r4, #9	@ SliceType,
	bhi	.L1356	@,
	mov	r1, #1	@ tmp145,
	movw	r2, #297	@ D.45300,
	mov	r3, r1, asl r4	@ D.45300, tmp145,
	and	r2, r2, r3	@ D.45300, D.45300, D.45300
	cmp	r2, #0	@ D.45300,
	bne	.L1357	@,
	ands	r0, r3, #660	@ D.45300, D.45300,
	bne	.L1358	@,
	tst	r3, #66	@ D.45300,
	beq	.L1356	@,
	strb	r1, [r5, #200]	@ tmp145, pH264Ctx_5(D)->CurrSlice.slice_type
	ldmfd	sp!, {r4, r5, r6, pc}	@
.L1357:
	strb	r0, [r5, #200]	@ pH264Ctx_5(D)->SeErrFlg, pH264Ctx_5(D)->CurrSlice.slice_type
	ldmfd	sp!, {r4, r5, r6, pc}	@
.L1356:
	bl	vfmw_dprint_nothing	@
.L1361:
	mvn	r0, #0	@ D.45299,
	ldmfd	sp!, {r4, r5, r6, pc}	@
.L1358:
	mov	r3, #2	@ tmp152,
	mov	r0, r2	@ D.45299, D.45300
	strb	r3, [r5, #200]	@ tmp152, pH264Ctx_5(D)->CurrSlice.slice_type
	ldmfd	sp!, {r4, r5, r6, pc}	@
.L1363:
	.align	2
.L1362:
	.word	.LC0
	.word	.LC1
	.fnend
	.size	SliceCheck, .-SliceCheck
	.align	2
	.global	PPSSPSCheck
	.type	PPSSPSCheck, %function
PPSSPSCheck:
	.fnstart
	@ args = 0, pretend = 0, frame = 0
	@ frame_needed = 0, uses_anonymous_args = 0
	stmfd	sp!, {r4, lr}	@,
	.save {r4, lr}
	mov	r4, r0	@ pH264Ctx, pH264Ctx
	bl	vfmw_dprint_nothing	@
	add	r1, r4, #12288	@ tmp124, pH264Ctx,
	add	r4, r4, #20480	@ tmp126, pH264Ctx,
	mov	r0, #2208	@ tmp129,
	ldr	r2, [r4, #212]	@ pH264Ctx_5(D)->CurrSlice.pic_parameter_set_id, pH264Ctx_5(D)->CurrSlice.pic_parameter_set_id
	ldr	r3, [r1, #1296]	@ pH264Ctx_5(D)->PPS, pH264Ctx_5(D)->PPS
	mla	r3, r0, r2, r3	@ pPPS, tmp129, pH264Ctx_5(D)->CurrSlice.pic_parameter_set_id, pH264Ctx_5(D)->PPS
	ldrb	r2, [r3, #19]	@ zero_extendqisi2	@ pPPS_9->is_valid, pPPS_9->is_valid
	cmp	r2, #0	@ pPPS_9->is_valid,
	beq	.L1367	@,
	ldr	r2, [r3, #28]	@ pPPS_9->seq_parameter_set_id, pPPS_9->seq_parameter_set_id
	mov	r0, #4000	@ tmp137,
	ldr	r3, [r1, #1292]	@ pH264Ctx_5(D)->SPS, pH264Ctx_5(D)->SPS
	mla	r3, r0, r2, r3	@ tmp138, tmp137, pPPS_9->seq_parameter_set_id, pH264Ctx_5(D)->SPS
	ldrb	r3, [r3, #23]	@ zero_extendqisi2	@ pSPS_15->is_valid, pSPS_15->is_valid
	cmp	r3, #0	@ pSPS_15->is_valid,
	beq	.L1367	@,
	mov	r0, #0	@ D.45306,
	ldmfd	sp!, {r4, pc}	@
.L1367:
	bl	vfmw_dprint_nothing	@
	mvn	r0, #0	@ D.45306,
	ldmfd	sp!, {r4, pc}	@
	.fnend
	.size	PPSSPSCheck, .-PPSSPSCheck
	.align	2
	.global	PPSSPSCheckTmpId
	.type	PPSSPSCheckTmpId, %function
PPSSPSCheckTmpId:
	.fnstart
	@ args = 0, pretend = 0, frame = 0
	@ frame_needed = 0, uses_anonymous_args = 0
	stmfd	sp!, {r4, r5, r6, lr}	@,
	.save {r4, r5, r6, lr}
	mov	r5, r1	@ tmp_pic_parameter_set_id, tmp_pic_parameter_set_id
	mov	r4, r0	@ pH264Ctx, pH264Ctx
	bl	vfmw_dprint_nothing	@
	add	r0, r4, #12288	@ tmp127, pH264Ctx,
	mov	r1, #2208	@ tmp129,
	ldr	r3, [r0, #1296]	@ pH264Ctx_5(D)->PPS, pH264Ctx_5(D)->PPS
	mla	r1, r1, r5, r3	@ pPPS, tmp129, tmp_pic_parameter_set_id, pH264Ctx_5(D)->PPS
	ldrb	r3, [r1, #19]	@ zero_extendqisi2	@ pPPS_9->is_valid, pPPS_9->is_valid
	cmp	r3, #0	@ pPPS_9->is_valid,
	beq	.L1375	@,
	ldr	r2, [r0, #1284]	@ pH264Ctx_5(D)->MaxSpsNum, pH264Ctx_5(D)->MaxSpsNum
	ldr	r3, [r1, #28]	@ D.45315, pPPS_9->seq_parameter_set_id
	sub	r2, r2, #1	@ D.45317, pH264Ctx_5(D)->MaxSpsNum,
	cmp	r3, r2	@ D.45315, D.45317
	bhi	.L1375	@,
	ldr	r2, [r0, #1292]	@ pH264Ctx_5(D)->SPS, pH264Ctx_5(D)->SPS
	mov	r1, #4000	@ tmp140,
	mla	r3, r1, r3, r2	@ tmp141, tmp140, D.45315, pH264Ctx_5(D)->SPS
	ldrb	r3, [r3, #23]	@ zero_extendqisi2	@ pSPS_19->is_valid, pSPS_19->is_valid
	cmp	r3, #0	@ pSPS_19->is_valid,
	beq	.L1375	@,
	mov	r0, #0	@ D.45313,
	ldmfd	sp!, {r4, r5, r6, pc}	@
.L1375:
	bl	vfmw_dprint_nothing	@
	mvn	r0, #0	@ D.45313,
	ldmfd	sp!, {r4, r5, r6, pc}	@
	.fnend
	.size	PPSSPSCheckTmpId, .-PPSSPSCheckTmpId
	.align	2
	.global	IsNewPic
	.type	IsNewPic, %function
IsNewPic:
	.fnstart
	@ args = 0, pretend = 0, frame = 0
	@ frame_needed = 0, uses_anonymous_args = 0
	add	r3, r0, #20480	@ tmp300, pH264Ctx,
	add	r1, r0, #12288	@ tmp182, pH264Ctx,
	stmfd	sp!, {r4, r5, r6, lr}	@,
	.save {r4, r5, r6, lr}
	ldr	r1, [r1, #2044]	@ pH264Ctx_7(D)->CurrSPS.seq_parameter_set_id, pH264Ctx_7(D)->CurrSPS.seq_parameter_set_id
	ldr	ip, [r3, #1852]	@ pH264Ctx_7(D)->PrevSlice.seq_parameter_set_id, pH264Ctx_7(D)->PrevSlice.seq_parameter_set_id
	ldr	r2, [r3, #1856]	@ pH264Ctx_7(D)->PrevSlice.pic_parameter_set_id, pH264Ctx_7(D)->PrevSlice.pic_parameter_set_id
	ldr	lr, [r3, #212]	@ pH264Ctx_7(D)->CurrSlice.pic_parameter_set_id, pH264Ctx_7(D)->CurrSlice.pic_parameter_set_id
	ldr	r5, [r3, #1864]	@ pH264Ctx_7(D)->PrevSlice.frame_num, pH264Ctx_7(D)->PrevSlice.frame_num
	cmp	r2, lr	@ pH264Ctx_7(D)->PrevSlice.pic_parameter_set_id, pH264Ctx_7(D)->CurrSlice.pic_parameter_set_id
	cmpeq	ip, r1	@, pH264Ctx_7(D)->PrevSlice.seq_parameter_set_id, pH264Ctx_7(D)->CurrSPS.seq_parameter_set_id
	ldr	r4, [r3, #220]	@ pH264Ctx_7(D)->CurrSlice.frame_num, pH264Ctx_7(D)->CurrSlice.frame_num
	ldrb	lr, [r3, #1848]	@ zero_extendqisi2	@ D.45323, pH264Ctx_7(D)->PrevSlice.field_pic_flag
	ldrb	ip, [r3, #201]	@ zero_extendqisi2	@ D.45323, pH264Ctx_7(D)->CurrSlice.field_pic_flag
	movne	r1, #1	@ tmp195,
	moveq	r1, #0	@ tmp195,
	cmp	r5, r4	@ pH264Ctx_7(D)->PrevSlice.frame_num, pH264Ctx_7(D)->CurrSlice.frame_num
	moveq	r2, r1	@, tmp205, tmp195
	orrne	r2, r1, #1	@,, tmp205, tmp195
	cmp	lr, ip	@ D.45323, D.45323
	orrne	r2, r2, #1	@,, D.45321, tmp205
	cmp	lr, #0	@ D.45323,
	cmpne	ip, #0	@, D.45323,
	beq	.L1382	@,
	ldrb	ip, [r3, #1849]	@ zero_extendqisi2	@ pH264Ctx_7(D)->PrevSlice.bottom_field_flag, pH264Ctx_7(D)->PrevSlice.bottom_field_flag
	ldrb	r1, [r3, #202]	@ zero_extendqisi2	@ pH264Ctx_7(D)->CurrSlice.bottom_field_flag, pH264Ctx_7(D)->CurrSlice.bottom_field_flag
	cmp	ip, r1	@ pH264Ctx_7(D)->PrevSlice.bottom_field_flag, pH264Ctx_7(D)->CurrSlice.bottom_field_flag
	orrne	r2, r2, #1	@,, result, D.45321
.L1382:
	ldr	r1, [r3, #1860]	@ D.45322, pH264Ctx_7(D)->PrevSlice.nal_ref_idc
	ldr	ip, [r3, #232]	@ D.45322, pH264Ctx_7(D)->CurrSlice.nal_ref_idc
	cmp	r1, ip	@ D.45322, D.45322
	moveq	r1, #0	@ D.45322,
	beq	.L1383	@,
	cmp	ip, #0	@ D.45322,
	cmpne	r1, #0	@, D.45322,
	moveq	r1, #1	@ D.45322,
	movne	r1, #0	@ D.45322,
.L1383:
	ldrb	ip, [r3, #1850]	@ zero_extendqisi2	@ D.45323, pH264Ctx_7(D)->PrevSlice.nal_unit_type
	ldrb	lr, [r3, #203]	@ zero_extendqisi2	@ D.45323, pH264Ctx_7(D)->CurrSlice.nal_unit_type
	cmp	ip, lr	@ D.45323, D.45323
	orrne	r2, r2, #1	@,, D.45324, result
	cmp	lr, #5	@ D.45323,
	cmpeq	ip, #5	@, D.45323,
	orr	r2, r2, r1	@ result, D.45324, D.45322
	beq	.L1392	@,
.L1384:
	add	r0, r0, #16384	@ tmp257, pH264Ctx,
	ldr	r1, [r0, #112]	@ D.45322, pH264Ctx_7(D)->CurrSPS.pic_order_cnt_type
	cmp	r1, #0	@ D.45322,
	bne	.L1385	@,
	ldr	r1, [r3, #1872]	@ pH264Ctx_7(D)->PrevSlice.pic_oder_cnt_lsb, pH264Ctx_7(D)->PrevSlice.pic_oder_cnt_lsb
	ldr	lr, [r0, #3416]	@ pH264Ctx_7(D)->CurrPOC.delta_pic_order_cnt_bottom, pH264Ctx_7(D)->CurrPOC.delta_pic_order_cnt_bottom
	ldr	ip, [r3, #1876]	@ pH264Ctx_7(D)->PrevSlice.delta_pic_oder_cnt_bottom, pH264Ctx_7(D)->PrevSlice.delta_pic_oder_cnt_bottom
	ldr	r0, [r0, #3412]	@ pH264Ctx_7(D)->CurrPOC.pic_order_cnt_lsb, pH264Ctx_7(D)->CurrPOC.pic_order_cnt_lsb
	cmp	r1, r0	@ pH264Ctx_7(D)->PrevSlice.pic_oder_cnt_lsb, pH264Ctx_7(D)->CurrPOC.pic_order_cnt_lsb
	cmpeq	ip, lr	@, pH264Ctx_7(D)->PrevSlice.delta_pic_oder_cnt_bottom, pH264Ctx_7(D)->CurrPOC.delta_pic_order_cnt_bottom
	movne	r1, #1	@ D.45324,
	moveq	r1, #0	@ D.45324,
	orr	r2, r2, r1	@ result, result, D.45324
.L1386:
	ldr	r4, [r3, #252]	@ pH264Ctx_7(D)->CurrSlice.first_mb_in_slice, pH264Ctx_7(D)->CurrSlice.first_mb_in_slice
	cmp	r4, #0	@ pH264Ctx_7(D)->CurrSlice.first_mb_in_slice,
	movne	r4, r2	@, result, result
	orreq	r4, r2, #1	@,, result, result
	bl	vfmw_dprint_nothing	@
	mov	r0, r4	@, result
	ldmfd	sp!, {r4, r5, r6, pc}	@
.L1385:
	cmp	r1, #1	@ D.45322,
	bne	.L1386	@,
	ldr	r1, [r3, #1880]	@ pH264Ctx_7(D)->PrevSlice.delta_pic_order_cnt, pH264Ctx_7(D)->PrevSlice.delta_pic_order_cnt
	ldr	lr, [r0, #3464]	@ pH264Ctx_7(D)->CurrPOC.delta_pic_order_cnt, pH264Ctx_7(D)->CurrPOC.delta_pic_order_cnt
	ldr	ip, [r3, #1884]	@ pH264Ctx_7(D)->PrevSlice.delta_pic_order_cnt, pH264Ctx_7(D)->PrevSlice.delta_pic_order_cnt
	ldr	r0, [r0, #3460]	@ pH264Ctx_7(D)->CurrPOC.delta_pic_order_cnt, pH264Ctx_7(D)->CurrPOC.delta_pic_order_cnt
	cmp	r1, r0	@ pH264Ctx_7(D)->PrevSlice.delta_pic_order_cnt, pH264Ctx_7(D)->CurrPOC.delta_pic_order_cnt
	cmpeq	ip, lr	@, pH264Ctx_7(D)->PrevSlice.delta_pic_order_cnt, pH264Ctx_7(D)->CurrPOC.delta_pic_order_cnt
	movne	r1, #1	@ D.45324,
	moveq	r1, #0	@ D.45324,
	orr	r2, r2, r1	@ result, result, D.45324
	b	.L1386	@
.L1392:
	ldr	ip, [r3, #1868]	@ pH264Ctx_7(D)->PrevSlice.idr_pic_id, pH264Ctx_7(D)->PrevSlice.idr_pic_id
	ldr	r1, [r3, #240]	@ pH264Ctx_7(D)->CurrSlice.idr_pic_id, pH264Ctx_7(D)->CurrSlice.idr_pic_id
	cmp	ip, r1	@ pH264Ctx_7(D)->PrevSlice.idr_pic_id, pH264Ctx_7(D)->CurrSlice.idr_pic_id
	orrne	r2, r2, #1	@,, result, result
	b	.L1384	@
	.fnend
	.size	IsNewPic, .-IsNewPic
	.align	2
	.global	ref_pic_list_reordering
	.type	ref_pic_list_reordering, %function
ref_pic_list_reordering:
	.fnstart
	@ args = 0, pretend = 0, frame = 0
