	.arch armv7-a
	.fpu softvfp
	.eabi_attribute 20, 1
	.eabi_attribute 21, 1
	.eabi_attribute 23, 3
	.eabi_attribute 24, 1
	.eabi_attribute 25, 1
	.eabi_attribute 26, 2
	.eabi_attribute 30, 2
	.eabi_attribute 18, 4
	.file	"vfmw_intf.c"
@ GNU C (Hisilicon_v200(gcc4.4-290+glibc-2.11+eabi+nptl)) version 4.4.1 (arm-hisiv200-linux-gnueabi)
@	compiled by GNU C version 4.1.1 20061011 (Red Hat 4.1.1-30), GMP version 4.3.1, MPFR version 2.4.2.
@ GGC heuristics: --param ggc-min-expand=100 --param ggc-min-heapsize=131072
@ options passed:  -nostdinc
@ -I/usr1/code/v1r4_v1r6_sourceCode/code/current/v1r6_hi3716mv330_pack/work/source/kernel/linux-3.10.y/arch/arm/include
@ -Iarch/arm/include/generated -Iinclude
@ -I/usr1/code/v1r4_v1r6_sourceCode/code/current/v1r6_hi3716mv330_pack/work/source/kernel/linux-3.10.y/arch/arm/include/uapi
@ -Iarch/arm/include/generated/uapi
@ -I/usr1/code/v1r4_v1r6_sourceCode/code/current/v1r6_hi3716mv330_pack/work/source/kernel/linux-3.10.y/include/uapi
@ -Iinclude/generated/uapi -Iarch/arm/mach-hi3716mv310/include
@ -I/usr1/code/v1r4_v1r6_sourceCode/code/current/v1r6_hi3716mv330_pack/work/source/kernel/linux-3.10.y/../../../source/common/include
@ -I/usr1/code/v1r4_v1r6_sourceCode/code/current/v1r6_hi3716mv330_pack/work/source/kernel/linux-3.10.y/../../../source/common/drv/include
@ -I/usr1/code/v1r4_v1r6_sourceCode/code/current/v1r6_hi3716mv330_pack/work/source/kernel/linux-3.10.y/../../../source/msp/drv/vfmw/vfmw_v4.0/drv/memmap
@ -I/usr1/code/v1r4_v1r6_sourceCode/code/current/v1r6_hi3716mv330_pack/work/source/kernel/linux-3.10.y/../../../source/msp/drv/vfmw/vfmw_v4.0/model/scd
@ -I/usr1/code/v1r4_v1r6_sourceCode/code/current/v1r6_hi3716mv330_pack/work/source/kernel/linux-3.10.y/../../../source/msp/drv/vfmw/vfmw_v4.0/firmware/common/softlib
@ -I/usr1/code/v1r4_v1r6_sourceCode/code/current/v1r6_hi3716mv330_pack/work/source/kernel/linux-3.10.y/../../../source/msp/drv/vfmw/vfmw_v4.0/firmware/common
@ -I/usr1/code/v1r4_v1r6_sourceCode/code/current/v1r6_hi3716mv330_pack/work/source/kernel/linux-3.10.y/../../../source/msp/drv/vfmw/vfmw_v4.0/firmware/common/syntax
@ -I/usr1/code/v1r4_v1r6_sourceCode/code/current/v1r6_hi3716mv330_pack/work/source/kernel/linux-3.10.y/../../../source/msp/drv/vfmw/vfmw_v4.0/firmware/driver/HiSCDV200
@ -I/usr1/code/v1r4_v1r6_sourceCode/code/current/v1r6_hi3716mv330_pack/work/source/kernel/linux-3.10.y/../../../source/msp/drv/vfmw/vfmw_v4.0/firmware/driver/HiVDHV100
@ -I/usr1/code/v1r4_v1r6_sourceCode/code/current/v1r6_hi3716mv330_pack/work/source/kernel/linux-3.10.y/../../../source/msp/drv/vfmw/vfmw_v4.0/firmware/driver/HiVDHV200R001
@ -I/usr1/code/v1r4_v1r6_sourceCode/code/current/v1r6_hi3716mv330_pack/work/source/kernel/linux-3.10.y/../../../source/msp/drv/vfmw/vfmw_v4.0/firmware/driver/HiVDHV200R002
@ -I/usr1/code/v1r4_v1r6_sourceCode/code/current/v1r6_hi3716mv330_pack/work/source/kernel/linux-3.10.y/../../../source/msp/drv/vfmw/vfmw_v4.0/firmware/driver/HiVDHV200R003
@ -I/usr1/code/v1r4_v1r6_sourceCode/code/current/v1r6_hi3716mv330_pack/work/source/kernel/linux-3.10.y/../../../source/msp/drv/vfmw/vfmw_v4.0/firmware/driver/HiVDHV200R004
@ -I/usr1/code/v1r4_v1r6_sourceCode/code/current/v1r6_hi3716mv330_pack/work/source/kernel/linux-3.10.y/../../../source/msp/drv/vfmw/vfmw_v4.0/model/rawpacket
@ -I/usr1/code/v1r4_v1r6_sourceCode/code/current/v1r6_hi3716mv330_pack/work/source/kernel/linux-3.10.y/../../../source/msp/drv/vfmw/vfmw_v4.0/firmware/product/Hi3716MV310/osal/linux_kernel
@ -I/usr1/code/v1r4_v1r6_sourceCode/code/current/v1r6_hi3716mv330_pack/work/source/kernel/linux-3.10.y/../../../source/msp/drv/vfmw/vfmw_v4.0/firmware/product/Hi3716MV310
@ -I/usr1/code/v1r4_v1r6_sourceCode/code/current/v1r6_hi3716mv330_pack/work/source/kernel/linux-3.10.y/../../../source/msp/drv/vfmw/vfmw_v4.0/firmware/driver/HiDNR
@ -I/usr1/code/v1r4_v1r6_sourceCode/code/current/v1r6_hi3716mv330_pack/work/source/kernel/linux-3.10.y/../../../source/msp/drv/vfmw/vfmw_v4.0/firmware/driver/HiBTLV100
@ -I/usr1/code/v1r4_v1r6_sourceCode/code/current/v1r6_hi3716mv330_pack/work/source/kernel/linux-3.10.y/../../../source/msp/drv/vfmw/vfmw_v4.0/firmware/common_test/vdecko
@ -imultilib armv7a_soft -iprefix
@ /opt/hisi-linux/x86-arm/arm-hisiv200-linux/bin/../lib/gcc/arm-hisiv200-linux-gnueabi/4.4.1/
@ -isysroot /opt/hisi-linux/x86-arm/arm-hisiv200-linux/bin/../target
@ -D__KERNEL__ -D__LINUX_ARM_ARCH__=7 -Uarm -DHi3716MV310
@ -DENV_ARMLINUX_KERNEL -DOFF_LINE_DNR_ENABLE -DSCD_MP4_SLICE_ENABLE
@ -DSUPPORT_JPEG_444 -DVFMW_EXTRA_TYPE_DEFINE -DPRODUCT_STB
@ -D__VFMW_REGISTER_ISR__ -DVFMW_VDH_V200R004_SUPPORT -DVFMW_H264_SUPPORT
@ -DVFMW_MPEG2_SUPPORT -DVFMW_MPEG4_SUPPORT -DVFMW_AVS_SUPPORT
@ -DVFMW_BPD_H_SUPPORT -DVFMW_DNR_SUPPORT -DVFMW_RAW_SUPPORT
@ -DVFMW_USER_SUPPORT -DCFG_MAX_CHAN_NUM=1 -DCFG_MAX_CHAN_NUM=1
@ -DVFMW_DPRINT_SUPPORT -DVFMW_AVSPLUS_SUPPORT -DVFMW_SYSTEM_REG_DISABLE
@ -DREPAIR_ENABLE -D_FORTIFY_SOURCE=2 -DCHIP_TYPE_hi3716mv310
@ -DSDK_VERSION=HiSTBLinuxV100R006C00SPC052 -DHI_LOG_SUPPORT=1
@ -DHI_LOG_LEVEL=4 -DHI_PROC_SUPPORT=1 -DHI_PNG_DECODER_SUPPORT
@ -DHI_KEYLED_SUPPORT -DHI_HDCP_SUPPORT -DHI_SCI_SUPPORT
@ -DHI_GPIOI2C_SUPPORT -DHI_IR_S2_SUPPORT -DHI_DSC_SUPPORT -DMODULE
@ -DKBUILD_STR(s)=#s -DKBUILD_BASENAME=KBUILD_STR(vfmw_intf)
@ -DKBUILD_MODNAME=KBUILD_STR(hi_vfmw) -isystem
@ /opt/hisi-linux/x86-arm/arm-hisiv200-linux/bin/../lib/gcc/arm-hisiv200-linux-gnueabi/4.4.1/include
@ -include
@ /usr1/code/v1r4_v1r6_sourceCode/code/current/v1r6_hi3716mv330_pack/work/source/kernel/linux-3.10.y/include/linux/kconfig.h
@ -MD
@ /usr1/code/v1r4_v1r6_sourceCode/code/current/v1r6_hi3716mv330_pack/work/source/msp/drv/vfmw/vfmw_v4.0/firmware/product/Hi3716MV310/.vfmw_intf.o.d
@ /usr1/code/v1r4_v1r6_sourceCode/code/current/v1r6_hi3716mv330_pack/work/source/msp/drv/vfmw/vfmw_v4.0/firmware/product/Hi3716MV310/vfmw_intf.c
@ -mlittle-endian -mabi=aapcs-linux -mno-thumb-interwork -marm
@ -march=armv7-a -msoft-float -auxbase-strip
@ /usr1/code/v1r4_v1r6_sourceCode/code/current/v1r6_hi3716mv330_pack/work/source/msp/drv/vfmw/vfmw_v4.0/firmware/product/Hi3716MV310/vfmw_intf.o
@ -O2 -Wall -Wundef -Wstrict-prototypes -Wno-trigraphs
@ -Werror-implicit-function-declaration -Wno-format-security
@ -Wframe-larger-than=1024 -Wdeclaration-after-statement -Wno-pointer-sign
@ -fno-strict-aliasing -fno-common -fno-delete-null-pointer-checks
@ -fno-dwarf2-cfi-asm -funwind-tables -fno-stack-protector
@ -fomit-frame-pointer -fno-strict-overflow -fconserve-stack -fno-pic
@ -fverbose-asm
@ options enabled:  -falign-loops -fargument-alias -fauto-inc-dec
@ -fbranch-count-reg -fcaller-saves -fcprop-registers -fcrossjumping
@ -fcse-follow-jumps -fdefer-pop -fearly-inlining
@ -feliminate-unused-debug-types -fexpensive-optimizations
@ -fforward-propagate -ffunction-cse -fgcse -fgcse-lm
@ -fguess-branch-probability -fident -fif-conversion -fif-conversion2
@ -findirect-inlining -finline -finline-functions-called-once
@ -finline-small-functions -fipa-cp -fipa-pure-const -fipa-reference
@ -fira-share-save-slots -fira-share-spill-slots -fivopts
@ -fkeep-static-consts -fleading-underscore -fmath-errno -fmerge-constants
@ -fmerge-debug-strings -fmove-loop-invariants -fomit-frame-pointer
@ -foptimize-register-move -foptimize-sibling-calls -fpeephole -fpeephole2
@ -fpromote-loop-indices -freg-struct-return -fregmove -frename-registers
@ -freorder-blocks -freorder-functions -frerun-cse-after-loop
@ -fsched-interblock -fsched-spec -fsched-stalled-insns-dep
@ -fschedule-insns -fschedule-insns2 -fsection-anchors -fsigned-zeros
@ -fsplit-ivs-in-unroller -fsplit-wide-types -fthread-jumps
@ -ftoplevel-reorder -ftrapping-math -ftree-builtin-call-dce -ftree-ccp
@ -ftree-ch -ftree-copy-prop -ftree-copyrename -ftree-cselim -ftree-dce
@ -ftree-dominator-opts -ftree-dse -ftree-fre -ftree-loop-im
@ -ftree-loop-ivcanon -ftree-loop-optimize -ftree-parallelize-loops=
@ -ftree-pre -ftree-reassoc -ftree-scev-cprop -ftree-sink -ftree-sra
@ -ftree-switch-conversion -ftree-ter -ftree-vect-loop-version -ftree-vrp
@ -funit-at-a-time -funroll-loops -funwind-tables -fverbose-asm -fweb
@ -fzero-initialized-in-bss -mglibc -mlittle-endian -msched-prolog

@ Compiler executable checksum: fa59e0bd179ef45b3a3c3e6f3383fdac

	.text
	.align	2
	.global	VFMW_DRV_Exit
	.type	VFMW_DRV_Exit, %function
VFMW_DRV_Exit:
	.fnstart
.LFB1598:
	@ args = 0, pretend = 0, frame = 0
	@ frame_needed = 0, uses_anonymous_args = 0
	stmfd	sp!, {r4, lr}	@,
	.save {r4, lr}
	bl	VDEC_ExitModule	@
	mov	r0, #32	@,
	ldmfd	sp!, {r4, lr}	@
	b	HI_DRV_MODULE_UnRegister	@
	.fnend
	.size	VFMW_DRV_Exit, .-VFMW_DRV_Exit
	.align	2
	.global	VFMW_DRV_ModExit
	.type	VFMW_DRV_ModExit, %function
VFMW_DRV_ModExit:
	.fnstart
.LFB1600:
	@ args = 0, pretend = 0, frame = 0
	@ frame_needed = 0, uses_anonymous_args = 0
	stmfd	sp!, {r4, lr}	@,
	.save {r4, lr}
	bl	VFMW_DRV_Exit	@
	ldmfd	sp!, {r4, lr}	@
	b	VFMW_SVDEC_DRV_Exit	@
	.fnend
	.size	VFMW_DRV_ModExit, .-VFMW_DRV_ModExit
	.align	2
	.global	VFMW_DRV_Init
	.type	VFMW_DRV_Init, %function
VFMW_DRV_Init:
	.fnstart
.LFB1597:
	@ args = 0, pretend = 0, frame = 0
	@ frame_needed = 0, uses_anonymous_args = 0
	stmfd	sp!, {r4, lr}	@,
	.save {r4, lr}
	mov	r0, #32	@,
	.pad #8
	sub	sp, sp, #8	@,,
	movw	r1, #:lower16:.LC0	@,
	movw	r2, #:lower16:.LANCHOR0	@,
	movt	r1, #:upper16:.LC0	@,
	movt	r2, #:upper16:.LANCHOR0	@,
	bl	HI_DRV_MODULE_Register	@
	subs	r4, r0, #0	@ ret,
	bne	.L10	@,
	bl	VDEC_OpenModule	@
	movw	r2, #:lower16:.LANCHOR1	@,
	mov	r0, #3	@,
	movt	r2, #:upper16:.LANCHOR1	@,
	mov	r1, #32	@,
	mov	r3, #62	@,
	movw	ip, #:lower16:.LC2	@ tmp140,
	movt	ip, #:upper16:.LC2	@ tmp140,
	str	ip, [sp, #0]	@ tmp140,
	bl	HI_LogOut	@
.L7:
	mov	r0, r4	@, ret
	add	sp, sp, #8	@,,
	ldmfd	sp!, {r4, pc}
.L10:
	mov	r0, #0	@,
	mov	r1, #32	@,
	movw	r2, #:lower16:.LANCHOR1	@,
	mov	r3, #57	@,
	movt	r2, #:upper16:.LANCHOR1	@,
	movw	ip, #:lower16:.LC1	@ tmp138,
	movt	ip, #:upper16:.LC1	@ tmp138,
	str	ip, [sp, #0]	@ tmp138,
	bl	HI_LogOut	@
	b	.L7	@
	.fnend
	.size	VFMW_DRV_Init, .-VFMW_DRV_Init
	.align	2
	.global	VFMW_DRV_ModInit
	.type	VFMW_DRV_ModInit, %function
VFMW_DRV_ModInit:
	.fnstart
.LFB1599:
	@ args = 0, pretend = 0, frame = 0
	@ frame_needed = 0, uses_anonymous_args = 0
	stmfd	sp!, {r4, lr}	@,
	.save {r4, lr}
	bl	VFMW_DRV_Init	@
	cmp	r0, #0	@,
	beq	.L15	@,
.L12:
	mvn	r0, #0	@ D.32241,
	ldmfd	sp!, {r4, pc}	@
.L15:
	bl	VFMW_SVDE_DRV_Init	@
	subs	r4, r0, #0	@ ret.521,
	bne	.L12	@,
	movw	r0, #:lower16:.LC3	@,
	movw	r1, #:lower16:.LC4	@,
	movt	r0, #:upper16:.LC3	@,
	movt	r1, #:upper16:.LC4	@,
	bl	printk	@
	mov	r0, r4	@ D.32241, ret.521
	ldmfd	sp!, {r4, pc}	@
	.fnend
	.size	VFMW_DRV_ModInit, .-VFMW_DRV_ModInit
	.global	init_module
init_module = VFMW_DRV_ModInit
	.global	cleanup_module
cleanup_module = VFMW_DRV_ModExit
	.section	.rodata
	.align	2
.LANCHOR1 = . + 0
	.type	__func__.32226, %object
	.size	__func__.32226, 14
__func__.32226:
	.ascii	"VFMW_DRV_Init\000"
	.section	.modinfo,"a",%progbits
	.type	__UNIQUE_ID_license1, %object
	.size	__UNIQUE_ID_license1, 12
__UNIQUE_ID_license1:
	.ascii	"license=GPL\000"
	.type	__UNIQUE_ID_author0, %object
	.size	__UNIQUE_ID_author0, 17
__UNIQUE_ID_author0:
	.ascii	"author=HISILICON\000"
	.data
	.align	2
.LANCHOR0 = . + 0
	.type	s_VfmwExportFuncs, %object
	.size	s_VfmwExportFuncs, 40
s_VfmwExportFuncs:
@ pfnVfmwOpenModule:
	.word	VDEC_OpenModule
@ pfnVfmwExitModule:
	.word	VDEC_ExitModule
@ pfnVfmwInit:
	.word	VDEC_Init
@ pfnVfmwInitWithOperation:
	.word	VDEC_InitWithOperation
@ pfnVfmwControl:
	.word	VDEC_Control
@ pfnVfmwExit:
	.word	VDEC_Exit
@ pfnVfmwSuspend:
	.word	VDEC_Suspend
@ pfnVfmwResume:
	.word	VDEC_Resume
@ pfnVfmwSetDbgOption:
	.word	VCTRL_SetDbgOption
@ pfnVfmwVdmIntServProc:
	.word	VDMDRV_IsrProcess
	.section	.rodata.str1.4,"aMS",%progbits,1
	.align	2
.LC0:
	.ascii	"HI_VFMW\000"
.LC1:
	.ascii	"HI_DRV_MODULE_VDEC_Register failed\012\000"
.LC2:
	.ascii	"inner vfmw mod init OK\012\000"
.LC3:
	.ascii	"Load hi_vfmw.ko success.\011(%s)\012\000"
	.space	1
.LC4:
	.ascii	"SDK_VERSION:[HiSTBLinuxV100R006C00SPC052] Build Tim"
	.ascii	"e:[Mar 29 2017, 19:02:23]\000"
	.ident	"GCC: (Hisilicon_v200(gcc4.4-290+glibc-2.11+eabi+nptl)) 4.4.1"
	.section	.note.GNU-stack,"",%progbits
