	.arch armv7-a
	.fpu softvfp
	.eabi_attribute 20, 1	@ Tag_ABI_FP_denormal
	.eabi_attribute 21, 1	@ Tag_ABI_FP_exceptions
	.eabi_attribute 23, 3	@ Tag_ABI_FP_number_model
	.eabi_attribute 24, 1	@ Tag_ABI_align8_needed
	.eabi_attribute 25, 1	@ Tag_ABI_align8_preserved
	.eabi_attribute 26, 2	@ Tag_ABI_enum_size
	.eabi_attribute 30, 2	@ Tag_ABI_optimization_goals
	.eabi_attribute 34, 0	@ Tag_CPU_unaligned_access
	.eabi_attribute 18, 4	@ Tag_ABI_PCS_wchar_t
	.file	"h264.c"
@ GNU C (gcc-linaro-4.9-2014.09 + glibc-2.24 (Build by czyong) Wed Dec 21 10:39:16 CST 2016) version 4.9.2 20140904 (prerelease) (arm-gcc492_glibc224-linux-gnueabi)
@	compiled by GNU C version 4.1.2 20080704 (Red Hat 4.1.2-44), GMP version 5.0.5, MPFR version 3.1.2, MPC version 1.0.1
@ GGC heuristics: --param ggc-min-expand=100 --param ggc-min-heapsize=131072
@ options passed:  -nostdinc
@ -I /usr1/code/v1r4_v1r6_sourceCode/code/current/v1r6_hi3716mv330_pack/work/source/kernel/linux-3.10.y/arch/arm/include
@ -I arch/arm/include/generated -I include
@ -I /usr1/code/v1r4_v1r6_sourceCode/code/current/v1r6_hi3716mv330_pack/work/source/kernel/linux-3.10.y/arch/arm/include/uapi
@ -I arch/arm/include/generated/uapi
@ -I /usr1/code/v1r4_v1r6_sourceCode/code/current/v1r6_hi3716mv330_pack/work/source/kernel/linux-3.10.y/include/uapi
@ -I include/generated/uapi -I arch/arm/mach-hi3716mv310/include
@ -I /usr1/code/v1r4_v1r6_sourceCode/code/current/v1r6_hi3716mv330_pack/work/source/kernel/linux-3.10.y/../../../source/common/include
@ -I /usr1/code/v1r4_v1r6_sourceCode/code/current/v1r6_hi3716mv330_pack/work/source/kernel/linux-3.10.y/../../../source/common/drv/include
@ -I /usr1/code/v1r4_v1r6_sourceCode/code/current/v1r6_hi3716mv330_pack/work/source/kernel/linux-3.10.y/../../../source/msp/drv/vfmw/vfmw_v4.0/drv/memmap
@ -I /usr1/code/v1r4_v1r6_sourceCode/code/current/v1r6_hi3716mv330_pack/work/source/kernel/linux-3.10.y/../../../source/msp/drv/vfmw/vfmw_v4.0/model/scd
@ -I /usr1/code/v1r4_v1r6_sourceCode/code/current/v1r6_hi3716mv330_pack/work/source/kernel/linux-3.10.y/../../../source/msp/drv/vfmw/vfmw_v4.0/firmware/common/softlib
@ -I /usr1/code/v1r4_v1r6_sourceCode/code/current/v1r6_hi3716mv330_pack/work/source/kernel/linux-3.10.y/../../../source/msp/drv/vfmw/vfmw_v4.0/firmware/common
@ -I /usr1/code/v1r4_v1r6_sourceCode/code/current/v1r6_hi3716mv330_pack/work/source/kernel/linux-3.10.y/../../../source/msp/drv/vfmw/vfmw_v4.0/firmware/common/syntax
@ -I /usr1/code/v1r4_v1r6_sourceCode/code/current/v1r6_hi3716mv330_pack/work/source/kernel/linux-3.10.y/../../../source/msp/drv/vfmw/vfmw_v4.0/firmware/driver/HiSCDV200
@ -I /usr1/code/v1r4_v1r6_sourceCode/code/current/v1r6_hi3716mv330_pack/work/source/kernel/linux-3.10.y/../../../source/msp/drv/vfmw/vfmw_v4.0/firmware/driver/HiVDHV100
@ -I /usr1/code/v1r4_v1r6_sourceCode/code/current/v1r6_hi3716mv330_pack/work/source/kernel/linux-3.10.y/../../../source/msp/drv/vfmw/vfmw_v4.0/firmware/driver/HiVDHV200R001
@ -I /usr1/code/v1r4_v1r6_sourceCode/code/current/v1r6_hi3716mv330_pack/work/source/kernel/linux-3.10.y/../../../source/msp/drv/vfmw/vfmw_v4.0/firmware/driver/HiVDHV200R002
@ -I /usr1/code/v1r4_v1r6_sourceCode/code/current/v1r6_hi3716mv330_pack/work/source/kernel/linux-3.10.y/../../../source/msp/drv/vfmw/vfmw_v4.0/firmware/driver/HiVDHV200R003
@ -I /usr1/code/v1r4_v1r6_sourceCode/code/current/v1r6_hi3716mv330_pack/work/source/kernel/linux-3.10.y/../../../source/msp/drv/vfmw/vfmw_v4.0/firmware/driver/HiVDHV200R004
@ -I /usr1/code/v1r4_v1r6_sourceCode/code/current/v1r6_hi3716mv330_pack/work/source/kernel/linux-3.10.y/../../../source/msp/drv/vfmw/vfmw_v4.0/model/rawpacket
@ -I /usr1/code/v1r4_v1r6_sourceCode/code/current/v1r6_hi3716mv330_pack/work/source/kernel/linux-3.10.y/../../../source/msp/drv/vfmw/vfmw_v4.0/firmware/product/Hi3716MV310_hisiv310/osal/linux_kernel
@ -I /usr1/code/v1r4_v1r6_sourceCode/code/current/v1r6_hi3716mv330_pack/work/source/kernel/linux-3.10.y/../../../source/msp/drv/vfmw/vfmw_v4.0/firmware/product/Hi3716MV310_hisiv310
@ -I /usr1/code/v1r4_v1r6_sourceCode/code/current/v1r6_hi3716mv330_pack/work/source/kernel/linux-3.10.y/../../../source/msp/drv/vfmw/vfmw_v4.0/firmware/driver/HiDNR
@ -I /usr1/code/v1r4_v1r6_sourceCode/code/current/v1r6_hi3716mv330_pack/work/source/kernel/linux-3.10.y/../../../source/msp/drv/vfmw/vfmw_v4.0/firmware/driver/HiBTLV100
@ -I /usr1/code/v1r4_v1r6_sourceCode/code/current/v1r6_hi3716mv330_pack/work/source/kernel/linux-3.10.y/../../../source/msp/drv/vfmw/vfmw_v4.0/firmware/common_test/vdecko
@ -imultilib a9_soft
@ -iprefix /opt/hisi-linux/x86-arm/arm-histbv310-linux/bin/../lib/gcc/arm-gcc492_glibc224-linux-gnueabi/4.9.2/
@ -isysroot /opt/hisi-linux/x86-arm/arm-histbv310-linux/bin/../target
@ -D __KERNEL__ -D __LINUX_ARM_ARCH__=7 -U arm -D CC_HAVE_ASM_GOTO
@ -D Hi3716MV310 -D ENV_ARMLINUX_KERNEL -D OFF_LINE_DNR_ENABLE
@ -D SCD_MP4_SLICE_ENABLE -D SUPPORT_JPEG_444 -D VFMW_EXTRA_TYPE_DEFINE
@ -D PRODUCT_STB -D __VFMW_REGISTER_ISR__ -D VFMW_VDH_V200R004_SUPPORT
@ -D VFMW_H264_SUPPORT -D VFMW_MPEG2_SUPPORT -D VFMW_MPEG4_SUPPORT
@ -D VFMW_BPD_H_SUPPORT -D VFMW_DNR_SUPPORT -D VFMW_RAW_SUPPORT
@ -D VFMW_USER_SUPPORT -D CFG_MAX_CHAN_NUM=1 -D CFG_MAX_CHAN_NUM=1
@ -D VFMW_DPRINT_SUPPORT -D VFMW_AVSPLUS_SUPPORT -D VFMW_SYSTEM_REG_DISABLE
@ -D REPAIR_ENABLE -D _FORTIFY_SOURCE=2 -D CHIP_TYPE_hi3716mv310
@ -D SDK_VERSION=HiSTBLinuxV100R006C00SPC052 -D HI_LOG_SUPPORT=1
@ -D HI_LOG_LEVEL=4 -D HI_PROC_SUPPORT=1 -D HI_PNG_DECODER_SUPPORT
@ -D HI_KEYLED_SUPPORT -D HI_HDCP_SUPPORT -D HI_SCI_SUPPORT
@ -D HI_GPIOI2C_SUPPORT -D HI_IR_S2_SUPPORT -D HI_DSC_SUPPORT -D MODULE
@ -D KBUILD_STR(s)=#s -D KBUILD_BASENAME=KBUILD_STR(h264)
@ -D KBUILD_MODNAME=KBUILD_STR(hi_vfmw)
@ -isystem /opt/hisi-linux/x86-arm/arm-histbv310-linux/bin/../lib/gcc/arm-gcc492_glibc224-linux-gnueabi/4.9.2/include
@ -include /usr1/code/v1r4_v1r6_sourceCode/code/current/v1r6_hi3716mv330_pack/work/source/kernel/linux-3.10.y/include/linux/kconfig.h
@ -MD /usr1/code/v1r4_v1r6_sourceCode/code/current/v1r6_hi3716mv330_pack/work/source/msp/drv/vfmw/vfmw_v4.0/firmware/common/syntax/.h264.o.d
@ /usr1/code/v1r4_v1r6_sourceCode/code/current/v1r6_hi3716mv330_pack/work/source/msp/drv/vfmw/vfmw_v4.0/firmware/common/syntax/h264.c
@ -mlittle-endian -mabi=aapcs-linux -mno-thumb-interwork -marm
@ -march=armv7-a -mfloat-abi=soft -mtls-dialect=gnu -mno-unaligned-access
@ -mword-relocations
@ -auxbase-strip /usr1/code/v1r4_v1r6_sourceCode/code/current/v1r6_hi3716mv330_pack/work/source/msp/drv/vfmw/vfmw_v4.0/firmware/common/syntax/h264.o
@ -O2 -Wall -Wundef -Wstrict-prototypes -Wno-trigraphs
@ -Werror=implicit-function-declaration -Wno-format-security
@ -Wframe-larger-than=1024 -Wno-unused-but-set-variable
@ -Wdeclaration-after-statement -Wno-pointer-sign -fno-strict-aliasing
@ -fno-common -fno-dwarf2-cfi-asm -funwind-tables -fno-stack-protector
@ -fomit-frame-pointer -fno-strict-overflow -fconserve-stack -fno-pic
@ -fverbose-asm -fno-delete-null-pointer-checks -fdiagnostics-color=auto
@ -fno-aggressive-loop-optimizations -fno-tree-vrp
@ options enabled:  -fauto-inc-dec -fbranch-count-reg -fcaller-saves
@ -fcombine-stack-adjustments -fcompare-elim -fcprop-registers
@ -fcrossjumping -fcse-follow-jumps -fdefer-pop -fdevirtualize
@ -fdevirtualize-speculatively -fearly-inlining
@ -feliminate-unused-debug-types -fexpensive-optimizations
@ -fforward-propagate -ffunction-cse -fgcse -fgcse-lm -fgnu-runtime
@ -fgnu-unique -fguess-branch-probability -fhoist-adjacent-loads -fident
@ -fif-conversion -fif-conversion2 -findirect-inlining -finline
@ -finline-atomics -finline-functions-called-once -finline-small-functions
@ -fipa-cp -fipa-profile -fipa-pure-const -fipa-reference -fipa-sra
@ -fira-hoist-pressure -fira-share-save-slots -fira-share-spill-slots
@ -fisolate-erroneous-paths-dereference -fivopts -fkeep-static-consts
@ -fleading-underscore -fmath-errno -fmerge-constants -fmerge-debug-strings
@ -fmove-loop-invariants -fomit-frame-pointer -foptimize-sibling-calls
@ -foptimize-strlen -fpartial-inlining -fpeephole -fpeephole2
@ -fprefetch-loop-arrays -freg-struct-return -freorder-blocks
@ -freorder-functions -frerun-cse-after-loop
@ -fsched-critical-path-heuristic -fsched-dep-count-heuristic
@ -fsched-group-heuristic -fsched-interblock -fsched-last-insn-heuristic
@ -fsched-pressure -fsched-rank-heuristic -fsched-spec
@ -fsched-spec-insn-heuristic -fsched-stalled-insns-dep -fschedule-insns
@ -fschedule-insns2 -fsection-anchors -fshow-column -fshrink-wrap
@ -fsigned-zeros -fsplit-ivs-in-unroller -fsplit-wide-types
@ -fstrict-volatile-bitfields -fsync-libcalls -fthread-jumps
@ -ftoplevel-reorder -ftrapping-math -ftree-bit-ccp -ftree-builtin-call-dce
@ -ftree-ccp -ftree-ch -ftree-coalesce-vars -ftree-copy-prop
@ -ftree-copyrename -ftree-cselim -ftree-dce -ftree-dominator-opts
@ -ftree-dse -ftree-forwprop -ftree-fre -ftree-loop-if-convert
@ -ftree-loop-im -ftree-loop-ivcanon -ftree-loop-optimize
@ -ftree-parallelize-loops= -ftree-phiprop -ftree-pre -ftree-pta
@ -ftree-reassoc -ftree-scev-cprop -ftree-sink -ftree-slsr -ftree-sra
@ -ftree-switch-conversion -ftree-tail-merge -ftree-ter -funit-at-a-time
@ -funwind-tables -fverbose-asm -fzero-initialized-in-bss -marm -mglibc
@ -mlittle-endian -mlra -mpic-data-is-text-relative -msched-prolog
@ -mvectorize-with-neon-quad -mword-relocations

	.text
	.align	2
	.global	IsSTRefFlg
	.type	IsSTRefFlg, %function
IsSTRefFlg:
	.fnstart
	@ args = 0, pretend = 0, frame = 0
	@ frame_needed = 0, uses_anonymous_args = 0
	@ link register save eliminated.
	ldr	r0, [r0]	@ *s_2(D), *s_2(D)
	bic	r0, r0, #-16777216	@ D.38765, *s_2(D),
	bic	r0, r0, #255	@ D.38765, D.38765,
	sub	r0, r0, #65536	@, D.38765,
	clz	r0, r0	@,
	mov	r0, r0, lsr #5	@,,
	bx	lr	@
	.fnend
	.size	IsSTRefFlg, .-IsSTRefFlg
	.align	2
	.global	IsLTRefFlg
	.type	IsLTRefFlg, %function
IsLTRefFlg:
	.fnstart
	@ args = 0, pretend = 0, frame = 0
	@ frame_needed = 0, uses_anonymous_args = 0
	@ link register save eliminated.
	ldr	r0, [r0]	@ *s_2(D), *s_2(D)
	bic	r0, r0, #-16777216	@ D.38770, *s_2(D),
	bic	r0, r0, #255	@ D.38770, D.38770,
	sub	r0, r0, #256	@, D.38770,
	clz	r0, r0	@,
	mov	r0, r0, lsr #5	@,,
	bx	lr	@
	.fnend
	.size	IsLTRefFlg, .-IsLTRefFlg
	.align	2
	.global	compare_pic_by_pic_num_desc
	.type	compare_pic_by_pic_num_desc, %function
compare_pic_by_pic_num_desc:
	.fnstart
	@ args = 0, pretend = 0, frame = 0
	@ frame_needed = 0, uses_anonymous_args = 0
	@ link register save eliminated.
	ldr	r2, [r0]	@ MEM[(struct H264_STORABLEPIC_S * *)arg1_3(D)], MEM[(struct H264_STORABLEPIC_S * *)arg1_3(D)]
	ldr	r3, [r1]	@ MEM[(struct H264_STORABLEPIC_S * *)arg2_6(D)], MEM[(struct H264_STORABLEPIC_S * *)arg2_6(D)]
	ldr	r2, [r2, #12]	@ D.38777, _4->pic_num
	ldr	r3, [r3, #12]	@ D.38777, _7->pic_num
	cmp	r2, r3	@ D.38777, D.38777
	blt	.L5	@,
	mvngt	r0, #0	@ D.38775,
	movle	r0, #0	@ D.38775,
	bx	lr	@
.L5:
	mov	r0, #1	@ D.38775,
	bx	lr	@
	.fnend
	.size	compare_pic_by_pic_num_desc, .-compare_pic_by_pic_num_desc
	.align	2
	.global	compare_pic_by_lt_pic_num_asc
	.type	compare_pic_by_lt_pic_num_asc, %function
compare_pic_by_lt_pic_num_asc:
	.fnstart
	@ args = 0, pretend = 0, frame = 0
	@ frame_needed = 0, uses_anonymous_args = 0
	@ link register save eliminated.
	ldr	r2, [r0]	@ MEM[(struct H264_STORABLEPIC_S * *)arg1_3(D)], MEM[(struct H264_STORABLEPIC_S * *)arg1_3(D)]
	ldr	r3, [r1]	@ MEM[(struct H264_STORABLEPIC_S * *)arg2_6(D)], MEM[(struct H264_STORABLEPIC_S * *)arg2_6(D)]
	ldr	r2, [r2, #8]	@ D.38783, _4->long_term_pic_num
	ldr	r3, [r3, #8]	@ D.38783, _7->long_term_pic_num
	cmp	r2, r3	@ D.38783, D.38783
	blt	.L9	@,
	movgt	r0, #1	@ D.38781,
	movle	r0, #0	@ D.38781,
	bx	lr	@
.L9:
	mvn	r0, #0	@ D.38781,
	bx	lr	@
	.fnend
	.size	compare_pic_by_lt_pic_num_asc, .-compare_pic_by_lt_pic_num_asc
	.align	2
	.global	compare_fs_by_frame_num_desc
	.type	compare_fs_by_frame_num_desc, %function
compare_fs_by_frame_num_desc:
	.fnstart
	@ args = 0, pretend = 0, frame = 0
	@ frame_needed = 0, uses_anonymous_args = 0
	@ link register save eliminated.
	ldr	r2, [r0]	@ MEM[(struct H264_FRAMESTORE_S * *)arg1_3(D)], MEM[(struct H264_FRAMESTORE_S * *)arg1_3(D)]
	ldr	r3, [r1]	@ MEM[(struct H264_FRAMESTORE_S * *)arg2_6(D)], MEM[(struct H264_FRAMESTORE_S * *)arg2_6(D)]
	ldr	r2, [r2, #516]	@ D.38789, _4->frame_num_wrap
	ldr	r3, [r3, #516]	@ D.38789, _7->frame_num_wrap
	cmp	r2, r3	@ D.38789, D.38789
	blt	.L12	@,
	mvngt	r0, #0	@ D.38787,
	movle	r0, #0	@ D.38787,
	bx	lr	@
.L12:
	mov	r0, #1	@ D.38787,
	bx	lr	@
	.fnend
	.size	compare_fs_by_frame_num_desc, .-compare_fs_by_frame_num_desc
	.align	2
	.global	compare_fs_by_lt_pic_idx_asc
	.type	compare_fs_by_lt_pic_idx_asc, %function
compare_fs_by_lt_pic_idx_asc:
	.fnstart
	@ args = 0, pretend = 0, frame = 0
	@ frame_needed = 0, uses_anonymous_args = 0
	@ link register save eliminated.
	ldr	r2, [r0]	@ MEM[(struct H264_FRAMESTORE_S * *)arg1_3(D)], MEM[(struct H264_FRAMESTORE_S * *)arg1_3(D)]
	ldr	r3, [r1]	@ MEM[(struct H264_FRAMESTORE_S * *)arg2_6(D)], MEM[(struct H264_FRAMESTORE_S * *)arg2_6(D)]
	ldr	r2, [r2, #520]	@ D.38795, _4->long_term_frame_idx
	ldr	r3, [r3, #520]	@ D.38795, _7->long_term_frame_idx
	cmp	r2, r3	@ D.38795, D.38795
	bcc	.L15	@,
	movhi	r0, #1	@ D.38793,
	movls	r0, #0	@ D.38793,
	bx	lr	@
.L15:
	mvn	r0, #0	@ D.38793,
	bx	lr	@
	.fnend
	.size	compare_fs_by_lt_pic_idx_asc, .-compare_fs_by_lt_pic_idx_asc
	.align	2
	.global	compare_pic_by_poc_asc
	.type	compare_pic_by_poc_asc, %function
compare_pic_by_poc_asc:
	.fnstart
	@ args = 0, pretend = 0, frame = 0
	@ frame_needed = 0, uses_anonymous_args = 0
	@ link register save eliminated.
	ldr	r2, [r0]	@ MEM[(struct H264_STORABLEPIC_S * *)arg1_3(D)], MEM[(struct H264_STORABLEPIC_S * *)arg1_3(D)]
	ldr	r3, [r1]	@ MEM[(struct H264_STORABLEPIC_S * *)arg2_6(D)], MEM[(struct H264_STORABLEPIC_S * *)arg2_6(D)]
	ldr	r2, [r2, #16]	@ D.38801, _4->poc
	ldr	r3, [r3, #16]	@ D.38801, _7->poc
	cmp	r2, r3	@ D.38801, D.38801
	blt	.L18	@,
	movgt	r0, #1	@ D.38799,
	movle	r0, #0	@ D.38799,
	bx	lr	@
.L18:
	mvn	r0, #0	@ D.38799,
	bx	lr	@
	.fnend
	.size	compare_pic_by_poc_asc, .-compare_pic_by_poc_asc
	.align	2
	.global	compare_pic_by_poc_desc
	.type	compare_pic_by_poc_desc, %function
compare_pic_by_poc_desc:
	.fnstart
	@ args = 0, pretend = 0, frame = 0
	@ frame_needed = 0, uses_anonymous_args = 0
	@ link register save eliminated.
	ldr	r2, [r0]	@ MEM[(struct H264_STORABLEPIC_S * *)arg1_3(D)], MEM[(struct H264_STORABLEPIC_S * *)arg1_3(D)]
	ldr	r3, [r1]	@ MEM[(struct H264_STORABLEPIC_S * *)arg2_6(D)], MEM[(struct H264_STORABLEPIC_S * *)arg2_6(D)]
	ldr	r2, [r2, #16]	@ D.38807, _4->poc
	ldr	r3, [r3, #16]	@ D.38807, _7->poc
	cmp	r2, r3	@ D.38807, D.38807
	blt	.L21	@,
	mvngt	r0, #0	@ D.38805,
	movle	r0, #0	@ D.38805,
	bx	lr	@
.L21:
	mov	r0, #1	@ D.38805,
	bx	lr	@
	.fnend
	.size	compare_pic_by_poc_desc, .-compare_pic_by_poc_desc
	.align	2
	.global	compare_fs_by_poc_asc
	.type	compare_fs_by_poc_asc, %function
compare_fs_by_poc_asc:
	.fnstart
	@ args = 0, pretend = 0, frame = 0
	@ frame_needed = 0, uses_anonymous_args = 0
	@ link register save eliminated.
	ldr	r2, [r0]	@ MEM[(struct H264_FRAMESTORE_S * *)arg1_3(D)], MEM[(struct H264_FRAMESTORE_S * *)arg1_3(D)]
	ldr	r3, [r1]	@ MEM[(struct H264_FRAMESTORE_S * *)arg2_6(D)], MEM[(struct H264_FRAMESTORE_S * *)arg2_6(D)]
	ldr	r2, [r2, #524]	@ D.38813, _4->poc
	ldr	r3, [r3, #524]	@ D.38813, _7->poc
	cmp	r2, r3	@ D.38813, D.38813
	blt	.L24	@,
	movgt	r0, #1	@ D.38811,
	movle	r0, #0	@ D.38811,
	bx	lr	@
.L24:
	mvn	r0, #0	@ D.38811,
	bx	lr	@
	.fnend
	.size	compare_fs_by_poc_asc, .-compare_fs_by_poc_asc
	.align	2
	.global	compare_fs_by_poc_desc
	.type	compare_fs_by_poc_desc, %function
compare_fs_by_poc_desc:
	.fnstart
	@ args = 0, pretend = 0, frame = 0
	@ frame_needed = 0, uses_anonymous_args = 0
	@ link register save eliminated.
	ldr	r2, [r0]	@ MEM[(struct H264_FRAMESTORE_S * *)arg1_3(D)], MEM[(struct H264_FRAMESTORE_S * *)arg1_3(D)]
	ldr	r3, [r1]	@ MEM[(struct H264_FRAMESTORE_S * *)arg2_6(D)], MEM[(struct H264_FRAMESTORE_S * *)arg2_6(D)]
	ldr	r2, [r2, #524]	@ D.38819, _4->poc
	ldr	r3, [r3, #524]	@ D.38819, _7->poc
	cmp	r2, r3	@ D.38819, D.38819
	blt	.L27	@,
	mvngt	r0, #0	@ D.38817,
	movle	r0, #0	@ D.38817,
	bx	lr	@
.L27:
	mov	r0, #1	@ D.38817,
	bx	lr	@
	.fnend
	.size	compare_fs_by_poc_desc, .-compare_fs_by_poc_desc
	.align	2
	.type	SetFrmRepeatCount.part.1, %function
SetFrmRepeatCount.part.1:
	.fnstart
	@ args = 0, pretend = 0, frame = 0
	@ frame_needed = 0, uses_anonymous_args = 0
	add	ip, r0, #49152	@ tmp126, pH264Ctx,
	add	r0, r0, #24576	@ tmp133, pH264Ctx,
	str	lr, [sp, #-4]!	@,
	.save {lr}
	ldr	lr, [ip, #3712]	@ pH264Ctx_1(D)->PicOutCounter, pH264Ctx_1(D)->PicOutCounter
	ldr	r2, [r0, #2048]	@ pH264Ctx_1(D)->DPB.size, pH264Ctx_1(D)->DPB.size
	ldr	r3, [ip, #3708]	@ pH264Ctx_1(D)->NewPicCounter, pH264Ctx_1(D)->NewPicCounter
	add	r2, r2, lr, lsr #1	@ D.38823, pH264Ctx_1(D)->DPB.size, pH264Ctx_1(D)->PicOutCounter,
	add	r0, r2, #1	@ D.38823, D.38823,
	mov	r3, r3, lsr #1	@ D.38823, pH264Ctx_1(D)->NewPicCounter,
	cmp	r3, r0	@ D.38823, D.38823
	movcc	r3, #0	@ tmp152,
	strcc	r3, [r1, #84]	@ tmp152, p_image_11(D)->u32RepeatCnt
	ldrcc	pc, [sp], #4	@
	sub	r3, r3, #1	@ D.38823, D.38823,
	rsb	r3, r2, r3	@ D.38823, D.38823, D.38823
	cmp	r3, #1	@ D.38823,
	movhi	r3, #2	@ tmp138,
	movls	r3, #1	@ tmp145,
	strhi	r3, [r1, #84]	@ tmp138, p_image_11(D)->u32RepeatCnt
	strls	r3, [r1, #84]	@ tmp145, p_image_11(D)->u32RepeatCnt
	ldrhi	r3, [ip, #3712]	@ pH264Ctx_1(D)->PicOutCounter, pH264Ctx_1(D)->PicOutCounter
	ldrls	r3, [ip, #3712]	@ pH264Ctx_1(D)->PicOutCounter, pH264Ctx_1(D)->PicOutCounter
	addhi	r3, r3, #4	@ D.38823, pH264Ctx_1(D)->PicOutCounter,
	addls	r3, r3, #2	@ D.38823, pH264Ctx_1(D)->PicOutCounter,
	str	r3, [ip, #3712]	@ D.38823, pH264Ctx_1(D)->PicOutCounter
	ldr	pc, [sp], #4	@
	.fnend
	.size	SetFrmRepeatCount.part.1, .-SetFrmRepeatCount.part.1
	.align	2
	.type	DumpList.part.5, %function
DumpList.part.5:
	.fnstart
	@ args = 0, pretend = 0, frame = 0
	@ frame_needed = 0, uses_anonymous_args = 0
	stmfd	sp!, {r4, r5, r6, r7, r8, r9, r10, lr}	@,
	.save {r4, r5, r6, r7, r8, r9, r10, lr}
	add	r8, r0, #26880	@ ivtmp.359, pH264Ctx,
	add	r8, r8, #152	@ ivtmp.359, ivtmp.359,
	add	r10, r0, #20480	@ ivtmp.384, pH264Ctx,
	.pad #8
	sub	sp, sp, #8	@,,
	add	r10, r10, #240	@ ivtmp.384, ivtmp.384,
	mov	r7, r0	@ pH264Ctx, pH264Ctx
	mov	r6, #0	@ j,
	mov	r9, r8	@ ivtmp.392, ivtmp.359
.L34:
	ldr	r3, [r10, #4]!	@ MEM[base: _88, offset: 0B], MEM[base: _88, offset: 0B]
	cmp	r3, #0	@ MEM[base: _88, offset: 0B],
	movne	r5, r9	@ ivtmp.370, ivtmp.392
	movne	r4, #0	@ i,
	beq	.L37	@,
.L35:
	ldr	ip, [r5, #4]!	@ MEM[base: _79, offset: 0B], MEM[base: _79, offset: 0B]
	mov	r3, r4	@, i
	mov	r2, r6	@, j
	ldr	r1, .L66	@,
	mov	r0, #13	@,
	add	r4, r4, #1	@ i, i,
	ldr	ip, [ip, #4]	@ D.38883, _4->frame_store
	ldr	lr, [ip, #524]	@ _5->poc, _5->poc
	str	lr, [sp, #4]	@ _5->poc,
	ldr	ip, [ip, #512]	@ _5->frame_num, _5->frame_num
	str	ip, [sp]	@ _5->frame_num,
	bl	dprint_vfmw	@
	ldr	r3, [r10]	@ MEM[base: _88, offset: 0B], MEM[base: _88, offset: 0B]
	cmp	r4, r3	@ i, MEM[base: _88, offset: 0B]
	bcc	.L35	@,
.L37:
	add	r6, r6, #1	@ j, j,
	add	r9, r9, #132	@ ivtmp.392, ivtmp.392,
	cmp	r6, #2	@ j,
	bne	.L34	@,
	add	r5, r7, #20480	@ tmp237, pH264Ctx,
	ldr	r3, [r5, #244]	@ pH264Ctx_1(D)->CurrSlice.listXsize, pH264Ctx_1(D)->CurrSlice.listXsize
	cmp	r3, #0	@ pH264Ctx_1(D)->CurrSlice.listXsize,
	bne	.L62	@,
.L38:
	ldr	r3, [r5, #248]	@ pH264Ctx_1(D)->CurrSlice.listXsize, pH264Ctx_1(D)->CurrSlice.listXsize
	cmp	r3, #0	@ pH264Ctx_1(D)->CurrSlice.listXsize,
	bne	.L63	@,
	add	sp, sp, #8	@,,
	@ sp needed	@
	ldmfd	sp!, {r4, r5, r6, r7, r8, r9, r10, pc}	@
.L63:
	ldr	r1, .L66+4	@,
	mov	r0, #13	@,
	bl	dprint_vfmw	@
	ldr	r3, [r5, #248]	@ pH264Ctx_1(D)->CurrSlice.listXsize, pH264Ctx_1(D)->CurrSlice.listXsize
	cmp	r3, #0	@ pH264Ctx_1(D)->CurrSlice.listXsize,
	addne	r7, r7, #27136	@ ivtmp.347, pH264Ctx,
	movne	r4, #0	@ i,
	addne	r7, r7, #28	@ ivtmp.347, ivtmp.347,
	bne	.L51	@,
	b	.L52	@
.L64:
	bcc	.L49	@,
	cmp	r2, #2	@ _25->structure,
	ldr	r1, .L66+8	@,
	mov	r0, #13	@,
	bne	.L47	@,
	ldr	r3, [r3, #4]	@ _25->frame_store, _25->frame_store
	ldr	r2, [r3, #524]	@,
	bl	dprint_vfmw	@
.L47:
	ldr	r3, [r5, #248]	@ pH264Ctx_1(D)->CurrSlice.listXsize, pH264Ctx_1(D)->CurrSlice.listXsize
	add	r4, r4, #1	@ i, i,
	cmp	r4, r3	@ i, pH264Ctx_1(D)->CurrSlice.listXsize
	bcs	.L52	@,
.L51:
	ldr	r3, [r7, #4]!	@ D.38882, MEM[base: _24, offset: 0B]
	ldrb	r2, [r3]	@ zero_extendqisi2	@ _25->structure, _25->structure
	cmp	r2, #1	@ _25->structure,
	bne	.L64	@,
	ldr	r3, [r3, #4]	@ _25->frame_store, _25->frame_store
	mov	r0, #13	@,
	ldr	r1, .L66+12	@,
	add	r4, r4, #1	@ i, i,
	ldr	r2, [r3, #524]	@,
	bl	dprint_vfmw	@
	ldr	r3, [r5, #248]	@ pH264Ctx_1(D)->CurrSlice.listXsize, pH264Ctx_1(D)->CurrSlice.listXsize
	cmp	r4, r3	@ i, pH264Ctx_1(D)->CurrSlice.listXsize
	bcc	.L51	@,
.L52:
	ldr	r1, .L66+16	@,
	mov	r0, #13	@,
	add	sp, sp, #8	@,,
	@ sp needed	@
	ldmfd	sp!, {r4, r5, r6, r7, r8, r9, r10, lr}	@
	b	dprint_vfmw	@
.L49:
	ldr	r3, [r3, #4]	@ _25->frame_store, _25->frame_store
	mov	r0, #13	@,
	ldr	r1, .L66+20	@,
	ldr	r2, [r3, #524]	@,
	bl	dprint_vfmw	@
	b	.L47	@
.L62:
	ldr	r1, .L66+24	@,
	mov	r0, #13	@,
	bl	dprint_vfmw	@
	ldr	r3, [r5, #244]	@ pH264Ctx_1(D)->CurrSlice.listXsize, pH264Ctx_1(D)->CurrSlice.listXsize
	cmp	r3, #0	@ pH264Ctx_1(D)->CurrSlice.listXsize,
	movne	r4, #0	@ i,
	bne	.L39	@,
	b	.L44	@
.L65:
	bcc	.L42	@,
	cmp	r2, #2	@ _13->structure,
	ldr	r1, .L66+8	@,
	mov	r0, #13	@,
	bne	.L40	@,
	ldr	r3, [r3, #4]	@ _13->frame_store, _13->frame_store
	ldr	r2, [r3, #524]	@,
	bl	dprint_vfmw	@
.L40:
	ldr	r3, [r5, #244]	@ pH264Ctx_1(D)->CurrSlice.listXsize, pH264Ctx_1(D)->CurrSlice.listXsize
	add	r4, r4, #1	@ i, i,
	cmp	r4, r3	@ i, pH264Ctx_1(D)->CurrSlice.listXsize
	bcs	.L44	@,
.L39:
	ldr	r3, [r8, #4]!	@ D.38882, MEM[base: _2, offset: 0B]
	ldrb	r2, [r3]	@ zero_extendqisi2	@ _13->structure, _13->structure
	cmp	r2, #1	@ _13->structure,
	bne	.L65	@,
	ldr	r3, [r3, #4]	@ _13->frame_store, _13->frame_store
	mov	r0, #13	@,
	ldr	r1, .L66+12	@,
	add	r4, r4, #1	@ i, i,
	ldr	r2, [r3, #524]	@,
	bl	dprint_vfmw	@
	ldr	r3, [r5, #244]	@ pH264Ctx_1(D)->CurrSlice.listXsize, pH264Ctx_1(D)->CurrSlice.listXsize
	cmp	r4, r3	@ i, pH264Ctx_1(D)->CurrSlice.listXsize
	bcc	.L39	@,
.L44:
	ldr	r1, .L66+16	@,
	mov	r0, #13	@,
	bl	dprint_vfmw	@
	b	.L38	@
.L42:
	ldr	r3, [r3, #4]	@ _13->frame_store, _13->frame_store
	mov	r0, #13	@,
	ldr	r1, .L66+20	@,
	ldr	r2, [r3, #524]	@,
	bl	dprint_vfmw	@
	b	.L40	@
.L67:
	.align	2
.L66:
	.word	.LC0
	.word	.LC6
	.word	.LC5
	.word	.LC4
	.word	.LC2
	.word	.LC3
	.word	.LC1
	.fnend
	.size	DumpList.part.5, .-DumpList.part.5
	.align	2
	.type	CombinePacket.part.10, %function
CombinePacket.part.10:
	.fnstart
	@ args = 0, pretend = 0, frame = 0
	@ frame_needed = 0, uses_anonymous_args = 0
	stmfd	sp!, {r4, r5, r6, lr}	@,
	.save {r4, r5, r6, lr}
	mov	r4, r0	@ pH264Ctx, pH264Ctx
	.pad #8
	sub	sp, sp, #8	@,,
	ldr	r1, .L70	@,
	mov	r0, #7	@,
	mov	r5, #0	@ tmp161,
	bl	dprint_vfmw	@
	ldr	ip, [r4, #368]	@ D.38899, pH264Ctx_1(D)->pCurrNal
	ldr	r1, .L70+4	@,
	mov	r0, #7	@,
	ldr	lr, [ip, #40]	@ _2->stream[1].bitstream_length, _2->stream[1].bitstream_length
	ldr	r3, [ip, #44]	@ _2->stream[1].stream_phy_addr, _2->stream[1].stream_phy_addr
	ldr	r2, [ip, #16]	@ _2->stream[0].stream_phy_addr, _2->stream[0].stream_phy_addr
	str	lr, [sp, #4]	@ _2->stream[1].bitstream_length,
	ldr	ip, [ip, #12]	@ _2->stream[0].bitstream_length, _2->stream[0].bitstream_length
	str	ip, [sp]	@ _2->stream[0].bitstream_length,
	bl	dprint_vfmw	@
	ldr	r3, [r4, #368]	@ D.38899, pH264Ctx_1(D)->pCurrNal
	ldr	r2, [r3, #12]	@ D.38900, _7->stream[0].bitstream_length
	ldr	r0, [r3, #36]	@ _7->stream[1].streamBuffer, _7->stream[1].streamBuffer
	ldr	r1, [r3, #8]	@, _7->stream[0].streamBuffer
	rsb	r0, r2, r0	@,, _7->stream[1].streamBuffer
	bl	memcpy	@
	ldr	r3, [r4, #368]	@ D.38899, pH264Ctx_1(D)->pCurrNal
	mov	ip, #1	@ tmp171,
	ldr	r1, .L70+8	@,
	mov	r0, #7	@,
	ldr	r2, [r3, #60]	@ _13->stream[1].StreamID, _13->stream[1].StreamID
	ldr	r6, [r3, #32]	@ StreamId, _13->stream[0].StreamID
	str	r2, [r3, #32]	@ _13->stream[1].StreamID, _13->stream[0].StreamID
	ldr	r3, [r4, #368]	@ D.38899, pH264Ctx_1(D)->pCurrNal
	str	r5, [r3, #24]	@ tmp161, _16->stream[0].bitsoffset
	ldr	r3, [r4, #368]	@ D.38899, pH264Ctx_1(D)->pCurrNal
	ldr	lr, [r3, #12]	@ _17->stream[0].bitstream_length, _17->stream[0].bitstream_length
	ldr	r2, [r3, #36]	@ _17->stream[1].streamBuffer, _17->stream[1].streamBuffer
	rsb	r2, lr, r2	@ D.38901, _17->stream[0].bitstream_length, _17->stream[1].streamBuffer
	str	r2, [r3, #8]	@ D.38901, _17->stream[0].streamBuffer
	ldr	r3, [r4, #368]	@ D.38899, pH264Ctx_1(D)->pCurrNal
	ldr	lr, [r3, #12]	@ _22->stream[0].bitstream_length, _22->stream[0].bitstream_length
	ldr	r2, [r3, #44]	@ _22->stream[1].stream_phy_addr, _22->stream[1].stream_phy_addr
	rsb	r2, lr, r2	@ D.38900, _22->stream[0].bitstream_length, _22->stream[1].stream_phy_addr
	str	r2, [r3, #16]	@ D.38900, _22->stream[0].stream_phy_addr
	ldr	r3, [r4, #368]	@ D.38899, pH264Ctx_1(D)->pCurrNal
	ldr	lr, [r3, #40]	@ _26->stream[1].bitstream_length, _26->stream[1].bitstream_length
	ldr	r2, [r3, #12]	@ _26->stream[0].bitstream_length, _26->stream[0].bitstream_length
	add	r2, r2, lr	@ D.38900, _26->stream[0].bitstream_length, _26->stream[1].bitstream_length
	str	r2, [r3, #12]	@ D.38900, _26->stream[0].bitstream_length
	ldr	r3, [r4, #368]	@ D.38899, pH264Ctx_1(D)->pCurrNal
	str	ip, [r3, #68]	@ tmp171, _30->nal_segment
	ldr	r2, [r4, #368]	@ D.38899, pH264Ctx_1(D)->pCurrNal
	ldr	r3, [r2, #12]	@, _31->stream[0].bitstream_length
	ldr	r2, [r2, #16]	@, _31->stream[0].stream_phy_addr
	bl	dprint_vfmw	@
	add	r3, r4, #49152	@ tmp176, pH264Ctx,
	mov	r1, r6	@, StreamId
	ldr	r0, [r3, #3688]	@, pH264Ctx_1(D)->ChanID
	bl	SM_ReleaseStreamSeg	@
	ldr	r3, [r4, #368]	@ D.38899, pH264Ctx_1(D)->pCurrNal
	str	r5, [r3, #36]	@ tmp161, _35->stream[1].streamBuffer
	ldr	r3, [r4, #368]	@ D.38899, pH264Ctx_1(D)->pCurrNal
	str	r5, [r3, #52]	@ tmp161, _36->stream[1].bitsoffset
	ldr	r3, [r4, #368]	@ D.38899, pH264Ctx_1(D)->pCurrNal
	str	r5, [r3, #40]	@ tmp161, _37->stream[1].bitstream_length
	add	sp, sp, #8	@,,
	@ sp needed	@
	ldmfd	sp!, {r4, r5, r6, pc}	@
.L71:
	.align	2
.L70:
	.word	.LC7
	.word	.LC8
	.word	.LC9
	.fnend
	.size	CombinePacket.part.10, .-CombinePacket.part.10
	.align	2
	.global	ue_v
	.type	ue_v, %function
ue_v:
	.fnstart
	@ args = 0, pretend = 0, frame = 0
	@ frame_needed = 0, uses_anonymous_args = 0
	stmfd	sp!, {r4, r5, r6, r7, r8, r9, r10, lr}	@,
	.save {r4, r5, r6, r7, r8, r9, r10, lr}
	add	r6, r0, #13504	@ D.38913, pH264Ctx,
	add	r6, r6, #24	@ D.38913, D.38913,
	mov	r7, r0	@ pH264Ctx, pH264Ctx
	mov	r8, r1	@ SE_TRACEstring, SE_TRACEstring
	mov	r1, #32	@,
	mov	r0, r6	@, D.38913
	bl	BsShow	@
	mov	r5, r0	@ D.38914,
	bl	ZerosMS_32	@
	cmp	r0, #15	@ zeros,
	mov	r4, r0	@ zeros,
	bls	.L77	@,
	cmp	r0, #31	@ zeros,
	bls	.L78	@,
	add	r3, r7, #49152	@ tmp138, pH264Ctx,
	mvn	r5, #0	@ INFO,
	mov	r9, #32	@ NumBits,
	mov	r2, #1	@ tmp139,
	str	r2, [r3, #3628]	@ tmp139, pH264Ctx_4(D)->SeErrFlg
.L74:
	ldr	r6, [r7, #368]	@ D.38916, pH264Ctx_4(D)->pCurrNal
	mov	r2, r8	@, SE_TRACEstring
	mov	r3, r5	@, INFO
	ldr	r1, .L79	@,
	mov	r0, #21	@,
	ldr	lr, [r6, #64]	@ _32->nal_bitoffset, _32->nal_bitoffset
	add	r4, lr, r9	@ D.38915, _32->nal_bitoffset, NumBits
	str	r4, [r6, #64]	@ D.38915, _32->nal_bitoffset
	bl	dprint_vfmw	@
	mov	r0, r5	@, INFO
	ldmfd	sp!, {r4, r5, r6, r7, r8, r9, r10, pc}	@
.L77:
	mov	r4, r0, asl #1	@ D.38915, zeros,
	mov	r0, r6	@, D.38913
	add	r9, r4, #1	@ NumBits, D.38915,
	rsb	r4, r4, #31	@ D.38915, D.38915,
	mov	r4, r5, lsr r4	@ D.38915, D.38914,
	mov	r1, r9	@, NumBits
	sub	r5, r4, #1	@ INFO, D.38915,
	bl	BsSkip	@
	b	.L74	@
.L78:
	add	r5, r0, #1	@ D.38914, zeros,
	mov	r1, r0	@, zeros
	mov	r0, r6	@, D.38913
	bl	BsSkip	@
	mov	r1, r5	@, D.38914
	mov	r0, r6	@, D.38913
	bl	BsShow	@
	mov	r1, r5	@, D.38914
	sub	r5, r0, #1	@ INFO,,
	mov	r0, r6	@, D.38913
	bl	BsSkip	@
	mov	ip, r4, asl #1	@ D.38915, zeros,
	add	r9, ip, #1	@ NumBits, D.38915,
	b	.L74	@
.L80:
	.align	2
.L79:
	.word	.LC10
	.fnend
	.size	ue_v, .-ue_v
	.align	2
	.global	se_v
	.type	se_v, %function
se_v:
	.fnstart
	@ args = 0, pretend = 0, frame = 0
	@ frame_needed = 0, uses_anonymous_args = 0
	stmfd	sp!, {r4, r5, r6, r7, r8, r9, r10, lr}	@,
	.save {r4, r5, r6, r7, r8, r9, r10, lr}
	add	r6, r0, #13504	@ D.38920, pH264Ctx,
	add	r6, r6, #24	@ D.38920, D.38920,
	mov	r8, r0	@ pH264Ctx, pH264Ctx
	mov	r7, r1	@ SE_TRACEstring, SE_TRACEstring
	mov	r1, #32	@,
	mov	r0, r6	@, D.38920
	bl	BsShow	@
	mov	r4, r0	@ D.38921,
	bl	ZerosMS_32	@
	cmp	r0, #15	@ zeros,
	mov	r5, r0	@ zeros,
	bhi	.L82	@,
	mov	r5, r0, asl #1	@ D.38922, zeros,
	mov	r0, r6	@, D.38920
	rsb	r3, r5, #31	@ D.38922, D.38922,
	add	r5, r5, #1	@ NumBits, D.38922,
	mov	r3, r4, lsr r3	@ D.38922, D.38921,
	and	r2, r3, #1	@ D.38923, D.38922,
	mov	r1, r5	@, NumBits
	rsb	r4, r2, #0	@ D.38925, D.38923
	eor	r4, r4, r3, lsr #1	@ D.38925, D.38925, D.38922,
	add	r4, r4, r2	@ INFO, D.38925, D.38923
	bl	BsSkip	@
.L83:
	ldr	lr, [r8, #368]	@ D.38924, pH264Ctx_6(D)->pCurrNal
	mov	r2, r7	@, SE_TRACEstring
	mov	r3, r4	@, INFO
	ldr	r1, .L87	@,
	mov	r0, #21	@,
	ldr	ip, [lr, #64]	@ _37->nal_bitoffset, _37->nal_bitoffset
	add	r5, ip, r5	@ D.38922, _37->nal_bitoffset, NumBits
	str	r5, [lr, #64]	@ D.38922, _37->nal_bitoffset
	bl	dprint_vfmw	@
	mov	r0, r4	@, INFO
	ldmfd	sp!, {r4, r5, r6, r7, r8, r9, r10, pc}	@
.L82:
	cmp	r0, #31	@ zeros,
	bls	.L86	@,
	add	r3, r8, #49152	@ tmp153, pH264Ctx,
	mov	r2, #1	@ tmp154,
	mvn	r4, #-2147483648	@ INFO,
	mov	r5, #32	@ NumBits,
	str	r2, [r3, #3628]	@ tmp154, pH264Ctx_6(D)->SeErrFlg
	b	.L83	@
.L86:
	mov	r1, r0	@, zeros
	mov	r0, r6	@, D.38920
	bl	BsSkip	@
	mov	r1, r5	@, zeros
	mov	r0, r6	@, D.38920
	mov	r5, r5, asl #1	@ D.38922, zeros,
	bl	BsGet	@
	mov	r1, #1	@,
	add	r5, r5, #1	@ NumBits, D.38922,
	mov	r9, r0	@ INFO,
	mov	r0, r6	@, D.38920
	bl	BsGet	@
	and	r0, r0, #1	@ D.38923,,
	rsb	r4, r0, #0	@ D.38925, D.38923
	eor	r9, r9, r4	@ D.38925, INFO, D.38925
	add	r4, r9, r0	@ INFO, D.38925, D.38923
	b	.L83	@
.L88:
	.align	2
.L87:
	.word	.LC10
	.fnend
	.size	se_v, .-se_v
	.align	2
	.global	u_v
	.type	u_v, %function
u_v:
	.fnstart
	@ args = 0, pretend = 0, frame = 0
	@ frame_needed = 0, uses_anonymous_args = 0
	stmfd	sp!, {r4, r5, r6, r7, r8, lr}	@,
	.save {r4, r5, r6, r7, r8, lr}
	mov	r5, r0	@ pH264Ctx, pH264Ctx
	add	r0, r0, #13504	@, pH264Ctx,
	mov	r6, r1	@ LenInBits, LenInBits
	add	r0, r0, #24	@,,
	mov	r7, r2	@ SE_TRACEstring, SE_TRACEstring
	bl	BsGet	@
	ldr	lr, [r5, #368]	@ D.38930, pH264Ctx_1(D)->pCurrNal
	mov	r2, r7	@, SE_TRACEstring
	ldr	r1, .L91	@,
	ldr	ip, [lr, #64]	@ _8->nal_bitoffset, _8->nal_bitoffset
	add	ip, ip, r6	@ D.38931, _8->nal_bitoffset, LenInBits
	str	ip, [lr, #64]	@ D.38931, _8->nal_bitoffset
	mov	r4, r0	@ INFO,
	mov	r0, #21	@,
	mov	r3, r4	@, INFO
	bl	dprint_vfmw	@
	mov	r0, r4	@, INFO
	ldmfd	sp!, {r4, r5, r6, r7, r8, pc}	@
.L92:
	.align	2
.L91:
	.word	.LC10
	.fnend
	.size	u_v, .-u_v
	.align	2
	.global	u_1
	.type	u_1, %function
u_1:
	.fnstart
	@ args = 0, pretend = 0, frame = 0
	@ frame_needed = 0, uses_anonymous_args = 0
	stmfd	sp!, {r4, r5, r6, lr}	@,
	.save {r4, r5, r6, lr}
	mov	r5, r0	@ pH264Ctx, pH264Ctx
	add	r0, r0, #13504	@, pH264Ctx,
	mov	r6, r1	@ SE_TRACEstring, SE_TRACEstring
	add	r0, r0, #24	@,,
	mov	r1, #1	@,
	bl	BsGet	@
	ldr	lr, [r5, #368]	@ D.38936, pH264Ctx_1(D)->pCurrNal
	mov	r2, r6	@, SE_TRACEstring
	ldr	r1, .L95	@,
	ldr	ip, [lr, #64]	@ _7->nal_bitoffset, _7->nal_bitoffset
	add	ip, ip, #1	@ D.38937, _7->nal_bitoffset,
	str	ip, [lr, #64]	@ D.38937, _7->nal_bitoffset
	mov	r4, r0	@ D.38935,
	mov	r3, r0	@, D.38935
	mov	r0, #21	@,
	bl	dprint_vfmw	@
	mov	r0, r4	@, D.38935
	ldmfd	sp!, {r4, r5, r6, pc}	@
.L96:
	.align	2
.L95:
	.word	.LC10
	.fnend
	.size	u_1, .-u_1
	.align	2
	.global	GetMinPOC
	.type	GetMinPOC, %function
GetMinPOC:
	.fnstart
	@ args = 0, pretend = 0, frame = 0
	@ frame_needed = 0, uses_anonymous_args = 0
	stmfd	sp!, {r4, r5, lr}	@,
	.save {r4, r5, lr}
	add	r5, r0, #24576	@ tmp138, pH264Ctx,
	mov	ip, #0	@ tmp124,
	mvn	r3, #-2147483648	@ tmp125,
	str	ip, [r2]	@ tmp124, *pos_6(D)
	str	r3, [r1]	@ tmp125, *poc_8(D)
	ldr	r3, [r5, #2052]	@ D.38953, pH264Ctx_10(D)->DPB.used_size
	ldr	ip, [r5, #2048]	@ D.38953, pH264Ctx_10(D)->DPB.size
	cmp	r3, ip	@ D.38953, D.38953
	strhi	ip, [r5, #2052]	@ D.38953, pH264Ctx_10(D)->DPB.used_size
	movhi	r3, ip	@ D.38953, D.38953
	cmp	r3, #0	@ D.38953,
	ldmeqfd	sp!, {r4, r5, pc}	@
	add	r0, r0, #26368	@ ivtmp.410, pH264Ctx,
	mov	r3, #0	@ i,
	add	r0, r0, #60	@ ivtmp.410, ivtmp.410,
.L101:
	ldr	ip, [r0, #4]!	@ D.38955, MEM[base: _1, offset: 0B]
	ldr	r4, [r1]	@ *poc_8(D), *poc_8(D)
	ldr	lr, [ip, #524]	@ D.38954, _16->poc
	cmp	r4, lr	@ *poc_8(D), D.38954
	ble	.L100	@,
	ldrb	ip, [ip, #4]	@ zero_extendqisi2	@ _16->is_in_dpb, _16->is_in_dpb
	cmp	ip, #0	@ _16->is_in_dpb,
	strne	lr, [r1]	@ D.38954, *poc_8(D)
	strne	r3, [r2]	@ i, *pos_6(D)
.L100:
	ldr	ip, [r5, #2052]	@ pH264Ctx_10(D)->DPB.used_size, pH264Ctx_10(D)->DPB.used_size
	add	r3, r3, #1	@ i, i,
	cmp	ip, r3	@ pH264Ctx_10(D)->DPB.used_size, i
	bhi	.L101	@,
	ldmfd	sp!, {r4, r5, pc}	@
	.fnend
	.size	GetMinPOC, .-GetMinPOC
	.align	2
	.global	GetMaxPOC
	.type	GetMaxPOC, %function
GetMaxPOC:
	.fnstart
	@ args = 0, pretend = 0, frame = 0
	@ frame_needed = 0, uses_anonymous_args = 0
	stmfd	sp!, {r4, r5, lr}	@,
	.save {r4, r5, lr}
	add	r5, r0, #24576	@ tmp145, pH264Ctx,
	mov	r3, #0	@ tmp126,
	str	r3, [r2]	@ tmp126, *pos_6(D)
	ldr	r3, [r5, #2048]	@ D.38975, pH264Ctx_8(D)->DPB.size
	ldr	ip, [r5, #2052]	@ pH264Ctx_8(D)->DPB.used_size, pH264Ctx_8(D)->DPB.used_size
	cmp	ip, r3	@ pH264Ctx_8(D)->DPB.used_size, D.38975
	strhi	r3, [r5, #2052]	@ D.38975, pH264Ctx_8(D)->DPB.used_size
	ldr	r3, [r5, #1856]	@ pH264Ctx_8(D)->DPB.fs, pH264Ctx_8(D)->DPB.fs
	ldr	r4, [r3, #524]	@ D.38979, _12->poc
	str	r4, [r1]	@ D.38979, *poc_14(D)
	ldr	r3, [r5, #2052]	@ pH264Ctx_8(D)->DPB.used_size, pH264Ctx_8(D)->DPB.used_size
	cmp	r3, #0	@ pH264Ctx_8(D)->DPB.used_size,
	ldmeqfd	sp!, {r4, r5, pc}	@
	add	r0, r0, #26368	@ ivtmp.426, pH264Ctx,
	mov	r3, #0	@ i,
	add	r0, r0, #60	@ ivtmp.426, ivtmp.426,
.L113:
	ldr	ip, [r0, #4]!	@ D.38976, MEM[base: _31, offset: 0B]
	ldr	lr, [ip, #524]	@ D.38977, _18->poc
	cmp	lr, r4	@ D.38977, D.38979
	ble	.L111	@,
	ldrb	ip, [ip, #4]	@ zero_extendqisi2	@ _18->is_in_dpb, _18->is_in_dpb
	cmp	ip, #0	@ _18->is_in_dpb,
	strne	lr, [r1]	@ D.38977, *poc_14(D)
	strne	r3, [r2]	@ i, *pos_6(D)
.L111:
	ldr	ip, [r5, #2052]	@ pH264Ctx_8(D)->DPB.used_size, pH264Ctx_8(D)->DPB.used_size
	add	r3, r3, #1	@ i, i,
	cmp	ip, r3	@ pH264Ctx_8(D)->DPB.used_size, i
	ldmlsfd	sp!, {r4, r5, pc}	@
	ldr	r4, [r1]	@ D.38979, *poc_14(D)
	b	.L113	@
	.fnend
	.size	GetMaxPOC, .-GetMaxPOC
	.align	2
	.global	FrameStoreRefFlg
	.type	FrameStoreRefFlg, %function
FrameStoreRefFlg:
	.fnstart
	@ args = 0, pretend = 0, frame = 0
	@ frame_needed = 0, uses_anonymous_args = 0
	@ link register save eliminated.
	ldrb	r0, [r0, #2]	@ zero_extendqisi2	@ pFS_2(D)->is_reference, pFS_2(D)->is_reference
	adds	r0, r0, #0	@, pFS_2(D)->is_reference,
	movne	r0, #1	@,
	bx	lr	@
	.fnend
	.size	FrameStoreRefFlg, .-FrameStoreRefFlg
	.align	2
	.global	ShortTermRefFlg
	.type	ShortTermRefFlg, %function
ShortTermRefFlg:
	.fnstart
	@ args = 0, pretend = 0, frame = 0
	@ frame_needed = 0, uses_anonymous_args = 0
	@ link register save eliminated.
	ldrb	r3, [r0, #2]	@ zero_extendqisi2	@ D.38990, pFS_3(D)->is_reference
	cmp	r3, #3	@ D.38990,
	beq	.L134	@,
	tst	r3, #1	@ D.38990,
	bne	.L135	@,
.L123:
	and	r3, r3, #2	@ tmp134, D.38990,
	ands	r3, r3, #255	@ tmp136, tmp134,
	beq	.L127	@,
.L124:
	ldr	r0, [r0, #472]	@ *pFS_3(D), *pFS_3(D)
	bic	r0, r0, #-16777216	@ D.38991, *pFS_3(D),
	bic	r0, r0, #255	@ D.38991, D.38991,
	sub	r0, r0, #65536	@ D.38989, D.38991,
	clz	r0, r0	@ D.38989, D.38989
	mov	r0, r0, lsr #5	@ D.38989, D.38989,
	bx	lr	@
.L127:
	mov	r0, r3	@ D.38989, tmp136
	bx	lr	@
.L135:
	ldr	r2, [r0, #436]	@ *pFS_3(D), *pFS_3(D)
	bic	r2, r2, #-16777216	@ D.38991, *pFS_3(D),
	bic	r2, r2, #255	@ D.38991, D.38991,
	cmp	r2, #65536	@ D.38991,
	bne	.L123	@,
.L128:
	mov	r0, #1	@ D.38989,
	bx	lr	@
.L134:
	ldr	r3, [r0, #400]	@ *pFS_3(D), *pFS_3(D)
	bic	r3, r3, #-16777216	@ D.38991, *pFS_3(D),
	bic	r3, r3, #255	@ D.38991, D.38991,
	cmp	r3, #65536	@ D.38991,
	beq	.L128	@,
	ldr	r3, [r0, #436]	@ *pFS_3(D), *pFS_3(D)
	bic	r3, r3, #-16777216	@ D.38991, *pFS_3(D),
	bic	r3, r3, #255	@ D.38991, D.38991,
	cmp	r3, #65536	@ D.38991,
	bne	.L124	@,
	b	.L128	@
	.fnend
	.size	ShortTermRefFlg, .-ShortTermRefFlg
	.align	2
	.global	LongTermRefFlg
	.type	LongTermRefFlg, %function
LongTermRefFlg:
	.fnstart
	@ args = 0, pretend = 0, frame = 0
	@ frame_needed = 0, uses_anonymous_args = 0
	@ link register save eliminated.
	ldrb	r3, [r0, #2]	@ zero_extendqisi2	@ D.38996, pFS_3(D)->is_reference
	cmp	r3, #3	@ D.38996,
	beq	.L151	@,
	tst	r3, #1	@ D.38996,
	bne	.L152	@,
.L140:
	and	r3, r3, #2	@ tmp134, D.38996,
	ands	r3, r3, #255	@ tmp136, tmp134,
	beq	.L144	@,
.L141:
	ldr	r0, [r0, #472]	@ *pFS_3(D), *pFS_3(D)
	bic	r0, r0, #-16777216	@ D.38997, *pFS_3(D),
	bic	r0, r0, #255	@ D.38997, D.38997,
	sub	r0, r0, #256	@ D.38995, D.38997,
	clz	r0, r0	@ D.38995, D.38995
	mov	r0, r0, lsr #5	@ D.38995, D.38995,
	bx	lr	@
.L144:
	mov	r0, r3	@ D.38995, tmp136
	bx	lr	@
.L152:
	ldr	r2, [r0, #436]	@ *pFS_3(D), *pFS_3(D)
	bic	r2, r2, #-16777216	@ D.38997, *pFS_3(D),
	bic	r2, r2, #255	@ D.38997, D.38997,
	cmp	r2, #256	@ D.38997,
	bne	.L140	@,
.L145:
	mov	r0, #1	@ D.38995,
	bx	lr	@
.L151:
	ldr	r3, [r0, #400]	@ *pFS_3(D), *pFS_3(D)
	bic	r3, r3, #-16777216	@ D.38997, *pFS_3(D),
	bic	r3, r3, #255	@ D.38997, D.38997,
	cmp	r3, #256	@ D.38997,
	beq	.L145	@,
	ldr	r3, [r0, #436]	@ *pFS_3(D), *pFS_3(D)
	bic	r3, r3, #-16777216	@ D.38997, *pFS_3(D),
	bic	r3, r3, #255	@ D.38997, D.38997,
	cmp	r3, #256	@ D.38997,
	bne	.L141	@,
	b	.L145	@
	.fnend
	.size	LongTermRefFlg, .-LongTermRefFlg
	.align	2
	.global	UpdateLTReflist
	.type	UpdateLTReflist, %function
UpdateLTReflist:
	.fnstart
	@ args = 0, pretend = 0, frame = 0
	@ frame_needed = 0, uses_anonymous_args = 0
	stmfd	sp!, {r4, r5, r6, r7, r8, r9, r10, lr}	@,
	.save {r4, r5, r6, r7, r8, r9, r10, lr}
	add	r10, r0, #24576	@ tmp139, pH264Ctx,
	mov	r6, r0	@ pH264Ctx, pH264Ctx
	ldr	r9, [r10, #2052]	@ D.39027, pH264Ctx_9(D)->DPB.used_size
	cmp	r9, #0	@ D.39027,
	beq	.L160	@,
	add	r8, r0, #26368	@ ivtmp.459, pH264Ctx,
	mov	r4, #0	@ j,
	add	r8, r8, #60	@ ivtmp.459, ivtmp.459,
	mov	r5, r4	@ i, j
.L156:
	ldr	r7, [r8, #4]!	@ D.39026, MEM[base: _36, offset: 0B]
	add	r5, r5, #1	@ i, i,
	mov	r0, r7	@, D.39026
	bl	LongTermRefFlg	@
	add	r3, r4, #6592	@ tmp130, j,
	add	r3, r3, #48	@ tmp130, tmp130,
	cmp	r0, #0	@,
	strne	r7, [r6, r3, asl #2]	@ D.39026, pH264Ctx_9(D)->DPB.fs_ltref
	addne	r4, r4, #1	@ j, j,
	cmp	r5, r9	@ i, D.39027
	bne	.L156	@,
.L154:
	ldr	r3, [r10, #2048]	@ D.39027, pH264Ctx_9(D)->DPB.size
	str	r4, [r10, #2060]	@ j, pH264Ctx_9(D)->DPB.ltref_frames_in_buffer
	cmp	r3, r4	@ D.39027, j
	ldmlsfd	sp!, {r4, r5, r6, r7, r8, r9, r10, pc}	@
	add	r0, r4, #6592	@ D.39028, j,
	mov	r2, #0	@ tmp140,
	add	r0, r0, #47	@ D.39028, D.39028,
	add	r0, r6, r0, lsl #2	@ ivtmp.448, pH264Ctx, D.39028,
.L158:
	add	r4, r4, #1	@ j, j,
	str	r2, [r0, #4]!	@ tmp140, MEM[base: _1, offset: 0B]
	cmp	r4, r3	@ j, D.39027
	bne	.L158	@,
	ldmfd	sp!, {r4, r5, r6, r7, r8, r9, r10, pc}	@
.L160:
	mov	r4, r9	@ j, D.39027
	b	.L154	@
	.fnend
	.size	UpdateLTReflist, .-UpdateLTReflist
	.align	2
	.global	UpdateReflist
	.type	UpdateReflist, %function
UpdateReflist:
	.fnstart
	@ args = 0, pretend = 0, frame = 0
	@ frame_needed = 0, uses_anonymous_args = 0
	stmfd	sp!, {r4, r5, r6, r7, r8, r9, r10, lr}	@,
	.save {r4, r5, r6, r7, r8, r9, r10, lr}
	add	r10, r0, #24576	@ tmp139, pH264Ctx,
	mov	r6, r0	@ pH264Ctx, pH264Ctx
	ldr	r9, [r10, #2052]	@ D.39058, pH264Ctx_9(D)->DPB.used_size
	cmp	r9, #0	@ D.39058,
	beq	.L174	@,
	add	r8, r0, #26368	@ ivtmp.484, pH264Ctx,
	mov	r4, #0	@ j,
	add	r8, r8, #60	@ ivtmp.484, ivtmp.484,
	mov	r5, r4	@ i, j
.L170:
	ldr	r7, [r8, #4]!	@ D.39057, MEM[base: _36, offset: 0B]
	add	r5, r5, #1	@ i, i,
	mov	r0, r7	@, D.39057
	bl	ShortTermRefFlg	@
	add	r3, r4, #6592	@ tmp130, j,
	add	r3, r3, #32	@ tmp130, tmp130,
	cmp	r0, #0	@,
	strne	r7, [r6, r3, asl #2]	@ D.39057, pH264Ctx_9(D)->DPB.fs_ref
	addne	r4, r4, #1	@ j, j,
	cmp	r5, r9	@ i, D.39058
	bne	.L170	@,
.L168:
	ldr	r3, [r10, #2048]	@ D.39058, pH264Ctx_9(D)->DPB.size
	str	r4, [r10, #2056]	@ j, pH264Ctx_9(D)->DPB.ref_frames_in_buffer
	cmp	r3, r4	@ D.39058, j
	ldmlsfd	sp!, {r4, r5, r6, r7, r8, r9, r10, pc}	@
	add	r0, r4, #6592	@ D.39059, j,
	mov	r2, #0	@ tmp140,
	add	r0, r0, #31	@ D.39059, D.39059,
	add	r0, r6, r0, lsl #2	@ ivtmp.473, pH264Ctx, D.39059,
.L172:
	add	r4, r4, #1	@ j, j,
	str	r2, [r0, #4]!	@ tmp140, MEM[base: _1, offset: 0B]
	cmp	r4, r3	@ j, D.39058
	bne	.L172	@,
	ldmfd	sp!, {r4, r5, r6, r7, r8, r9, r10, pc}	@
.L174:
	mov	r4, r9	@ j, D.39058
	b	.L168	@
	.fnend
	.size	UpdateReflist, .-UpdateReflist
	.align	2
	.global	GetPicNumX
	.type	GetPicNumX, %function
GetPicNumX:
	.fnstart
	@ args = 0, pretend = 0, frame = 0
	@ frame_needed = 0, uses_anonymous_args = 0
	@ link register save eliminated.
	ldrb	r3, [r0, #3]	@ zero_extendqisi2	@ pCurrPic_3(D)->structure, pCurrPic_3(D)->structure
	cmp	r3, #0	@ pCurrPic_3(D)->structure,
	ldr	r3, [r0, #416]	@ CurrPicNum, pCurrPic_3(D)->frame_num
	mvn	r0, r1	@ D.39064, difference_of_pic_nums_minus1
	movne	r3, r3, asl #1	@ D.39064, pCurrPic_3(D)->frame_num,
	addne	r3, r3, #1	@ CurrPicNum, D.39064,
	add	r0, r0, r3	@, D.39064, CurrPicNum
	bx	lr	@
	.fnend
	.size	GetPicNumX, .-GetPicNumX
	.align	2
	.global	UnMarkFrameStoreRef
	.type	UnMarkFrameStoreRef, %function
UnMarkFrameStoreRef:
	.fnstart
	@ args = 0, pretend = 0, frame = 0
	@ frame_needed = 0, uses_anonymous_args = 0
	@ link register save eliminated.
	ldrb	r3, [r1, #1]	@ zero_extendqisi2	@ D.39067, pFrameStore_5(D)->is_used
	tst	r3, #1	@ D.39067,
	beq	.L185	@,
	ldrb	r2, [r1, #2]	@ zero_extendqisi2	@ pFrameStore_5(D)->is_reference, pFrameStore_5(D)->is_reference
	mov	ip, #0	@ tmp128,
	strb	ip, [r1, #437]	@ tmp128, pFrameStore_5(D)->top_field.is_long_term
	and	r2, r2, #2	@ tmp126, pFrameStore_5(D)->is_reference,
	strb	ip, [r1, #438]	@ tmp128, pFrameStore_5(D)->top_field.is_short_term
	strb	r2, [r1, #2]	@ tmp126, pFrameStore_5(D)->is_reference
.L185:
	tst	r3, #2	@ D.39067,
	beq	.L186	@,
	ldrb	r2, [r1, #2]	@ zero_extendqisi2	@ pFrameStore_5(D)->is_reference, pFrameStore_5(D)->is_reference
	mov	ip, #0	@ tmp139,
	strb	ip, [r1, #473]	@ tmp139, pFrameStore_5(D)->bottom_field.is_long_term
	and	r2, r2, #1	@ tmp137, pFrameStore_5(D)->is_reference,
	strb	ip, [r1, #474]	@ tmp139, pFrameStore_5(D)->bottom_field.is_short_term
	strb	r2, [r1, #2]	@ tmp137, pFrameStore_5(D)->is_reference
.L186:
	cmp	r3, #3	@ D.39067,
	add	r0, r0, #49152	@ tmp151, pH264Ctx,
	moveq	r3, #0	@ tmp143,
	streqb	r3, [r1, #402]	@ tmp143, pFrameStore_5(D)->frame.is_short_term
	streqb	r3, [r1, #401]	@ tmp143, pFrameStore_5(D)->frame.is_long_term
	mov	r3, #0	@ tmp147,
	mov	r2, r3	@, tmp147
	strb	r3, [r1, #2]	@ tmp147, pFrameStore_5(D)->is_reference
	ldr	r1, [r1, #508]	@, pFrameStore_5(D)->logic_fs_id
	ldr	r0, [r0, #3688]	@, pH264Ctx_22(D)->ChanID
	b	FSP_SetRef	@
	.fnend
	.size	UnMarkFrameStoreRef, .-UnMarkFrameStoreRef
	.align	2
	.type	SlidingWinMark.part.2, %function
SlidingWinMark.part.2:
	.fnstart
	@ args = 0, pretend = 0, frame = 0
	@ frame_needed = 0, uses_anonymous_args = 0
	add	r3, r0, #24576	@ tmp120, pH264Ctx,
	stmfd	sp!, {r4, r5, r6, r7, r8, lr}	@,
	.save {r4, r5, r6, r7, r8, lr}
	ldr	r7, [r3, #2052]	@ D.39084, pH264Ctx_1(D)->DPB.used_size
	cmp	r7, #0	@ D.39084,
	ldmeqfd	sp!, {r4, r5, r6, r7, r8, pc}	@
	add	r6, r0, #26368	@ ivtmp.501, pH264Ctx,
	mov	r8, r0	@ pH264Ctx, pH264Ctx
	add	r6, r6, #60	@ ivtmp.501, ivtmp.501,
	mov	r4, #0	@ i,
.L197:
	ldr	r5, [r6, #4]!	@ D.39082, MEM[base: _17, offset: 0B]
	add	r4, r4, #1	@ i, i,
	ldrb	r3, [r5, #2]	@ zero_extendqisi2	@ _3->is_reference, _3->is_reference
	mov	r0, r5	@, D.39082
	cmp	r3, #0	@ _3->is_reference,
	beq	.L196	@,
	bl	ShortTermRefFlg	@
	cmp	r0, #0	@,
	bne	.L209	@,
.L196:
	cmp	r4, r7	@ i, D.39084
	bne	.L197	@,
	ldmfd	sp!, {r4, r5, r6, r7, r8, pc}	@
.L209:
	mov	r0, r8	@, pH264Ctx
	mov	r1, r5	@, D.39082
	bl	UnMarkFrameStoreRef	@
	mov	r0, r8	@, pH264Ctx
	ldmfd	sp!, {r4, r5, r6, r7, r8, lr}	@
	b	UpdateReflist	@
	.fnend
	.size	SlidingWinMark.part.2, .-SlidingWinMark.part.2
	.align	2
	.global	UnMarkLTFrmByFrmIdx
	.type	UnMarkLTFrmByFrmIdx, %function
UnMarkLTFrmByFrmIdx:
	.fnstart
	@ args = 0, pretend = 0, frame = 0
	@ frame_needed = 0, uses_anonymous_args = 0
	add	r3, r0, #24576	@ tmp121, pH264Ctx,
	stmfd	sp!, {r4, lr}	@,
	.save {r4, lr}
	ldr	r4, [r3, #2060]	@ D.39101, pH264Ctx_4(D)->DPB.ltref_frames_in_buffer
	cmp	r4, #0	@ D.39101,
	ldmeqfd	sp!, {r4, pc}	@
	ldr	ip, [r3, #1984]	@ D.39100, pH264Ctx_4(D)->DPB.fs_ltref
	ldr	r3, [ip, #520]	@ _14->long_term_frame_idx, _14->long_term_frame_idx
	cmp	r3, r1	@ _14->long_term_frame_idx, long_term_frame_idx
	addne	r2, r0, #26368	@ ivtmp.514, pH264Ctx,
	movne	r3, #0	@ i,
	addne	r2, r2, #192	@ ivtmp.514, ivtmp.514,
	bne	.L214	@,
	b	.L212	@
.L215:
	ldr	ip, [r2, #4]!	@ D.39100, MEM[base: _19, offset: 0B]
	ldr	lr, [ip, #520]	@ _6->long_term_frame_idx, _6->long_term_frame_idx
	cmp	lr, r1	@ _6->long_term_frame_idx, long_term_frame_idx
	beq	.L212	@,
.L214:
	add	r3, r3, #1	@ i, i,
	cmp	r3, r4	@ i, D.39101
	bne	.L215	@,
	ldmfd	sp!, {r4, pc}	@
.L212:
	mov	r1, ip	@, D.39100
	ldmfd	sp!, {r4, lr}	@
	b	UnMarkFrameStoreRef	@
	.fnend
	.size	UnMarkLTFrmByFrmIdx, .-UnMarkLTFrmByFrmIdx
	.align	2
	.global	UnMarkLTFldByFrmIdx
	.type	UnMarkLTFldByFrmIdx, %function
UnMarkLTFldByFrmIdx:
	.fnstart
	@ args = 0, pretend = 0, frame = 0
	@ frame_needed = 0, uses_anonymous_args = 0
	add	ip, r0, #24576	@ tmp130, pH264Ctx,
	stmfd	sp!, {r4, r5, r6, lr}	@,
	.save {r4, r5, r6, lr}
	ldr	r6, [ip, #2060]	@ D.39118, pH264Ctx_4(D)->DPB.ltref_frames_in_buffer
	cmp	r6, #0	@ D.39118,
	ldmeqfd	sp!, {r4, r5, r6, pc}	@
	add	r4, r0, #26368	@ ivtmp.527, pH264Ctx,
	mov	ip, #0	@ i,
	add	r4, r4, #188	@ ivtmp.527, ivtmp.527,
	b	.L226	@
.L224:
	cmp	ip, r6	@ i, D.39118
	beq	.L241	@,
.L226:
	ldr	lr, [r4, #4]!	@ D.39117, MEM[base: _27, offset: 0B]
	add	ip, ip, #1	@ i, i,
	ldr	r5, [lr, #520]	@ _6->long_term_frame_idx, _6->long_term_frame_idx
	cmp	r5, r3	@ _6->long_term_frame_idx, long_term_frame_idx
	bne	.L224	@,
	cmp	r2, #1	@ structure,
	ldreqb	r5, [lr, #473]	@ zero_extendqisi2	@ _6->bottom_field.is_long_term, _6->bottom_field.is_long_term
	beq	.L240	@,
	cmp	r2, #2	@ structure,
	bne	.L224	@,
	ldrb	r5, [lr, #437]	@ zero_extendqisi2	@ _6->top_field.is_long_term, _6->top_field.is_long_term
.L240:
	clz	r5, r5	@ tmp145, _6->top_field.is_long_term
	mov	r5, r5, lsr #5	@ tmp145, tmp145,
	cmp	lr, r1	@ D.39117, pFS
	orrne	r5, r5, #1	@,, tmp148, tmp145
	cmp	r5, #0	@ tmp148,
	beq	.L224	@,
	mov	r1, lr	@, D.39117
	ldmfd	sp!, {r4, r5, r6, lr}	@
	b	UnMarkFrameStoreRef	@
.L241:
	ldmfd	sp!, {r4, r5, r6, pc}	@
	.fnend
	.size	UnMarkLTFldByFrmIdx, .-UnMarkLTFldByFrmIdx
	.align	2
	.global	UnMarkSTRef
	.type	UnMarkSTRef, %function
UnMarkSTRef:
	.fnstart
	@ args = 0, pretend = 0, frame = 0
	@ frame_needed = 0, uses_anonymous_args = 0
	stmfd	sp!, {r4, r5, r6, lr}	@,
	.save {r4, r5, r6, lr}
	ldrb	r3, [r1, #3]	@ zero_extendqisi2	@ pCurrPic_9(D)->structure, pCurrPic_9(D)->structure
	cmp	r3, #0	@ pCurrPic_9(D)->structure,
	bne	.L243	@,
	add	ip, r0, #24576	@ tmp179, pH264Ctx,
	ldr	r1, [r1, #416]	@ pCurrPic_9(D)->frame_num, pCurrPic_9(D)->frame_num
	ldr	r4, [ip, #2056]	@ D.39149, pH264Ctx_10(D)->DPB.ref_frames_in_buffer
	sub	r1, r1, #1	@ D.39149, pCurrPic_9(D)->frame_num,
	rsb	r2, r2, r1	@ picNumX, difference_of_pic_nums_minus1, D.39149
	cmp	r4, #0	@ D.39149,
	beq	.L272	@,
	add	ip, r0, #26368	@ ivtmp.540, pH264Ctx,
	add	ip, ip, #124	@ ivtmp.540, ivtmp.540,
	b	.L249	@
.L248:
	cmp	r3, r4	@ i, D.39149
	beq	.L273	@,
.L249:
	ldr	r1, [ip, #4]!	@ D.39150, MEM[base: _29, offset: 0B]
	add	r3, r3, #1	@ i, i,
	ldr	lr, [r1, #412]	@ _12->frame.pic_num, _12->frame.pic_num
	cmp	lr, r2	@ _12->frame.pic_num, picNumX
	bne	.L248	@,
	ldrb	lr, [r1, #2]	@ zero_extendqisi2	@ _12->is_reference, _12->is_reference
	cmp	lr, #3	@ _12->is_reference,
	bne	.L248	@,
	ldr	lr, [r1, #400]	@ *_12, *_12
	bic	lr, lr, #-16777216	@ D.39149, *_12,
	bic	lr, lr, #255	@ D.39149, D.39149,
	cmp	lr, #65536	@ D.39149,
	bne	.L248	@,
	ldmfd	sp!, {r4, r5, r6, lr}	@
	b	UnMarkFrameStoreRef	@
.L243:
	add	r3, r0, #24576	@ tmp183, pH264Ctx,
	ldr	r1, [r1, #416]	@ pCurrPic_9(D)->frame_num, pCurrPic_9(D)->frame_num
	ldr	r5, [r3, #2056]	@ D.39149, pH264Ctx_10(D)->DPB.ref_frames_in_buffer
	rsb	r2, r2, r1, lsl #1	@ picNumX, difference_of_pic_nums_minus1, pCurrPic_9(D)->frame_num,
	cmp	r5, #0	@ D.39149,
	beq	.L274	@,
	add	r4, r0, #26368	@ ivtmp.551, pH264Ctx,
	mov	ip, #0	@ i,
	add	r4, r4, #124	@ ivtmp.551, ivtmp.551,
	b	.L254	@
.L250:
	tst	r3, #2	@ D.39152,
	beq	.L252	@,
	ldr	r3, [r1, #472]	@ *_21, *_21
	bic	r3, r3, #-16777216	@ D.39149, *_21,
	bic	r3, r3, #255	@ D.39149, D.39149,
	cmp	r3, #65536	@ D.39149,
	beq	.L275	@,
.L252:
	add	ip, ip, #1	@ i, i,
	cmp	ip, r5	@ i, D.39149
	beq	.L276	@,
.L254:
	ldr	r1, [r4, #4]!	@ D.39150, MEM[base: _1, offset: 0B]
	ldrb	r3, [r1, #2]	@ zero_extendqisi2	@ D.39152, _21->is_reference
	ands	r6, r3, #1	@ D.39152, D.39152,
	beq	.L250	@,
	ldr	lr, [r1, #436]	@ *_21, *_21
	bic	lr, lr, #-16777216	@ D.39149, *_21,
	bic	lr, lr, #255	@ D.39149, D.39149,
	cmp	lr, #65536	@ D.39149,
	bne	.L250	@,
	ldr	lr, [r1, #448]	@ _21->top_field.pic_num, _21->top_field.pic_num
	cmp	lr, r2	@ _21->top_field.pic_num, picNumX
	bne	.L250	@,
	add	r2, r0, ip, lsl #2	@ D.39155, pH264Ctx, i,
	and	r3, r3, #2	@ tmp196, D.39152,
	add	r2, r2, #24576	@ tmp200, D.39155,
	strb	r3, [r1, #2]	@ tmp196, _86->is_reference
	mov	r1, #0	@ tmp201,
	ldr	r3, [r2, #1920]	@ D.39150, MEM[(struct H264_CTX_S *)_107 + 26496B]
	strb	r1, [r3, #438]	@ tmp201, _58->top_field.is_short_term
	ldr	r3, [r2, #1920]	@ D.39150, MEM[(struct H264_CTX_S *)_107 + 26496B]
	ldrb	ip, [r3, #400]	@ zero_extendqisi2	@ D.39152, _60->frame.structure
	cmp	ip, #3	@ D.39152,
	cmpne	ip, r1	@, D.39152,
	streqb	r1, [r3, #402]	@ tmp201, _60->frame.is_short_term
	ldreq	r3, [r2, #1920]	@ D.39150, MEM[(struct H264_CTX_S *)_107 + 26496B]
	streqb	r1, [r3, #401]	@ tmp201, _66->frame.is_long_term
	ldreq	r3, [r2, #1920]	@ D.39150, MEM[(struct H264_CTX_S *)_107 + 26496B]
	ldrb	r1, [r3, #2]	@ zero_extendqisi2	@ _96->is_reference, _96->is_reference
	cmp	r1, #0	@ _96->is_reference,
	ldmnefd	sp!, {r4, r5, r6, pc}	@
	ldr	ip, [r3, #548]	@ D.39149, _96->pmv_address_idc
	add	lr, r0, #49152	@ tmp226, pH264Ctx,
	mov	r2, r1	@, _96->is_reference
	add	ip, ip, #12800	@ tmp222, D.39149,
	add	ip, ip, #12	@ tmp222, tmp222,
	str	r1, [r0, ip, asl #2]	@ _96->is_reference, pH264Ctx_10(D)->PmvStoreUsedFlag
	ldr	r0, [lr, #3688]	@, pH264Ctx_10(D)->ChanID
	ldr	r1, [r3, #508]	@, _96->logic_fs_id
	ldmfd	sp!, {r4, r5, r6, lr}	@
	b	FSP_SetRef	@
.L275:
	ldr	r3, [r1, #484]	@ _21->bottom_field.pic_num, _21->bottom_field.pic_num
	cmp	r3, r2	@ _21->bottom_field.pic_num, picNumX
	bne	.L252	@,
	add	r3, r0, ip, lsl #2	@ D.39155, pH264Ctx, i,
	strb	r6, [r1, #2]	@ D.39152, _84->is_reference
	add	r3, r3, #24576	@ tmp238, D.39155,
	mov	r2, #0	@ tmp239,
	ldr	r1, [r3, #1920]	@ D.39150, MEM[(struct H264_CTX_S *)_99 + 26496B]
	strb	r2, [r1, #474]	@ tmp239, _31->bottom_field.is_short_term
	ldr	r1, [r3, #1920]	@ D.39150, MEM[(struct H264_CTX_S *)_99 + 26496B]
	ldrb	ip, [r1, #400]	@ zero_extendqisi2	@ D.39152, _33->frame.structure
	cmp	ip, #3	@ D.39152,
	cmpne	ip, r2	@, D.39152,
	streqb	r2, [r1, #402]	@ tmp239, _33->frame.is_short_term
	ldreq	r1, [r3, #1920]	@ D.39150, MEM[(struct H264_CTX_S *)_99 + 26496B]
	streqb	r2, [r1, #401]	@ tmp239, _39->frame.is_long_term
	ldreq	r1, [r3, #1920]	@ D.39150, MEM[(struct H264_CTX_S *)_99 + 26496B]
	ldrb	r3, [r1, #2]	@ zero_extendqisi2	@ _43->is_reference, _43->is_reference
	cmp	r3, #0	@ _43->is_reference,
	ldmnefd	sp!, {r4, r5, r6, pc}	@
	ldr	ip, [r1, #548]	@ D.39149, _43->pmv_address_idc
	add	lr, r0, #49152	@ tmp264, pH264Ctx,
	mov	r2, r3	@, _43->is_reference
	add	ip, ip, #12800	@ tmp260, D.39149,
	add	ip, ip, #12	@ tmp260, tmp260,
	str	r3, [r0, ip, asl #2]	@ _43->is_reference, pH264Ctx_10(D)->PmvStoreUsedFlag
	ldr	r0, [lr, #3688]	@, pH264Ctx_10(D)->ChanID
	ldr	r1, [r1, #508]	@, _43->logic_fs_id
	ldmfd	sp!, {r4, r5, r6, lr}	@
	b	FSP_SetRef	@
.L276:
	ldmfd	sp!, {r4, r5, r6, pc}	@
.L273:
	ldmfd	sp!, {r4, r5, r6, pc}	@
.L272:
	ldmfd	sp!, {r4, r5, r6, pc}	@
.L274:
	ldmfd	sp!, {r4, r5, r6, pc}	@
	.fnend
	.size	UnMarkSTRef, .-UnMarkSTRef
	.align	2
	.global	UnMarkLTRef
	.type	UnMarkLTRef, %function
UnMarkLTRef:
	.fnstart
	@ args = 0, pretend = 0, frame = 0
	@ frame_needed = 0, uses_anonymous_args = 0
	stmfd	sp!, {r4, r5, r6, lr}	@,
	.save {r4, r5, r6, lr}
	ldrb	r3, [r1, #3]	@ zero_extendqisi2	@ pCurrPic_3(D)->structure, pCurrPic_3(D)->structure
	cmp	r3, #0	@ pCurrPic_3(D)->structure,
	beq	.L278	@,
	add	r3, r0, #24576	@ tmp164, pH264Ctx,
	ldr	r5, [r3, #2060]	@ D.39189, pH264Ctx_5(D)->DPB.ltref_frames_in_buffer
	cmp	r5, #0	@ D.39189,
	beq	.L307	@,
	add	r4, r0, #26368	@ ivtmp.575, pH264Ctx,
	mov	ip, #0	@ i,
	add	r4, r4, #188	@ ivtmp.575, ivtmp.575,
	b	.L287	@
.L283:
	tst	r3, #2	@ D.39185,
	beq	.L285	@,
	ldr	r3, [r1, #472]	@ *_21, *_21
	bic	r3, r3, #-16777216	@ D.39189, *_21,
	bic	r3, r3, #255	@ D.39189, D.39189,
	cmp	r3, #256	@ D.39189,
	beq	.L308	@,
.L285:
	add	ip, ip, #1	@ i, i,
	cmp	ip, r5	@ i, D.39189
	beq	.L309	@,
.L287:
	ldr	r1, [r4, #4]!	@ D.39187, MEM[base: _1, offset: 0B]
	ldrb	r3, [r1, #2]	@ zero_extendqisi2	@ D.39185, _21->is_reference
	ands	r6, r3, #1	@ D.39185, D.39185,
	beq	.L283	@,
	ldr	lr, [r1, #436]	@ *_21, *_21
	bic	lr, lr, #-16777216	@ D.39189, *_21,
	bic	lr, lr, #255	@ D.39189, D.39189,
	cmp	lr, #256	@ D.39189,
	bne	.L283	@,
	ldr	lr, [r1, #444]	@ _21->top_field.long_term_pic_num, _21->top_field.long_term_pic_num
	cmp	r2, lr	@ long_term_pic_num, _21->top_field.long_term_pic_num
	bne	.L283	@,
	add	r2, r0, ip, lsl #2	@ D.39192, pH264Ctx, i,
	and	r3, r3, #2	@ tmp173, D.39185,
	add	r2, r2, #24576	@ tmp177, D.39192,
	strb	r3, [r1, #2]	@ tmp173, _75->is_reference
	mov	r1, #0	@ tmp178,
	ldr	r3, [r2, #1984]	@ D.39187, MEM[(struct H264_CTX_S *)_91 + 26560B]
	strb	r1, [r3, #437]	@ tmp178, _30->top_field.is_long_term
	ldr	r3, [r2, #1984]	@ D.39187, MEM[(struct H264_CTX_S *)_91 + 26560B]
	ldrb	ip, [r3, #400]	@ zero_extendqisi2	@ D.39185, _31->frame.structure
	cmp	ip, #3	@ D.39185,
	cmpne	ip, r1	@, D.39185,
	streqb	r1, [r3, #402]	@ tmp178, _31->frame.is_short_term
	ldreq	r3, [r2, #1984]	@ D.39187, MEM[(struct H264_CTX_S *)_91 + 26560B]
	streqb	r1, [r3, #401]	@ tmp178, _36->frame.is_long_term
	ldreq	r3, [r2, #1984]	@ D.39187, MEM[(struct H264_CTX_S *)_91 + 26560B]
	ldrb	r2, [r3, #2]	@ zero_extendqisi2	@ _81->is_reference, _81->is_reference
	cmp	r2, #0	@ _81->is_reference,
	ldreq	r3, [r3, #548]	@ D.39189, _81->pmv_address_idc
	addeq	r3, r3, #12800	@ tmp199, D.39189,
	addeq	r3, r3, #12	@ tmp199, tmp199,
	streq	r2, [r0, r3, asl #2]	@ _81->is_reference, pH264Ctx_5(D)->PmvStoreUsedFlag
	ldmfd	sp!, {r4, r5, r6, pc}	@
.L278:
	add	r1, r0, #24576	@ tmp166, pH264Ctx,
	ldr	r4, [r1, #2060]	@ D.39189, pH264Ctx_5(D)->DPB.ltref_frames_in_buffer
	cmp	r4, #0	@ D.39189,
	beq	.L310	@,
	add	ip, r0, #26368	@ ivtmp.564, pH264Ctx,
	add	ip, ip, #188	@ ivtmp.564, ivtmp.564,
	b	.L289	@
.L288:
	cmp	r3, r4	@ i, D.39189
	beq	.L311	@,
.L289:
	ldr	r1, [ip, #4]!	@ D.39187, MEM[base: _45, offset: 0B]
	add	r3, r3, #1	@ i, i,
	ldr	lr, [r1, #408]	@ _7->frame.long_term_pic_num, _7->frame.long_term_pic_num
	cmp	lr, r2	@ _7->frame.long_term_pic_num, long_term_pic_num
	bne	.L288	@,
	ldrb	lr, [r1, #2]	@ zero_extendqisi2	@ _7->is_reference, _7->is_reference
	cmp	lr, #3	@ _7->is_reference,
	bne	.L288	@,
	ldr	lr, [r1, #400]	@ *_7, *_7
	bic	lr, lr, #-16777216	@ D.39189, *_7,
	bic	lr, lr, #255	@ D.39189, D.39189,
	cmp	lr, #256	@ D.39189,
	bne	.L288	@,
	ldmfd	sp!, {r4, r5, r6, lr}	@
	b	UnMarkFrameStoreRef	@
.L308:
	ldr	r3, [r1, #480]	@ _21->bottom_field.long_term_pic_num, _21->bottom_field.long_term_pic_num
	cmp	r2, r3	@ long_term_pic_num, _21->bottom_field.long_term_pic_num
	bne	.L285	@,
	add	r3, r0, ip, lsl #2	@ D.39192, pH264Ctx, i,
	strb	r6, [r1, #2]	@ D.39185, _71->is_reference
	add	r3, r3, #24576	@ tmp211, D.39192,
	mov	r1, #0	@ tmp212,
	ldr	r2, [r3, #1984]	@ D.39187, MEM[(struct H264_CTX_S *)_83 + 26560B]
	strb	r1, [r2, #473]	@ tmp212, _46->bottom_field.is_long_term
	ldr	r2, [r3, #1984]	@ D.39187, MEM[(struct H264_CTX_S *)_83 + 26560B]
	ldrb	ip, [r2, #400]	@ zero_extendqisi2	@ D.39185, _47->frame.structure
	cmp	ip, #3	@ D.39185,
	cmpne	ip, r1	@, D.39185,
	streqb	r1, [r2, #402]	@ tmp212, _47->frame.is_short_term
	ldreq	r2, [r3, #1984]	@ D.39187, MEM[(struct H264_CTX_S *)_83 + 26560B]
	streqb	r1, [r2, #401]	@ tmp212, _52->frame.is_long_term
	ldreq	r2, [r3, #1984]	@ D.39187, MEM[(struct H264_CTX_S *)_83 + 26560B]
	ldrb	r1, [r2, #2]	@ zero_extendqisi2	@ _79->is_reference, _79->is_reference
	cmp	r1, #0	@ _79->is_reference,
	ldreq	r3, [r2, #548]	@ D.39189, _79->pmv_address_idc
	addeq	r3, r3, #12800	@ tmp233, D.39189,
	addeq	r3, r3, #12	@ tmp233, tmp233,
	streq	r1, [r0, r3, asl #2]	@ _79->is_reference, pH264Ctx_5(D)->PmvStoreUsedFlag
	ldmfd	sp!, {r4, r5, r6, pc}	@
.L311:
	ldmfd	sp!, {r4, r5, r6, pc}	@
.L309:
	ldmfd	sp!, {r4, r5, r6, pc}	@
.L310:
	ldmfd	sp!, {r4, r5, r6, pc}	@
.L307:
	ldmfd	sp!, {r4, r5, r6, pc}	@
	.fnend
	.size	UnMarkLTRef, .-UnMarkLTRef
	.align	2
	.global	MarkPicLTRef
	.type	MarkPicLTRef, %function
MarkPicLTRef:
	.fnstart
	@ args = 0, pretend = 0, frame = 0
	@ frame_needed = 0, uses_anonymous_args = 0
	stmfd	sp!, {r4, r5, r6, r7, lr}	@,
	.save {r4, r5, r6, r7, lr}
	ldrb	r5, [r3, #3]	@ zero_extendqisi2	@ D.39217, pCurrPic_5(D)->structure
	add	r3, r0, #24576	@ tmp195, pH264Ctx,
	cmp	r5, #0	@ D.39217,
	beq	.L313	@,
	ldr	r7, [r3, #2056]	@ D.39220, pH264Ctx_11(D)->DPB.ref_frames_in_buffer
	cmp	r7, #0	@ D.39220,
	beq	.L343	@,
	add	r6, r0, #26368	@ ivtmp.599, pH264Ctx,
	mov	ip, #0	@ i,
	add	r6, r6, #124	@ ivtmp.599, ivtmp.599,
	b	.L327	@
.L319:
	tst	r4, #2	@ D.39217,
	beq	.L322	@,
	ldr	lr, [r3, #472]	@ *_13, *_13
	bic	lr, lr, #-16777216	@ D.39220, *_13,
	bic	lr, lr, #255	@ D.39220, D.39220,
	cmp	lr, #65536	@ D.39220,
	beq	.L344	@,
.L322:
	add	ip, ip, #1	@ i, i,
	cmp	ip, r7	@ i, D.39220
	beq	.L345	@,
.L327:
	ldr	r3, [r6, #4]!	@ D.39219, MEM[base: _119, offset: 0B]
	ldrb	r4, [r3, #2]	@ zero_extendqisi2	@ D.39217, _13->is_reference
	tst	r4, #1	@ D.39217,
	beq	.L319	@,
	ldr	lr, [r3, #436]	@ *_13, *_13
	bic	lr, lr, #-16777216	@ D.39220, *_13,
	bic	lr, lr, #255	@ D.39220, D.39220,
	cmp	lr, #65536	@ D.39220,
	bne	.L319	@,
	ldr	lr, [r3, #448]	@ _13->top_field.pic_num, _13->top_field.pic_num
	cmp	lr, r2	@ _13->top_field.pic_num, picNumX
	bne	.L319	@,
	ldrb	lr, [r3, #473]	@ zero_extendqisi2	@ _13->bottom_field.is_long_term, _13->bottom_field.is_long_term
	cmp	lr, #1	@ _13->bottom_field.is_long_term,
	bne	.L323	@,
	ldr	lr, [r3, #520]	@ _13->long_term_frame_idx, _13->long_term_frame_idx
	cmp	lr, r1	@ _13->long_term_frame_idx, long_term_frame_idx
	bne	.L322	@,
.L323:
	str	r1, [r3, #520]	@ long_term_frame_idx, _109->long_term_frame_idx
	sub	r3, r5, #1	@ D.39218, D.39217,
	add	r2, r0, ip, lsl #2	@ D.39225, pH264Ctx, i,
	clz	r3, r3	@ D.39218, D.39218
	add	r2, r2, #24576	@ tmp240, D.39225,
	mov	ip, #1	@ tmp247,
	mov	r3, r3, lsr #5	@ D.39218, D.39218,
	mov	r0, #0	@ tmp251,
	add	r1, r3, r1, lsl #1	@ D.39220, D.39218, long_term_frame_idx,
	ldr	r3, [r2, #1920]	@ D.39219, MEM[(struct H264_CTX_S *)_131 + 26496B]
	str	r1, [r3, #444]	@ D.39220, _56->top_field.long_term_pic_num
	ldr	r3, [r2, #1920]	@ D.39219, MEM[(struct H264_CTX_S *)_131 + 26496B]
	strb	ip, [r3, #437]	@ tmp247, _61->top_field.is_long_term
	ldr	r3, [r2, #1920]	@ D.39219, MEM[(struct H264_CTX_S *)_131 + 26496B]
	strb	r0, [r3, #438]	@ tmp251, _63->top_field.is_short_term
	ldr	r3, [r2, #1920]	@ D.39219, MEM[(struct H264_CTX_S *)_131 + 26496B]
	ldrb	r1, [r3, #400]	@ zero_extendqisi2	@ D.39217, _65->frame.structure
	cmp	r1, #3	@ D.39217,
	cmpne	r1, r0	@, D.39217,
	bne	.L346	@,
	ldrb	r1, [r3, #473]	@ zero_extendqisi2	@ _65->bottom_field.is_long_term, _65->bottom_field.is_long_term
	ldrb	r0, [r3, #437]	@ zero_extendqisi2	@ D.39217, _65->top_field.is_long_term
	cmp	r1, r0	@ _65->bottom_field.is_long_term, D.39217
	streqb	r1, [r3, #401]	@ _65->bottom_field.is_long_term, _65->frame.is_long_term
	ldreq	r3, [r2, #1920]	@ D.39219, MEM[(struct H264_CTX_S *)_131 + 26496B]
	ldreqb	r2, [r3, #438]	@ zero_extendqisi2	@ _73->top_field.is_short_term, _73->top_field.is_short_term
	streqb	r2, [r3, #402]	@ _73->top_field.is_short_term,
	ldmfd	sp!, {r4, r5, r6, r7, pc}	@
.L313:
	ldr	r6, [r3, #2056]	@ D.39220, pH264Ctx_11(D)->DPB.ref_frames_in_buffer
	cmp	r6, #0	@ D.39220,
	ldmeqfd	sp!, {r4, r5, r6, r7, pc}	@
	add	lr, r0, #26368	@ ivtmp.588, pH264Ctx,
	mov	r3, r5	@ i, D.39217
	add	lr, lr, #124	@ ivtmp.588, ivtmp.588,
	b	.L318	@
.L317:
	add	r3, r3, #1	@ i, i,
	cmp	r3, r6	@ i, D.39220
	beq	.L347	@,
.L318:
	ldr	ip, [lr, #4]!	@ D.39219, MEM[base: _114, offset: 0B]
	ldrb	r4, [ip, #2]	@ zero_extendqisi2	@ _77->is_reference, _77->is_reference
	cmp	r4, #3	@ _77->is_reference,
	bne	.L317	@,
	ldr	r4, [ip, #400]	@ *_77, *_77
	bic	r4, r4, #-16777216	@ D.39220, *_77,
	bic	r4, r4, #255	@ D.39220, D.39220,
	cmp	r4, #65536	@ D.39220,
	bne	.L317	@,
	ldr	r4, [ip, #412]	@ _77->frame.pic_num, _77->frame.pic_num
	cmp	r4, r2	@ _77->frame.pic_num, picNumX
	bne	.L317	@,
	add	r3, r0, r3, lsl #2	@ D.39225, pH264Ctx, i,
	str	r1, [ip, #520]	@ long_term_frame_idx, _12->long_term_frame_idx
	add	r3, r3, #24576	@ tmp204, D.39225,
	mov	r0, #1	@ tmp207,
	mov	r2, #0	@ tmp219,
	ldr	ip, [r3, #1920]	@ D.39219, MEM[(struct H264_CTX_S *)_141 + 26496B]
	str	r1, [ip, #408]	@ long_term_frame_idx, _84->frame.long_term_pic_num
	ldr	r1, [r3, #1920]	@ D.39219, MEM[(struct H264_CTX_S *)_141 + 26496B]
	strb	r0, [r1, #401]	@ tmp207, _87->frame.is_long_term
	ldr	r1, [r3, #1920]	@ D.39219, MEM[(struct H264_CTX_S *)_141 + 26496B]
	strb	r0, [r1, #437]	@ tmp207, _89->top_field.is_long_term
	ldr	r1, [r3, #1920]	@ D.39219, MEM[(struct H264_CTX_S *)_141 + 26496B]
	strb	r0, [r1, #473]	@ tmp207, _91->bottom_field.is_long_term
	ldr	r1, [r3, #1920]	@ D.39219, MEM[(struct H264_CTX_S *)_141 + 26496B]
	strb	r2, [r1, #402]	@ tmp219, _93->frame.is_short_term
	ldr	r1, [r3, #1920]	@ D.39219, MEM[(struct H264_CTX_S *)_141 + 26496B]
	strb	r2, [r1, #438]	@ tmp219, _95->top_field.is_short_term
	ldr	r3, [r3, #1920]	@ D.39219, MEM[(struct H264_CTX_S *)_141 + 26496B]
	strb	r2, [r3, #474]	@ tmp219, _97->bottom_field.is_short_term
	ldmfd	sp!, {r4, r5, r6, r7, pc}	@
.L344:
	ldr	lr, [r3, #484]	@ _13->bottom_field.pic_num, _13->bottom_field.pic_num
	cmp	lr, r2	@ _13->bottom_field.pic_num, picNumX
	bne	.L322	@,
	ldrb	lr, [r3, #437]	@ zero_extendqisi2	@ _13->top_field.is_long_term, _13->top_field.is_long_term
	cmp	lr, #1	@ _13->top_field.is_long_term,
	bne	.L326	@,
	ldr	lr, [r3, #520]	@ _13->long_term_frame_idx, _13->long_term_frame_idx
	cmp	lr, r1	@ _13->long_term_frame_idx, long_term_frame_idx
	bne	.L322	@,
.L326:
	str	r1, [r3, #520]	@ long_term_frame_idx, _110->long_term_frame_idx
	sub	r3, r5, #2	@ D.39218, D.39217,
	add	r2, r0, ip, lsl #2	@ D.39225, pH264Ctx, i,
	clz	r3, r3	@ D.39218, D.39218
	add	r2, r2, #24576	@ tmp279, D.39225,
	mov	ip, #1	@ tmp286,
	mov	r3, r3, lsr #5	@ D.39218, D.39218,
	mov	r0, #0	@ tmp290,
	add	r1, r3, r1, lsl #1	@ D.39220, D.39218, long_term_frame_idx,
	ldr	r3, [r2, #1920]	@ D.39219, MEM[(struct H264_CTX_S *)_121 + 26496B]
	str	r1, [r3, #480]	@ D.39220, _25->bottom_field.long_term_pic_num
	ldr	r3, [r2, #1920]	@ D.39219, MEM[(struct H264_CTX_S *)_121 + 26496B]
	strb	ip, [r3, #473]	@ tmp286, _30->bottom_field.is_long_term
	ldr	r3, [r2, #1920]	@ D.39219, MEM[(struct H264_CTX_S *)_121 + 26496B]
	strb	r0, [r3, #474]	@ tmp290, _32->bottom_field.is_short_term
	ldr	r3, [r2, #1920]	@ D.39219, MEM[(struct H264_CTX_S *)_121 + 26496B]
	ldrb	r1, [r3, #400]	@ zero_extendqisi2	@ D.39217, _34->frame.structure
	cmp	r1, #3	@ D.39217,
	cmpne	r1, r0	@, D.39217,
	bne	.L348	@,
	ldrb	r1, [r3, #473]	@ zero_extendqisi2	@ _34->bottom_field.is_long_term, _34->bottom_field.is_long_term
	ldrb	r0, [r3, #437]	@ zero_extendqisi2	@ D.39217, _34->top_field.is_long_term
	cmp	r1, r0	@ _34->bottom_field.is_long_term, D.39217
	streqb	r1, [r3, #401]	@ _34->bottom_field.is_long_term, _34->frame.is_long_term
	ldreq	r3, [r2, #1920]	@ D.39219, MEM[(struct H264_CTX_S *)_121 + 26496B]
	ldreqb	r2, [r3, #474]	@ zero_extendqisi2	@ _45->bottom_field.is_short_term, _45->bottom_field.is_short_term
	streqb	r2, [r3, #402]	@ _45->bottom_field.is_short_term,
	ldmfd	sp!, {r4, r5, r6, r7, pc}	@
.L345:
	ldmfd	sp!, {r4, r5, r6, r7, pc}	@
.L347:
	ldmfd	sp!, {r4, r5, r6, r7, pc}	@
.L346:
	ldmfd	sp!, {r4, r5, r6, r7, pc}	@
.L348:
	ldmfd	sp!, {r4, r5, r6, r7, pc}	@
.L343:
	ldmfd	sp!, {r4, r5, r6, r7, pc}	@
	.fnend
	.size	MarkPicLTRef, .-MarkPicLTRef
	.align	2
	.global	MarkSTToLTRef
	.type	MarkSTToLTRef, %function
MarkSTToLTRef:
	.fnstart
	@ args = 0, pretend = 0, frame = 0
	@ frame_needed = 0, uses_anonymous_args = 0
	stmfd	sp!, {r4, r5, r6, r7, r8, r9, r10, lr}	@,
	.save {r4, r5, r6, r7, r8, r9, r10, lr}
	mov	r7, r1	@ pCurrPic, pCurrPic
	ldrb	r1, [r1, #3]	@ zero_extendqisi2	@ pCurrPic_4(D)->structure, pCurrPic_4(D)->structure
	mov	r9, r3	@ long_term_frame_idx, long_term_frame_idx
	mov	r8, r0	@ pH264Ctx, pH264Ctx
	cmp	r1, #0	@ pCurrPic_4(D)->structure,
	bne	.L350	@,
	ldr	r6, [r7, #416]	@ pCurrPic_4(D)->frame_num, pCurrPic_4(D)->frame_num
	mov	r1, r3	@, long_term_frame_idx
	sub	r6, r6, #1	@ D.39242, pCurrPic_4(D)->frame_num,
	rsb	r6, r2, r6	@ picNumX, difference_of_pic_nums_minus1, D.39242
	bl	UnMarkLTFrmByFrmIdx	@
.L351:
	mov	r3, r7	@, pCurrPic
	mov	r2, r6	@, picNumX
	mov	r1, r9	@, long_term_frame_idx
	mov	r0, r8	@, pH264Ctx
	ldmfd	sp!, {r4, r5, r6, r7, r8, r9, r10, lr}	@
	b	MarkPicLTRef	@
.L350:
	add	r3, r0, #24576	@ tmp143, pH264Ctx,
	ldr	r6, [r7, #416]	@ pCurrPic_4(D)->frame_num, pCurrPic_4(D)->frame_num
	ldr	r1, [r3, #2056]	@ D.39242, pH264Ctx_6(D)->DPB.ref_frames_in_buffer
	rsb	r6, r2, r6, lsl #1	@ picNumX, difference_of_pic_nums_minus1, pCurrPic_4(D)->frame_num,
	cmp	r1, #0	@ D.39242,
	beq	.L351	@,
	add	r2, r0, #26368	@ ivtmp.612, pH264Ctx,
	mov	lr, #0	@ i,
	add	r2, r2, #124	@ ivtmp.612, ivtmp.612,
	b	.L354	@
.L352:
	tst	r5, #2	@ D.39241,
	beq	.L353	@,
	ldr	r3, [ip, #472]	@ *_10, *_10
	bic	r3, r3, #-16777216	@ D.39242, *_10,
	bic	r3, r3, #255	@ D.39242, D.39242,
	cmp	r3, #65536	@ D.39242,
	beq	.L366	@,
.L353:
	cmp	lr, r1	@ i, D.39242
	beq	.L351	@,
.L354:
	ldr	ip, [r2, #4]!	@ D.39240, MEM[base: _9, offset: 0B]
	add	lr, lr, #1	@ i, i,
	ldrb	r5, [ip, #2]	@ zero_extendqisi2	@ D.39241, _10->is_reference
	tst	r5, #1	@ D.39241,
	beq	.L352	@,
	ldr	r4, [ip, #436]	@ *_10, *_10
	bic	r4, r4, #-16777216	@ D.39242, *_10,
	bic	r4, r4, #255	@ D.39242, D.39242,
	cmp	r4, #65536	@ D.39242,
	bne	.L352	@,
	ldr	r3, [ip, #448]	@ _10->top_field.pic_num, _10->top_field.pic_num
	cmp	r3, r6	@ _10->top_field.pic_num, picNumX
	bne	.L352	@,
	mov	r1, ip	@, D.39240
	mov	r3, r9	@, long_term_frame_idx
	mov	r2, #1	@,
	mov	r0, r8	@, pH264Ctx
	bl	UnMarkLTFldByFrmIdx	@
	b	.L351	@
.L366:
	ldr	r3, [ip, #484]	@ _10->bottom_field.pic_num, _10->bottom_field.pic_num
	cmp	r3, r6	@ _10->bottom_field.pic_num, picNumX
	bne	.L353	@,
	mov	r1, ip	@, D.39240
	mov	r3, r9	@, long_term_frame_idx
	mov	r2, #2	@,
	mov	r0, r8	@, pH264Ctx
	bl	UnMarkLTFldByFrmIdx	@
	b	.L351	@
	.fnend
	.size	MarkSTToLTRef, .-MarkSTToLTRef
	.align	2
	.global	UpdateMaxLTFrmIdx
	.type	UpdateMaxLTFrmIdx, %function
UpdateMaxLTFrmIdx:
	.fnstart
	@ args = 0, pretend = 0, frame = 0
	@ frame_needed = 0, uses_anonymous_args = 0
	stmfd	sp!, {r4, r5, r6, r7, r8, lr}	@,
	.save {r4, r5, r6, r7, r8, lr}
	add	r6, r0, #24576	@ tmp133, pH264Ctx,
	ldr	r3, [r6, #2060]	@ pH264Ctx_5(D)->DPB.ltref_frames_in_buffer, pH264Ctx_5(D)->DPB.ltref_frames_in_buffer
	str	r1, [r6, #2064]	@ max_long_term_frame_idx_plus1, pH264Ctx_5(D)->DPB.max_long_term_pic_idx
	cmp	r3, #0	@ pH264Ctx_5(D)->DPB.ltref_frames_in_buffer,
	ldmeqfd	sp!, {r4, r5, r6, r7, r8, pc}	@
	add	r5, r0, #26368	@ ivtmp.628, pH264Ctx,
	mov	r7, r0	@ pH264Ctx, pH264Ctx
	mov	r3, r1	@ D.39265, max_long_term_frame_idx_plus1
	add	r5, r5, #188	@ ivtmp.628, ivtmp.628,
	mov	r4, #0	@ i,
	b	.L371	@
.L369:
	ldr	r3, [r6, #2060]	@ pH264Ctx_5(D)->DPB.ltref_frames_in_buffer, pH264Ctx_5(D)->DPB.ltref_frames_in_buffer
	cmp	r3, r4	@ pH264Ctx_5(D)->DPB.ltref_frames_in_buffer, i
	ldmlsfd	sp!, {r4, r5, r6, r7, r8, pc}	@
	ldr	r3, [r6, #2064]	@ D.39265, pH264Ctx_5(D)->DPB.max_long_term_pic_idx
.L371:
	ldr	r1, [r5, #4]!	@ D.39264, MEM[base: _21, offset: 0B]
	add	r4, r4, #1	@ i, i,
	ldr	r2, [r1, #520]	@ _9->long_term_frame_idx, _9->long_term_frame_idx
	cmp	r2, r3	@ _9->long_term_frame_idx, D.39265
	bcc	.L369	@,
	mov	r0, r7	@, pH264Ctx
	bl	UnMarkFrameStoreRef	@
	b	.L369	@
	.fnend
	.size	UpdateMaxLTFrmIdx, .-UpdateMaxLTFrmIdx
	.align	2
	.global	UnMarkAllSTRef
	.type	UnMarkAllSTRef, %function
UnMarkAllSTRef:
	.fnstart
	@ args = 0, pretend = 0, frame = 0
	@ frame_needed = 0, uses_anonymous_args = 0
	stmfd	sp!, {r4, r5, r6, r7, r8, lr}	@,
	.save {r4, r5, r6, r7, r8, lr}
	add	r7, r0, #24576	@ tmp126, pH264Ctx,
	ldr	r3, [r7, #2056]	@ pH264Ctx_4(D)->DPB.ref_frames_in_buffer, pH264Ctx_4(D)->DPB.ref_frames_in_buffer
	cmp	r3, #0	@ pH264Ctx_4(D)->DPB.ref_frames_in_buffer,
	ldmeqfd	sp!, {r4, r5, r6, r7, r8, pc}	@
	add	r5, r0, #26368	@ ivtmp.643, pH264Ctx,
	mov	r6, r0	@ pH264Ctx, pH264Ctx
	add	r5, r5, #124	@ ivtmp.643, ivtmp.643,
	mov	r4, #0	@ i,
.L375:
	ldr	r1, [r5, #4]!	@, MEM[base: _15, offset: 0B]
	mov	r0, r6	@, pH264Ctx
	bl	UnMarkFrameStoreRef	@
	ldr	r3, [r7, #2056]	@ pH264Ctx_4(D)->DPB.ref_frames_in_buffer, pH264Ctx_4(D)->DPB.ref_frames_in_buffer
	add	r4, r4, #1	@ i, i,
	cmp	r3, r4	@ pH264Ctx_4(D)->DPB.ref_frames_in_buffer, i
	bhi	.L375	@,
	ldmfd	sp!, {r4, r5, r6, r7, r8, pc}	@
	.fnend
	.size	UnMarkAllSTRef, .-UnMarkAllSTRef
	.align	2
	.global	MarkCurrPicLT
	.type	MarkCurrPicLT, %function
MarkCurrPicLT:
	.fnstart
	@ args = 0, pretend = 0, frame = 0
	@ frame_needed = 0, uses_anonymous_args = 0
	stmfd	sp!, {r4, r5, r6, lr}	@,
	.save {r4, r5, r6, lr}
	mov	r5, r2	@ long_term_frame_idx, long_term_frame_idx
	ldrb	r2, [r1, #3]	@ zero_extendqisi2	@ D.39287, pCurrPic_3(D)->structure
	mov	r4, r1	@ pCurrPic, pCurrPic
	cmp	r2, #0	@ D.39287,
	beq	.L383	@,
	mov	r3, r5	@, long_term_frame_idx
	ldr	r1, [r1, #408]	@, pCurrPic_3(D)->frame_store
	bl	UnMarkLTFldByFrmIdx	@
.L381:
	mov	r2, #1	@ tmp117,
	mov	r3, #0	@ tmp119,
	str	r5, [r4, #420]	@ long_term_frame_idx, pCurrPic_3(D)->long_term_frame_idx
	strb	r2, [r4, #4]	@ tmp117, pCurrPic_3(D)->is_long_term
	strb	r3, [r4, #5]	@ tmp119, pCurrPic_3(D)->is_short_term
	ldmfd	sp!, {r4, r5, r6, pc}	@
.L383:
	mov	r1, r5	@, long_term_frame_idx
	bl	UnMarkLTFrmByFrmIdx	@
	b	.L381	@
	.fnend
	.size	MarkCurrPicLT, .-MarkCurrPicLT
	.align	2
	.global	RemoveFrameStoreOutDPB
	.type	RemoveFrameStoreOutDPB, %function
RemoveFrameStoreOutDPB:
	.fnstart
	@ args = 0, pretend = 0, frame = 0
	@ frame_needed = 0, uses_anonymous_args = 0
	stmfd	sp!, {r4, r5, r6, r7, r8, lr}	@,
	.save {r4, r5, r6, r7, r8, lr}
	add	r5, r0, r1, lsl #2	@ D.39313, pH264Ctx, pos,
	add	r5, r5, #24576	@ tmp193, D.39313,
	mov	r4, r1	@ pos, pos
	mov	r6, r0	@ pH264Ctx, pH264Ctx
	ldr	r2, [r5, #1856]	@ D.39314, MEM[(struct H264_CTX_S *)_54 + 26432B]
	cmp	r2, #0	@ D.39314,
	ldmeqfd	sp!, {r4, r5, r6, r7, r8, pc}	@
	ldr	r3, [r2, #552]	@ D.39315, _10->apc_idc
	add	r7, r0, #24576	@ tmp194, pH264Ctx,
	mov	r1, #0	@ tmp145,
	add	r8, r0, #49152	@ tmp195, pH264Ctx,
	add	r3, r3, #6656	@ tmp142, D.39315,
	add	r3, r3, #4	@ tmp142, tmp142,
	add	r3, r0, r3, lsl #2	@ tmp143, pH264Ctx, tmp142,
	str	r1, [r3, #4]	@ tmp145, pH264Ctx_8(D)->APC.is_used
	ldr	r3, [r7, #2328]	@ D.39312, pH264Ctx_8(D)->APC.used_size
	cmp	r3, r1	@ D.39312,
	subne	r3, r3, #1	@ D.39312, D.39312,
	str	r3, [r7, #2328]	@ D.39312, pH264Ctx_8(D)->APC.used_size
	ldr	r1, [r2, #508]	@, _10->logic_fs_id
	ldr	r0, [r8, #3688]	@, pH264Ctx_8(D)->ChanID
	bl	FSP_GetLogicFs	@
	cmp	r0, #0	@ pstLogic
	beq	.L387	@,
	ldrsb	r3, [r0, #1]	@ pstLogic_19->s32DispState, pstLogic_19->s32DispState
	cmp	r3, #3	@ pstLogic_19->s32DispState,
	beq	.L388	@,
	ldr	r3, [r5, #1856]	@ MEM[(struct H264_CTX_S *)_54 + 26432B], MEM[(struct H264_CTX_S *)_54 + 26432B]
	mov	r2, #0	@,
	ldr	r0, [r8, #3688]	@, pH264Ctx_8(D)->ChanID
	ldr	r1, [r3, #508]	@, _22->logic_fs_id
	bl	FSP_SetDisplay	@
.L388:
	ldr	r3, [r5, #1856]	@ MEM[(struct H264_CTX_S *)_54 + 26432B], MEM[(struct H264_CTX_S *)_54 + 26432B]
	mov	r2, #0	@,
	ldr	r0, [r8, #3688]	@, pH264Ctx_8(D)->ChanID
	ldr	r1, [r3, #508]	@, _26->logic_fs_id
	bl	FSP_SetRef	@
.L387:
	ldr	r2, [r5, #1856]	@ D.39314, MEM[(struct H264_CTX_S *)_54 + 26432B]
	mov	r3, #0	@ tmp171,
	strb	r3, [r2, #1]	@ tmp171, _29->is_used
	ldr	r2, [r5, #1856]	@ D.39314, MEM[(struct H264_CTX_S *)_54 + 26432B]
	strb	r3, [r2, #4]	@ tmp171, _31->is_in_dpb
	ldr	r2, [r5, #1856]	@ D.39314, MEM[(struct H264_CTX_S *)_54 + 26432B]
	strb	r3, [r2, #2]	@ tmp171, _33->is_reference
	ldr	r1, [r7, #2052]	@ pH264Ctx_8(D)->DPB.used_size, pH264Ctx_8(D)->DPB.used_size
	sub	r1, r1, #1	@ D.39315, pH264Ctx_8(D)->DPB.used_size,
	cmp	r4, r1	@ pos, D.39315
	addcc	r3, r4, #6592	@ D.39311, pos,
	addcc	r3, r3, #16	@ D.39311, D.39311,
	addcc	r3, r6, r3, lsl #2	@ ivtmp.659, pH264Ctx, D.39311,
	bcs	.L391	@,
.L390:
	add	r4, r4, #1	@ pos, pos,
	ldr	r2, [r3, #4]!	@ MEM[base: _45, offset: 0B], MEM[base: _45, offset: 0B]
	cmp	r4, r1	@ pos, D.39315
	str	r2, [r3, #-4]	@ MEM[base: _45, offset: 0B], MEM[base: _45, offset: 4294967292B]
	bne	.L390	@,
.L391:
	add	r3, r1, #6592	@ tmp185, D.39315,
	mov	r2, #0	@ tmp186,
	add	r3, r3, #16	@ tmp185, tmp185,
	str	r2, [r6, r3, asl #2]	@ tmp186, pH264Ctx_8(D)->DPB.fs
	str	r1, [r7, #2052]	@ D.39315, pH264Ctx_8(D)->DPB.used_size
	ldmfd	sp!, {r4, r5, r6, r7, r8, pc}	@
	.fnend
	.size	RemoveFrameStoreOutDPB, .-RemoveFrameStoreOutDPB
	.align	2
	.global	RemoveUnUsedFrameStore
	.type	RemoveUnUsedFrameStore, %function
RemoveUnUsedFrameStore:
	.fnstart
	@ args = 0, pretend = 0, frame = 0
	@ frame_needed = 0, uses_anonymous_args = 0
	stmfd	sp!, {r3, r4, r5, r6, r7, r8, r9, r10, fp, lr}	@,
	.save {r3, r4, r5, r6, r7, r8, r9, r10, fp, lr}
	subs	r5, r0, #0	@ pH264Ctx, pH264Ctx
	beq	.L425	@,
	add	r3, r5, #24576	@ tmp144, pH264Ctx,
	ldr	r6, [r3, #2052]	@ k, pH264Ctx_10(D)->DPB.used_size
	cmp	r6, #0	@ k,
	beq	.L416	@,
	mov	r10, #0	@ j,
	add	r7, r5, #49152	@ tmp187, pH264Ctx,
	mov	fp, r10	@ i, j
	mov	r9, r10	@ tmp190, j
	mvn	r8, #0	@ tmp189,
	b	.L415	@
.L427:
	ldrb	r2, [r3, #4]	@ zero_extendqisi2	@ _40->is_in_dpb, _40->is_in_dpb
	cmp	r2, #0	@ _40->is_in_dpb,
	bne	.L413	@,
	ldr	r1, [r3, #528]	@ _40->eFoState, _40->eFoState
	cmp	r1, #1	@ _40->eFoState,
	beq	.L413	@,
	strb	r2, [r3, #1]	@ _40->is_in_dpb, _40->is_used
	mov	r1, r10	@, j
	mov	r0, r5	@, pH264Ctx
	add	fp, fp, #1	@ i, i,
	bl	RemoveFrameStoreOutDPB	@
	cmp	fp, r6	@ i, k
	beq	.L416	@,
.L415:
	add	r4, r5, r10, lsl #2	@ D.39323, pH264Ctx, j,
	ldr	r0, [r7, #3688]	@, pH264Ctx_10(D)->ChanID
	add	r4, r4, #24576	@ tmp188, D.39323,
	ldr	r3, [r4, #1856]	@ MEM[(struct H264_CTX_S *)_3 + 26432B], MEM[(struct H264_CTX_S *)_3 + 26432B]
	ldr	r1, [r3, #508]	@, _15->logic_fs_id
	bl	FSP_GetLogicFs	@
	cmp	r0, #0	@ pstLogicFs
	beq	.L410	@,
	ldrsh	r3, [r0]	@ *pstLogicFs_18, *pstLogicFs_18
	cmp	r3, #0	@ *pstLogicFs_18,
	bne	.L411	@,
	ldr	r3, [r4, #1856]	@ D.39327, MEM[(struct H264_CTX_S *)_3 + 26432B]
	ldrb	r2, [r3, #2]	@ zero_extendqisi2	@ _20->is_reference, _20->is_reference
	cmp	r2, #0	@ _20->is_reference,
	bne	.L412	@,
	ldrsb	r1, [r0]	@ pstLogicFs_18->s32IsRef, pstLogicFs_18->s32IsRef
	cmp	r1, #0	@ pstLogicFs_18->s32IsRef,
	bne	.L426	@,
.L412:
	str	r8, [r3, #508]	@ tmp189, _54->logic_fs_id
	ldr	r3, [r4, #1856]	@ D.39327, MEM[(struct H264_CTX_S *)_3 + 26432B]
	strb	r9, [r3, #2]	@ tmp190, _28->is_reference
.L410:
	ldr	r2, [r4, #1856]	@ D.39327, MEM[(struct H264_CTX_S *)_3 + 26432B]
	ldr	r3, [r2, #528]	@ _35->eFoState,
	sub	r3, r3, #1	@ tmp177, _35->eFoState,
	clz	r3, r3	@ tmp177, tmp177
	mov	r3, r3, lsr #5	@ tmp177, tmp177,
	strb	r3, [r2, #4]	@ tmp177,
.L411:
	ldr	r3, [r4, #1856]	@ D.39327, MEM[(struct H264_CTX_S *)_3 + 26432B]
	ldrb	r2, [r3, #2]	@ zero_extendqisi2	@ MEM[(const struct H264_FRAMESTORE_S *)_40].is_reference, MEM[(const struct H264_FRAMESTORE_S *)_40].is_reference
	cmp	r2, #0	@ MEM[(const struct H264_FRAMESTORE_S *)_40].is_reference,
	beq	.L427	@,
.L413:
	add	fp, fp, #1	@ i, i,
	add	r10, r10, #1	@ j, j,
	cmp	fp, r6	@ i, k
	bne	.L415	@,
.L416:
	mov	r0, #0	@ D.39324,
	ldmfd	sp!, {r3, r4, r5, r6, r7, r8, r9, r10, fp, pc}	@
.L426:
	ldr	r1, [r3, #508]	@, _20->logic_fs_id
	ldr	r0, [r7, #3688]	@, pH264Ctx_10(D)->ChanID
	bl	FSP_SetRef	@
	ldr	r3, [r4, #1856]	@ D.39327, MEM[(struct H264_CTX_S *)_3 + 26432B]
	b	.L412	@
.L425:
	movw	r3, #1290	@,
	ldr	r2, .L428	@,
	ldr	r1, .L428+4	@,
	mov	r0, #1	@,
	bl	dprint_vfmw	@
	mvn	r0, #0	@ D.39324,
	ldmfd	sp!, {r3, r4, r5, r6, r7, r8, r9, r10, fp, pc}	@
.L429:
	.align	2
.L428:
	.word	.LANCHOR0
	.word	.LC11
	.fnend
	.size	RemoveUnUsedFrameStore, .-RemoveUnUsedFrameStore
	.align	2
	.global	CheckFrameStore
	.type	CheckFrameStore, %function
CheckFrameStore:
	.fnstart
	@ args = 0, pretend = 0, frame = 0
	@ frame_needed = 0, uses_anonymous_args = 0
	add	r3, r0, #49152	@ tmp201, pH264Ctx,
	stmfd	sp!, {r4, r5, lr}	@,
	.save {r4, r5, lr}
	.pad #12
	sub	sp, sp, #12	@,,
	ldr	r2, [r3, #2180]	@ pH264Ctx_7(D)->IDRFound, pH264Ctx_7(D)->IDRFound
	cmp	r2, #0	@ pH264Ctx_7(D)->IDRFound,
	bne	.L431	@,
	ldr	r2, [r1, #528]	@ pFrameStore_9(D)->eFoState, pFrameStore_9(D)->eFoState
	cmp	r2, #1	@ pFrameStore_9(D)->eFoState,
	beq	.L432	@,
	ldr	r2, [r3, #3616]	@ pH264Ctx_7(D)->OldDecMode, pH264Ctx_7(D)->OldDecMode
	cmp	r2, #0	@ pH264Ctx_7(D)->OldDecMode,
	beq	.L457	@,
.L432:
	mov	r2, #1	@ tmp161,
	str	r2, [r3, #2180]	@ tmp161, pH264Ctx_7(D)->IDRFound
.L431:
	mov	r4, r1	@ pFrameStore, pFrameStore
	mov	r5, r0	@ pH264Ctx, pH264Ctx
	ldr	r1, [r1, #508]	@, pFrameStore_9(D)->logic_fs_id
	ldr	r0, [r3, #3688]	@, pH264Ctx_7(D)->ChanID
	bl	FSP_GetLogicFs	@
	cmp	r0, #0	@ pstLogicFs
	beq	.L434	@,
	ldrsb	r3, [r0, #1]	@ D.39341, pstLogicFs_18->s32DispState
	cmp	r3, #3	@ D.39341,
	cmpne	r3, #0	@, D.39341,
	beq	.L458	@,
	ldrb	r2, [r4, #1]	@ zero_extendqisi2	@ D.39343, pFrameStore_9(D)->is_used
	ldrb	r3, [r4]	@ zero_extendqisi2	@ D.39343, pFrameStore_9(D)->non_existing
	cmp	r2, #0	@ D.39343,
	beq	.L442	@,
	cmp	r3, #1	@ D.39343,
	beq	.L442	@,
	ldr	r3, [r4]	@ *pFrameStore_9(D), *pFrameStore_9(D)
	mov	r1, #768	@ tmp186,
	movt	r1, 768	@ tmp186,
	bic	r3, r3, #16711680	@ D.39337, *pFrameStore_9(D),
	bic	r3, r3, #255	@ D.39337, D.39337,
	cmp	r3, r1	@ D.39337, tmp186
	beq	.L459	@,
	cmp	r2, #1	@ D.39343,
	beq	.L460	@,
	cmp	r2, #2	@ D.39343,
	beq	.L461	@,
.L440:
	ldr	r3, [r5]	@ pH264Ctx_7(D)->pstExtraData, pH264Ctx_7(D)->pstExtraData
	ldr	r2, [r0, #188]	@ D.39337, pstLogicFs_18->stDispImg.error_level
	ldr	r3, [r3, #4]	@ D.39340, _49->s32OutErrThr
	cmp	r2, r3	@ D.39337, D.39340
	movls	r0, #0	@ D.39336,
	bhi	.L462	@,
.L455:
	add	sp, sp, #12	@,,
	@ sp needed	@
	ldmfd	sp!, {r4, r5, pc}	@
.L457:
	ldr	r2, [r0]	@ pH264Ctx_7(D)->pstExtraData, pH264Ctx_7(D)->pstExtraData
	ldr	r2, [r2, #12]	@ _12->s32DecOrderOutput, _12->s32DecOrderOutput
	cmp	r2, #0	@ _12->s32DecOrderOutput,
	bne	.L432	@,
	mvn	r0, #0	@ D.39336,
	b	.L455	@
.L458:
	ldr	r2, [r4, #508]	@, pFrameStore_9(D)->logic_fs_id
	mov	r0, #1	@,
	ldr	r1, .L463	@,
	bl	dprint_vfmw	@
.L436:
	ldr	r3, [r4, #528]	@ pFrameStore_9(D)->eFoState, pFrameStore_9(D)->eFoState
	cmp	r3, #1	@ pFrameStore_9(D)->eFoState,
	beq	.L443	@,
	mvn	r0, #2	@ D.39336,
	add	sp, sp, #12	@,,
	@ sp needed	@
	ldmfd	sp!, {r4, r5, pc}	@
.L460:
	ldrb	r3, [r4, #3]	@ zero_extendqisi2	@ D.39343, pFrameStore_9(D)->mode_skip_flag
	tst	r3, #1	@ D.39343,
	beq	.L440	@,
	mov	r0, r2	@,
	ldr	r1, .L463+4	@,
	bl	dprint_vfmw	@
	mvn	r0, #0	@ D.39336,
	b	.L455	@
.L461:
	ldrb	r3, [r4, #3]	@ zero_extendqisi2	@ D.39343, pFrameStore_9(D)->mode_skip_flag
	tst	r3, #2	@ D.39343,
	beq	.L440	@,
	ldr	r1, .L463+8	@,
	mov	r0, #1	@,
	bl	dprint_vfmw	@
	mvn	r0, #0	@ D.39336,
	b	.L455	@
.L443:
	mov	r3, #2	@ tmp181,
	mvn	r0, #2	@ D.39336,
	str	r3, [r4, #528]	@ tmp181, pFrameStore_9(D)->eFoState
	b	.L455	@
.L434:
	ldr	ip, [r4, #508]	@ pFrameStore_9(D)->logic_fs_id, pFrameStore_9(D)->logic_fs_id
	mov	r2, r4	@, pFrameStore
	ldr	r3, [r4, #528]	@ pFrameStore_9(D)->eFoState, pFrameStore_9(D)->eFoState
	mov	r0, #1	@,
	ldr	r1, .L463+12	@,
	str	ip, [sp]	@ pFrameStore_9(D)->logic_fs_id,
	bl	dprint_vfmw	@
	b	.L436	@
.L442:
	ldr	r1, .L463+16	@,
	mov	r0, #1	@,
	bl	dprint_vfmw	@
	mvn	r0, #0	@ D.39336,
	b	.L455	@
.L462:
	ldr	r1, .L463+20	@,
	mov	r0, #1	@,
	bl	dprint_vfmw	@
	mvn	r0, #0	@ D.39336,
	b	.L455	@
.L459:
	ldrb	r3, [r4, #3]	@ zero_extendqisi2	@, pFrameStore_9(D)->mode_skip_flag
	mov	r0, #1	@,
	ldr	r1, .L463+24	@,
	bl	dprint_vfmw	@
	mvn	r0, #0	@ D.39336,
	b	.L455	@
.L464:
	.align	2
.L463:
	.word	.LC12
	.word	.LC16
	.word	.LC17
	.word	.LC13
	.word	.LC14
	.word	.LC18
	.word	.LC15
	.fnend
	.size	CheckFrameStore, .-CheckFrameStore
	.align	2
	.global	ExchangePts
	.type	ExchangePts, %function
ExchangePts:
	.fnstart
	@ args = 0, pretend = 0, frame = 8
	@ frame_needed = 0, uses_anonymous_args = 0
	stmfd	sp!, {r4, r5, r6, r7, r8, r9, r10, fp, lr}	@,
	.save {r4, r5, r6, r7, r8, r9, r10, fp, lr}
	mvn	r5, #0	@,
	ldrd	r2, [r1, #16]	@ pFrameStore_10(D)->fs_image.PTS, pFrameStore,
	mvn	r4, #0	@ tmp136,
	.pad #20
	sub	sp, sp, #20	@,,
	cmp	r3, r5	@ pFrameStore_10(D)->fs_image.PTS,
	cmpeq	r2, r4	@ pFrameStore_10(D)->fs_image.PTS, tmp136
	beq	.L465	@,
	add	r8, r0, #24576	@ tmp161, pH264Ctx,
	ldr	r3, [r8, #2052]	@ pH264Ctx_13(D)->DPB.used_size, pH264Ctx_13(D)->DPB.used_size
	cmp	r3, #0	@ pH264Ctx_13(D)->DPB.used_size,
	beq	.L465	@,
	add	fp, r0, #26368	@ ivtmp.685, pH264Ctx,
	add	r9, r0, #49152	@ tmp162, pH264Ctx,
	add	fp, fp, #60	@ ivtmp.685, ivtmp.685,
	mov	r5, r0	@ pH264Ctx, pH264Ctx
	mvn	r6, #1	@ MinPts,
	mvn	r7, #0	@ MinPts,
	mvn	r10, #0	@ MinPtsPos,
	mov	r4, #0	@ MinPtsPos,
	str	r1, [sp, #12]	@ pFrameStore, %sfp
.L470:
	ldr	r3, [fp, #4]!	@ D.39366, MEM[base: _40, offset: 0B]
	cmp	r3, #0	@ D.39366,
	beq	.L469	@,
	ldr	r1, [r3, #508]	@, _15->logic_fs_id
	ldr	r0, [r9, #3688]	@, pH264Ctx_13(D)->ChanID
	bl	FSP_GetLogicFs	@
	cmp	r0, #0	@ pstLogicFs
	beq	.L469	@,
	ldrsb	r3, [r0, #1]	@ D.39368, pstLogicFs_20->s32DispState
	cmp	r3, #3	@ D.39368,
	cmpne	r3, #0	@, D.39368,
	beq	.L469	@,
	ldr	r3, [fp]	@ MEM[base: _40, offset: 0B], MEM[base: _40, offset: 0B]
	ldrd	r0, [r3, #16]	@ MinPts, MEM[base: _40, offset: 0B],
	cmp	r1, r7	@ MinPts, MinPts
	cmpeq	r0, r6	@ MinPts, MinPts
	movcc	r6, r0	@ MinPts, MinPts
	movcc	r7, r1	@ MinPts, MinPts
	movcc	r10, r4	@ MinPtsPos, MinPtsPos
.L469:
	ldr	r3, [r8, #2052]	@ pH264Ctx_13(D)->DPB.used_size, pH264Ctx_13(D)->DPB.used_size
	add	r4, r4, #1	@ MinPtsPos, MinPtsPos,
	cmp	r4, r3	@ MinPtsPos, pH264Ctx_13(D)->DPB.used_size
	bcc	.L470	@,
	cmn	r10, #1	@ MinPtsPos,
	beq	.L465	@,
	ldr	r3, [sp, #12]	@ pFrameStore, %sfp
	ldrd	r2, [r3, #16]	@ D.39364, pFrameStore,
	cmp	r3, r7	@ D.39364, MinPts
	cmpeq	r2, r6	@ D.39364, MinPts
	bhi	.L485	@,
.L465:
	add	sp, sp, #20	@,,
	@ sp needed	@
	ldmfd	sp!, {r4, r5, r6, r7, r8, r9, r10, fp, pc}	@
.L485:
	strd	r6, [sp]	@ MinPts,
	mov	r0, #29	@,
	ldr	r1, .L486	@,
	add	r10, r10, #6592	@ tmp160, MinPtsPos,
	bl	dprint_vfmw	@
	ldr	r0, [sp, #12]	@ pFrameStore, %sfp
	add	r10, r10, #16	@ tmp160, tmp160,
	ldrd	r2, [r0, #16]	@ D.39364, pFrameStore,
	ldr	r1, [r5, r10, asl #2]	@ D.39366, pH264Ctx_13(D)->DPB.fs
	strd	r2, [r1, #16]	@ D.39364, D.39366,
	strd	r6, [r0, #16]	@ MinPts, pFrameStore,
	add	sp, sp, #20	@,,
	@ sp needed	@
	ldmfd	sp!, {r4, r5, r6, r7, r8, r9, r10, fp, pc}	@
.L487:
	.align	2
.L486:
	.word	.LC19
	.fnend
	.size	ExchangePts, .-ExchangePts
	.align	2
	.global	GetImagePara
	.type	GetImagePara, %function
GetImagePara:
	.fnstart
	@ args = 0, pretend = 0, frame = 0
	@ frame_needed = 0, uses_anonymous_args = 0
	stmfd	sp!, {r4, r5, r6, r7, r8, r9, r10, lr}	@,
	.save {r4, r5, r6, r7, r8, r9, r10, lr}
	add	r2, r0, #20480	@ tmp199, pH264Ctx,
	add	lr, r0, #12288	@ tmp196, pH264Ctx,
	mov	r8, #2208	@ tmp204,
	ldr	r2, [r2, #212]	@ pH264Ctx_21(D)->CurrSlice.pic_parameter_set_id, pH264Ctx_21(D)->CurrSlice.pic_parameter_set_id
	mov	r4, r1	@ pFrameStore, pFrameStore
	ldr	r3, [lr, #1296]	@ pH264Ctx_21(D)->PPS, pH264Ctx_21(D)->PPS
	add	r5, r0, #49152	@ tmp290, pH264Ctx,
	ldr	ip, [r1, #148]	@ D.39381, pFrameStore_30(D)->fs_image.format
	mov	r7, #4000	@ tmp208,
	ldr	r6, [lr, #1292]	@ pH264Ctx_21(D)->SPS, pH264Ctx_21(D)->SPS
	mla	r1, r8, r2, r3	@ tmp205, tmp204, pH264Ctx_21(D)->CurrSlice.pic_parameter_set_id, pH264Ctx_21(D)->PPS
	bic	r2, ip, #768	@ D.39381, D.39381,
	bic	r2, r2, #3	@ D.39381, D.39381,
	ldrb	lr, [r4, #1]	@ zero_extendqisi2	@ pFrameStore_30(D)->is_used, pFrameStore_30(D)->is_used
	ldr	r3, [r1, #28]	@ pps_25->seq_parameter_set_id, pps_25->seq_parameter_set_id
	str	r2, [r4, #148]	@ D.39381, pFrameStore_30(D)->fs_image.format
	ldr	r1, [r5, #2188]	@ pH264Ctx_21(D)->frame_rate, pH264Ctx_21(D)->frame_rate
	mla	r3, r7, r3, r6	@ sps, tmp208, pps_25->seq_parameter_set_id, pH264Ctx_21(D)->SPS
	mov	r1, r1, asl #10	@ D.39381, pH264Ctx_21(D)->frame_rate,
	str	r1, [r4, #176]	@ D.39381, pFrameStore_30(D)->fs_image.frame_rate
	cmp	lr, #3	@ pFrameStore_30(D)->is_used,
	ldrls	pc, [pc, lr, asl #2]	@ pFrameStore_30(D)->is_used
	b	.L524	@
.L491:
	.word	.L490
	.word	.L492
	.word	.L493
	.word	.L490
.L493:
	ldr	r1, [r4, #540]	@ pFrameStore_30(D)->pic_type, pFrameStore_30(D)->pic_type
	add	r6, r0, #24576	@ tmp289, pH264Ctx,
	ldr	ip, [r4, #544]	@ pFrameStore_30(D)->err_level, pFrameStore_30(D)->err_level
	and	r1, r1, #3	@ D.39381, pFrameStore_30(D)->pic_type,
	orr	r2, r2, r1	@ D.39381, D.39381, D.39381
	orr	r2, r2, #2816	@ D.39381, D.39381,
	str	ip, [r4, #188]	@ pFrameStore_30(D)->err_level, pFrameStore_30(D)->fs_image.error_level
	str	r2, [r4, #148]	@ D.39381, pFrameStore_30(D)->fs_image.format
.L489:
	ldrb	r2, [r3, #18]	@ zero_extendqisi2	@ D.39384, sps_29->frame_mbs_only_flag
	str	r2, [r4, #348]	@ D.39384, pFrameStore_30(D)->fs_image.optm_inf.IsProgressiveSeq
	str	r2, [r4, #352]	@ D.39384, pFrameStore_30(D)->fs_image.optm_inf.IsProgressiveFrm
	ldrb	r2, [r3, #22]	@ zero_extendqisi2	@ sps_29->vui_parameters_present_flag, sps_29->vui_parameters_present_flag
	cmp	r2, #0	@ sps_29->vui_parameters_present_flag,
	ldrne	r2, [r3, #68]	@ D.39378, sps_29->vui_seq_parameters.matrix_coefficients
	mov	r3, #1	@ tmp253,
	str	r3, [r4, #356]	@ tmp253, pFrameStore_30(D)->fs_image.optm_inf.RealFrmRate
	str	r2, [r4, #360]	@ D.39378, pFrameStore_30(D)->fs_image.optm_inf.MatrixCoef
	ldr	r3, [r0]	@ pH264Ctx_21(D)->pstExtraData, pH264Ctx_21(D)->pstExtraData
	ldr	r3, [r3, #12]	@ _115->s32DecOrderOutput, _115->s32DecOrderOutput
	cmp	r3, #0	@ _115->s32DecOrderOutput,
	ble	.L509	@,
	ldrb	r3, [r4, #400]	@ zero_extendqisi2	@ pFrameStore_30(D)->frame.structure, pFrameStore_30(D)->frame.structure
	cmp	r3, #0	@ pFrameStore_30(D)->frame.structure,
	bne	.L509	@,
	ldrb	r3, [r4, #1]	@ zero_extendqisi2	@ pFrameStore_30(D)->is_used, pFrameStore_30(D)->is_used
	cmp	r3, #3	@ pFrameStore_30(D)->is_used,
	ldreq	r3, [r4, #148]	@ pFrameStore_30(D)->fs_image.format, pFrameStore_30(D)->fs_image.format
	biceq	r3, r3, #768	@ D.39381, pFrameStore_30(D)->fs_image.format,
	streq	r3, [r4, #148]	@ D.39381, pFrameStore_30(D)->fs_image.format
.L509:
	mov	r1, r4	@, pFrameStore
	bl	ExchangePts	@
	ldrb	r3, [r6, #1808]	@ zero_extendqisi2	@ pH264Ctx_21(D)->FramePackSEI.frame_packing_dec_ok, pH264Ctx_21(D)->FramePackSEI.frame_packing_dec_ok
	cmp	r3, #0	@ pH264Ctx_21(D)->FramePackSEI.frame_packing_dec_ok,
	beq	.L510	@,
	ldr	r3, [r6, #1824]	@ D.39384, pH264Ctx_21(D)->FramePackSEI.frame_packing_arrangement_type
	cmp	r3, #3	@ D.39384,
	moveq	r3, #1	@ tmp266,
	streq	r3, [r4, #288]	@ tmp266, pFrameStore_30(D)->fs_image.eFramePackingType
	beq	.L510	@,
	cmp	r3, #4	@ D.39384,
	moveq	r3, #2	@ tmp267,
	streq	r3, [r4, #288]	@ tmp267, pFrameStore_30(D)->fs_image.eFramePackingType
	beq	.L510	@,
	cmp	r3, #5	@ D.39384,
	moveq	r3, #3	@ tmp268,
	streq	r3, [r4, #288]	@ tmp268, pFrameStore_30(D)->fs_image.eFramePackingType
	beq	.L510	@,
	mov	r0, #0	@ tmp269,
	ldr	r1, .L536	@,
	str	r0, [r4, #288]	@ tmp269, pFrameStore_30(D)->fs_image.eFramePackingType
	ldr	r2, [r6, #1824]	@, pH264Ctx_21(D)->FramePackSEI.frame_packing_arrangement_type
	bl	dprint_vfmw	@
.L510:
	ldr	r0, [r5, #3688]	@, pH264Ctx_21(D)->ChanID
	ldr	r1, [r4, #508]	@, pFrameStore_30(D)->logic_fs_id
	bl	FSP_GetFsImagePtr	@
	subs	r5, r0, #0	@ pstLogicFsImage,
	ldmeqfd	sp!, {r4, r5, r6, r7, r8, r9, r10, pc}	@
	mov	r2, #392	@,
	add	r1, r4, #8	@, pFrameStore,
	bl	memcpy	@
	mov	r3, #0	@ tmp283,
	str	r3, [r5, #300]	@ tmp283, pstLogicFsImage_134->ImageDnr.video_standard
	mov	r2, #1	@ tmp285,
	ldrb	r3, [r4, #400]	@ zero_extendqisi2	@ D.39379, pFrameStore_30(D)->frame.structure
	strb	r2, [r5, #295]	@ tmp285, pstLogicFsImage_134->ImageDnr.use_pic_qp_en
	cmp	r3, #0	@ D.39379,
	movne	r3, #4	@ D.39379,
	strb	r3, [r5, #288]	@ D.39379, pstLogicFsImage_134->ImageDnr.pic_structure
	ldr	r3, [r4, #428]	@ D.39384, pFrameStore_30(D)->frame.MaxQp
	strb	r2, [r5, #293]	@ tmp285, pstLogicFsImage_134->ImageDnr.chroma_format_idc
	str	r3, [r5, #304]	@ D.39384, pstLogicFsImage_134->ImageDnr.QP_Y
	str	r3, [r5, #312]	@ D.39384, pstLogicFsImage_134->ImageDnr.QP_V
	str	r3, [r5, #308]	@ D.39384, pstLogicFsImage_134->ImageDnr.QP_U
	ldmfd	sp!, {r4, r5, r6, r7, r8, r9, r10, pc}	@
.L492:
	ldr	r1, [r4, #540]	@ pFrameStore_30(D)->pic_type, pFrameStore_30(D)->pic_type
	add	r6, r0, #24576	@ tmp289, pH264Ctx,
	ldr	ip, [r4, #544]	@ pFrameStore_30(D)->err_level, pFrameStore_30(D)->err_level
	and	r1, r1, #3	@ D.39381, pFrameStore_30(D)->pic_type,
	orr	r2, r2, r1	@ D.39381, D.39381, D.39381
	orr	r2, r2, #1792	@ D.39381, D.39381,
	str	ip, [r4, #188]	@ pFrameStore_30(D)->err_level, pFrameStore_30(D)->fs_image.error_level
	str	r2, [r4, #148]	@ D.39381, pFrameStore_30(D)->fs_image.format
	b	.L489	@
.L490:
	ldrb	r2, [r4, #400]	@ zero_extendqisi2	@ pFrameStore_30(D)->frame.structure, pFrameStore_30(D)->frame.structure
	cmp	r2, #0	@ pFrameStore_30(D)->frame.structure,
	bne	.L494	@,
	ldr	r2, [r4, #536]	@ pFrameStore_30(D)->MbaffFrameFlag, pFrameStore_30(D)->MbaffFrameFlag
	mov	r7, #3072	@ D.39381,
	ldr	lr, [r4, #544]	@ pFrameStore_30(D)->err_level, pFrameStore_30(D)->err_level
	cmp	r2, #0	@ pFrameStore_30(D)->MbaffFrameFlag,
	ldr	r2, [r4, #540]	@ pic_type, pFrameStore_30(D)->pic_type
	moveq	r1, #512	@ D.39381,
	movne	r1, #768	@ D.39381,
	str	lr, [r4, #188]	@ pFrameStore_30(D)->err_level, pFrameStore_30(D)->fs_image.error_level
.L495:
	ldr	r6, [r4, #452]	@ D.39384, pFrameStore_30(D)->top_field.poc
	ldr	lr, [r4, #488]	@ D.39384, pFrameStore_30(D)->bottom_field.poc
	cmp	r6, lr	@ D.39384, D.39384
	beq	.L533	@,
	movle	lr, #1	@ top_field_first,
	movgt	lr, #0	@ top_field_first,
.L506:
	add	r6, r0, #24576	@ tmp289, pH264Ctx,
	ldrb	r8, [r6, #1844]	@ zero_extendqisi2	@ D.39383, pH264Ctx_21(D)->PicTimingSEI.pic_struct
	cmp	r8, #3	@ D.39383,
	moveq	lr, #4096	@ D.39381,
	beq	.L507	@,
	cmp	r8, #4	@ D.39383,
	movne	lr, lr, asl #12	@ D.39381, top_field_first,
	moveq	lr, #0	@ D.39381,
.L507:
	bic	ip, ip, #13056	@ D.39381, D.39381,
	orr	r1, r7, r1	@ D.39381, D.39381, D.39381
	bic	ip, ip, #3	@ D.39381, D.39381,
	and	r2, r2, #3	@ D.39381, pic_type,
	orr	ip, r1, ip	@ D.39381, D.39381, D.39381
	orr	ip, ip, r2	@ D.39381, D.39381, D.39381
	orr	ip, ip, lr	@ D.39381, D.39381, D.39381
	str	ip, [r4, #148]	@ D.39381, pFrameStore_30(D)->fs_image.format
	b	.L489	@
.L494:
	ldr	r6, [r4, #456]	@ D.39381, pFrameStore_30(D)->top_field.err_level
	ldr	r2, [r5, #3684]	@ D.39381, pH264Ctx_21(D)->out_error_thr
	cmp	r6, r2	@ D.39381, D.39381
	bhi	.L534	@,
	ldr	r1, [r4, #492]	@ pFrameStore_30(D)->bottom_field.err_level, pFrameStore_30(D)->bottom_field.err_level
	cmp	r2, r1	@ D.39381, pFrameStore_30(D)->bottom_field.err_level
	bcc	.L499	@,
.L497:
	ldr	lr, [r4, #544]	@ pFrameStore_30(D)->err_level, pFrameStore_30(D)->err_level
	mov	r1, #3	@ valid_field,
	ldr	r2, [r4, #540]	@ pic_type, pFrameStore_30(D)->pic_type
	ldr	r9, [r4, #460]	@ pic_type, pFrameStore_30(D)->top_field.pic_type
	ldr	r8, [r4, #496]	@ pic_type, pFrameStore_30(D)->bottom_field.pic_type
	str	lr, [r4, #188]	@ pFrameStore_30(D)->err_level, pFrameStore_30(D)->fs_image.error_level
.L500:
	ldrb	lr, [r4, #3]	@ zero_extendqisi2	@ D.39383, pFrameStore_30(D)->mode_skip_flag
	cmp	lr, #1	@ D.39383,
	beq	.L535	@,
	cmp	lr, #2	@ D.39383,
	streq	r6, [r4, #188]	@ D.39381, pFrameStore_30(D)->fs_image.error_level
	movne	r7, r1, asl #10	@ D.39381, valid_field,
	moveq	r2, r9	@ pic_type, pic_type
	moveq	r7, #1024	@ D.39381,
.L502:
	mov	r1, #768	@ D.39381,
	str	r9, [r4, #140]	@ pic_type, pFrameStore_30(D)->fs_image.top_fld_type
	str	r8, [r4, #144]	@ pic_type, pFrameStore_30(D)->fs_image.bottom_fld_type
	b	.L495	@
.L499:
	ldr	r2, [r4, #460]	@ pic_type, pFrameStore_30(D)->top_field.pic_type
	mov	r1, #1	@ valid_field,
	ldr	r8, [r4, #496]	@ pic_type, pFrameStore_30(D)->bottom_field.pic_type
	str	r6, [r4, #188]	@ D.39381, pFrameStore_30(D)->fs_image.error_level
	mov	r9, r2	@ pic_type, pic_type
	b	.L500	@
.L533:
	ldr	lr, [r4, #152]	@ pFrameStore_30(D)->fs_image.image_width, pFrameStore_30(D)->fs_image.image_width
	cmp	lr, #720	@ pFrameStore_30(D)->fs_image.image_width,
	movne	lr, #1	@ top_field_first,
	bne	.L506	@,
	ldr	lr, [r4, #156]	@ pFrameStore_30(D)->fs_image.image_height, pFrameStore_30(D)->fs_image.image_height
	subs	lr, lr, #480	@ top_field_first, pFrameStore_30(D)->fs_image.image_height,
	movne	lr, #1	@ top_field_first,
	b	.L506	@
.L534:
	ldr	lr, [r4, #492]	@ D.39381, pFrameStore_30(D)->bottom_field.err_level
	cmp	r2, lr	@ D.39381, D.39381
	bcc	.L497	@,
	ldr	r2, [r4, #496]	@ pic_type, pFrameStore_30(D)->bottom_field.pic_type
	mov	r1, #2	@ valid_field,
	str	lr, [r4, #188]	@ D.39381, pFrameStore_30(D)->fs_image.error_level
	ldr	r9, [r4, #460]	@ pic_type, pFrameStore_30(D)->top_field.pic_type
	mov	r8, r2	@ pic_type, pic_type
	b	.L500	@
.L535:
	ldr	r1, [r4, #492]	@ pFrameStore_30(D)->bottom_field.err_level, pFrameStore_30(D)->bottom_field.err_level
	mov	r2, r8	@ pic_type, pic_type
	mov	r7, #2048	@ D.39381,
	str	r1, [r4, #188]	@ pFrameStore_30(D)->bottom_field.err_level, pFrameStore_30(D)->fs_image.error_level
	b	.L502	@
.L524:
	add	r6, r0, #24576	@ tmp289, pH264Ctx,
	b	.L489	@
.L537:
	.align	2
.L536:
	.word	.LC20
	.fnend
	.size	GetImagePara, .-GetImagePara
	.align	2
	.global	SetFrmRepeatCount
	.type	SetFrmRepeatCount, %function
SetFrmRepeatCount:
	.fnstart
	@ args = 0, pretend = 0, frame = 0
	@ frame_needed = 0, uses_anonymous_args = 0
	@ link register save eliminated.
	ldr	r3, [r0]	@ pH264Ctx_2(D)->pstExtraData, pH264Ctx_2(D)->pstExtraData
	ldr	r3, [r3, #520]	@ _3->s32FastForwardBackwardSpeed, _3->s32FastForwardBackwardSpeed
	add	r3, r3, #2032	@ D.39398, _3->s32FastForwardBackwardSpeed,
	add	r3, r3, #15	@ D.39398, D.39398,
	cmp	r3, #4096	@ D.39398,
	movcc	r3, #0	@ tmp120,
	strcc	r3, [r1, #84]	@ tmp120, p_image_7(D)->u32RepeatCnt
	bxcc	lr	@
	b	SetFrmRepeatCount.part.1	@
	.fnend
	.size	SetFrmRepeatCount, .-SetFrmRepeatCount
	.align	2
	.global	SplitFrmToFlds
	.type	SplitFrmToFlds, %function
SplitFrmToFlds:
	.fnstart
	@ args = 0, pretend = 0, frame = 0
	@ frame_needed = 0, uses_anonymous_args = 0
	stmfd	sp!, {r4, r5, lr}	@,
	.save {r4, r5, lr}
	mov	r5, #1	@ tmp118,
	ldrb	lr, [r0, #401]	@ zero_extendqisi2	@ D.39401, pFrameStore_2(D)->frame.is_long_term
	mov	r4, #2	@ tmp122,
	ldrb	ip, [r0, #402]	@ zero_extendqisi2	@ D.39401, pFrameStore_2(D)->frame.is_short_term
	ldr	r1, [r0, #420]	@ D.39402, pFrameStore_2(D)->frame.err_level
	ldr	r2, [r0, #424]	@ D.39402, pFrameStore_2(D)->frame.pic_type
	ldr	r3, [r0, #404]	@ D.39403, pFrameStore_2(D)->frame.frame_store
	strb	r5, [r0, #436]	@ tmp118, pFrameStore_2(D)->top_field.structure
	strb	r4, [r0, #472]	@ tmp122, pFrameStore_2(D)->bottom_field.structure
	strb	lr, [r0, #437]	@ D.39401, pFrameStore_2(D)->top_field.is_long_term
	strb	lr, [r0, #473]	@ D.39401, pFrameStore_2(D)->bottom_field.is_long_term
	strb	ip, [r0, #438]	@ D.39401, pFrameStore_2(D)->top_field.is_short_term
	strb	ip, [r0, #474]	@ D.39401, pFrameStore_2(D)->bottom_field.is_short_term
	str	r1, [r0, #456]	@ D.39402, pFrameStore_2(D)->top_field.err_level
	str	r1, [r0, #492]	@ D.39402, pFrameStore_2(D)->bottom_field.err_level
	str	r2, [r0, #460]	@ D.39402, pFrameStore_2(D)->top_field.pic_type
	str	r2, [r0, #496]	@ D.39402, pFrameStore_2(D)->bottom_field.pic_type
	str	r3, [r0, #440]	@ D.39403, pFrameStore_2(D)->top_field.frame_store
	str	r3, [r0, #476]	@ D.39403, pFrameStore_2(D)->bottom_field.frame_store
	ldmfd	sp!, {r4, r5, pc}	@
	.fnend
	.size	SplitFrmToFlds, .-SplitFrmToFlds
	.align	2
	.global	CombineFldsToFrm
	.type	CombineFldsToFrm, %function
CombineFldsToFrm:
	.fnstart
	@ args = 0, pretend = 0, frame = 0
	@ frame_needed = 0, uses_anonymous_args = 0
	ldr	r2, [r0, #488]	@ pFrameStore_4(D)->bottom_field.poc, pFrameStore_4(D)->bottom_field.poc
	ldr	r1, [r0, #452]	@ pFrameStore_4(D)->top_field.poc, pFrameStore_4(D)->top_field.poc
	stmfd	sp!, {r4, r5, lr}	@,
	.save {r4, r5, lr}
	cmp	r2, r1	@ pFrameStore_4(D)->bottom_field.poc, pFrameStore_4(D)->top_field.poc
	ldr	r3, [r0, #492]	@ pFrameStore_4(D)->bottom_field.err_level, pFrameStore_4(D)->bottom_field.err_level
	mov	lr, #3	@ tmp133,
	ldr	r5, [r0, #456]	@ pFrameStore_4(D)->top_field.err_level, pFrameStore_4(D)->top_field.err_level
	movge	r2, r1	@ D.39406, pFrameStore_4(D)->top_field.poc
	ldrb	r4, [r0, #473]	@ zero_extendqisi2	@ pFrameStore_4(D)->bottom_field.is_long_term, pFrameStore_4(D)->bottom_field.is_long_term
	ldr	ip, [r0, #440]	@ pFrameStore_4(D)->top_field.frame_store, pFrameStore_4(D)->top_field.frame_store
	add	r3, r3, r5	@ D.39407, pFrameStore_4(D)->bottom_field.err_level, pFrameStore_4(D)->top_field.err_level
	cmp	r4, #0	@ pFrameStore_4(D)->bottom_field.is_long_term,
	strb	lr, [r0, #400]	@ tmp133, pFrameStore_4(D)->frame.structure
	mov	r3, r3, lsr #1	@ D.39407, D.39407,
	str	r2, [r0, #416]	@ D.39406, pFrameStore_4(D)->frame.poc
	str	ip, [r0, #404]	@ pFrameStore_4(D)->top_field.frame_store, pFrameStore_4(D)->frame.frame_store
	str	r2, [r0, #524]	@ D.39406, pFrameStore_4(D)->poc
	str	r3, [r0, #420]	@ D.39407, pFrameStore_4(D)->frame.err_level
	beq	.L543	@,
	ldrb	r2, [r0, #437]	@ zero_extendqisi2	@ pFrameStore_4(D)->top_field.is_long_term, pFrameStore_4(D)->top_field.is_long_term
	cmp	r2, #0	@ pFrameStore_4(D)->top_field.is_long_term,
	bne	.L544	@,
.L543:
	ldr	r2, [r0, #472]	@ *pFrameStore_4(D), *pFrameStore_4(D)
	mov	r1, #0	@ tmp141,
	strb	r1, [r0, #401]	@ tmp141, pFrameStore_4(D)->frame.is_long_term
	bic	r2, r2, #-16777216	@ D.39407, *pFrameStore_4(D),
	bic	r2, r2, #255	@ D.39407, D.39407,
	cmp	r2, r1	@ D.39407,
	beq	.L548	@,
	ldr	r2, [r0, #436]	@ *pFrameStore_4(D), *pFrameStore_4(D)
	bic	r2, r2, #-16777216	@ D.39407, *pFrameStore_4(D),
	bic	r2, r2, #255	@ D.39407, D.39407,
	cmp	r2, #0	@ D.39407,
	movne	ip, #1	@ D.39409,
	bne	.L546	@,
.L548:
	mov	ip, #0	@ D.39409,
.L546:
	ldr	r2, [r0, #496]	@ pFrameStore_4(D)->bottom_field.pic_type, pFrameStore_4(D)->bottom_field.pic_type
	ldr	r1, [r0, #460]	@ pFrameStore_4(D)->top_field.pic_type, pFrameStore_4(D)->top_field.pic_type
	str	r3, [r0, #544]	@ D.39407, pFrameStore_4(D)->err_level
	cmp	r2, r1	@ pFrameStore_4(D)->bottom_field.pic_type, pFrameStore_4(D)->top_field.pic_type
	strb	ip, [r0, #402]	@ D.39409, pFrameStore_4(D)->frame.is_short_term
	movcs	r3, r2	@ D.39407, pFrameStore_4(D)->bottom_field.pic_type
	movcc	r3, r1	@ D.39407, pFrameStore_4(D)->top_field.pic_type
	str	r3, [r0, #424]	@ D.39407, pFrameStore_4(D)->frame.pic_type
	str	r3, [r0, #540]	@ D.39407, pFrameStore_4(D)->pic_type
	ldmfd	sp!, {r4, r5, pc}	@
.L544:
	mov	r1, #1	@ tmp152,
	strb	r1, [r0, #401]	@ tmp152, pFrameStore_4(D)->frame.is_long_term
	b	.L548	@
	.fnend
	.size	CombineFldsToFrm, .-CombineFldsToFrm
	.align	2
	.global	GetAPC
	.type	GetAPC, %function
GetAPC:
	.fnstart
	@ args = 0, pretend = 0, frame = 0
	@ frame_needed = 0, uses_anonymous_args = 0
	stmfd	sp!, {r4, r5, r6, r7, r8, r9, lr}	@,
	.save {r4, r5, r6, r7, r8, r9, lr}
	subs	r7, r1, #0	@ pFrameStore, pFrameStore
	.pad #12
	sub	sp, sp, #12	@,,
	beq	.L581	@,
	cmp	r2, #1	@ structure,
	mov	r5, r0	@ pH264Ctx, pH264Ctx
	beq	.L561	@,
	cmp	r2, #2	@ structure,
	beq	.L562	@,
	ldr	r8, [r7, #452]	@ bottompoc, pFrameStore_8(D)->top_field.poc
	ldr	r9, [r7, #488]	@ bottompoc, pFrameStore_8(D)->bottom_field.poc
.L563:
	add	r6, r5, #24576	@ tmp177, pH264Ctx,
	ldr	ip, [r6, #2324]	@ D.39425, pH264Ctx_16(D)->APC.size
	cmp	ip, #0	@ D.39425,
	beq	.L572	@,
	ldr	r4, [r6, #2068]	@ pH264Ctx_16(D)->APC.is_used, pH264Ctx_16(D)->APC.is_used
	cmp	r4, #0	@ pH264Ctx_16(D)->APC.is_used,
	addne	r3, r5, #26624	@ ivtmp.706, pH264Ctx,
	movne	r4, #0	@ i,
	addne	r3, r3, #20	@ ivtmp.706, ivtmp.706,
	bne	.L566	@,
	b	.L564	@
.L570:
	ldr	r2, [r3, #4]!	@ MEM[base: _40, offset: 0B], MEM[base: _40, offset: 0B]
	cmp	r2, #0	@ MEM[base: _40, offset: 0B],
	beq	.L564	@,
.L566:
	add	r4, r4, #1	@ i, i,
	cmp	r4, ip	@ i, D.39425
	bne	.L570	@,
.L572:
	mvn	r0, #0	@ D.39423,
.L576:
	add	sp, sp, #12	@,,
	@ sp needed	@
	ldmfd	sp!, {r4, r5, r6, r7, r8, r9, pc}	@
.L562:
	ldr	r8, [r7, #488]	@ bottompoc, pFrameStore_8(D)->bottom_field.poc
	mov	r9, r8	@ bottompoc, bottompoc
	b	.L563	@
.L564:
	add	r3, r5, #49152	@ tmp152, pH264Ctx,
	ldr	r1, [r7, #508]	@, pFrameStore_8(D)->logic_fs_id
	ldr	r0, [r3, #3688]	@, pH264Ctx_16(D)->ChanID
	bl	FSP_GetLogicFs	@
	cmp	r0, #0	@ pstLogicFs
	beq	.L567	@,
	ldr	r3, [r0, #408]	@ pstLogicFs_23->pstDecodeFs, pstLogicFs_23->pstDecodeFs
	cmp	r3, #0	@ pstLogicFs_23->pstDecodeFs,
	beq	.L567	@,
	add	r5, r5, r4, lsl #2	@ D.39432, pH264Ctx, i,
	mov	r3, #1	@ tmp158,
	add	r5, r5, #24576	@ tmp157, D.39432,
	ldr	r1, .L582	@,
	str	r3, [r5, #2068]	@ tmp158, MEM[(struct H264_CTX_S *)_58 + 26644B]
	ldr	r3, [r0, #408]	@ pstLogicFs_23->pstDecodeFs, pstLogicFs_23->pstDecodeFs
	mov	r0, #13	@,
	ldr	r3, [r3, #4]	@ _26->PhyFsID, _26->PhyFsID
	str	r8, [r5, #2196]	@ bottompoc, MEM[(struct H264_CTX_S *)_58 + 26772B]
	str	r9, [r5, #2260]	@ bottompoc, MEM[(struct H264_CTX_S *)_58 + 26836B]
	str	r3, [r5, #2132]	@ _26->PhyFsID, MEM[(struct H264_CTX_S *)_58 + 26708B]
	ldr	r3, [r6, #2328]	@ D.39425, pH264Ctx_16(D)->APC.used_size
	cmp	r3, #15	@ D.39425,
	addls	r3, r3, #1	@ D.39424, D.39425,
	movhi	r3, #16	@ D.39424,
	str	r3, [r6, #2328]	@ D.39424, pH264Ctx_16(D)->APC.used_size
	mov	r3, r4	@, i
	ldr	r2, [r7, #184]	@, pFrameStore_8(D)->fs_image.image_id
	bl	dprint_vfmw	@
	mov	r0, #0	@ D.39423,
	str	r4, [r7, #552]	@ i, pFrameStore_8(D)->apc_idc
	add	sp, sp, #12	@,,
	@ sp needed	@
	ldmfd	sp!, {r4, r5, r6, r7, r8, r9, pc}	@
.L561:
	ldr	r8, [r7, #452]	@ bottompoc, pFrameStore_8(D)->top_field.poc
	mov	r9, r8	@ bottompoc, bottompoc
	b	.L563	@
.L567:
	mov	r1, #0	@ tmp174,
	ldr	r2, [r7, #508]	@ D.39426, pFrameStore_8(D)->logic_fs_id
	ldrb	r3, [r7, #2]	@ zero_extendqisi2	@ D.39426, pFrameStore_8(D)->is_reference
	stmia	sp, {r0, r1}	@,,
	mov	r0, r1	@, tmp174
	ldr	r1, .L582+4	@,
	bl	dprint_vfmw	@
	mvn	r0, #0	@ D.39423,
	b	.L576	@
.L581:
	mov	r0, r7	@, pFrameStore
	movw	r3, #2010	@,
	ldr	r2, .L582+8	@,
	ldr	r1, .L582+12	@,
	bl	dprint_vfmw	@
	mvn	r0, #0	@ D.39423,
	b	.L576	@
.L583:
	.align	2
.L582:
	.word	.LC23
	.word	.LC24
	.word	.LC21
	.word	.LC22
	.fnend
	.size	GetAPC, .-GetAPC
	.align	2
	.global	SlidingWinMark
	.type	SlidingWinMark, %function
SlidingWinMark:
	.fnstart
	@ args = 0, pretend = 0, frame = 0
	@ frame_needed = 0, uses_anonymous_args = 0
	@ link register save eliminated.
	add	r2, r0, #24576	@ tmp116, pH264Ctx,
	add	r3, r0, #16384	@ tmp118, pH264Ctx,
	ldr	r1, [r2, #2060]	@ pH264Ctx_2(D)->DPB.ltref_frames_in_buffer, pH264Ctx_2(D)->DPB.ltref_frames_in_buffer
	ldr	r3, [r3, #1156]	@ pH264Ctx_2(D)->CurrSPS.num_ref_frames, pH264Ctx_2(D)->CurrSPS.num_ref_frames
	ldr	r2, [r2, #2056]	@ pH264Ctx_2(D)->DPB.ref_frames_in_buffer, pH264Ctx_2(D)->DPB.ref_frames_in_buffer
	rsb	r3, r1, r3	@ D.39439, pH264Ctx_2(D)->DPB.ltref_frames_in_buffer, pH264Ctx_2(D)->CurrSPS.num_ref_frames
	cmp	r2, r3	@ pH264Ctx_2(D)->DPB.ref_frames_in_buffer, D.39439
	bxne	lr	@
	b	SlidingWinMark.part.2	@
	.fnend
	.size	SlidingWinMark, .-SlidingWinMark
	.align	2
	.global	SimpleSlideDPB
	.type	SimpleSlideDPB, %function
SimpleSlideDPB:
	.fnstart
	@ args = 0, pretend = 0, frame = 0
	@ frame_needed = 0, uses_anonymous_args = 0
	add	r3, r0, #24576	@ tmp116, pH264Ctx,
	stmfd	sp!, {r4, lr}	@,
	.save {r4, lr}
	mov	r4, r0	@ pH264Ctx, pH264Ctx
	ldr	r1, [r3, #2052]	@ pH264Ctx_4(D)->DPB.used_size, pH264Ctx_4(D)->DPB.used_size
	ldr	r2, [r3, #2048]	@ pH264Ctx_4(D)->DPB.size, pH264Ctx_4(D)->DPB.size
	cmp	r1, r2	@ pH264Ctx_4(D)->DPB.used_size, pH264Ctx_4(D)->DPB.size
	bcs	.L593	@,
.L587:
	add	r0, r4, #49152	@ tmp125, pH264Ctx,
	mov	r2, #0	@ tmp126,
	ldr	r3, [r0, #976]	@ pH264Ctx_4(D)->CurrPic.nal_ref_idc, pH264Ctx_4(D)->CurrPic.nal_ref_idc
	strb	r2, [r0, #556]	@ tmp126, pH264Ctx_4(D)->CurrPic.is_long_term
	cmp	r3, r2	@ pH264Ctx_4(D)->CurrPic.nal_ref_idc,
	movne	r3, #1	@ tmp133,
	strneb	r3, [r0, #557]	@ tmp133, pH264Ctx_4(D)->CurrPic.is_short_term
	ldmfd	sp!, {r4, pc}	@
.L593:
	ldr	r1, [r3, #1856]	@, pH264Ctx_4(D)->DPB.fs
	bl	UnMarkFrameStoreRef	@
	mov	r1, #0	@,
	mov	r0, r4	@, pH264Ctx
	bl	RemoveFrameStoreOutDPB	@
	b	.L587	@
	.fnend
	.size	SimpleSlideDPB, .-SimpleSlideDPB
	.align	2
	.global	ReleaseNAL
	.type	ReleaseNAL, %function
ReleaseNAL:
	.fnstart
	@ args = 0, pretend = 0, frame = 0
	@ frame_needed = 0, uses_anonymous_args = 0
	cmp	r1, #0	@ pNalu
	beq	.L603	@,
	stmfd	sp!, {r4, r5, r6, r7, r8, lr}	@,
	.save {r4, r5, r6, r7, r8, lr}
	mov	r3, #0	@ tmp123,
	add	r8, r1, #56	@ D.39465, pNalu,
	mov	r7, r0	@ ChanID, ChanID
	mov	r5, r1	@ pNalu, pNalu
	mov	r6, r3	@ tmp140, tmp123
	mov	r4, r1	@ ivtmp.727, pNalu
	strb	r3, [r1, #1]	@ tmp123, pNalu_5(D)->is_valid
	strb	r3, [r1, #3]	@ tmp123, pNalu_5(D)->nal_integ
.L597:
	ldr	r3, [r4, #8]	@ MEM[base: _29, offset: 8B], MEM[base: _29, offset: 8B]
	mov	r0, r7	@, ChanID
	cmp	r3, #0	@ MEM[base: _29, offset: 8B],
	beq	.L596	@,
	ldr	r1, [r4, #32]	@, MEM[base: _29, offset: 32B]
	bl	SM_ReleaseStreamSeg	@
	ldr	r3, [r4, #12]	@, MEM[base: _29, offset: 12B]
	ldr	r2, [r4, #8]	@, MEM[base: _29, offset: 8B]
	mov	r0, #7	@,
	ldr	r1, .L604	@,
	bl	dprint_vfmw	@
	str	r6, [r4, #8]	@ tmp140, MEM[base: _29, offset: 8B]
	str	r6, [r4, #24]	@ tmp140, MEM[base: _29, offset: 24B]
	str	r6, [r4, #12]	@ tmp140, MEM[base: _29, offset: 12B]
.L596:
	add	r4, r4, #28	@ ivtmp.727, ivtmp.727,
	cmp	r4, r8	@ ivtmp.727, D.39465
	bne	.L597	@,
	mov	r3, #0	@ tmp135,
	strb	r3, [r5]	@ tmp135, pNalu_5(D)->nal_used_segment
	str	r3, [r5, #68]	@ tmp135, pNalu_5(D)->nal_segment
	ldmfd	sp!, {r4, r5, r6, r7, r8, pc}	@
.L603:
	mov	r0, r1	@, pNalu
	movw	r3, #3880	@,
	ldr	r2, .L604+4	@,
	ldr	r1, .L604+8	@,
	b	dprint_vfmw	@
.L605:
	.align	2
.L604:
	.word	.LC25
	.word	.LC21
	.word	.LC22
	.fnend
	.size	ReleaseNAL, .-ReleaseNAL
	.align	2
	.global	ClearCurrNal
	.type	ClearCurrNal, %function
ClearCurrNal:
	.fnstart
	@ args = 0, pretend = 0, frame = 0
	@ frame_needed = 0, uses_anonymous_args = 0
	ldr	r1, [r0, #368]	@ D.39469, pH264Ctx_3(D)->pCurrNal
	cmp	r1, #0	@ D.39469,
	beq	.L612	@,
	add	r3, r0, #49152	@ tmp115, pH264Ctx,
	stmfd	sp!, {r4, lr}	@,
	.save {r4, lr}
	mov	r4, r0	@ pH264Ctx, pH264Ctx
	ldr	r0, [r3, #3688]	@, pH264Ctx_3(D)->ChanID
	bl	ReleaseNAL	@
	mov	r3, #0	@ tmp117,
	mov	r0, #0	@,
	str	r3, [r4, #368]	@ tmp117, pH264Ctx_3(D)->pCurrNal
	ldmfd	sp!, {r4, pc}	@
.L612:
	mov	r0, #0	@,
	bx	lr	@
	.fnend
	.size	ClearCurrNal, .-ClearCurrNal
	.align	2
	.global	ClearCurrSlice
	.type	ClearCurrSlice, %function
ClearCurrSlice:
	.fnstart
	@ args = 0, pretend = 0, frame = 0
	@ frame_needed = 0, uses_anonymous_args = 0
	stmfd	sp!, {r4, r5, r6, lr}	@,
	.save {r4, r5, r6, lr}
	mov	r5, r0	@ pH264Ctx, pH264Ctx
	ldr	r1, .L619	@,
	mov	r0, #1	@,
	bl	dprint_vfmw	@
	ldr	r1, [r5, #368]	@ D.39474, pH264Ctx_3(D)->pCurrNal
	add	r4, r5, #49152	@ tmp128, pH264Ctx,
	cmp	r1, #0	@ D.39474,
	beq	.L614	@,
	ldr	r0, [r4, #3688]	@, pH264Ctx_3(D)->ChanID
	bl	ReleaseNAL	@
	mov	r3, #0	@ tmp120,
	str	r3, [r5, #368]	@ tmp120, pH264Ctx_3(D)->pCurrNal
.L614:
	ldr	r3, [r4, #3644]	@ pH264Ctx_3(D)->TotalSlice, pH264Ctx_3(D)->TotalSlice
	mov	r0, #0	@,
	add	r3, r3, #1	@ D.39473, pH264Ctx_3(D)->TotalSlice,
	str	r3, [r4, #3644]	@ D.39473, pH264Ctx_3(D)->TotalSlice
	ldmfd	sp!, {r4, r5, r6, pc}	@
.L620:
	.align	2
.L619:
	.word	.LC26
	.fnend
	.size	ClearCurrSlice, .-ClearCurrSlice
	.align	2
	.global	ClearAllNal
	.type	ClearAllNal, %function
ClearAllNal:
	.fnstart
	@ args = 0, pretend = 0, frame = 0
	@ frame_needed = 0, uses_anonymous_args = 0
	stmfd	sp!, {r4, r5, r6, lr}	@,
	.save {r4, r5, r6, lr}
	add	r5, r0, #13504	@ D.39493, pH264Ctx,
	add	r5, r5, #24	@ D.39493, D.39493,
	add	r4, r0, #376	@ ivtmp.745, pH264Ctx,
	add	r6, r0, #49152	@ tmp156, pH264Ctx,
	b	.L623	@
.L622:
	add	r4, r4, #96	@ ivtmp.745, ivtmp.745,
	cmp	r4, r5	@ ivtmp.745, D.39493
	beq	.L626	@,
.L623:
	ldrb	r3, [r4, #1]	@ zero_extendqisi2	@ MEM[base: _17, offset: 1B], MEM[base: _17, offset: 1B]
	cmp	r3, #1	@ MEM[base: _17, offset: 1B],
	bne	.L622	@,
	mov	r1, r4	@, ivtmp.745
	ldr	r0, [r6, #3688]	@, pH264Ctx_5(D)->ChanID
	add	r4, r4, #96	@ ivtmp.745, ivtmp.745,
	bl	ReleaseNAL	@
	cmp	r4, r5	@ ivtmp.745, D.39493
	bne	.L623	@,
.L626:
	mov	r0, #0	@,
	ldmfd	sp!, {r4, r5, r6, pc}	@
	.fnend
	.size	ClearAllNal, .-ClearAllNal
	.align	2
	.global	ClearAllSlice
	.type	ClearAllSlice, %function
ClearAllSlice:
	.fnstart
	@ args = 0, pretend = 0, frame = 0
	@ frame_needed = 0, uses_anonymous_args = 0
	stmfd	sp!, {r4, r5, r6, r7, r8, lr}	@,
	.save {r4, r5, r6, r7, r8, lr}
	add	r4, r0, #50688	@ ivtmp.754, pH264Ctx,
	add	r5, r0, #51200	@ D.39515, pH264Ctx,
	add	r4, r4, #12	@ ivtmp.754, ivtmp.754,
	add	r5, r5, #44	@ D.39515, D.39515,
	add	r6, r0, #49152	@ tmp132, pH264Ctx,
	mov	r7, #0	@ tmp133,
.L629:
	ldr	r1, [r4, #4]!	@ D.39510, MEM[base: _19, offset: 0B]
	cmp	r1, #0	@ D.39510,
	beq	.L628	@,
	ldr	r0, [r6, #3688]	@, pH264Ctx_5(D)->ChanID
	bl	ReleaseNAL	@
	str	r7, [r4]	@ tmp133, MEM[base: _19, offset: 0B]
.L628:
	cmp	r4, r5	@ ivtmp.754, D.39515
	bne	.L629	@,
	mov	r0, #0	@ tmp127,
	str	r0, [r6, #3612]	@ tmp127, pH264Ctx_5(D)->SliceParaNum
	str	r0, [r6, #3672]	@ tmp127, pH264Ctx_5(D)->MaxBytesReceived
	ldmfd	sp!, {r4, r5, r6, r7, r8, pc}	@
	.fnend
	.size	ClearAllSlice, .-ClearAllSlice
	.align	2
	.global	H264_ClearCurrPic
	.type	H264_ClearCurrPic, %function
H264_ClearCurrPic:
	.fnstart
	@ args = 0, pretend = 0, frame = 0
	@ frame_needed = 0, uses_anonymous_args = 0
	stmfd	sp!, {r4, lr}	@,
	.save {r4, lr}
	mov	r4, r0	@ pH264Ctx, pH264Ctx
	bl	ClearAllSlice	@
	add	r0, r4, #12288	@ tmp117, pH264Ctx,
	add	r3, r4, #20480	@ tmp115, pH264Ctx,
	mov	r2, #0	@ tmp124,
	movw	r1, #23352	@ tmp121,
	ldr	r0, [r0, #1288]	@ pH264Ctx_2(D)->MaxPpsNum, pH264Ctx_2(D)->MaxPpsNum
	movt	r1, 1	@ tmp121,
	mov	ip, #2	@ tmp128,
	str	r1, [r3, #1864]	@ tmp121, pH264Ctx_2(D)->PrevSlice.frame_num
	strb	ip, [r3, #1849]	@ tmp128, pH264Ctx_2(D)->PrevSlice.bottom_field_flag
	mov	r1, #7	@ tmp132,
	str	r0, [r3, #1856]	@ pH264Ctx_2(D)->MaxPpsNum, pH264Ctx_2(D)->PrevSlice.pic_parameter_set_id
	mov	r0, #32	@ tmp135,
	str	r1, [r3, #1860]	@ tmp132, pH264Ctx_2(D)->PrevSlice.nal_ref_idc
	mov	r1, #3	@ tmp139,
	strb	r0, [r3, #1850]	@ tmp135, pH264Ctx_2(D)->PrevSlice.nal_unit_type
	mvn	r0, #0	@ tmp142,
	str	r1, [r3, #1872]	@ tmp139, pH264Ctx_2(D)->PrevSlice.pic_oder_cnt_lsb
	mov	r1, #262144	@ tmp151,
	str	r0, [r3, #1876]	@ tmp142, pH264Ctx_2(D)->PrevSlice.delta_pic_oder_cnt_bottom
	mov	r0, r2	@, tmp124
	str	r1, [r3, #1888]	@ tmp151, pH264Ctx_2(D)->PrevSlice.first_mb_in_slice
	strb	r2, [r3, #1848]	@ tmp124, pH264Ctx_2(D)->PrevSlice.field_pic_flag
	str	r2, [r3, #1880]	@ tmp124, pH264Ctx_2(D)->PrevSlice.delta_pic_order_cnt
	str	r2, [r3, #1884]	@ tmp124, pH264Ctx_2(D)->PrevSlice.delta_pic_order_cnt
	ldmfd	sp!, {r4, pc}	@
	.fnend
	.size	H264_ClearCurrPic, .-H264_ClearCurrPic
	.align	2
	.global	H264_ArrangeVahbMem
	.type	H264_ArrangeVahbMem, %function
H264_ArrangeVahbMem:
	.fnstart
	@ args = 4, pretend = 0, frame = 40
	@ frame_needed = 0, uses_anonymous_args = 0
	stmfd	sp!, {r4, r5, r6, r7, r8, lr}	@,
	.save {r4, r5, r6, r7, r8, lr}
	.pad #40
	sub	sp, sp, #40	@,,
	mov	r4, r1	@ ImgWidth, ImgWidth
	mov	r5, r0	@ pH264Ctx, pH264Ctx
	mov	r1, #36	@,
	add	r0, sp, #4	@ tmp179,,
	mov	r6, r2	@ ImgHeight, ImgHeight
	bl	__memzero	@
	ldr	r2, [r5]	@ D.39524, pH264Ctx_7(D)->pstExtraData
	mov	r3, #0	@ tmp138,
	str	r4, [sp, #16]	@ ImgWidth, FspInstCfg.s32DecFsWidth
	str	r6, [sp, #20]	@ ImgHeight, FspInstCfg.s32DecFsHeight
	ldr	r1, [r2, #20]	@ _8->s32DnrDispOutEnable, _8->s32DnrDispOutEnable
	str	r6, [sp, #36]	@ ImgHeight, FspInstCfg.s32DispFsHeight
	ldr	r2, [r2, #32]	@ _8->eCapLevel, _8->eCapLevel
	strb	r1, [sp, #4]	@ _8->s32DnrDispOutEnable, FspInstCfg.s32DispLoopEnable
	cmp	r2, #24	@ _8->eCapLevel,
	str	r4, [sp, #24]	@ ImgWidth, FspInstCfg.s32TfFsWidth
	str	r6, [sp, #28]	@ ImgHeight, FspInstCfg.s32TfFsHeight
	str	r4, [sp, #32]	@ ImgWidth, FspInstCfg.s32DispFsWidth
	strb	r3, [sp, #5]	@ tmp138, FspInstCfg.s32TfEnable
	strb	r3, [sp, #6]	@ tmp138, FspInstCfg.s32RprEnable
	beq	.L638	@,
	add	r1, r5, #24576	@ tmp144, pH264Ctx,
	ldrb	r2, [sp, #64]	@ zero_extendqisi2	@ D.39522, PmvBlkNum
	strb	r3, [sp, #10]	@ tmp138, FspInstCfg.s32ExpectedTfFsNum
	mov	r0, #5	@ tmp151,
	ldr	r3, [r1, #2048]	@ pH264Ctx_7(D)->DPB.size, pH264Ctx_7(D)->DPB.size
	strb	r0, [sp, #11]	@ tmp151, FspInstCfg.s32ExpectedDispFsNum
	add	r3, r3, #1	@ tmp147, pH264Ctx_7(D)->DPB.size,
	strb	r3, [sp, #9]	@ tmp147, FspInstCfg.s32ExpectedDecFsNum
.L642:
	add	r6, r5, #49152	@ tmp160, pH264Ctx,
	add	r1, sp, #4	@ tmp180,,
	strb	r2, [sp, #12]	@ D.39522, FspInstCfg.s32ExpectedPmvNum
	mov	r7, #0	@ tmp154,
	ldr	r0, [r6, #3688]	@, pH264Ctx_7(D)->ChanID
	mov	r4, #1	@ tmp156,
	strb	r7, [sp, #8]	@ tmp154, FspInstCfg.s32UserDec
	strb	r4, [sp, #7]	@ tmp156, FspInstCfg.s8SubLevelEnable
	bl	FSP_ConfigInstance	@
	subs	r8, r0, #0	@ D.39525,
	bne	.L639	@,
	ldr	r1, [r5]	@ D.39524, pH264Ctx_7(D)->pstExtraData
	mov	r3, sp	@,
	ldr	r0, [r6, #3688]	@, pH264Ctx_7(D)->ChanID
	ldr	r2, [r1, #28]	@, _41->s32SyntaxMemSize
	ldr	r1, [r1, #24]	@, _41->s32SyntaxMemAddr
	bl	FSP_PartitionFsMemory	@
	cmp	r0, r7	@,
	moveq	r0, r4	@ D.39523, tmp156
	bne	.L645	@,
.L643:
	add	sp, sp, #40	@,,
	@ sp needed	@
	ldmfd	sp!, {r4, r5, r6, r7, r8, pc}	@
.L638:
	mov	r1, #5	@ tmp175,
	strb	r3, [sp, #9]	@ tmp138, FspInstCfg.s32ExpectedDecFsNum
	strb	r3, [sp, #10]	@ tmp138, FspInstCfg.s32ExpectedTfFsNum
	mov	r2, #1	@ D.39522,
	strb	r1, [sp, #11]	@ tmp175, FspInstCfg.s32ExpectedDispFsNum
	b	.L642	@
.L639:
	mov	r0, r7	@, tmp154
	ldr	r1, .L646	@,
	bl	dprint_vfmw	@
	mvn	r0, #19	@ D.39523,
	b	.L643	@
.L645:
	mov	r0, r8	@, D.39525
	ldr	r1, .L646+4	@,
	bl	dprint_vfmw	@
	mvn	r0, #19	@ D.39523,
	b	.L643	@
.L647:
	.align	2
.L646:
	.word	.LC28
	.word	.LC27
	.fnend
	.size	H264_ArrangeVahbMem, .-H264_ArrangeVahbMem
	.align	2
	.global	RepairList
	.type	RepairList, %function
RepairList:
	.fnstart
	@ args = 0, pretend = 0, frame = 0
	@ frame_needed = 0, uses_anonymous_args = 0
	add	r3, r0, #20480	@ tmp142, pH264Ctx,
	stmfd	sp!, {r4, r5, r6, r7, r8, r9, r10, lr}	@,
	.save {r4, r5, r6, r7, r8, r9, r10, lr}
	mov	r7, r0	@ pH264Ctx, pH264Ctx
	ldrb	r3, [r3, #200]	@ zero_extendqisi2	@ pH264Ctx_17(D)->CurrSlice.slice_type, pH264Ctx_17(D)->CurrSlice.slice_type
	cmp	r3, #1	@ pH264Ctx_17(D)->CurrSlice.slice_type,
	beq	.L650	@,
	bcc	.L665	@,
	cmp	r3, #2	@ pH264Ctx_17(D)->CurrSlice.slice_type,
	bne	.L672	@,
.L666:
	mov	r0, #0	@ D.39586,
	ldmfd	sp!, {r4, r5, r6, r7, r8, r9, r10, pc}	@
.L662:
	mov	r0, r7	@, pH264Ctx
.L672:
	bl	ClearCurrSlice	@
	mvn	r0, #0	@ D.39586,
	ldmfd	sp!, {r4, r5, r6, r7, r8, r9, r10, pc}	@
.L650:
	mov	r0, #2	@ i_list_cnt,
.L651:
	add	r6, r7, #20480	@ ivtmp.800, pH264Ctx,
	add	r4, r7, #26880	@ ivtmp.808, pH264Ctx,
	add	r6, r6, #240	@ ivtmp.800, ivtmp.800,
	add	r4, r4, #156	@ ivtmp.808, ivtmp.808,
	add	r8, r7, #49152	@ tmp161, pH264Ctx,
	mov	r5, #0	@ i_list,
	ldr	r2, [r6, #4]!	@ D.39588, MEM[base: _62, offset: 0B]
	mov	r9, #1	@ tmp160,
	cmp	r2, #0	@ D.39588,
	beq	.L653	@,
.L674:
	ldr	ip, [r4]	@ pRepairPic, MEM[base: _65, offset: 0B]
	cmp	ip, #0	@ pRepairPic,
	bne	.L667	@,
	mov	r1, r4	@ ivtmp.789, ivtmp.808
	mov	r3, ip	@ i, pRepairPic
	b	.L655	@
.L656:
	ldr	lr, [r1, #4]!	@ pRepairPic, MEM[base: _4, offset: 0B]
	cmp	lr, #0	@ pRepairPic,
	bne	.L658	@,
.L655:
	add	r3, r3, #1	@ i, i,
	cmp	r3, r2	@ i, D.39588
	bne	.L656	@,
	ldr	r3, [r7]	@ pH264Ctx_17(D)->pstExtraData, pH264Ctx_17(D)->pstExtraData
	ldr	r3, [r3, #12]	@ _38->s32DecOrderOutput, _38->s32DecOrderOutput
	cmp	r3, #2	@ _38->s32DecOrderOutput,
	bne	.L662	@,
	ldr	lr, [r8, #960]	@ pH264Ctx_17(D)->CurrPic.frame_store, pH264Ctx_17(D)->CurrPic.frame_store
	add	lr, lr, #400	@ pRepairPic, pH264Ctx_17(D)->CurrPic.frame_store,
.L658:
	mov	r1, r4	@ ivtmp.774, ivtmp.808
	mov	r3, #0	@ i,
	b	.L664	@
.L660:
	ldr	ip, [r1, #4]!	@ D.39592, MEM[base: _32, offset: 0B]
.L664:
	add	r3, r3, #1	@ i, i,
	cmp	ip, #0	@ D.39592,
	streq	lr, [r1]	@ pRepairPic, MEM[base: _5, offset: 0B]
	cmp	r3, r2	@ i, D.39588
	bne	.L660	@,
	add	r5, r5, #1	@ i_list, i_list,
	add	r4, r4, #132	@ ivtmp.808, ivtmp.808,
	cmp	r0, r5	@ i_list_cnt, i_list
	bls	.L666	@,
.L673:
	ldr	r2, [r6, #4]!	@ D.39588, MEM[base: _62, offset: 0B]
	cmp	r2, #0	@ D.39588,
	bne	.L674	@,
.L653:
	ldr	r3, [r7]	@ pH264Ctx_17(D)->pstExtraData, pH264Ctx_17(D)->pstExtraData
	ldr	r3, [r3, #12]	@ _21->s32DecOrderOutput, _21->s32DecOrderOutput
	cmp	r3, #2	@ _21->s32DecOrderOutput,
	bne	.L662	@,
	add	r5, r5, #1	@ i_list, i_list,
	str	r9, [r6]	@ tmp160, MEM[base: _62, offset: 0B]
	cmp	r0, r5	@ i_list_cnt, i_list
	ldr	r3, [r8, #960]	@ pH264Ctx_17(D)->CurrPic.frame_store, pH264Ctx_17(D)->CurrPic.frame_store
	add	r4, r4, #132	@ ivtmp.808, ivtmp.808,
	add	r3, r3, #400	@ D.39592, pH264Ctx_17(D)->CurrPic.frame_store,
	str	r3, [r4, #-132]	@ D.39592, MEM[base: _64, offset: 0B]
	bhi	.L673	@,
	b	.L666	@
.L667:
	mov	lr, ip	@ pRepairPic, pRepairPic
	b	.L658	@
.L665:
	mov	r0, #1	@ i_list_cnt,
	b	.L651	@
	.fnend
	.size	RepairList, .-RepairList
	.align	2
	.global	GetShortTermPicPoint
	.type	GetShortTermPicPoint, %function
GetShortTermPicPoint:
	.fnstart
	@ args = 0, pretend = 0, frame = 0
	@ frame_needed = 0, uses_anonymous_args = 0
	add	r3, r0, #20480	@ tmp139, pH264Ctx,
	stmfd	sp!, {r4, r5, lr}	@,
	.save {r4, r5, lr}
	ldrb	r4, [r3, #201]	@ zero_extendqisi2	@ pH264Ctx_6(D)->CurrSlice.field_pic_flag, pH264Ctx_6(D)->CurrSlice.field_pic_flag
	cmp	r4, #0	@ pH264Ctx_6(D)->CurrSlice.field_pic_flag,
	beq	.L676	@,
	ldrb	r3, [r3, #202]	@ zero_extendqisi2	@ pH264Ctx_6(D)->CurrSlice.bottom_field_flag, pH264Ctx_6(D)->CurrSlice.bottom_field_flag
	cmp	r3, #0	@ pH264Ctx_6(D)->CurrSlice.bottom_field_flag,
	movne	r4, #2	@ structure,
	moveq	r4, #1	@ structure,
.L676:
	add	r3, r0, #24576	@ tmp145, pH264Ctx,
	ldr	r5, [r3, #2056]	@ D.39606, pH264Ctx_6(D)->DPB.ref_frames_in_buffer
	cmp	r5, #0	@ D.39606,
	beq	.L684	@,
	add	r3, r0, #26368	@ ivtmp.815, pH264Ctx,
	mov	r2, #0	@ i,
	add	r3, r3, #128	@ ivtmp.815, ivtmp.815,
	b	.L681	@
.L695:
	ldrb	ip, [r0, #2]	@ zero_extendqisi2	@ _25->is_reference, _25->is_reference
	cmp	ip, #3	@ _25->is_reference,
	beq	.L693	@,
.L679:
	add	r2, r2, #1	@ i, i,
	add	r3, r3, #4	@ ivtmp.815, ivtmp.815,
	cmp	r2, r5	@ i, D.39606
	beq	.L694	@,
.L681:
	cmp	r4, #0	@ structure,
	ldr	r0, [r3]	@ D.39603,* ivtmp.815
	beq	.L695	@,
	ldrb	lr, [r0, #2]	@ zero_extendqisi2	@ D.39605, _10->is_reference
	tst	lr, #1	@ D.39605,
	beq	.L680	@,
	ldr	ip, [r0, #436]	@ *_10, *_10
	bic	ip, ip, #-16777216	@ D.39606, *_10,
	bic	ip, ip, #255	@ D.39606, D.39606,
	cmp	ip, #65536	@ D.39606,
	beq	.L696	@,
.L680:
	tst	lr, #2	@ D.39605,
	beq	.L679	@,
	ldr	ip, [r0, #472]	@ *_10, *_10
	bic	ip, ip, #-16777216	@ D.39606, *_10,
	bic	ip, ip, #255	@ D.39606, D.39606,
	cmp	ip, #65536	@ D.39606,
	bne	.L679	@,
	ldr	ip, [r0, #484]	@ _10->bottom_field.pic_num, _10->bottom_field.pic_num
	cmp	ip, r1	@ _10->bottom_field.pic_num, picNum
	bne	.L679	@,
	add	r0, r0, #472	@ D.39604, D.39603,
	ldmfd	sp!, {r4, r5, pc}	@
.L693:
	ldr	ip, [r0, #400]	@ *_25, *_25
	bic	ip, ip, #-16777216	@ D.39606, *_25,
	bic	ip, ip, #255	@ D.39606, D.39606,
	cmp	ip, #65536	@ D.39606,
	bne	.L679	@,
	ldr	ip, [r0, #412]	@ _25->frame.pic_num, _25->frame.pic_num
	cmp	ip, r1	@ _25->frame.pic_num, picNum
	bne	.L679	@,
	add	r0, r0, #400	@ D.39604, D.39603,
	ldmfd	sp!, {r4, r5, pc}	@
.L696:
	ldr	ip, [r0, #448]	@ _10->top_field.pic_num, _10->top_field.pic_num
	cmp	ip, r1	@ _10->top_field.pic_num, picNum
	bne	.L680	@,
	add	r0, r0, #436	@ D.39604, D.39603,
	ldmfd	sp!, {r4, r5, pc}	@
.L694:
	mov	r0, #0	@ D.39604,
	ldmfd	sp!, {r4, r5, pc}	@
.L684:
	mov	r0, r5	@ D.39604, D.39606
	ldmfd	sp!, {r4, r5, pc}	@
	.fnend
	.size	GetShortTermPicPoint, .-GetShortTermPicPoint
	.align	2
	.global	GetLongTermPicPoint
	.type	GetLongTermPicPoint, %function
GetLongTermPicPoint:
	.fnstart
	@ args = 0, pretend = 0, frame = 0
	@ frame_needed = 0, uses_anonymous_args = 0
	add	r3, r0, #20480	@ tmp139, pH264Ctx,
	stmfd	sp!, {r4, r5, lr}	@,
	.save {r4, r5, lr}
	ldrb	r4, [r3, #201]	@ zero_extendqisi2	@ pH264Ctx_6(D)->CurrSlice.field_pic_flag, pH264Ctx_6(D)->CurrSlice.field_pic_flag
	cmp	r4, #0	@ pH264Ctx_6(D)->CurrSlice.field_pic_flag,
	beq	.L698	@,
	ldrb	r3, [r3, #202]	@ zero_extendqisi2	@ pH264Ctx_6(D)->CurrSlice.bottom_field_flag, pH264Ctx_6(D)->CurrSlice.bottom_field_flag
	cmp	r3, #0	@ pH264Ctx_6(D)->CurrSlice.bottom_field_flag,
	movne	r4, #2	@ structure,
	moveq	r4, #1	@ structure,
.L698:
	add	r3, r0, #24576	@ tmp145, pH264Ctx,
	ldr	r5, [r3, #2060]	@ D.39620, pH264Ctx_6(D)->DPB.ltref_frames_in_buffer
	cmp	r5, #0	@ D.39620,
	beq	.L706	@,
	add	r3, r0, #26368	@ ivtmp.822, pH264Ctx,
	mov	r2, #0	@ i,
	add	r3, r3, #192	@ ivtmp.822, ivtmp.822,
	b	.L703	@
.L717:
	ldrb	ip, [r0, #2]	@ zero_extendqisi2	@ _25->is_reference, _25->is_reference
	cmp	ip, #3	@ _25->is_reference,
	beq	.L715	@,
.L701:
	add	r2, r2, #1	@ i, i,
	add	r3, r3, #4	@ ivtmp.822, ivtmp.822,
	cmp	r2, r5	@ i, D.39620
	beq	.L716	@,
.L703:
	cmp	r4, #0	@ structure,
	ldr	r0, [r3]	@ D.39617,* ivtmp.822
	beq	.L717	@,
	ldrb	lr, [r0, #2]	@ zero_extendqisi2	@ D.39619, _10->is_reference
	tst	lr, #1	@ D.39619,
	beq	.L702	@,
	ldr	ip, [r0, #436]	@ *_10, *_10
	bic	ip, ip, #-16777216	@ D.39620, *_10,
	bic	ip, ip, #255	@ D.39620, D.39620,
	cmp	ip, #256	@ D.39620,
	beq	.L718	@,
.L702:
	tst	lr, #2	@ D.39619,
	beq	.L701	@,
	ldr	ip, [r0, #472]	@ *_10, *_10
	bic	ip, ip, #-16777216	@ D.39620, *_10,
	bic	ip, ip, #255	@ D.39620, D.39620,
	cmp	ip, #256	@ D.39620,
	bne	.L701	@,
	ldr	ip, [r0, #480]	@ _10->bottom_field.long_term_pic_num, _10->bottom_field.long_term_pic_num
	cmp	ip, r1	@ _10->bottom_field.long_term_pic_num, LongtermPicNum
	bne	.L701	@,
	add	r0, r0, #472	@ D.39618, D.39617,
	ldmfd	sp!, {r4, r5, pc}	@
.L715:
	ldr	ip, [r0, #400]	@ *_25, *_25
	bic	ip, ip, #-16777216	@ D.39620, *_25,
	bic	ip, ip, #255	@ D.39620, D.39620,
	cmp	ip, #256	@ D.39620,
	bne	.L701	@,
	ldr	ip, [r0, #408]	@ _25->frame.long_term_pic_num, _25->frame.long_term_pic_num
	cmp	ip, r1	@ _25->frame.long_term_pic_num, LongtermPicNum
	bne	.L701	@,
	add	r0, r0, #400	@ D.39618, D.39617,
	ldmfd	sp!, {r4, r5, pc}	@
.L718:
	ldr	ip, [r0, #444]	@ _10->top_field.long_term_pic_num, _10->top_field.long_term_pic_num
	cmp	ip, r1	@ _10->top_field.long_term_pic_num, LongtermPicNum
	bne	.L702	@,
	add	r0, r0, #436	@ D.39618, D.39617,
	ldmfd	sp!, {r4, r5, pc}	@
.L716:
	mov	r0, #0	@ D.39618,
	ldmfd	sp!, {r4, r5, pc}	@
.L706:
	mov	r0, r5	@ D.39618, D.39620
	ldmfd	sp!, {r4, r5, pc}	@
	.fnend
	.size	GetLongTermPicPoint, .-GetLongTermPicPoint
	.align	2
	.global	ReorderSTList
	.type	ReorderSTList, %function
ReorderSTList:
	.fnstart
	@ args = 4, pretend = 0, frame = 0
	@ frame_needed = 0, uses_anonymous_args = 0
	stmfd	sp!, {r4, r5, r6, r7, r8, lr}	@,
	.save {r4, r5, r6, r7, r8, lr}
	mov	r5, r1	@ RefPicListX, RefPicListX
	ldr	r7, [sp, #24]	@ refIdxLX, refIdxLX
	mov	r1, r3	@, picNumLX
	mov	r8, r2	@ num_ref_idx_lX_active_minus1, num_ref_idx_lX_active_minus1
	mov	r6, r3	@ picNumLX, picNumLX
	bl	GetShortTermPicPoint	@
	add	r2, r8, #1	@ cIdx, num_ref_idx_lX_active_minus1,
	ldr	r4, [r7]	@ D.39651, *refIdxLX_14(D)
	cmp	r2, r4	@ cIdx, D.39651
	ble	.L720	@,
	add	lr, r5, r2, lsl #2	@ ivtmp.841, RefPicListX, cIdx,
	mov	ip, r2	@ cIdx, cIdx
.L721:
	ldr	r4, [lr, #-4]!	@ MEM[base: _47, offset: 0B], MEM[base: _47, offset: 0B]
	sub	ip, ip, #1	@ cIdx, cIdx,
	str	r4, [lr, #4]	@ MEM[base: _47, offset: 0B], MEM[base: _47, offset: 4B]
	ldr	r4, [r7]	@ D.39651, *refIdxLX_14(D)
	cmp	r4, ip	@ D.39651, cIdx
	blt	.L721	@,
.L720:
	add	r3, r4, #1	@ D.39651, D.39651,
	str	r3, [r7]	@ D.39651, *refIdxLX_14(D)
	str	r0, [r5, r4, asl #2]	@ picLX, *_31
	ldr	ip, [r7]	@ nIdx, *refIdxLX_14(D)
	cmp	r2, ip	@ cIdx, nIdx
	ldmltfd	sp!, {r4, r5, r6, r7, r8, pc}	@
	add	r4, r5, ip, lsl #2	@ ivtmp.832, RefPicListX, nIdx,
	mov	lr, ip	@ nIdx, nIdx
.L725:
	ldr	r0, [r4], #4	@ D.39652, MEM[base: _61, offset: 0B]
	add	ip, ip, #1	@ nIdx, nIdx,
	cmp	r0, #0	@ D.39652,
	beq	.L723	@,
	ldrb	r3, [r0, #1]	@ zero_extendqisi2	@ _37->is_long_term, _37->is_long_term
	cmp	r3, #0	@ _37->is_long_term,
	bne	.L724	@,
	ldr	r3, [r0, #12]	@ _37->pic_num, _37->pic_num
	cmp	r3, r6	@ _37->pic_num, picNumLX
	beq	.L723	@,
.L724:
	str	r0, [r5, lr, asl #2]	@ D.39652, *_43
	add	lr, lr, #1	@ nIdx, nIdx,
.L723:
	cmp	r2, ip	@ cIdx, nIdx
	bge	.L725	@,
	ldmfd	sp!, {r4, r5, r6, r7, r8, pc}	@
	.fnend
	.size	ReorderSTList, .-ReorderSTList
	.align	2
	.global	ReorderLTList
	.type	ReorderLTList, %function
ReorderLTList:
	.fnstart
	@ args = 4, pretend = 0, frame = 0
	@ frame_needed = 0, uses_anonymous_args = 0
	stmfd	sp!, {r4, r5, r6, r7, r8, lr}	@,
	.save {r4, r5, r6, r7, r8, lr}
	mov	r5, r1	@ RefPicListX, RefPicListX
	ldr	r7, [sp, #24]	@ refIdxLX, refIdxLX
	mov	r1, r3	@, LongTermPicNum
	mov	r8, r2	@ num_ref_idx_lX_active_minus1, num_ref_idx_lX_active_minus1
	mov	r6, r3	@ LongTermPicNum, LongTermPicNum
	bl	GetLongTermPicPoint	@
	add	r2, r8, #1	@ cIdx, num_ref_idx_lX_active_minus1,
	ldr	r4, [r7]	@ D.39686, *refIdxLX_14(D)
	cmp	r2, r4	@ cIdx, D.39686
	ble	.L734	@,
	add	lr, r5, r2, lsl #2	@ ivtmp.869, RefPicListX, cIdx,
	mov	ip, r2	@ cIdx, cIdx
.L735:
	ldr	r4, [lr, #-4]!	@ MEM[base: _47, offset: 0B], MEM[base: _47, offset: 0B]
	sub	ip, ip, #1	@ cIdx, cIdx,
	str	r4, [lr, #4]	@ MEM[base: _47, offset: 0B], MEM[base: _47, offset: 4B]
	ldr	r4, [r7]	@ D.39686, *refIdxLX_14(D)
	cmp	r4, ip	@ D.39686, cIdx
	blt	.L735	@,
.L734:
	add	r3, r4, #1	@ D.39686, D.39686,
	str	r3, [r7]	@ D.39686, *refIdxLX_14(D)
	str	r0, [r5, r4, asl #2]	@ picLX, *_31
	ldr	ip, [r7]	@ nIdx, *refIdxLX_14(D)
	cmp	r2, ip	@ cIdx, nIdx
	ldmltfd	sp!, {r4, r5, r6, r7, r8, pc}	@
	add	r4, r5, ip, lsl #2	@ ivtmp.860, RefPicListX, nIdx,
	mov	lr, ip	@ nIdx, nIdx
.L739:
	ldr	r0, [r4], #4	@ D.39687, MEM[base: _61, offset: 0B]
	add	ip, ip, #1	@ nIdx, nIdx,
	cmp	r0, #0	@ D.39687,
	beq	.L737	@,
	ldrb	r3, [r0, #1]	@ zero_extendqisi2	@ _37->is_long_term, _37->is_long_term
	cmp	r3, #0	@ _37->is_long_term,
	beq	.L738	@,
	ldr	r3, [r0, #8]	@ _37->long_term_pic_num, _37->long_term_pic_num
	cmp	r3, r6	@ _37->long_term_pic_num, LongTermPicNum
	beq	.L737	@,
.L738:
	str	r0, [r5, lr, asl #2]	@ D.39687, *_43
	add	lr, lr, #1	@ nIdx, nIdx,
.L737:
	cmp	r2, ip	@ cIdx, nIdx
	bge	.L739	@,
	ldmfd	sp!, {r4, r5, r6, r7, r8, pc}	@
	.fnend
	.size	ReorderLTList, .-ReorderLTList
	.align	2
	.global	ReorderRefPiclist
	.type	ReorderRefPiclist, %function
ReorderRefPiclist:
	.fnstart
	@ args = 12, pretend = 0, frame = 24
	@ frame_needed = 0, uses_anonymous_args = 0
	add	r2, r0, #20480	@ tmp169, pH264Ctx,
	mov	ip, #0	@ tmp167,
	stmfd	sp!, {r4, r5, r6, r7, r8, r9, r10, fp, lr}	@,
	.save {r4, r5, r6, r7, r8, r9, r10, fp, lr}
	.pad #36
	sub	sp, sp, #36	@,,
	ldrb	lr, [r2, #201]	@ zero_extendqisi2	@ pH264Ctx_14(D)->CurrSlice.field_pic_flag, pH264Ctx_14(D)->CurrSlice.field_pic_flag
	mov	r8, #2208	@ tmp178,
	str	ip, [sp, #28]	@ tmp167, refIdxLX
	mov	r6, #4000	@ tmp185,
	cmp	lr, ip	@ pH264Ctx_14(D)->CurrSlice.field_pic_flag,
	add	lr, r0, #12288	@ tmp176, pH264Ctx,
	ldr	ip, [sp, #72]	@ reordering_of_pic_nums_idc, reordering_of_pic_nums_idc
	ldr	r5, [r2, #212]	@ pH264Ctx_14(D)->CurrSlice.pic_parameter_set_id, pH264Ctx_14(D)->CurrSlice.pic_parameter_set_id
	ldr	r9, [lr, #1296]	@ pH264Ctx_14(D)->PPS, pH264Ctx_14(D)->PPS
	beq	.L751	@,
	ldr	r2, [r2, #220]	@ pH264Ctx_14(D)->CurrSlice.frame_num, pH264Ctx_14(D)->CurrSlice.frame_num
	mov	r4, #2	@ maxPicNum,
	ldr	r7, [lr, #1292]	@ pH264Ctx_14(D)->SPS, pH264Ctx_14(D)->SPS
	mla	lr, r8, r5, r9	@ tmp179, tmp178, pH264Ctx_14(D)->CurrSlice.pic_parameter_set_id, pH264Ctx_14(D)->PPS
	mov	r5, r2, asl #1	@ D.39711, pH264Ctx_14(D)->CurrSlice.frame_num,
	add	r2, r5, #1	@ picNumLXPred, D.39711,
	str	r2, [sp, #20]	@ picNumLXPred, %sfp
.L770:
	ldr	lr, [lr, #28]	@ pps_82->seq_parameter_set_id,
	adds	r10, r3, #2	@ D.39711, num_ref_idx_lX_active_minus1,
	mla	r2, r6, lr, r7	@ tmp186, tmp185, pps_82->seq_parameter_set_id, pH264Ctx_14(D)->SPS
	ldr	r2, [r2, #2904]	@ sps_86->log2_max_frame_num_minus4,
	add	r2, r2, #4	@ D.39711, sps_86->log2_max_frame_num_minus4,
	mov	r2, r4, asl r2	@ maxPicNum, maxPicNum,
	str	r2, [sp, #16]	@ maxPicNum, %sfp
	beq	.L750	@,
	ldr	r2, [ip]	@ D.39711, *reordering_of_pic_nums_idc_39(D)
	cmp	r2, #3	@ D.39711,
	beq	.L750	@,
	mov	r8, r3	@ num_ref_idx_lX_active_minus1, num_ref_idx_lX_active_minus1
	mov	r9, r1	@ list, list
	str	r0, [sp, #12]	@ pH264Ctx, %sfp
	mov	r7, ip	@ ivtmp.888, reordering_of_pic_nums_idc
	ldr	r6, [sp, #76]	@ ivtmp.896, abs_diff_pic_num_minus1
	mov	r4, #0	@ i,
	ldr	r5, [sp, #20]	@ picNumLXPred, %sfp
	add	fp, sp, #28	@ tmp222,,
	b	.L754	@
.L755:
	ldr	r3, [sp, #80]	@ tmp243, long_term_pic_idx
	mov	r2, r8	@, num_ref_idx_lX_active_minus1
	mov	r1, r9	@, list
	ldr	r0, [sp, #12]	@, %sfp
	ldr	r3, [r3, r4, asl #2]	@ MEM[base: long_term_pic_idx_60(D), index: i_73, step: 4, offset: 0B], MEM[base: long_term_pic_idx_60(D), index: i_73, step: 4, offset: 0B]
	add	r4, r4, #1	@ i, i,
	str	fp, [sp]	@ tmp222,
	bl	ReorderLTList	@
	cmp	r4, r10	@ i, D.39711
	beq	.L750	@,
.L760:
	ldr	r2, [r7, #4]!	@ D.39711, MEM[base: _68, offset: 0B]
	add	r6, r6, #4	@ ivtmp.896, ivtmp.896,
	cmp	r2, #3	@ D.39711,
	beq	.L750	@,
.L754:
	cmp	r2, #1	@ D.39711,
	bhi	.L755	@,
	cmp	r2, #0	@ D.39711,
	ldr	r3, [r6]	@ MEM[base: _6, offset: 0B],* ivtmp.896
	bne	.L756	@,
	mvn	r3, r3	@ D.39712, MEM[base: _6, offset: 0B]
	adds	r5, r5, r3	@ picNumLXPred, picNumLXPred, D.39712
	ldrmi	r3, [sp, #16]	@ maxPicNum, %sfp
	addmi	r5, r5, r3	@ picNumLXPred, picNumLXPred, maxPicNum
.L757:
	ldr	r3, [sp, #20]	@ picNumLXPred, %sfp
	mov	r2, r8	@, num_ref_idx_lX_active_minus1
	str	fp, [sp]	@ tmp222,
	mov	r1, r9	@, list
	cmp	r3, r5	@ picNumLXPred, picNumLXPred
	ldr	r0, [sp, #12]	@, %sfp
	add	r4, r4, #1	@ i, i,
	ldrlt	r3, [sp, #16]	@ maxPicNum, %sfp
	movge	r3, r5	@ picNumLXPred, picNumLXPred
	rsblt	r3, r3, r5	@ picNumLXPred, maxPicNum, picNumLXPred
	bl	ReorderSTList	@
	cmp	r4, r10	@ i, D.39711
	bne	.L760	@,
.L750:
	add	sp, sp, #36	@,,
	@ sp needed	@
	ldmfd	sp!, {r4, r5, r6, r7, r8, r9, r10, fp, pc}	@
.L756:
	add	r3, r3, #1	@ D.39712, MEM[base: _11, offset: 0B],
	add	r5, r5, r3	@ picNumLXPred, picNumLXPred, D.39712
	ldr	r3, [sp, #16]	@ maxPicNum, %sfp
	cmp	r3, r5	@ maxPicNum, picNumLXPred
	rsble	r5, r3, r5	@ picNumLXPred, maxPicNum, picNumLXPred
	b	.L757	@
.L751:
	ldr	r2, [r2, #220]	@ picNumLXPred, pH264Ctx_14(D)->CurrSlice.frame_num
	mov	r4, #1	@ tmp219,
	ldr	r7, [lr, #1292]	@ pH264Ctx_14(D)->SPS, pH264Ctx_14(D)->SPS
	mla	lr, r8, r5, r9	@ tmp209, tmp208, pH264Ctx_14(D)->CurrSlice.pic_parameter_set_id, pH264Ctx_14(D)->PPS
	str	r2, [sp, #20]	@ picNumLXPred, %sfp
	b	.L770	@
	.fnend
	.size	ReorderRefPiclist, .-ReorderRefPiclist
	.align	2
	.global	ReorderListX
	.type	ReorderListX, %function
ReorderListX:
	.fnstart
	@ args = 0, pretend = 0, frame = 0
	@ frame_needed = 0, uses_anonymous_args = 0
	stmfd	sp!, {r4, r5, r6, r7, lr}	@,
	.save {r4, r5, r6, r7, lr}
	add	r5, r0, #20480	@ tmp178, pH264Ctx,
	.pad #20
	sub	sp, sp, #20	@,,
	mov	r4, r0	@ pH264Ctx, pH264Ctx
	ldrb	r3, [r5, #200]	@ zero_extendqisi2	@ D.39718, pH264Ctx_4(D)->CurrSlice.slice_type
	cmp	r3, #2	@ D.39718,
	beq	.L771	@,
	add	r6, r0, #16384	@ tmp179, pH264Ctx,
	ldrb	r2, [r6, #3504]	@ zero_extendqisi2	@ pH264Ctx_4(D)->CurrReorder.ref_pic_list_reordering_flag_l0, pH264Ctx_4(D)->CurrReorder.ref_pic_list_reordering_flag_l0
	cmp	r2, #0	@ pH264Ctx_4(D)->CurrReorder.ref_pic_list_reordering_flag_l0,
	bne	.L784	@,
.L774:
	cmp	r3, #1	@ D.39718,
	ldr	r3, [r5, #256]	@ pH264Ctx_4(D)->CurrSlice.num_ref_idx_l0_active_minus1, pH264Ctx_4(D)->CurrSlice.num_ref_idx_l0_active_minus1
	add	r3, r3, #1	@ D.39721, pH264Ctx_4(D)->CurrSlice.num_ref_idx_l0_active_minus1,
	str	r3, [r5, #244]	@ D.39721, pH264Ctx_4(D)->CurrSlice.listXsize
	bne	.L771	@,
	ldrb	r3, [r6, #3505]	@ zero_extendqisi2	@ pH264Ctx_4(D)->CurrReorder.ref_pic_list_reordering_flag_l1, pH264Ctx_4(D)->CurrReorder.ref_pic_list_reordering_flag_l1
	cmp	r3, #0	@ pH264Ctx_4(D)->CurrReorder.ref_pic_list_reordering_flag_l1,
	bne	.L785	@,
.L776:
	ldr	r3, [r5, #260]	@ pH264Ctx_4(D)->CurrSlice.num_ref_idx_l1_active_minus1, pH264Ctx_4(D)->CurrSlice.num_ref_idx_l1_active_minus1
	add	r3, r3, #1	@ D.39721, pH264Ctx_4(D)->CurrSlice.num_ref_idx_l1_active_minus1,
	str	r3, [r5, #248]	@ D.39721, pH264Ctx_4(D)->CurrSlice.listXsize
.L771:
	add	sp, sp, #20	@,,
	@ sp needed	@
	ldmfd	sp!, {r4, r5, r6, r7, pc}	@
.L784:
	add	r7, r0, #20224	@ D.39723, pH264Ctx,
	add	lr, r0, #19968	@ D.39722, pH264Ctx,
	add	ip, r0, #19712	@ D.39722, pH264Ctx,
	add	r1, r0, #26880	@, pH264Ctx,
	ldr	r3, [r5, #256]	@ pH264Ctx_4(D)->CurrSlice.num_ref_idx_l0_active_minus1, pH264Ctx_4(D)->CurrSlice.num_ref_idx_l0_active_minus1
	add	lr, lr, #188	@ D.39722, D.39722,
	add	ip, ip, #180	@ D.39722, D.39722,
	add	r7, r7, #196	@ D.39723, D.39723,
	stmia	sp, {ip, lr}	@,,
	add	r2, r5, #244	@, tmp2,
	str	r7, [sp, #8]	@ D.39723,
	add	r1, r1, #156	@,,
	bl	ReorderRefPiclist	@
	ldrb	r3, [r5, #200]	@ zero_extendqisi2	@ D.39718, pH264Ctx_4(D)->CurrSlice.slice_type
	b	.L774	@
.L785:
	add	lr, r4, #20480	@ D.39723, pH264Ctx,
	add	ip, r4, #20224	@ D.39722, pH264Ctx,
	add	r0, r4, #19968	@ D.39722, pH264Ctx,
	add	r1, r4, #27136	@, pH264Ctx,
	ldr	r3, [r5, #260]	@ pH264Ctx_4(D)->CurrSlice.num_ref_idx_l1_active_minus1, pH264Ctx_4(D)->CurrSlice.num_ref_idx_l1_active_minus1
	mov	r2, lr	@, D.39723
	add	ip, ip, #64	@ D.39722, D.39722,
	add	lr, lr, #68	@ D.39723, D.39723,
	add	r0, r0, #56	@ D.39722, D.39722,
	str	lr, [sp, #8]	@ D.39723,
	stmia	sp, {r0, ip}	@,,
	add	r2, r2, #248	@,,
	add	r1, r1, #32	@,,
	mov	r0, r4	@, pH264Ctx
	bl	ReorderRefPiclist	@
	b	.L776	@
	.fnend
	.size	ReorderListX, .-ReorderListX
	.align	2
	.global	GenPiclistfromFrmlist
	.type	GenPiclistfromFrmlist, %function
GenPiclistfromFrmlist:
	.fnstart
	@ args = 8, pretend = 0, frame = 8
	@ frame_needed = 0, uses_anonymous_args = 0
	stmfd	sp!, {r4, r5, r6, r7, r8, r9, r10, fp, lr}	@,
	.save {r4, r5, r6, r7, r8, r9, r10, fp, lr}
	.pad #12
	sub	sp, sp, #12	@,,
	cmp	r2, #31	@ list_idx,
	ldr	lr, .L850	@ tmp256,
	ldr	r7, [sp, #52]	@ long_term, long_term
	mov	r8, r1	@ fs_list, fs_list
	ldr	ip, .L850+4	@ tmp257,
	movcc	r4, r2	@ list_idx, list_idx
	movcs	r4, #31	@ list_idx,
	cmp	r7, #0	@ long_term,
	str	r3, [sp, #4]	@ list, %sfp
	movne	r7, lr	@ is_ref, tmp256
	moveq	r7, ip	@ is_ref, tmp257
	cmp	r0, #1	@ currStrcture,
	ldr	r10, [sp, #48]	@ list_size, list_size
	moveq	r5, #0	@ bot_idx,
	moveq	r6, r5	@ top_idx, bot_idx
	beq	.L789	@,
	cmp	r0, #2	@ currStrcture,
	moveq	r5, #0	@ bot_idx,
	moveq	r6, r5	@ top_idx, bot_idx
	bne	.L797	@,
.L798:
	cmp	r6, r4	@ top_idx, list_idx
	movcs	r3, #0	@ D.39764,
	movcc	r3, #1	@ D.39764,
	cmp	r5, r4	@ bot_idx, list_idx
	mov	r2, r3	@ D.39764, D.39764
	str	r3, [sp]	@ D.39764, %sfp
	movcs	r3, #0	@ D.39764,
	movcc	r3, #1	@ D.39764,
	orrs	r2, r3, r2	@ tmp259, D.39764, D.39764
	beq	.L797	@,
	cmp	r3, #0	@ D.39764,
	beq	.L803	@,
	add	fp, r8, r5, lsl #2	@ ivtmp.933, fs_list, bot_idx,
	b	.L802	@
.L799:
	add	r5, r5, #1	@ bot_idx, bot_idx,
	cmp	r4, r5	@ list_idx, bot_idx
	bls	.L803	@,
.L802:
	mov	r9, fp	@ D.39763, ivtmp.933
	ldr	r0, [fp], #4	@ D.39765, MEM[base: _90, offset: 0B]
	ldrb	r2, [r0, #1]	@ zero_extendqisi2	@ _91->is_used, _91->is_used
	tst	r2, #2	@ _91->is_used,
	beq	.L799	@,
	add	r0, r0, #472	@, D.39765,
	blx	r7	@ is_ref
	cmp	r0, #0	@,
	beq	.L799	@,
	ldr	r2, [r10]	@ *list_size_47(D), *list_size_47(D)
	add	r5, r5, #1	@ bot_idx, bot_idx,
	ldr	r1, [sp, #4]	@ list, %sfp
	ldr	r3, [r9]	@ *_164, *_164
	add	r3, r3, #472	@ D.39767, *_164,
	str	r3, [r1, r2, asl #2]	@ D.39767, *_102
	ldr	r3, [r10]	@ *list_size_47(D), *list_size_47(D)
	add	r3, r3, #1	@ D.39762, *list_size_47(D),
	str	r3, [r10]	@ D.39762, *list_size_47(D)
.L803:
	ldr	r3, [sp]	@ D.39764, %sfp
	cmp	r3, #0	@ D.39764,
	addne	r9, r8, r6, lsl #2	@ ivtmp.924, fs_list, top_idx,
	bne	.L805	@,
	b	.L798	@
.L804:
	add	r6, r6, #1	@ top_idx, top_idx,
	cmp	r4, r6	@ list_idx, top_idx
	bls	.L798	@,
.L805:
	mov	fp, r9	@ D.39763, ivtmp.924
	ldr	r0, [r9], #4	@ D.39765, MEM[base: _114, offset: 0B]
	ldrb	r3, [r0, #1]	@ zero_extendqisi2	@ _115->is_used, _115->is_used
	tst	r3, #1	@ _115->is_used,
	beq	.L804	@,
	add	r0, r0, #436	@, D.39765,
	blx	r7	@ is_ref
	cmp	r0, #0	@,
	beq	.L804	@,
	ldr	r1, [r10]	@ *list_size_47(D), *list_size_47(D)
	add	r6, r6, #1	@ top_idx, top_idx,
	ldr	r2, [sp, #4]	@ list, %sfp
	ldr	r3, [fp]	@ *_162, *_162
	add	r3, r3, #436	@ D.39767, *_162,
	str	r3, [r2, r1, asl #2]	@ D.39767, *_127
	ldr	r3, [r10]	@ *list_size_47(D), *list_size_47(D)
	add	r3, r3, #1	@ D.39762, *list_size_47(D),
	str	r3, [r10]	@ D.39762, *list_size_47(D)
	b	.L798	@
.L849:
	add	r0, r0, #436	@, D.39765,
	blx	r7	@ is_ref
	cmp	r0, #0	@,
	beq	.L790	@,
	ldr	r2, [r10]	@ *list_size_47(D), *list_size_47(D)
	add	r6, r6, #1	@ top_idx, top_idx,
	ldr	r1, [sp, #4]	@ list, %sfp
	ldr	r3, [r9]	@ *_168, *_168
	add	r3, r3, #436	@ D.39767, *_168,
	str	r3, [r1, r2, asl #2]	@ D.39767, *_51
	ldr	r3, [r10]	@ *list_size_47(D), *list_size_47(D)
	add	r3, r3, #1	@ D.39762, *list_size_47(D),
	str	r3, [r10]	@ D.39762, *list_size_47(D)
.L794:
	ldr	r3, [sp]	@ D.39764, %sfp
	cmp	r3, #0	@ D.39764,
	addne	r9, r8, r5, lsl #2	@ ivtmp.906, fs_list, bot_idx,
	bne	.L796	@,
	b	.L789	@
.L795:
	add	r5, r5, #1	@ bot_idx, bot_idx,
	cmp	r4, r5	@ list_idx, bot_idx
	bls	.L789	@,
.L796:
	mov	fp, r9	@ D.39763, ivtmp.906
	ldr	r0, [r9], #4	@ D.39765, MEM[base: _63, offset: 0B]
	ldrb	r3, [r0, #1]	@ zero_extendqisi2	@ _64->is_used, _64->is_used
	tst	r3, #2	@ _64->is_used,
	beq	.L795	@,
	add	r0, r0, #472	@, D.39765,
	blx	r7	@ is_ref
	cmp	r0, #0	@,
	beq	.L795	@,
	ldr	r1, [r10]	@ *list_size_47(D), *list_size_47(D)
	add	r5, r5, #1	@ bot_idx, bot_idx,
	ldr	r2, [sp, #4]	@ list, %sfp
	ldr	r3, [fp]	@ *_166, *_166
	add	r3, r3, #472	@ D.39767, *_166,
	str	r3, [r2, r1, asl #2]	@ D.39767, *_76
	ldr	r3, [r10]	@ *list_size_47(D), *list_size_47(D)
	add	r3, r3, #1	@ D.39762, *list_size_47(D),
	str	r3, [r10]	@ D.39762, *list_size_47(D)
.L789:
	cmp	r6, r4	@ top_idx, list_idx
	movcs	r3, #0	@ D.39764,
	movcc	r3, #1	@ D.39764,
	cmp	r5, r4	@ bot_idx, list_idx
	movcs	r2, #0	@ D.39764,
	movcc	r2, #1	@ D.39764,
	str	r2, [sp]	@ D.39764, %sfp
	orrs	r2, r2, r3	@ tmp258, D.39764, D.39764
	beq	.L797	@,
	cmp	r3, #0	@ D.39764,
	beq	.L794	@,
	add	fp, r8, r6, lsl #2	@ ivtmp.915, fs_list, top_idx,
	b	.L793	@
.L790:
	add	r6, r6, #1	@ top_idx, top_idx,
	cmp	r4, r6	@ list_idx, top_idx
	bls	.L794	@,
.L793:
	mov	r9, fp	@ D.39763, ivtmp.915
	ldr	r0, [fp], #4	@ D.39765, MEM[base: _37, offset: 0B]
	ldrb	r2, [r0, #1]	@ zero_extendqisi2	@ _38->is_used, _38->is_used
	tst	r2, #1	@ _38->is_used,
	beq	.L790	@,
	b	.L849	@
.L797:
	mov	r0, #0	@,
	add	sp, sp, #12	@,,
	@ sp needed	@
	ldmfd	sp!, {r4, r5, r6, r7, r8, r9, r10, fp, pc}	@
.L851:
	.align	2
.L850:
	.word	IsLTRefFlg
	.word	IsSTRefFlg
	.fnend
	.size	GenPiclistfromFrmlist, .-GenPiclistfromFrmlist
	.align	2
	.global	InitListX
	.type	InitListX, %function
InitListX:
	.fnstart
	@ args = 0, pretend = 0, frame = 208
	@ frame_needed = 0, uses_anonymous_args = 0
	stmfd	sp!, {r4, r5, r6, r7, r8, r9, r10, fp, lr}	@,
	.save {r4, r5, r6, r7, r8, r9, r10, fp, lr}
	add	r6, r0, #20480	@ tmp666, pH264Ctx,
	add	r8, r0, #49152	@ tmp670, pH264Ctx,
	.pad #220
	sub	sp, sp, #220	@,,
	ldrb	r3, [r6, #200]	@ zero_extendqisi2	@ pH264Ctx_69(D)->CurrSlice.slice_type, pH264Ctx_69(D)->CurrSlice.slice_type
	mov	r4, r0	@ pH264Ctx, pH264Ctx
	ldrb	r7, [r8, #555]	@ zero_extendqisi2	@ pH264Ctx_69(D)->CurrPic.structure, pH264Ctx_69(D)->CurrPic.structure
	add	r10, r0, #24576	@ tmp667, pH264Ctx,
	cmp	r3, #0	@ pH264Ctx_69(D)->CurrSlice.slice_type,
	bne	.L853	@,
	cmp	r7, #0	@ pH264Ctx_69(D)->CurrPic.structure,
	bne	.L978	@,
	ldr	ip, [r10, #2056]	@ D.40009, pH264Ctx_69(D)->DPB.ref_frames_in_buffer
	cmp	ip, #0	@ D.40009,
	beq	.L920	@,
	add	r1, r0, #26368	@ ivtmp.977, pH264Ctx,
	mov	r3, r7	@ i, j
	add	r1, r1, #124	@ ivtmp.977, ivtmp.977,
	b	.L859	@
.L858:
	cmp	r3, ip	@ i, D.40009
	beq	.L857	@,
.L859:
	ldr	r2, [r1, #4]!	@ D.40008, MEM[base: _95, offset: 0B]
	add	r3, r3, #1	@ i, i,
	ldrb	r0, [r2, #2]	@ zero_extendqisi2	@ _73->is_reference, _73->is_reference
	cmp	r0, #3	@ _73->is_reference,
	bne	.L858	@,
	ldr	r0, [r2, #400]	@ *_73, *_73
	bic	r0, r0, #-16777216	@ D.40009, *_73,
	bic	r0, r0, #255	@ D.40009, D.40009,
	cmp	r0, #65536	@ D.40009,
	bne	.L858	@,
	add	r0, r7, #6720	@ tmp353, j,
	cmp	r3, ip	@ i, D.40009
	add	r0, r0, #38	@ tmp353, tmp353,
	add	r2, r2, #400	@ D.40010, D.40008,
	add	r7, r7, #1	@ j, j,
	add	r0, r4, r0, lsl #2	@ tmp354, pH264Ctx, tmp353,
	str	r2, [r0, #4]	@ D.40010, pH264Ctx_69(D)->pListX
	bne	.L859	@,
.L857:
	add	r0, r4, #26880	@, pH264Ctx,
	mov	r1, r7	@, j
	ldr	r3, .L986	@,
	add	r0, r0, #156	@,,
	mov	r2, #4	@,
	bl	qsort	@
	str	r7, [r6, #244]	@ j, pH264Ctx_69(D)->CurrSlice.listXsize
	ldr	r1, [r10, #2060]	@ D.40009, pH264Ctx_69(D)->DPB.ltref_frames_in_buffer
	cmp	r1, #0	@ D.40009,
	beq	.L921	@,
	add	r0, r4, #26368	@ ivtmp.966, pH264Ctx,
	mov	r5, r7	@ j, j
	add	r0, r0, #188	@ ivtmp.966, ivtmp.966,
	mov	r3, #0	@ i,
	b	.L862	@
.L861:
	cmp	r3, r1	@ i, D.40009
	beq	.L979	@,
.L862:
	ldr	r2, [r0, #4]!	@ D.40008, MEM[base: _193, offset: 0B]
	add	r3, r3, #1	@ i, i,
	ldrb	ip, [r2, #2]	@ zero_extendqisi2	@ _85->is_reference, _85->is_reference
	cmp	ip, #3	@ _85->is_reference,
	bne	.L861	@,
	ldr	ip, [r2, #400]	@ *_85, *_85
	bic	ip, ip, #-16777216	@ D.40009, *_85,
	bic	ip, ip, #255	@ D.40009, D.40009,
	cmp	ip, #256	@ D.40009,
	bne	.L861	@,
	add	ip, r5, #6720	@ tmp370, j,
	cmp	r3, r1	@ i, D.40009
	add	ip, ip, #38	@ tmp370, tmp370,
	add	r2, r2, #400	@ D.40010, D.40008,
	add	r5, r5, #1	@ j, j,
	add	ip, r4, ip, lsl #2	@ tmp371, pH264Ctx, tmp370,
	str	r2, [ip, #4]	@ D.40010, pH264Ctx_69(D)->pListX
	bne	.L862	@,
.L979:
	rsb	r1, r7, r5	@ D.40009, j, j
.L860:
	add	r0, r4, r7, lsl #2	@ tmp378, pH264Ctx, j,
	ldr	r3, .L986+4	@,
	add	r0, r0, #26880	@, tmp378,
	mov	r2, #4	@,
	add	r0, r0, #156	@,,
	bl	qsort	@
	mov	r2, r5	@ D.40002, j
	cmp	r2, #0	@ D.40002,
	mov	r3, #0	@ tmp413,
	str	r5, [r6, #244]	@ j, pH264Ctx_69(D)->CurrSlice.listXsize
	str	r3, [r6, #248]	@ tmp413, pH264Ctx_69(D)->CurrSlice.listXsize
	beq	.L980	@,
.L868:
	ldr	r0, [r6, #256]	@ pH264Ctx_69(D)->CurrSlice.num_ref_idx_l0_active_minus1, pH264Ctx_69(D)->CurrSlice.num_ref_idx_l0_active_minus1
	ldr	r1, [r6, #260]	@ pH264Ctx_69(D)->CurrSlice.num_ref_idx_l1_active_minus1, pH264Ctx_69(D)->CurrSlice.num_ref_idx_l1_active_minus1
	add	r0, r0, #1	@ D.40009, pH264Ctx_69(D)->CurrSlice.num_ref_idx_l0_active_minus1,
	cmp	r2, r0	@ D.40002, D.40009
	add	r1, r1, #1	@ D.40009, pH264Ctx_69(D)->CurrSlice.num_ref_idx_l1_active_minus1,
	movcs	r2, r0	@ i, D.40009
	cmp	r3, r1	@ D.40002, D.40009
	str	r2, [r6, #244]	@ i, pH264Ctx_69(D)->CurrSlice.listXsize
	movcs	r3, r1	@ i, D.40009
	cmp	r2, #32	@ i,
	str	r3, [r6, #248]	@ i, pH264Ctx_69(D)->CurrSlice.listXsize
	bhi	.L912	@,
	add	r2, r2, #6720	@ D.39999, i,
	add	r1, r4, #27136	@ D.40015, pH264Ctx,
	add	r2, r2, #38	@ D.39999, D.39999,
	add	r1, r1, #28	@ D.40015, D.40015,
	mov	r0, #0	@ tmp672,
	add	r2, r4, r2, lsl #2	@ ivtmp.955, pH264Ctx, D.39999,
.L911:
	str	r0, [r2, #4]!	@ tmp672, MEM[base: _287, offset: 0B]
	cmp	r2, r1	@ ivtmp.955, D.40015
	bne	.L911	@,
.L912:
	cmp	r3, #32	@ i,
	bhi	.L910	@,
	add	r3, r3, #6784	@ D.39999, i,
	add	r2, r4, #27136	@ D.40015, pH264Ctx,
	add	r3, r3, #7	@ D.39999, D.39999,
	add	r2, r2, #160	@ D.40015, D.40015,
	mov	r1, #0	@ tmp671,
	add	r4, r4, r3, lsl #2	@ ivtmp.943, pH264Ctx, D.39999,
.L913:
	str	r1, [r4, #4]!	@ tmp671, MEM[base: _205, offset: 0B]
	cmp	r4, r2	@ ivtmp.943, D.40015
	bne	.L913	@,
.L910:
	mov	r0, #0	@ D.40006,
.L963:
	add	sp, sp, #220	@,,
	@ sp needed	@
	ldmfd	sp!, {r4, r5, r6, r7, r8, r9, r10, fp, pc}	@
.L853:
	cmp	r7, #0	@ pH264Ctx_69(D)->CurrPic.structure,
	ldr	ip, [r10, #2056]	@ D.40009, pH264Ctx_69(D)->DPB.ref_frames_in_buffer
	beq	.L874	@,
	cmp	ip, #0	@ D.40009,
	beq	.L981	@,
	add	r9, r0, #26368	@ ivtmp.1148, pH264Ctx,
	mov	r5, #0	@ j,
	add	r9, r9, #124	@ ivtmp.1148, ivtmp.1148,
	mov	r3, r5	@ i, j
	mov	r1, r9	@ ivtmp.1159, ivtmp.1148
.L893:
	ldr	r2, [r1, #4]!	@ D.40008, MEM[base: _459, offset: 0B]
	add	r3, r3, #1	@ i, i,
	ldrb	r0, [r2, #1]	@ zero_extendqisi2	@ _196->is_used, _196->is_used
	cmp	r0, #0	@ _196->is_used,
	beq	.L892	@,
	add	r0, sp, #216	@ tmp845,,
	ldr	lr, [r8, #980]	@ pH264Ctx_69(D)->CurrPic.thispoc, pH264Ctx_69(D)->CurrPic.thispoc
	add	r7, r0, r5, lsl #2	@ tmp527, tmp845, j,
	ldr	r0, [r2, #524]	@ _196->poc, _196->poc
	cmp	lr, r0	@ pH264Ctx_69(D)->CurrPic.thispoc, _196->poc
	strge	r2, [r7, #-192]	@ D.40008, fs_list0
	addge	r5, r5, #1	@ j, j,
.L892:
	cmp	r3, ip	@ i, D.40009
	bne	.L893	@,
	add	fp, sp, #24	@ tmp661,,
	ldr	r3, .L986+8	@,
	mov	r2, #4	@,
	mov	r1, r5	@, j
	mov	r0, fp	@, tmp661
	bl	qsort	@
	ldr	r7, [r10, #2056]	@ D.40009, pH264Ctx_69(D)->DPB.ref_frames_in_buffer
	cmp	r7, #0	@ D.40009,
	beq	.L975	@,
.L918:
	mov	r1, r9	@ ivtmp.1148, ivtmp.1148
	mov	r3, #0	@ i,
	mov	r9, r5	@ j, j
.L896:
	ldr	r2, [r1, #4]!	@ D.40008, MEM[base: _454, offset: 0B]
	add	r3, r3, #1	@ i, i,
	ldrb	r0, [r2, #1]	@ zero_extendqisi2	@ _206->is_used, _206->is_used
	cmp	r0, #0	@ _206->is_used,
	beq	.L895	@,
	add	r0, sp, #216	@ tmp846,,
	ldr	ip, [r8, #980]	@ pH264Ctx_69(D)->CurrPic.thispoc, pH264Ctx_69(D)->CurrPic.thispoc
	add	lr, r0, r9, lsl #2	@ tmp539, tmp846, j,
	ldr	r0, [r2, #524]	@ _206->poc, _206->poc
	cmp	ip, r0	@ pH264Ctx_69(D)->CurrPic.thispoc, _206->poc
	strlt	r2, [lr, #-192]	@ D.40008, fs_list0
	addlt	r9, r9, #1	@ j, j,
.L895:
	cmp	r3, r7	@ i, D.40009
	bne	.L896	@,
	rsb	r7, r5, r9	@ D.40009, j, j
	mov	r3, r5, asl #2	@ D.39999, j,
	add	r0, fp, r3	@, tmp661, D.39999
	str	r3, [sp, #12]	@ D.39999, %sfp
	mov	r1, r7	@, D.40009
	ldr	r3, .L986+12	@,
	mov	r2, #4	@,
	bl	qsort	@
	cmp	r5, #0	@ j,
	addeq	ip, sp, #88	@ tmp662,,
	beq	.L897	@,
.L915:
	add	ip, sp, #88	@ tmp662,,
	mov	r2, fp	@ ivtmp.1136, tmp661
	add	r7, ip, r7, lsl #2	@ ivtmp.1142, tmp662, D.40009,
	mov	r3, #0	@ j,
.L898:
	add	r3, r3, #1	@ j, j,
	ldr	r1, [r2], #4	@ D.40008, MEM[base: _449, offset: 0B]
	cmp	r3, r5	@ j, j
	str	r1, [r7], #4	@ D.40008, MEM[base: _450, offset: 0B]
	bcc	.L898	@,
.L897:
	cmp	r9, r5	@ j, j
	bls	.L899	@,
	ldr	r3, [sp, #12]	@ D.39999, %sfp
	add	r2, fp, r3	@ ivtmp.1123, tmp661, D.39999
	mov	r3, ip	@ ivtmp.1129, tmp662
.L900:
	add	r5, r5, #1	@ j, j,
	ldr	r1, [r2], #4	@ D.40008, MEM[base: _440, offset: 0B]
	cmp	r5, r9	@ j, j
	str	r1, [r3], #4	@ D.40008, MEM[base: _441, offset: 0B]
	bne	.L900	@,
.L899:
	add	r3, r4, #20480	@ D.40012, pH264Ctx,
	add	r5, r4, #26880	@ ivtmp.1015, pH264Ctx,
	add	r5, r5, #156	@ ivtmp.1015, ivtmp.1015,
	mov	r7, #0	@ tmp551,
	mov	r2, r3	@ D.40012, D.40012
	add	r2, r2, #244	@ D.40012, D.40012,
	str	r7, [r6, #244]	@ tmp551, pH264Ctx_69(D)->CurrSlice.listXsize
	mov	r1, fp	@, tmp661
	str	r7, [r6, #248]	@ tmp551, pH264Ctx_69(D)->CurrSlice.listXsize
	mov	r3, r5	@, ivtmp.1015
	ldrb	r0, [r8, #555]	@ zero_extendqisi2	@ D.40009, pH264Ctx_69(D)->CurrPic.structure
	str	ip, [sp, #20]	@ tmp662, %sfp
	mov	ip, r2	@ D.40012, D.40012
	str	r2, [sp, #12]	@ D.40012, %sfp
	mov	r2, r9	@, j
	str	ip, [sp]	@ D.40012,
	str	r7, [sp, #4]	@ tmp551,
	bl	GenPiclistfromFrmlist	@
	ldr	ip, [sp, #20]	@ tmp662, %sfp
	add	r2, r4, #20480	@ D.40012, pH264Ctx,
	add	r3, r4, #27136	@ D.40011, pH264Ctx,
	ldrb	r0, [r8, #555]	@ zero_extendqisi2	@ D.40009, pH264Ctx_69(D)->CurrPic.structure
	add	r3, r3, #32	@ D.40011, D.40011,
	mov	lr, r2	@ D.40012, D.40012
	mov	r1, ip	@, tmp662
	mov	r2, r9	@, j
	add	ip, lr, #248	@ D.40012, D.40012,
	str	r7, [sp, #4]	@ tmp551,
	str	ip, [sp]	@ D.40012,
	str	r3, [sp, #16]	@ D.40011, %sfp
	str	ip, [sp, #20]	@ D.40012, %sfp
	bl	GenPiclistfromFrmlist	@
	ldr	r9, [r10, #2060]	@ listltidx, pH264Ctx_69(D)->DPB.ltref_frames_in_buffer
	cmp	r9, r7	@ listltidx,
	addeq	fp, sp, #152	@ tmp663,,
	beq	.L901	@,
	add	r3, r4, #26368	@ ivtmp.1105, pH264Ctx,
	add	fp, sp, #152	@ tmp663,,
	add	r3, r3, #188	@ ivtmp.1105, ivtmp.1105,
	mov	r2, fp	@ ivtmp.1115, tmp663
.L902:
	add	r7, r7, #1	@ i, i,
	ldr	r1, [r3, #4]!	@ MEM[base: _432, offset: 0B], MEM[base: _432, offset: 0B]
	cmp	r7, r9	@ i, listltidx
	str	r1, [r2], #4	@ MEM[base: _432, offset: 0B], MEM[base: _433, offset: 0B]
	bne	.L902	@,
.L901:
	ldr	r3, .L986+16	@,
	mov	r2, #4	@,
	mov	r1, r9	@, listltidx
	mov	r0, fp	@, tmp663
	bl	qsort	@
	ldr	r3, [sp, #12]	@ D.40012, %sfp
	ldrb	r0, [r8, #555]	@ zero_extendqisi2	@ D.40009, pH264Ctx_69(D)->CurrPic.structure
	mov	r7, #1	@ tmp579,
	mov	r2, r9	@, listltidx
	mov	r1, fp	@, tmp663
	str	r3, [sp]	@ D.40012,
	mov	r3, r5	@, ivtmp.1015
	str	r7, [sp, #4]	@ tmp579,
	bl	GenPiclistfromFrmlist	@
	ldr	r2, [sp, #20]	@ D.40012, %sfp
	ldrb	r0, [r8, #555]	@ zero_extendqisi2	@ D.40009, pH264Ctx_69(D)->CurrPic.structure
	mov	r1, fp	@, tmp663
	ldr	r3, [sp, #16]	@, %sfp
	str	r2, [sp]	@ D.40012,
	mov	r2, r9	@, listltidx
	str	r7, [sp, #4]	@ tmp579,
	bl	GenPiclistfromFrmlist	@
	ldr	r2, [r6, #244]	@ D.40002, pH264Ctx_69(D)->CurrSlice.listXsize
	ldr	r3, [r6, #248]	@ D.40002, pH264Ctx_69(D)->CurrSlice.listXsize
	rsb	r1, r3, r2	@ D.40005, D.40002, D.40002
	clz	r1, r1	@ D.40005, D.40005
	mov	r1, r1, lsr #5	@ D.40005, D.40005,
.L891:
	cmp	r2, #1	@ D.40002,
	movls	r1, #0	@, tmp595
	andhi	r1, r1, #1	@,, tmp595, D.40005
	cmp	r1, #0	@ tmp595,
	beq	.L903	@,
	cmp	r2, #0	@ D.40002,
	beq	.L904	@,
	ldr	r7, [r10, #2460]	@ D.40010, pH264Ctx_69(D)->pListX
	ldr	r1, [r10, #2592]	@ pH264Ctx_69(D)->pListX, pH264Ctx_69(D)->pListX
	cmp	r7, r1	@ D.40010, pH264Ctx_69(D)->pListX
	bne	.L903	@,
	add	r0, r4, #27136	@ ivtmp.1024, pH264Ctx,
	mov	r1, #0	@ j,
	add	r0, r0, #32	@ ivtmp.1024, ivtmp.1024,
	b	.L905	@
.L906:
	ldr	lr, [r5, #4]!	@ MEM[base: _270, offset: 0B], MEM[base: _270, offset: 0B]
	ldr	ip, [r0, #4]!	@ MEM[base: _261, offset: 0B], MEM[base: _261, offset: 0B]
	cmp	lr, ip	@ MEM[base: _270, offset: 0B], MEM[base: _261, offset: 0B]
	bne	.L903	@,
.L905:
	add	r1, r1, #1	@ j, j,
	cmp	r1, r2	@ j, D.40002
	bne	.L906	@,
.L907:
	ldr	r1, [r10, #2596]	@ pH264Ctx_69(D)->pListX, pH264Ctx_69(D)->pListX
	str	r7, [r10, #2596]	@ D.40010, pH264Ctx_69(D)->pListX
	str	r1, [r10, #2592]	@ pH264Ctx_69(D)->pListX, pH264Ctx_69(D)->pListX
.L903:
	orrs	r1, r2, r3	@ tmp841, D.40002, D.40002
	bne	.L868	@,
	ldr	r1, .L986+20	@,
.L970:
	mov	r0, #1	@,
	bl	dprint_vfmw	@
	mov	r0, r4	@, pH264Ctx
	bl	ClearCurrSlice	@
	mvn	r0, #0	@ D.40006,
	b	.L963	@
.L874:
	cmp	ip, #0	@ D.40009,
	beq	.L877	@,
	add	r9, r0, #26368	@ ivtmp.1148, pH264Ctx,
	mov	r3, r7	@ i, j
	add	r9, r9, #124	@ ivtmp.1148, ivtmp.1148,
	mov	r1, r9	@ ivtmp.1094, ivtmp.1148
	b	.L879	@
.L878:
	cmp	r3, ip	@ i, D.40009
	beq	.L982	@,
.L879:
	ldr	r2, [r1, #4]!	@ D.40008, MEM[base: _424, offset: 0B]
	add	r3, r3, #1	@ i, i,
	ldrb	r0, [r2, #2]	@ zero_extendqisi2	@ _140->is_reference, _140->is_reference
	cmp	r0, #3	@ _140->is_reference,
	bne	.L878	@,
	add	r0, r7, #6720	@ tmp451, j,
	ldr	lr, [r2, #416]	@ _140->frame.poc, _140->frame.poc
	add	r0, r0, #38	@ tmp451, tmp451,
	ldr	r5, [r8, #984]	@ pH264Ctx_69(D)->CurrPic.framepoc, pH264Ctx_69(D)->CurrPic.framepoc
	add	r2, r2, #400	@ D.40010, D.40008,
	add	r0, r4, r0, lsl #2	@ tmp452, pH264Ctx, tmp451,
	cmp	r5, lr	@ pH264Ctx_69(D)->CurrPic.framepoc, _140->frame.poc
	addge	r7, r7, #1	@ j, j,
	strge	r2, [r0, #4]	@ D.40010, pH264Ctx_69(D)->pListX
	cmp	r3, ip	@ i, D.40009
	bne	.L879	@,
.L982:
	add	r5, r4, #26880	@ ivtmp.1015, pH264Ctx,
	ldr	r3, .L986+24	@,
	add	r5, r5, #156	@ ivtmp.1015, ivtmp.1015,
	mov	r2, #4	@,
	mov	r1, r7	@, j
	mov	r0, r5	@, ivtmp.1015
	bl	qsort	@
	ldr	fp, [r10, #2056]	@ D.40009, pH264Ctx_69(D)->DPB.ref_frames_in_buffer
	cmp	fp, #0	@ D.40009,
	beq	.L974	@,
.L916:
	mov	r1, r9	@ ivtmp.1083, ivtmp.1148
	mov	r3, #0	@ i,
	mov	r9, r7	@ j, j
	b	.L882	@
.L881:
	cmp	r3, fp	@ i, D.40009
	beq	.L983	@,
.L882:
	ldr	r2, [r1, #4]!	@ D.40008, MEM[base: _419, offset: 0B]
	add	r3, r3, #1	@ i, i,
	ldrb	r0, [r2, #2]	@ zero_extendqisi2	@ _152->is_reference, _152->is_reference
	cmp	r0, #3	@ _152->is_reference,
	bne	.L881	@,
	add	r0, r9, #6720	@ tmp467, j,
	ldr	ip, [r2, #416]	@ _152->frame.poc, _152->frame.poc
	add	r0, r0, #38	@ tmp467, tmp467,
	ldr	lr, [r8, #984]	@ pH264Ctx_69(D)->CurrPic.framepoc, pH264Ctx_69(D)->CurrPic.framepoc
	add	r2, r2, #400	@ D.40010, D.40008,
	add	r0, r4, r0, lsl #2	@ tmp468, pH264Ctx, tmp467,
	cmp	lr, ip	@ pH264Ctx_69(D)->CurrPic.framepoc, _152->frame.poc
	addlt	r9, r9, #1	@ j, j,
	strlt	r2, [r0, #4]	@ D.40010, pH264Ctx_69(D)->pListX
	cmp	r3, fp	@ i, D.40009
	bne	.L882	@,
.L983:
	add	ip, r7, #6720	@ D.39999, j,
	rsb	fp, r7, r9	@ D.40009, j, j
	add	ip, ip, #38	@ D.39999, D.39999,
	mov	r2, #4	@,
	ldr	r3, .L986+28	@,
	mov	r1, fp	@, D.40009
	add	r0, r4, ip, lsl #2	@ tmp475, pH264Ctx, D.39999,
	str	ip, [sp, #12]	@ D.39999, %sfp
	add	r0, r0, r2	@, tmp475,
	add	r8, r4, r9, lsl #2	@ tmp484, pH264Ctx, j,
	bl	qsort	@
	cmp	r7, #0	@ j,
	add	r8, r8, #26880	@ D.40004, tmp484,
	ldr	ip, [sp, #12]	@ D.39999, %sfp
	add	r8, r8, #156	@ D.40004, D.40004,
	beq	.L884	@,
.L914:
	add	fp, fp, #6784	@ D.39999, D.40009,
	add	r2, r4, #26880	@ ivtmp.1064, pH264Ctx,
	add	fp, fp, #7	@ D.39999, D.39999,
	add	r2, r2, #152	@ ivtmp.1064, ivtmp.1064,
	mov	r3, #0	@ j,
	add	fp, r4, fp, lsl #2	@ ivtmp.1073, pH264Ctx, D.39999,
.L885:
	add	r3, r3, #1	@ j, j,
	ldr	r1, [r2, #4]!	@ D.40010, MEM[base: _308, offset: 0B]
	cmp	r3, r7	@ j, j
	str	r1, [fp, #4]!	@ D.40010, MEM[base: _307, offset: 0B]
	bcc	.L885	@,
.L884:
	cmp	r9, r7	@ j, j
	bls	.L886	@,
	add	r3, r4, #27136	@ ivtmp.1054, pH264Ctx,
	add	ip, r4, ip, lsl #2	@ ivtmp.1045, pH264Ctx, D.39999,
	add	r3, r3, #28	@ ivtmp.1054, ivtmp.1054,
.L887:
	add	r7, r7, #1	@ j, j,
	ldr	r2, [ip, #4]!	@ D.40010, MEM[base: _3, offset: 0B]
	cmp	r7, r9	@ j, j
	str	r2, [r3, #4]!	@ D.40010, MEM[base: _41, offset: 0B]
	bne	.L887	@,
.L886:
	str	r9, [r6, #248]	@ j, pH264Ctx_69(D)->CurrSlice.listXsize
	str	r9, [r6, #244]	@ j, pH264Ctx_69(D)->CurrSlice.listXsize
	ldr	r1, [r10, #2060]	@ D.40009, pH264Ctx_69(D)->DPB.ltref_frames_in_buffer
	cmp	r1, #0	@ D.40009,
	beq	.L923	@,
	add	r0, r4, #26368	@ ivtmp.1033, pH264Ctx,
	mov	r7, r9	@ j, j
	add	r0, r0, #188	@ ivtmp.1033, ivtmp.1033,
	mov	r3, #0	@ i,
	b	.L890	@
.L889:
	cmp	r3, r1	@ i, D.40009
	beq	.L984	@,
.L890:
	ldr	r2, [r0, #4]!	@ D.40008, MEM[base: _58, offset: 0B]
	add	r3, r3, #1	@ i, i,
	ldrb	ip, [r2, #1]	@ zero_extendqisi2	@ _175->is_used, _175->is_used
	cmp	ip, #3	@ _175->is_used,
	bne	.L889	@,
	ldrb	ip, [r2, #401]	@ zero_extendqisi2	@ _175->frame.is_long_term, _175->frame.is_long_term
	cmp	ip, #1	@ _175->frame.is_long_term,
	bne	.L889	@,
	add	ip, r4, r7, lsl #2	@ D.40003, pH264Ctx, j,
	cmp	r3, r1	@ i, D.40009
	add	ip, ip, #24576	@ tmp504, D.40003,
	add	r2, r2, #400	@ D.40010, D.40008,
	add	r7, r7, #1	@ j, j,
	str	r2, [ip, #2460]	@ D.40010, MEM[(struct H264_CTX_S *)_461 + 27036B]
	str	r2, [ip, #2592]	@ D.40010, MEM[(struct H264_CTX_S *)_461 + 27168B]
	bne	.L890	@,
.L984:
	rsb	r1, r9, r7	@ D.40009, j, j
.L888:
	mov	r0, r8	@, D.40004
	ldr	r3, .L986+4	@,
	mov	r2, #4	@,
	bl	qsort	@
	ldr	r0, [r6, #244]	@ D.40009, pH264Ctx_69(D)->CurrSlice.listXsize
	ldr	r3, .L986+4	@,
	mov	r2, #4	@,
	rsb	r1, r0, r7	@, D.40009, j
	add	r0, r4, r0, lsl #2	@ tmp515, pH264Ctx, D.40009,
	add	r0, r0, #27136	@, tmp515,
	add	r0, r0, #32	@,,
	bl	qsort	@
	mov	r3, r7	@ D.40002, j
	str	r7, [r6, #248]	@ j, pH264Ctx_69(D)->CurrSlice.listXsize
	mov	r2, r7	@ D.40002, D.40002
	str	r7, [r6, #244]	@ j, pH264Ctx_69(D)->CurrSlice.listXsize
	mov	r1, #1	@ D.40005,
	b	.L891	@
.L978:
	ldr	lr, [r10, #2056]	@ D.40009, pH264Ctx_69(D)->DPB.ref_frames_in_buffer
	cmp	lr, #0	@ D.40009,
	moveq	r7, lr	@ j, D.40009
	beq	.L856	@,
	add	r1, r0, #26368	@ ivtmp.1004, pH264Ctx,
	mov	r7, r3	@ j, pH264Ctx_69(D)->CurrSlice.slice_type
	add	r1, r1, #124	@ ivtmp.1004, ivtmp.1004,
.L865:
	ldr	r2, [r1, #4]!	@ D.40008, MEM[base: _348, offset: 0B]
	add	r0, sp, #216	@ tmp842,,
	add	ip, r0, r7, lsl #2	@ tmp384, tmp842, j,
	add	r3, r3, #1	@ i, i,
	ldrb	r0, [r2, #2]	@ zero_extendqisi2	@ _100->is_reference, _100->is_reference
	cmp	r0, #0	@ _100->is_reference,
	strne	r2, [ip, #-192]	@ D.40008, fs_list0
	addne	r7, r7, #1	@ j, j,
	cmp	r3, lr	@ i, D.40009
	bne	.L865	@,
.L856:
	add	r9, r4, #26880	@ D.40011, pH264Ctx,
	mov	r1, r7	@, j
	ldr	r3, .L986+32	@,
	mov	r2, #4	@,
	add	r0, sp, #24	@ tmp843,,
	add	r9, r9, #156	@ D.40011, D.40011,
	bl	qsort	@
	add	ip, r4, #20480	@ D.40012, pH264Ctx,
	add	ip, ip, #244	@ D.40012, D.40012,
	mov	r5, #0	@ tmp390,
	mov	r2, r7	@, j
	str	r5, [r6, #244]	@ tmp390, pH264Ctx_69(D)->CurrSlice.listXsize
	add	r1, sp, #24	@ tmp844,,
	ldrb	r0, [r8, #555]	@ zero_extendqisi2	@ D.40009, pH264Ctx_69(D)->CurrPic.structure
	mov	r3, r9	@, D.40011
	str	ip, [sp]	@ D.40012,
	str	r5, [sp, #4]	@ tmp390,
	str	ip, [sp, #12]	@ D.40012, %sfp
	bl	GenPiclistfromFrmlist	@
	ldr	r7, [r10, #2060]	@ listltidx, pH264Ctx_69(D)->DPB.ltref_frames_in_buffer
	ldr	ip, [sp, #12]	@ D.40012, %sfp
	cmp	r7, r5	@ listltidx,
	addeq	fp, sp, #152	@ tmp663,,
	beq	.L866	@,
	add	r3, r4, #26368	@ ivtmp.988, pH264Ctx,
	add	fp, sp, #152	@ tmp663,,
	add	r3, r3, #188	@ ivtmp.988, ivtmp.988,
	mov	r2, fp	@ ivtmp.998, tmp663
.L867:
	add	r5, r5, #1	@ i, i,
	ldr	r1, [r3, #4]!	@ MEM[base: _14, offset: 0B], MEM[base: _14, offset: 0B]
	cmp	r5, r7	@ i, listltidx
	str	r1, [r2], #4	@ MEM[base: _14, offset: 0B], MEM[base: _11, offset: 0B]
	bne	.L867	@,
.L866:
	ldr	r3, .L986+16	@,
	mov	r2, #4	@,
	mov	r1, r7	@, listltidx
	mov	r0, fp	@, tmp663
	str	ip, [sp, #12]	@ D.40012, %sfp
	bl	qsort	@
	ldr	ip, [sp, #12]	@ D.40012, %sfp
	mov	r3, r9	@, D.40011
	ldrb	r0, [r8, #555]	@ zero_extendqisi2	@ D.40009, pH264Ctx_69(D)->CurrPic.structure
	mov	r2, r7	@, listltidx
	mov	r1, fp	@, tmp663
	str	ip, [sp]	@ D.40012,
	mov	ip, #1	@ tmp408,
	str	ip, [sp, #4]	@ tmp408,
	bl	GenPiclistfromFrmlist	@
	ldr	r2, [r6, #244]	@ D.40002, pH264Ctx_69(D)->CurrSlice.listXsize
	mov	r3, #0	@ tmp413,
	str	r3, [r6, #248]	@ tmp413, pH264Ctx_69(D)->CurrSlice.listXsize
	cmp	r2, #0	@ D.40002,
	bne	.L868	@,
.L980:
	ldr	r3, [r4]	@ pH264Ctx_69(D)->pstExtraData, pH264Ctx_69(D)->pstExtraData
	ldr	r3, [r3, #12]	@ _123->s32DecOrderOutput, _123->s32DecOrderOutput
	cmp	r3, #2	@ _123->s32DecOrderOutput,
	bne	.L869	@,
	ldrb	r3, [r8, #555]	@ zero_extendqisi2	@ D.40007, pH264Ctx_69(D)->CurrPic.structure
	cmp	r3, #0	@ D.40007,
	beq	.L985	@,
	cmp	r3, #1	@ D.40007,
	ldr	r3, [r8, #960]	@ pH264Ctx_69(D)->CurrPic.frame_store, pH264Ctx_69(D)->CurrPic.frame_store
	addeq	r3, r3, #436	@ D.40010, pH264Ctx_69(D)->CurrPic.frame_store,
	addne	r3, r3, #472	@ D.40010, pH264Ctx_69(D)->CurrPic.frame_store,
	str	r3, [r10, #2460]	@ D.40010, pH264Ctx_69(D)->pListX
.L871:
	mov	r3, #0	@ D.40002,
	mov	r2, #1	@ D.40002,
	b	.L868	@
.L985:
	ldr	r3, [r8, #960]	@ pH264Ctx_69(D)->CurrPic.frame_store, pH264Ctx_69(D)->CurrPic.frame_store
	add	r3, r3, #400	@ D.40010, pH264Ctx_69(D)->CurrPic.frame_store,
	str	r3, [r10, #2460]	@ D.40010, pH264Ctx_69(D)->pListX
	b	.L871	@
.L904:
	ldr	r7, [r10, #2592]	@ D.40010, pH264Ctx_69(D)->pListX
	b	.L907	@
.L974:
	add	ip, r7, #6720	@ D.39999, j,
	mov	r2, #4	@,
	add	ip, ip, #38	@ D.39999, D.39999,
	ldr	r3, .L986+28	@,
	mov	r1, fp	@, D.40009
	str	ip, [sp, #12]	@ D.39999, %sfp
	add	r8, r4, ip, lsl #2	@ tmp633, pH264Ctx, D.39999,
	add	r8, r8, r2	@ D.40004, tmp633,
	mov	r0, r8	@, D.40004
	bl	qsort	@
	subs	r9, r7, #0	@ j, j
	ldr	ip, [sp, #12]	@ D.39999, %sfp
	bne	.L914	@,
	b	.L886	@
.L975:
	mov	r3, r5, asl #2	@ D.39999, j,
	mov	r1, r7	@, D.40009
	str	r3, [sp, #12]	@ D.39999, %sfp
	mov	r2, r3	@ D.39999, D.39999
	ldr	r3, .L986+12	@,
	add	r0, fp, r2	@, tmp661, D.39999
	mov	r2, #4	@,
	bl	qsort	@
	subs	r9, r5, #0	@ j, j
	bne	.L915	@,
.L971:
	add	ip, sp, #88	@ tmp662,,
	b	.L899	@
.L920:
	mov	r7, ip	@ j, D.40009
	b	.L857	@
.L981:
	add	fp, sp, #24	@ tmp661,,
	mov	r1, ip	@, D.40009
	ldr	r3, .L986+8	@,
	mov	r2, #4	@,
	mov	r0, fp	@, tmp661
	str	ip, [sp, #12]	@ D.40009, %sfp
	bl	qsort	@
	ldr	r7, [r10, #2056]	@ D.40009, pH264Ctx_69(D)->DPB.ref_frames_in_buffer
	ldr	ip, [sp, #12]	@ D.40009, %sfp
	cmp	r7, #0	@ D.40009,
	addne	r9, r4, #26368	@ ivtmp.1148, pH264Ctx,
	movne	r5, ip	@ j, D.40009
	addne	r9, r9, #124	@ ivtmp.1148, ivtmp.1148,
	bne	.L918	@,
	ldr	r3, .L986+12	@,
	mov	r2, #4	@,
	mov	r1, r7	@, D.40009
	mov	r0, fp	@, tmp661
	mov	r9, r7	@ j, tmp1
	bl	qsort	@
	b	.L971	@
.L877:
	add	r5, r0, #26880	@ ivtmp.1015, pH264Ctx,
	mov	r1, ip	@, D.40009
	add	r5, r5, #156	@ ivtmp.1015, ivtmp.1015,
	ldr	r3, .L986+24	@,
	mov	r2, #4	@,
	str	ip, [sp, #12]	@ D.40009, %sfp
	mov	r0, r5	@, ivtmp.1015
	bl	qsort	@
	ldr	fp, [r10, #2056]	@ D.40009, pH264Ctx_69(D)->DPB.ref_frames_in_buffer
	ldr	ip, [sp, #12]	@ D.40009, %sfp
	cmp	fp, #0	@ D.40009,
	addne	r9, r4, #26368	@ ivtmp.1148, pH264Ctx,
	movne	r7, ip	@ j, D.40009
	addne	r9, r9, #124	@ ivtmp.1148, ivtmp.1148,
	bne	.L916	@,
	ldr	r3, .L986+28	@,
	mov	r2, #4	@,
	mov	r1, fp	@, D.40009
	mov	r0, r5	@, ivtmp.1015
	mov	r9, fp	@ j, tmp1
	bl	qsort	@
	mov	r8, r5	@ D.40004, ivtmp.1015
	b	.L886	@
.L921:
	mov	r5, r7	@ j, j
	b	.L860	@
.L923:
	mov	r7, r9	@ j, j
	b	.L888	@
.L869:
	ldr	r1, .L986+36	@,
	b	.L970	@
.L987:
	.align	2
.L986:
	.word	compare_pic_by_pic_num_desc
	.word	compare_pic_by_lt_pic_num_asc
	.word	compare_fs_by_poc_desc
	.word	compare_fs_by_poc_asc
	.word	compare_fs_by_lt_pic_idx_asc
	.word	.LC30
	.word	compare_pic_by_poc_desc
	.word	compare_pic_by_poc_asc
	.word	compare_fs_by_frame_num_desc
	.word	.LC29
	.fnend
	.size	InitListX, .-InitListX
	.align	2
	.global	DumpList
	.type	DumpList, %function
DumpList:
	.fnstart
	@ args = 0, pretend = 0, frame = 0
	@ frame_needed = 0, uses_anonymous_args = 0
	@ link register save eliminated.
	ldr	r3, .L990	@ tmp113,
	ldr	r3, [r3]	@ g_PrintEnable, g_PrintEnable
	tst	r3, #8192	@ g_PrintEnable,
	bxeq	lr	@
	b	DumpList.part.5	@
.L991:
	.align	2
.L990:
	.word	g_PrintEnable
	.fnend
	.size	DumpList, .-DumpList
	.align	2
	.global	FindNearestPOCPicId
	.type	FindNearestPOCPicId, %function
FindNearestPOCPicId:
	.fnstart
	@ args = 0, pretend = 0, frame = 0
	@ frame_needed = 0, uses_anonymous_args = 0
	add	r3, r0, #24576	@ tmp130, pH264Ctx,
	stmfd	sp!, {r4, r5, lr}	@,
	.save {r4, r5, lr}
	ldr	r4, [r3, #2052]	@ D.40039, pH264Ctx_8(D)->DPB.used_size
	cmp	r4, #0	@ D.40039,
	beq	.L997	@,
	ldr	r3, [r3, #1856]	@ pH264Ctx_8(D)->DPB.fs, pH264Ctx_8(D)->DPB.fs
	add	r2, r0, #49152	@ tmp132, pH264Ctx,
	ldr	r5, [r2, #980]	@ curr_poc, pH264Ctx_8(D)->CurrPic.thispoc
	ldr	lr, [r3, #524]	@ _11->poc, _11->poc
	rsb	lr, lr, r5	@ D.40041, _11->poc, curr_poc
	cmp	lr, #0	@ nearest_poc_diff,
	rsblt	lr, lr, #0	@ nearest_poc_diff, D.40041,
	cmp	r4, #1	@ D.40039,
	bls	.L998	@,
	add	r1, r0, #26368	@ ivtmp.1175, pH264Ctx,
	mov	r2, #1	@ i,
	add	r1, r1, #64	@ ivtmp.1175, ivtmp.1175,
	mov	r0, #0	@ nearest_pic_id,
.L996:
	ldr	ip, [r1, #4]!	@ D.40040, MEM[base: _1, offset: 0B]
	add	r2, r2, #1	@ i, i,
	ldr	r3, [ip, #524]	@ _15->poc, _15->poc
	rsb	r3, r3, r5	@ D.40041, _15->poc, curr_poc
	cmp	r3, #0	@ nearest_poc_diff,
	rsblt	r3, r3, #0	@ nearest_poc_diff, D.40041,
	cmp	r3, lr	@ nearest_poc_diff, nearest_poc_diff
	ldrlt	r0, [ip, #184]	@ nearest_pic_id, _15->fs_image.image_id
	movlt	lr, r3	@ nearest_poc_diff, nearest_poc_diff
	cmp	r2, r4	@ i, D.40039
	bne	.L996	@,
	ldmfd	sp!, {r4, r5, pc}	@
.L998:
	mov	r0, #0	@ nearest_pic_id,
	ldmfd	sp!, {r4, r5, pc}	@
.L997:
	mvn	r0, #0	@ D.40038,
	ldmfd	sp!, {r4, r5, pc}	@
	.fnend
	.size	FindNearestPOCPicId, .-FindNearestPOCPicId
	.align	2
	.global	FindMinRefIdx
	.type	FindMinRefIdx, %function
FindMinRefIdx:
	.fnstart
	@ args = 0, pretend = 0, frame = 0
	@ frame_needed = 0, uses_anonymous_args = 0
	add	r3, r0, #20480	@ tmp151, pH264Ctx,
	ldrb	r2, [r3, #200]	@ zero_extendqisi2	@ pH264Ctx_10(D)->CurrSlice.slice_type, pH264Ctx_10(D)->CurrSlice.slice_type
	cmp	r2, #2	@ pH264Ctx_10(D)->CurrSlice.slice_type,
	bxeq	lr	@
	add	r2, r0, #49152	@ tmp154, pH264Ctx,
	stmfd	sp!, {r4, r5, r6, r7, r8, lr}	@,
	.save {r4, r5, r6, r7, r8, lr}
	ldrb	ip, [r2, #555]	@ zero_extendqisi2	@ pH264Ctx_10(D)->CurrPic.structure, pH264Ctx_10(D)->CurrPic.structure
	cmp	ip, #0	@ pH264Ctx_10(D)->CurrPic.structure,
	bne	.L1033	@,
	ldr	lr, [r3, #244]	@ D.40092, pH264Ctx_10(D)->CurrSlice.listXsize
	add	r5, r0, #26880	@ ivtmp.1201, pH264Ctx,
	mov	r7, ip	@ j, i
	cmp	lr, #0	@ D.40092,
	mov	r4, r5	@ ivtmp.1204, ivtmp.1201
	mov	r6, r5	@ ivtmp.1188, ivtmp.1204
	add	r4, r4, #32	@ ivtmp.1204, ivtmp.1204,
	add	r5, r5, #28	@ ivtmp.1201, ivtmp.1201,
	add	r6, r6, #152	@ ivtmp.1188, ivtmp.1188,
	beq	.L1009	@,
.L1035:
	mov	r2, r6	@ ivtmp.1188, ivtmp.1188
	mov	r0, #32	@ minrefidx,
	mov	r3, #0	@ j,
	b	.L1007	@
.L1006:
	add	r3, r3, #1	@ j, j,
	cmp	r3, lr	@ j, D.40092
	beq	.L1034	@,
.L1007:
	ldr	r1, [r2, #4]!	@ MEM[base: _61, offset: 0B], MEM[base: _61, offset: 0B]
	ldr	r1, [r1, #4]	@ _34->frame_store, _34->frame_store
	ldr	r1, [r1, #552]	@ _35->apc_idc, _35->apc_idc
	cmp	r1, ip	@ _35->apc_idc, i
	bne	.L1006	@,
	cmp	r0, r3	@ minrefidx, j
	movcs	r0, r3	@ minrefidx, j
	add	r3, r3, #1	@ j, j,
	cmp	r3, lr	@ j, D.40092
	str	r0, [r4, #-4]	@ minrefidx, MEM[base: _67, offset: 4294967292B]
	str	r0, [r5, #4]	@ minrefidx, MEM[base: _57, offset: 4B]
	bne	.L1007	@,
.L1034:
	cmp	r0, #31	@ minrefidx,
	bhi	.L1009	@,
.L1008:
	add	ip, ip, #1	@ i, i,
	add	r5, r5, #8	@ ivtmp.1201, ivtmp.1201,
	cmp	ip, #16	@ i,
	add	r4, r4, #8	@ ivtmp.1204, ivtmp.1204,
	ldmeqfd	sp!, {r4, r5, r6, r7, r8, pc}	@
	cmp	lr, #0	@ D.40092,
	bne	.L1035	@,
.L1009:
	str	r7, [r4, #-4]	@ j, MEM[base: _18, offset: 4294967292B]
	str	r7, [r5, #4]	@ j, MEM[base: _68, offset: 4B]
	b	.L1008	@
.L1033:
	ldr	r5, [r3, #244]	@ D.40092, pH264Ctx_10(D)->CurrSlice.listXsize
	add	r6, r0, #26880	@ ivtmp.1221, pH264Ctx,
	mov	lr, #0	@ i,
	cmp	r5, #0	@ D.40092,
	mov	r7, r6	@ ivtmp.1208, ivtmp.1221
	mov	r8, lr	@ j, i
	add	r6, r6, #28	@ ivtmp.1221, ivtmp.1221,
	add	r7, r7, #152	@ ivtmp.1208, ivtmp.1208,
	beq	.L1013	@,
.L1037:
	mov	r1, r7	@ ivtmp.1208, ivtmp.1208
	mov	r4, #32	@ minrefidx,
	mov	r2, #0	@ j,
	b	.L1011	@
.L1010:
	add	r2, r2, #1	@ j, j,
	cmp	r2, r5	@ j, D.40092
	beq	.L1036	@,
.L1011:
	ldr	r3, [r1, #4]!	@ D.40090, MEM[base: _45, offset: 0B]
	ldr	ip, [r3, #4]	@ _14->frame_store, _14->frame_store
	ldrb	r0, [r3]	@ zero_extendqisi2	@ _14->structure, _14->structure
	ldr	r3, [ip, #552]	@ _15->apc_idc, _15->apc_idc
	mov	r3, r3, asl #1	@ D.40092, _15->apc_idc,
	cmp	r0, #2	@ _14->structure,
	orreq	r3, r3, #1	@,, D.40092, D.40092
	cmp	r3, lr	@ D.40092, i
	bne	.L1010	@,
	cmp	r4, r2	@ minrefidx, j
	movcs	r4, r2	@ minrefidx, j
	add	r2, r2, #1	@ j, j,
	cmp	r2, r5	@ j, D.40092
	str	r4, [r6]	@ minrefidx, MEM[base: _6, offset: 0B]
	bne	.L1011	@,
.L1036:
	cmp	r4, #31	@ minrefidx,
	bhi	.L1013	@,
.L1012:
	add	lr, lr, #1	@ i, i,
	add	r6, r6, #4	@ ivtmp.1221, ivtmp.1221,
	cmp	lr, #32	@ i,
	ldmeqfd	sp!, {r4, r5, r6, r7, r8, pc}	@
	cmp	r5, #0	@ D.40092,
	bne	.L1037	@,
.L1013:
	str	r8, [r6]	@ j, MEM[base: _4, offset: 0B]
	b	.L1012	@
	.fnend
	.size	FindMinRefIdx, .-FindMinRefIdx
	.align	2
	.global	DecList
	.type	DecList, %function
DecList:
	.fnstart
	@ args = 0, pretend = 0, frame = 0
	@ frame_needed = 0, uses_anonymous_args = 0
	stmfd	sp!, {r4, r5, r6, lr}	@,
	.save {r4, r5, r6, lr}
	mov	r6, r0	@ pH264Ctx, pH264Ctx
	bl	FindNearestPOCPicId	@
	add	r5, r6, #20480	@ tmp154, pH264Ctx,
	mvn	r4, #0	@ tmp129,
	ldrb	r3, [r5, #200]	@ zero_extendqisi2	@ pH264Ctx_4(D)->CurrSlice.slice_type, pH264Ctx_4(D)->CurrSlice.slice_type
	str	r4, [r5, #1828]	@ tmp129, pH264Ctx_4(D)->CurrSlice.picid_refidx0
	cmp	r3, #2	@ pH264Ctx_4(D)->CurrSlice.slice_type,
	str	r0, [r5, #1832]	@, pH264Ctx_4(D)->CurrSlice.picid_nearpoc
	beq	.L1052	@,
	mov	r0, r6	@, pH264Ctx
	bl	InitListX	@
	cmp	r0, #0	@,
	bne	.L1053	@,
	ldr	r4, .L1056	@ tmp155,
	mov	r0, #13	@,
	ldr	r1, .L1056+4	@,
	bl	dprint_vfmw	@
	ldr	r3, [r4]	@ g_PrintEnable, g_PrintEnable
	tst	r3, #8192	@ g_PrintEnable,
	bne	.L1054	@,
.L1042:
	mov	r0, r6	@, pH264Ctx
	bl	ReorderListX	@
	mov	r0, r6	@, pH264Ctx
	bl	RepairList	@
	cmp	r0, #0	@,
	bne	.L1044	@,
	mov	r0, r6	@, pH264Ctx
	bl	FindMinRefIdx	@
	add	r3, r6, #24576	@ tmp145, pH264Ctx,
	mov	r0, #13	@,
	ldr	r1, .L1056+8	@,
	ldr	r3, [r3, #2460]	@ D.40106, pH264Ctx_4(D)->pListX
	cmp	r3, #0	@ D.40106,
	ldrne	r3, [r3, #4]	@ _24->frame_store, _24->frame_store
	mvneq	r3, #0	@ D.40102,
	ldrne	r3, [r3, #184]	@ D.40102, _25->fs_image.image_id
	str	r3, [r5, #1828]	@ D.40102, pH264Ctx_4(D)->CurrSlice.picid_refidx0
	bl	dprint_vfmw	@
	ldr	r4, [r4]	@ g_PrintEnable, g_PrintEnable
	ands	r4, r4, #8192	@ D.40105, g_PrintEnable,
	bne	.L1055	@,
	mov	r0, #0	@ D.40102,
	ldmfd	sp!, {r4, r5, r6, pc}	@
.L1055:
	mov	r0, r6	@, pH264Ctx
	bl	DumpList.part.5	@
	mov	r0, #0	@ D.40102,
	ldmfd	sp!, {r4, r5, r6, pc}	@
.L1052:
	mov	r0, #0	@ tmp135,
	str	r0, [r5, #244]	@ tmp135, pH264Ctx_4(D)->CurrSlice.listXsize
	str	r0, [r5, #248]	@ tmp135, pH264Ctx_4(D)->CurrSlice.listXsize
	ldmfd	sp!, {r4, r5, r6, pc}	@
.L1054:
	mov	r0, r6	@, pH264Ctx
	bl	DumpList.part.5	@
	b	.L1042	@
.L1044:
	mvn	r0, #0	@ D.40102,
	ldmfd	sp!, {r4, r5, r6, pc}	@
.L1053:
	ldr	r1, .L1056+12	@,
	mov	r0, #13	@,
	bl	dprint_vfmw	@
	mov	r0, r4	@ D.40102, tmp129
	ldmfd	sp!, {r4, r5, r6, pc}	@
.L1057:
	.align	2
.L1056:
	.word	g_PrintEnable
	.word	.LC32
	.word	.LC33
	.word	.LC31
	.fnend
	.size	DecList, .-DecList
	.align	2
	.global	GetBackPicFromVOQueue
	.type	GetBackPicFromVOQueue, %function
GetBackPicFromVOQueue:
	.fnstart
	@ args = 0, pretend = 0, frame = 0
	@ frame_needed = 0, uses_anonymous_args = 0
	stmfd	sp!, {r4, r5, r6, r7, r8, r9, r10, lr}	@,
	.save {r4, r5, r6, r7, r8, r9, r10, lr}
	add	r7, r0, #49152	@ tmp152, pH264Ctx,
	mov	r9, r0	@ pH264Ctx, pH264Ctx
	ldr	r0, [r7, #3688]	@, pH264Ctx_10(D)->ChanID
	bl	FSP_GetFspType	@
	cmp	r0, #0	@,
	beq	.L1076	@,
.L1059:
	ldr	r3, [r7, #2164]	@ pH264Ctx_10(D)->TotalFsNum, pH264Ctx_10(D)->TotalFsNum
	cmp	r3, #0	@ pH264Ctx_10(D)->TotalFsNum,
	addne	r5, r9, #27392	@ ivtmp.1259, pH264Ctx,
	movne	r8, #0	@ i,
	addne	r5, r5, #124	@ ivtmp.1259, ivtmp.1259,
	movne	r6, r8	@ tmp155, i
	beq	.L1066	@,
.L1065:
	sub	r4, r5, #16	@ ivtmp.1245, ivtmp.1259,
	strb	r6, [r5, #-211]	@ tmp155, MEM[base: _51, offset: 4294967085B]
	strb	r6, [r5, #-210]	@ tmp155, MEM[base: _51, offset: 4294967086B]
.L1064:
	ldr	r1, [r4, #4]!	@ D.40151, MEM[base: _38, offset: 0B]
	cmp	r1, #0	@ D.40151,
	beq	.L1063	@,
	ldr	r0, [r7, #3688]	@, pH264Ctx_10(D)->ChanID
	bl	FreeUsdByDec	@
	str	r6, [r4]	@ tmp155, MEM[base: _38, offset: 0B]
.L1063:
	cmp	r4, r5	@ ivtmp.1245, ivtmp.1259
	bne	.L1064	@,
	ldr	r3, [r7, #2164]	@ pH264Ctx_10(D)->TotalFsNum, pH264Ctx_10(D)->TotalFsNum
	add	r8, r8, #1	@ i, i,
	add	r5, r5, #560	@ ivtmp.1259, ivtmp.1259,
	cmp	r3, r8	@ pH264Ctx_10(D)->TotalFsNum, i
	bhi	.L1065	@,
.L1066:
	ldr	r1, [r7, #2168]	@ D.40149, pH264Ctx_10(D)->TotalPmvNum
	cmp	r1, #0	@ D.40149,
	beq	.L1077	@,
	add	r2, r9, #51200	@ ivtmp.1231, pH264Ctx,
	mov	r3, #0	@ i,
	add	r2, r2, #44	@ ivtmp.1231, ivtmp.1231,
	mov	r0, r3	@ tmp153, i
.L1067:
	add	r3, r3, #1	@ i, i,
	str	r0, [r2, #4]!	@ tmp153, MEM[base: _19, offset: 0B]
	cmp	r3, r1	@ i, D.40149
	bne	.L1067	@,
	ldmfd	sp!, {r4, r5, r6, r7, r8, r9, r10, pc}	@
.L1076:
	add	r0, r9, #8	@, pH264Ctx,
	bl	ResetVoQueue	@
	b	.L1059	@
.L1077:
	ldmfd	sp!, {r4, r5, r6, r7, r8, r9, r10, pc}	@
	.fnend
	.size	GetBackPicFromVOQueue, .-GetBackPicFromVOQueue
	.align	2
	.global	wait_vo
	.type	wait_vo, %function
wait_vo:
	.fnstart
	@ args = 0, pretend = 0, frame = 0
	@ frame_needed = 0, uses_anonymous_args = 0
	@ link register save eliminated.
	bx	lr	@
	.fnend
	.size	wait_vo, .-wait_vo
	.align	2
	.global	GetReRangeFlag
	.type	GetReRangeFlag, %function
GetReRangeFlag:
	.fnstart
	@ args = 0, pretend = 0, frame = 8
	@ frame_needed = 0, uses_anonymous_args = 0
	stmfd	sp!, {r4, r5, r6, r7, r8, lr}	@,
	.save {r4, r5, r6, r7, r8, lr}
	add	r3, r0, #20480	@ tmp164, pH264Ctx,
	add	r6, r0, #12288	@ tmp222, pH264Ctx,
	mov	lr, #2208	@ tmp169,
	ldr	r3, [r3, #212]	@ pH264Ctx_4(D)->CurrSlice.pic_parameter_set_id, pH264Ctx_4(D)->CurrSlice.pic_parameter_set_id
	mov	r4, #4000	@ tmp173,
	ldr	ip, [r6, #1296]	@ pH264Ctx_4(D)->PPS, pH264Ctx_4(D)->PPS
	mov	r7, r0	@ pH264Ctx, pH264Ctx
	ldr	r2, [r6, #1292]	@ pH264Ctx_4(D)->SPS, pH264Ctx_4(D)->SPS
	mov	r5, r1	@ p_dpb_changed, p_dpb_changed
	ldr	r0, [r6, #1272]	@ D.40160, pH264Ctx_4(D)->CurWidthInMb
	.pad #8
	sub	sp, sp, #8	@,,
	mla	r3, lr, r3, ip	@ tmp170, tmp169, pH264Ctx_4(D)->CurrSlice.pic_parameter_set_id, pH264Ctx_4(D)->PPS
	ldr	r1, [r6, #1276]	@ D.40160, pH264Ctx_4(D)->CurHeightInMb
	ldr	r3, [r3, #28]	@ pPPS_8->seq_parameter_set_id, pPPS_8->seq_parameter_set_id
	mla	r4, r4, r3, r2	@ pSPS, tmp173, pPPS_8->seq_parameter_set_id, pH264Ctx_4(D)->SPS
	ldrb	r3, [r4, #18]	@ zero_extendqisi2	@ D.40160, pSPS_12->frame_mbs_only_flag
	ldr	ip, [r4, #3960]	@ pSPS_12->pic_height_in_map_units_minus1, pSPS_12->pic_height_in_map_units_minus1
	rsb	r3, r3, #2	@ D.40160, D.40160,
	ldr	r2, [r4, #3956]	@ pSPS_12->pic_width_in_mbs_minus1, pSPS_12->pic_width_in_mbs_minus1
	mla	r3, ip, r3, r3	@ newh, pSPS_12->pic_height_in_map_units_minus1, D.40160, D.40160
	add	r2, r2, #1	@ neww, pSPS_12->pic_width_in_mbs_minus1,
	cmp	r2, r0	@ neww, D.40160
	cmpeq	r3, r1	@, newh, D.40160
	movne	ip, #1	@ tmp190,
	moveq	ip, #0	@ tmp190,
	bne	.L1080	@,
	add	r8, r7, #24576	@ tmp192, pH264Ctx,
	ldr	lr, [r4, #3980]	@ D.40165, pSPS_12->dpb_size_plus1
	ldr	r8, [r8, #2048]	@ pH264Ctx_4(D)->DPB.size, pH264Ctx_4(D)->DPB.size
	add	r8, r8, #1	@ D.40158, pH264Ctx_4(D)->DPB.size,
	cmp	lr, r8	@ D.40165, D.40158
	movls	r2, ip	@ D.40158, tmp190
	movls	r0, r2	@ ReRangeFlg, D.40158
	bls	.L1081	@,
.L1080:
	ldr	ip, .L1086	@ tmp195,
	ldr	ip, [ip]	@ D.40163, g_event_report
	cmp	ip, #0	@ D.40163,
	beq	.L1085	@,
	add	lr, r7, #49152	@ tmp206, pH264Ctx,
	mov	r0, r0, asl #4	@ tmp197, D.40160,
	mov	r1, r1, asl #4	@ tmp199, D.40160,
	strh	r0, [sp]	@ movhi	@ tmp197, para
	strh	r1, [sp, #2]	@ movhi	@ tmp199, para
	mov	r2, r2, asl #4	@ tmp201, neww,
	mov	r3, r3, asl #4	@ tmp203, newh,
	strh	r2, [sp, #4]	@ movhi	@ tmp201, para
	ldr	r0, [lr, #3688]	@, pH264Ctx_4(D)->ChanID
	mov	r2, sp	@,
	strh	r3, [sp, #6]	@ movhi	@ tmp203, para
	mov	r1, #2	@,
	blx	ip	@ D.40163
	ldr	lr, [r4, #3980]	@ D.40165, pSPS_12->dpb_size_plus1
	mov	r2, #1	@ D.40158,
	mov	r0, r2	@ ReRangeFlg, D.40158
.L1081:
	add	r3, r7, #16384	@ tmp209, pH264Ctx,
	ldr	r6, [r6, #2044]	@ pH264Ctx_4(D)->CurrSPS.seq_parameter_set_id, pH264Ctx_4(D)->CurrSPS.seq_parameter_set_id
	ldr	ip, [r4, #744]	@ pSPS_12->seq_parameter_set_id, pSPS_12->seq_parameter_set_id
	ldr	r1, [r3, #1184]	@ pH264Ctx_4(D)->CurrSPS.dpb_size_plus1, pH264Ctx_4(D)->CurrSPS.dpb_size_plus1
	cmp	r6, ip	@ pH264Ctx_4(D)->CurrSPS.seq_parameter_set_id, pSPS_12->seq_parameter_set_id
	cmpeq	r1, lr	@, pH264Ctx_4(D)->CurrSPS.dpb_size_plus1, D.40165
	movne	r3, #1	@ dpb_changed,
	moveq	r3, #0	@ dpb_changed,
	orr	r2, r3, r2	@ dpb_changed, dpb_changed, D.40158
	str	r2, [r5]	@ dpb_changed, *p_dpb_changed_59(D)
	add	sp, sp, #8	@,,
	@ sp needed	@
	ldmfd	sp!, {r4, r5, r6, r7, r8, pc}	@
.L1085:
	mov	r2, #1	@ D.40158,
	ldr	lr, [r4, #3980]	@ D.40165, pSPS_12->dpb_size_plus1
	mov	r0, r2	@ ReRangeFlg, D.40158
	b	.L1081	@
.L1087:
	.align	2
.L1086:
	.word	g_event_report
	.fnend
	.size	GetReRangeFlag, .-GetReRangeFlag
	.global	__aeabi_uidiv
	.global	__aeabi_uidivmod
	.align	2
	.global	DecPOC
	.type	DecPOC, %function
DecPOC:
	.fnstart
	@ args = 0, pretend = 0, frame = 0
	@ frame_needed = 0, uses_anonymous_args = 0
	stmfd	sp!, {r4, r5, r6, r7, r8, r9, r10, lr}	@,
	.save {r4, r5, r6, r7, r8, r9, r10, lr}
	add	r2, r0, #12288	@ tmp233, pH264Ctx,
	add	r6, r0, #20480	@ tmp539, pH264Ctx,
	mov	r4, #2208	@ tmp241,
	ldr	r3, [r2, #1296]	@ pH264Ctx_22(D)->PPS, pH264Ctx_22(D)->PPS
	mov	r5, #4000	@ tmp245,
	ldr	r1, [r6, #212]	@ pH264Ctx_22(D)->CurrSlice.pic_parameter_set_id, pH264Ctx_22(D)->CurrSlice.pic_parameter_set_id
	mov	ip, #1	@ tmp249,
	ldr	lr, [r2, #1292]	@ pH264Ctx_22(D)->SPS, pH264Ctx_22(D)->SPS
	ldrb	r2, [r6, #203]	@ zero_extendqisi2	@ pH264Ctx_22(D)->CurrSlice.nal_unit_type, pH264Ctx_22(D)->CurrSlice.nal_unit_type
	mla	r3, r4, r1, r3	@ tmp242, tmp241, pH264Ctx_22(D)->CurrSlice.pic_parameter_set_id, pH264Ctx_22(D)->PPS
	sub	r2, r2, #5	@ D.40193, pH264Ctx_22(D)->CurrSlice.nal_unit_type,
	clz	r2, r2	@ D.40193, D.40193
	mov	r2, r2, lsr #5	@ D.40193, D.40193,
	ldr	r3, [r3, #28]	@ pps_29->seq_parameter_set_id, pps_29->seq_parameter_set_id
	mla	r5, r5, r3, lr	@ sps, tmp245, pps_29->seq_parameter_set_id, pH264Ctx_22(D)->SPS
	ldr	r1, [r5, #2908]	@ D.40195, sps_33->pic_order_cnt_type
	ldr	r3, [r5, #2904]	@ sps_33->log2_max_frame_num_minus4, sps_33->log2_max_frame_num_minus4
	cmp	r1, ip	@ D.40195,
	ldr	lr, [r5, #2912]	@ D.40195, sps_33->log2_max_pic_order_cnt_lsb_minus4
	add	r3, r3, #4	@ D.40195, sps_33->log2_max_frame_num_minus4,
	mov	r3, ip, asl r3	@ MaxFrameNum, tmp249,
	beq	.L1090	@,
	bcc	.L1091	@,
	cmp	r1, #2	@ D.40195,
	ldmnefd	sp!, {r4, r5, r6, r7, r8, r9, r10, pc}	@
	cmp	r2, #0	@ D.40193,
	add	r4, r0, #16384	@ tmp538, pH264Ctx,
	bne	.L1147	@,
	ldr	r1, [r4, #3436]	@ pH264Ctx_22(D)->CurrPOC.last_has_mmco_5, pH264Ctx_22(D)->CurrPOC.last_has_mmco_5
	cmp	r1, #0	@ pH264Ctx_22(D)->CurrPOC.last_has_mmco_5,
	bne	.L1124	@,
	ldr	r2, [r4, #3476]	@ D.40195, pH264Ctx_22(D)->CurrPOC.frame_num
	ldr	r0, [r4, #3472]	@ pH264Ctx_22(D)->CurrPOC.PreviousFrameNum, pH264Ctx_22(D)->CurrPOC.PreviousFrameNum
	ldr	r1, [r4, #3484]	@ D.40195, pH264Ctx_22(D)->CurrPOC.PrevFrameNumOffset
	cmp	r2, r0	@ D.40195, pH264Ctx_22(D)->CurrPOC.PreviousFrameNum
	addcc	r1, r1, r3	@ D.40195, D.40195, MaxFrameNum
	strcc	r1, [r4, #3480]	@ D.40195, pH264Ctx_22(D)->CurrPOC.FrameNumOffset
	bcs	.L1126	@,
.L1127:
	add	r3, r1, r2	@ D.40195, D.40195, D.40195
	str	r3, [r4, #3468]	@ D.40195, pH264Ctx_22(D)->CurrPOC.AbsFrameNum
	ldr	r0, [r6, #232]	@ pH264Ctx_22(D)->CurrSlice.nal_ref_idc, pH264Ctx_22(D)->CurrSlice.nal_ref_idc
	mov	r3, r3, asl #1	@ D.40195, D.40195,
	cmp	r0, #0	@ pH264Ctx_22(D)->CurrSlice.nal_ref_idc,
	subeq	r3, r3, #1	@ D.40197, D.40195,
	str	r3, [r4, #3456]	@ D.40197, pH264Ctx_22(D)->CurrPOC.ThisPOC
	ldrb	r0, [r6, #201]	@ zero_extendqisi2	@ pH264Ctx_22(D)->CurrSlice.field_pic_flag, pH264Ctx_22(D)->CurrSlice.field_pic_flag
	cmp	r0, #0	@ pH264Ctx_22(D)->CurrSlice.field_pic_flag,
	bne	.L1130	@,
	str	r3, [r4, #3452]	@ D.40197, pH264Ctx_22(D)->CurrPOC.framepoc
	str	r3, [r4, #3448]	@ D.40197, pH264Ctx_22(D)->CurrPOC.bottompoc
	str	r3, [r4, #3444]	@ D.40197, pH264Ctx_22(D)->CurrPOC.toppoc
.L1123:
	str	r2, [r4, #3472]	@ D.40195, pH264Ctx_22(D)->CurrPOC.PreviousFrameNum
	str	r1, [r4, #3484]	@ D.40197, pH264Ctx_22(D)->CurrPOC.PrevFrameNumOffset
	ldmfd	sp!, {r4, r5, r6, r7, r8, r9, r10, pc}	@
.L1091:
	cmp	r2, #0	@ D.40193,
	add	lr, lr, #4	@ D.40195, D.40195,
	add	r4, r0, #16384	@ tmp538, pH264Ctx,
	mov	ip, ip, asl lr	@ MaxPicOrderCntLsb, tmp249,
	bne	.L1097	@,
	ldr	r3, [r4, #3436]	@ pH264Ctx_22(D)->CurrPOC.last_has_mmco_5, pH264Ctx_22(D)->CurrPOC.last_has_mmco_5
	cmp	r3, #0	@ pH264Ctx_22(D)->CurrPOC.last_has_mmco_5,
	bne	.L1095	@,
	ldr	lr, [r4, #3420]	@ D.40201, pH264Ctx_22(D)->CurrPOC.PrevPicOrderCntMsb
	ldr	r1, [r4, #3424]	@ D.40195, pH264Ctx_22(D)->CurrPOC.PrevPicOrderCntLsb
	mov	r2, lr	@ D.40195, D.40201
.L1096:
	ldr	r0, [r4, #3412]	@ D.40195, pH264Ctx_22(D)->CurrPOC.pic_order_cnt_lsb
	cmp	r0, r1	@ D.40195, D.40195
	bcs	.L1094	@,
	rsb	r3, r0, r1	@ D.40195, D.40195, D.40195
	cmp	r3, ip, lsr #1	@ D.40195, MaxPicOrderCntLsb,
	addcs	r2, r2, ip	@ D.40195, D.40195, MaxPicOrderCntLsb
	strcs	r2, [r4, #3428]	@ D.40195, pH264Ctx_22(D)->CurrPOC.PicOrderCntMsb
	bcc	.L1094	@,
.L1098:
	ldrb	r3, [r6, #201]	@ zero_extendqisi2	@ pH264Ctx_22(D)->CurrSlice.field_pic_flag, pH264Ctx_22(D)->CurrSlice.field_pic_flag
	cmp	r3, #0	@ pH264Ctx_22(D)->CurrSlice.field_pic_flag,
	bne	.L1100	@,
.L1149:
	ldr	r3, [r4, #3416]	@ pH264Ctx_22(D)->CurrPOC.delta_pic_order_cnt_bottom, pH264Ctx_22(D)->CurrPOC.delta_pic_order_cnt_bottom
	add	r2, r2, r0	@ D.40197, D.40195, D.40195
	str	r2, [r4, #3444]	@ D.40197, pH264Ctx_22(D)->CurrPOC.toppoc
	add	r3, r2, r3	@ D.40197, D.40197, pH264Ctx_22(D)->CurrPOC.delta_pic_order_cnt_bottom
	str	r3, [r4, #3448]	@ D.40197, pH264Ctx_22(D)->CurrPOC.bottompoc
	cmp	r3, r2	@ D.40197, D.40197
	movge	r3, r2	@ D.40197, D.40197
	str	r3, [r4, #3456]	@ D.40197, pH264Ctx_22(D)->CurrPOC.ThisPOC
.L1101:
	ldr	r2, [r4, #3476]	@ D.40195, pH264Ctx_22(D)->CurrPOC.frame_num
	ldr	r1, [r4, #3472]	@ pH264Ctx_22(D)->CurrPOC.PreviousFrameNum, pH264Ctx_22(D)->CurrPOC.PreviousFrameNum
	str	r3, [r4, #3452]	@ D.40197, pH264Ctx_22(D)->CurrPOC.framepoc
	cmp	r2, r1	@ D.40195, pH264Ctx_22(D)->CurrPOC.PreviousFrameNum
	strne	r2, [r4, #3472]	@ D.40195, pH264Ctx_22(D)->CurrPOC.PreviousFrameNum
	ldr	r3, [r6, #232]	@ pH264Ctx_22(D)->CurrSlice.nal_ref_idc, pH264Ctx_22(D)->CurrSlice.nal_ref_idc
	cmp	r3, #0	@ pH264Ctx_22(D)->CurrSlice.nal_ref_idc,
	ldrne	r2, [r4, #3412]	@ pH264Ctx_22(D)->CurrPOC.pic_order_cnt_lsb, pH264Ctx_22(D)->CurrPOC.pic_order_cnt_lsb
	ldrne	r3, [r4, #3428]	@ pH264Ctx_22(D)->CurrPOC.PicOrderCntMsb, pH264Ctx_22(D)->CurrPOC.PicOrderCntMsb
	strne	r2, [r4, #3424]	@ pH264Ctx_22(D)->CurrPOC.pic_order_cnt_lsb, pH264Ctx_22(D)->CurrPOC.PrevPicOrderCntLsb
	strne	r3, [r4, #3420]	@ pH264Ctx_22(D)->CurrPOC.PicOrderCntMsb, pH264Ctx_22(D)->CurrPOC.PrevPicOrderCntMsb
	ldmfd	sp!, {r4, r5, r6, r7, r8, r9, r10, pc}	@
.L1090:
	cmp	r2, #0	@ D.40193,
	add	r4, r0, #16384	@ tmp538, pH264Ctx,
	movne	r3, #0	@ tmp335,
	strne	r3, [r4, #3480]	@ tmp335, pH264Ctx_22(D)->CurrPOC.FrameNumOffset
	bne	.L1105	@,
	ldr	r1, [r4, #3436]	@ pH264Ctx_22(D)->CurrPOC.last_has_mmco_5, pH264Ctx_22(D)->CurrPOC.last_has_mmco_5
	cmp	r1, #0	@ pH264Ctx_22(D)->CurrPOC.last_has_mmco_5,
	beq	.L1106	@,
	mov	r3, r2	@ D.40195, D.40193
	str	r2, [r4, #3484]	@ D.40193, pH264Ctx_22(D)->CurrPOC.PrevFrameNumOffset
	str	r2, [r4, #3472]	@ D.40193, pH264Ctx_22(D)->CurrPOC.PreviousFrameNum
.L1107:
	str	r3, [r4, #3480]	@ D.40195, pH264Ctx_22(D)->CurrPOC.FrameNumOffset
.L1105:
	ldr	r3, [r5, #2924]	@ sps_33->num_ref_frames_in_pic_order_cnt_cycle, sps_33->num_ref_frames_in_pic_order_cnt_cycle
	cmp	r3, #0	@ sps_33->num_ref_frames_in_pic_order_cnt_cycle,
	beq	.L1109	@,
	ldr	r3, [r4, #3476]	@ pH264Ctx_22(D)->CurrPOC.frame_num, pH264Ctx_22(D)->CurrPOC.frame_num
	ldr	r0, [r4, #3480]	@ pH264Ctx_22(D)->CurrPOC.FrameNumOffset, pH264Ctx_22(D)->CurrPOC.FrameNumOffset
	add	r0, r3, r0	@ D.40199, pH264Ctx_22(D)->CurrPOC.frame_num, pH264Ctx_22(D)->CurrPOC.FrameNumOffset
	str	r0, [r4, #3468]	@ D.40199, pH264Ctx_22(D)->CurrPOC.AbsFrameNum
	ldr	r7, [r6, #232]	@ D.40199, pH264Ctx_22(D)->CurrSlice.nal_ref_idc
	cmp	r7, #0	@ D.40199,
	bne	.L1111	@,
	cmp	r0, #0	@ D.40199,
	beq	.L1112	@,
	sub	r0, r0, #1	@ D.40199, D.40199,
	str	r0, [r4, #3468]	@ D.40199, pH264Ctx_22(D)->CurrPOC.AbsFrameNum
.L1111:
	mov	r3, #0	@ tmp381,
	str	r3, [r4, #3500]	@ tmp381, pH264Ctx_22(D)->CurrPOC.ExpectedDeltaPerPicOrderCntCycle
	ldr	r1, [r5, #2924]	@ D.40195, sps_33->num_ref_frames_in_pic_order_cnt_cycle
	cmp	r1, r3	@ D.40195,
	bgt	.L1132	@,
	cmp	r0, #0	@ D.40199,
	beq	.L1115	@,
.L1150:
	sub	r8, r0, #1	@ D.40195, D.40199,
	mov	r0, r8	@, D.40195
	bl	__aeabi_uidiv	@
	mov	r9, r0	@ D.40195,
	mov	r0, r8	@, D.40195
	str	r9, [r4, #3492]	@ D.40195, pH264Ctx_22(D)->CurrPOC.PicOrderCntCycleCnt
	ldr	r1, [r5, #2924]	@, sps_33->num_ref_frames_in_pic_order_cnt_cycle
	bl	__aeabi_uidivmod	@
	ldr	r0, [r4, #3500]	@ pH264Ctx_22(D)->CurrPOC.ExpectedDeltaPerPicOrderCntCycle, pH264Ctx_22(D)->CurrPOC.ExpectedDeltaPerPicOrderCntCycle
	mul	r0, r0, r9	@ D.40197, pH264Ctx_22(D)->CurrPOC.ExpectedDeltaPerPicOrderCntCycle, D.40195
	str	r0, [r4, #3496]	@ D.40197, pH264Ctx_22(D)->CurrPOC.ExpectedPicOrderCnt
	cmp	r1, #0	@ D.40197,
	str	r1, [r4, #3488]	@ D.40197, pH264Ctx_22(D)->CurrPOC.FrameNumInPicOrderCntCycle
	blt	.L1116	@,
	add	r2, r5, #2912	@ ivtmp.1270, sps,
	mov	r3, #0	@ i,
	add	r2, r2, #12	@ ivtmp.1270, ivtmp.1270,
.L1117:
	add	r3, r3, #1	@ i, i,
	ldr	ip, [r2, #4]!	@ MEM[base: _236, offset: 0B], MEM[base: _236, offset: 0B]
	cmp	r1, r3	@ D.40197, i
	add	r0, r0, ip	@ D.40197, D.40197, MEM[base: _236, offset: 0B]
	str	r0, [r4, #3496]	@ D.40197, pH264Ctx_22(D)->CurrPOC.ExpectedPicOrderCnt
	bge	.L1117	@,
.L1116:
	cmp	r7, #0	@ D.40199,
	ldreq	r3, [r5, #2916]	@ sps_33->offset_for_non_ref_pic, sps_33->offset_for_non_ref_pic
	addeq	r0, r0, r3	@ D.40197, D.40197, sps_33->offset_for_non_ref_pic
	streq	r0, [r4, #3496]	@ D.40197, pH264Ctx_22(D)->CurrPOC.ExpectedPicOrderCnt
	ldrb	r3, [r6, #201]	@ zero_extendqisi2	@ pH264Ctx_22(D)->CurrSlice.field_pic_flag, pH264Ctx_22(D)->CurrSlice.field_pic_flag
	cmp	r3, #0	@ pH264Ctx_22(D)->CurrSlice.field_pic_flag,
	bne	.L1119	@,
	ldr	r2, [r4, #3460]	@ pH264Ctx_22(D)->CurrPOC.delta_pic_order_cnt, pH264Ctx_22(D)->CurrPOC.delta_pic_order_cnt
	ldr	r1, [r4, #3464]	@ pH264Ctx_22(D)->CurrPOC.delta_pic_order_cnt, pH264Ctx_22(D)->CurrPOC.delta_pic_order_cnt
	add	r2, r0, r2	@ D.40197, D.40197, pH264Ctx_22(D)->CurrPOC.delta_pic_order_cnt
	str	r2, [r4, #3444]	@ D.40197, pH264Ctx_22(D)->CurrPOC.toppoc
	ldr	r3, [r5, #2920]	@ sps_33->offset_for_top_to_bottom_field, sps_33->offset_for_top_to_bottom_field
	add	r3, r2, r3	@ D.40197, D.40197, sps_33->offset_for_top_to_bottom_field
	add	r0, r3, r1	@ D.40197, D.40197, pH264Ctx_22(D)->CurrPOC.delta_pic_order_cnt
	str	r0, [r4, #3448]	@ D.40197, pH264Ctx_22(D)->CurrPOC.bottompoc
	cmp	r0, r2	@ D.40197, D.40197
	movge	r0, r2	@ D.40197, D.40197
	str	r0, [r4, #3456]	@ D.40197, pH264Ctx_22(D)->CurrPOC.ThisPOC
.L1120:
	ldr	r2, [r4, #3476]	@ pH264Ctx_22(D)->CurrPOC.frame_num, pH264Ctx_22(D)->CurrPOC.frame_num
	ldr	r3, [r4, #3480]	@ pH264Ctx_22(D)->CurrPOC.FrameNumOffset, pH264Ctx_22(D)->CurrPOC.FrameNumOffset
	str	r0, [r4, #3452]	@ D.40197, pH264Ctx_22(D)->CurrPOC.framepoc
	str	r2, [r4, #3472]	@ pH264Ctx_22(D)->CurrPOC.frame_num, pH264Ctx_22(D)->CurrPOC.PreviousFrameNum
	str	r3, [r4, #3484]	@ pH264Ctx_22(D)->CurrPOC.FrameNumOffset, pH264Ctx_22(D)->CurrPOC.PrevFrameNumOffset
	ldmfd	sp!, {r4, r5, r6, r7, r8, r9, r10, pc}	@
.L1095:
	ldr	lr, [r4, #3440]	@ D.40201, pH264Ctx_22(D)->CurrPOC.last_pic_bottom_field
	cmp	lr, #0	@ D.40201,
	beq	.L1148	@,
.L1097:
	ldr	r0, [r4, #3412]	@ D.40195, pH264Ctx_22(D)->CurrPOC.pic_order_cnt_lsb
	mov	r3, #0	@ tmp254,
	mov	lr, r3	@ D.40201, tmp254
	mov	r2, r1	@ D.40195, D.40195
	str	r3, [r4, #3420]	@ tmp254, pH264Ctx_22(D)->CurrPOC.PrevPicOrderCntMsb
	str	r3, [r4, #3424]	@ tmp254, pH264Ctx_22(D)->CurrPOC.PrevPicOrderCntLsb
.L1094:
	cmp	r0, r1	@ D.40195, D.40195
	bls	.L1099	@,
	rsb	r1, r1, r0	@ D.40195, D.40195, D.40195
	cmp	r1, ip, lsr #1	@ D.40195, MaxPicOrderCntLsb,
	rsbhi	r2, ip, r2	@ D.40195, MaxPicOrderCntLsb, D.40195
	strhi	r2, [r4, #3428]	@ D.40195, pH264Ctx_22(D)->CurrPOC.PicOrderCntMsb
	bhi	.L1098	@,
.L1099:
	str	lr, [r4, #3428]	@ D.40201, pH264Ctx_22(D)->CurrPOC.PicOrderCntMsb
	ldrb	r3, [r6, #201]	@ zero_extendqisi2	@ pH264Ctx_22(D)->CurrSlice.field_pic_flag, pH264Ctx_22(D)->CurrSlice.field_pic_flag
	cmp	r3, #0	@ pH264Ctx_22(D)->CurrSlice.field_pic_flag,
	beq	.L1149	@,
.L1100:
	ldrb	r3, [r6, #202]	@ zero_extendqisi2	@ pH264Ctx_22(D)->CurrSlice.bottom_field_flag, pH264Ctx_22(D)->CurrSlice.bottom_field_flag
	cmp	r3, #0	@ pH264Ctx_22(D)->CurrSlice.bottom_field_flag,
	add	r3, r2, r0	@ D.40197, D.40195, D.40195
	streq	r3, [r4, #3444]	@ D.40197, pH264Ctx_22(D)->CurrPOC.toppoc
	strne	r3, [r4, #3448]	@ D.40197, pH264Ctx_22(D)->CurrPOC.bottompoc
	str	r3, [r4, #3456]	@ D.40197, pH264Ctx_22(D)->CurrPOC.ThisPOC
	b	.L1101	@
.L1147:
	mov	r3, #0	@ tmp463,
	ldr	r2, [r4, #3476]	@ D.40195, pH264Ctx_22(D)->CurrPOC.frame_num
	mov	r1, r3	@ D.40197, tmp463
	str	r3, [r4, #3480]	@ tmp463, pH264Ctx_22(D)->CurrPOC.FrameNumOffset
	str	r3, [r4, #3448]	@ tmp463, pH264Ctx_22(D)->CurrPOC.bottompoc
	str	r3, [r4, #3444]	@ tmp463, pH264Ctx_22(D)->CurrPOC.toppoc
	str	r3, [r4, #3452]	@ tmp463, pH264Ctx_22(D)->CurrPOC.framepoc
	str	r3, [r4, #3456]	@ tmp463, pH264Ctx_22(D)->CurrPOC.ThisPOC
	b	.L1123	@
.L1109:
	str	r3, [r4, #3468]	@ sps_33->num_ref_frames_in_pic_order_cnt_cycle, pH264Ctx_22(D)->CurrPOC.AbsFrameNum
	ldr	r7, [r6, #232]	@ D.40199, pH264Ctx_22(D)->CurrSlice.nal_ref_idc
.L1112:
	mov	r0, #0	@ tmp536,
	str	r0, [r4, #3500]	@ tmp536, pH264Ctx_22(D)->CurrPOC.ExpectedDeltaPerPicOrderCntCycle
	ldr	r3, [r5, #2924]	@ sps_33->num_ref_frames_in_pic_order_cnt_cycle, sps_33->num_ref_frames_in_pic_order_cnt_cycle
	cmp	r3, r0	@ sps_33->num_ref_frames_in_pic_order_cnt_cycle,
	ble	.L1115	@,
.L1132:
	add	ip, r5, #2912	@ ivtmp.1281, sps,
	mov	r3, #0	@ D.40197,
	add	ip, ip, #12	@ ivtmp.1281, ivtmp.1281,
	mov	r2, r3	@ i, D.40197
.L1114:
	ldr	r1, [ip, #4]!	@ MEM[base: _55, offset: 0B], MEM[base: _55, offset: 0B]
	add	r2, r2, #1	@ i, i,
	add	r3, r3, r1	@ D.40197, D.40197, MEM[base: _55, offset: 0B]
	str	r3, [r4, #3500]	@ D.40197, pH264Ctx_22(D)->CurrPOC.ExpectedDeltaPerPicOrderCntCycle
	ldr	r1, [r5, #2924]	@ D.40195, sps_33->num_ref_frames_in_pic_order_cnt_cycle
	cmp	r1, r2	@ D.40195, i
	bgt	.L1114	@,
	cmp	r0, #0	@ D.40199,
	bne	.L1150	@,
.L1115:
	mov	r0, #0	@ tmp409,
	str	r0, [r4, #3496]	@ tmp409, pH264Ctx_22(D)->CurrPOC.ExpectedPicOrderCnt
	b	.L1116	@
.L1119:
	ldrb	r3, [r6, #202]	@ zero_extendqisi2	@ pH264Ctx_22(D)->CurrSlice.bottom_field_flag, pH264Ctx_22(D)->CurrSlice.bottom_field_flag
	cmp	r3, #0	@ pH264Ctx_22(D)->CurrSlice.bottom_field_flag,
	ldrne	r2, [r5, #2920]	@ sps_33->offset_for_top_to_bottom_field, sps_33->offset_for_top_to_bottom_field
	ldreq	r3, [r4, #3460]	@ pH264Ctx_22(D)->CurrPOC.delta_pic_order_cnt, pH264Ctx_22(D)->CurrPOC.delta_pic_order_cnt
	ldrne	r3, [r4, #3460]	@ pH264Ctx_22(D)->CurrPOC.delta_pic_order_cnt, pH264Ctx_22(D)->CurrPOC.delta_pic_order_cnt
	addne	r0, r0, r2	@ D.40197, D.40197, sps_33->offset_for_top_to_bottom_field
	addeq	r0, r0, r3	@ D.40197, D.40197, pH264Ctx_22(D)->CurrPOC.delta_pic_order_cnt
	streq	r0, [r4, #3444]	@ D.40197, pH264Ctx_22(D)->CurrPOC.toppoc
	addne	r0, r0, r3	@ D.40197, D.40197, pH264Ctx_22(D)->CurrPOC.delta_pic_order_cnt
	strne	r0, [r4, #3448]	@ D.40197, pH264Ctx_22(D)->CurrPOC.bottompoc
	str	r0, [r4, #3456]	@ D.40197, pH264Ctx_22(D)->CurrPOC.ThisPOC
	b	.L1120	@
.L1106:
	ldr	r1, [r4, #3476]	@ pH264Ctx_22(D)->CurrPOC.frame_num, pH264Ctx_22(D)->CurrPOC.frame_num
	ldr	r2, [r4, #3472]	@ pH264Ctx_22(D)->CurrPOC.PreviousFrameNum, pH264Ctx_22(D)->CurrPOC.PreviousFrameNum
	cmp	r1, r2	@ pH264Ctx_22(D)->CurrPOC.frame_num, pH264Ctx_22(D)->CurrPOC.PreviousFrameNum
	bcs	.L1108	@,
	ldr	r2, [r4, #3484]	@ pH264Ctx_22(D)->CurrPOC.PrevFrameNumOffset, pH264Ctx_22(D)->CurrPOC.PrevFrameNumOffset
	add	r3, r3, r2	@ D.40195, MaxFrameNum, pH264Ctx_22(D)->CurrPOC.PrevFrameNumOffset
	str	r3, [r4, #3480]	@ D.40195, pH264Ctx_22(D)->CurrPOC.FrameNumOffset
	b	.L1105	@
.L1130:
	ldrb	r0, [r6, #202]	@ zero_extendqisi2	@ pH264Ctx_22(D)->CurrSlice.bottom_field_flag, pH264Ctx_22(D)->CurrSlice.bottom_field_flag
	str	r3, [r4, #3452]	@ D.40197, pH264Ctx_22(D)->CurrPOC.framepoc
	cmp	r0, #0	@ pH264Ctx_22(D)->CurrSlice.bottom_field_flag,
	streq	r3, [r4, #3444]	@ D.40197, pH264Ctx_22(D)->CurrPOC.toppoc
	strne	r3, [r4, #3448]	@ D.40197, pH264Ctx_22(D)->CurrPOC.bottompoc
	b	.L1123	@
.L1124:
	str	r2, [r4, #3472]	@ D.40193, pH264Ctx_22(D)->CurrPOC.PreviousFrameNum
	mov	r1, r2	@ D.40195, D.40193
	str	r2, [r4, #3484]	@ D.40193, pH264Ctx_22(D)->CurrPOC.PrevFrameNumOffset
	ldr	r2, [r4, #3476]	@ D.40195, pH264Ctx_22(D)->CurrPOC.frame_num
.L1126:
	str	r1, [r4, #3480]	@ D.40195, pH264Ctx_22(D)->CurrPOC.FrameNumOffset
	b	.L1127	@
.L1148:
	ldr	r3, [r4, #3444]	@ D.40195, pH264Ctx_22(D)->CurrPOC.toppoc
	mov	r2, r1	@ D.40195, D.40195
	str	lr, [r4, #3420]	@ D.40201, pH264Ctx_22(D)->CurrPOC.PrevPicOrderCntMsb
	mov	r1, r3	@ D.40195, D.40195
	str	r3, [r4, #3424]	@ D.40195, pH264Ctx_22(D)->CurrPOC.PrevPicOrderCntLsb
	b	.L1096	@
.L1108:
	ldr	r3, [r4, #3484]	@ D.40195, pH264Ctx_22(D)->CurrPOC.PrevFrameNumOffset
	b	.L1107	@
	.fnend
	.size	DecPOC, .-DecPOC
	.align	2
	.global	CalcPicNum
	.type	CalcPicNum, %function
CalcPicNum:
	.fnstart
	@ args = 0, pretend = 0, frame = 0
	@ frame_needed = 0, uses_anonymous_args = 0
	add	r3, r0, #12288	@ tmp214, pH264Ctx,
	add	r2, r0, #20480	@ tmp211, pH264Ctx,
	stmfd	sp!, {r4, r5, r6, r7, r8, lr}	@,
	.save {r4, r5, r6, r7, r8, lr}
	mov	r4, #2208	@ tmp216,
	ldr	ip, [r2, #212]	@ pH264Ctx_19(D)->CurrSlice.pic_parameter_set_id, pH264Ctx_19(D)->CurrSlice.pic_parameter_set_id
	mov	lr, #4000	@ tmp223,
	ldr	r1, [r3, #1296]	@ pH264Ctx_19(D)->PPS, pH264Ctx_19(D)->PPS
	add	r6, r0, #49152	@ tmp318, pH264Ctx,
	ldr	r2, [r3, #1292]	@ pH264Ctx_19(D)->SPS, pH264Ctx_19(D)->SPS
	mov	r7, #1	@ tmp227,
	ldrb	r3, [r6, #555]	@ zero_extendqisi2	@ D.40255, pH264Ctx_19(D)->CurrPic.structure
	mla	r1, r4, ip, r1	@ tmp217, tmp216, pH264Ctx_19(D)->CurrSlice.pic_parameter_set_id, pH264Ctx_19(D)->PPS
	cmp	r3, #0	@ D.40255,
	ldr	r1, [r1, #28]	@ _24->seq_parameter_set_id, _24->seq_parameter_set_id
	mla	r2, lr, r1, r2	@ tmp224, tmp223, _24->seq_parameter_set_id, pH264Ctx_19(D)->SPS
	add	lr, r0, #24576	@ tmp317, pH264Ctx,
	ldr	r2, [r2, #2904]	@ pSPS_27->log2_max_frame_num_minus4, pSPS_27->log2_max_frame_num_minus4
	add	r2, r2, #4	@ D.40253, pSPS_27->log2_max_frame_num_minus4,
	mov	r7, r7, asl r2	@ MaxFrameNum, tmp227,
	beq	.L1152	@,
	sub	r5, r3, #1	@ D.40256, D.40255,
	sub	r4, r3, #2	@ D.40256, D.40255,
	ldr	r3, [lr, #2056]	@ pH264Ctx_19(D)->DPB.ref_frames_in_buffer, pH264Ctx_19(D)->DPB.ref_frames_in_buffer
	clz	r5, r5	@ D.40256, D.40256
	clz	r4, r4	@ D.40256, D.40256
	cmp	r3, #0	@ pH264Ctx_19(D)->DPB.ref_frames_in_buffer,
	mov	r5, r5, lsr #5	@ D.40256, D.40256,
	addne	ip, r0, #26368	@ ivtmp.1327, pH264Ctx,
	mov	r4, r4, lsr #5	@ D.40256, D.40256,
	movne	r2, #0	@ i,
	addne	ip, ip, #124	@ ivtmp.1327, ivtmp.1327,
	beq	.L1172	@,
.L1171:
	ldr	r1, [ip, #4]!	@ D.40248, MEM[base: _127, offset: 0B]
	ldrb	r3, [r1, #2]	@ zero_extendqisi2	@ _64->is_reference, _64->is_reference
	cmp	r3, #0	@ _64->is_reference,
	beq	.L1166	@,
	ldr	r3, [r1, #512]	@ D.40253, _64->frame_num
	ldr	r8, [r6, #968]	@ pH264Ctx_19(D)->CurrPic.frame_num, pH264Ctx_19(D)->CurrPic.frame_num
	cmp	r3, r8	@ D.40253, pH264Ctx_19(D)->CurrPic.frame_num
	rsbhi	r3, r7, r3	@ D.40253, MaxFrameNum, D.40253
	str	r3, [r1, #516]	@ D.40253, _64->frame_num_wrap
	ldr	r3, [ip]	@ D.40248, MEM[base: _127, offset: 0B]
	ldrb	r1, [r3, #2]	@ zero_extendqisi2	@ D.40255, _73->is_reference
	tst	r1, #1	@ D.40255,
	beq	.L1169	@,
	ldr	r8, [r3, #436]	@ *_73, *_73
	bic	r8, r8, #-16777216	@ D.40253, *_73,
	bic	r8, r8, #255	@ D.40253, D.40253,
	cmp	r8, #65536	@ D.40253,
	ldreq	r1, [r3, #516]	@ _73->frame_num_wrap, _73->frame_num_wrap
	addeq	r1, r5, r1, lsl #1	@ D.40254, D.40256, _73->frame_num_wrap,
	streq	r1, [r3, #448]	@ D.40254, _73->top_field.pic_num
	ldreq	r3, [ip]	@ D.40248, MEM[base: _127, offset: 0B]
	ldreqb	r1, [r3, #2]	@ zero_extendqisi2	@ D.40255, _147->is_reference
.L1169:
	tst	r1, #2	@ D.40255,
	beq	.L1166	@,
	ldr	r1, [r3, #472]	@ *_148, *_148
	bic	r1, r1, #-16777216	@ D.40253, *_148,
	bic	r1, r1, #255	@ D.40253, D.40253,
	cmp	r1, #65536	@ D.40253,
	ldreq	r1, [r3, #516]	@ _148->frame_num_wrap, _148->frame_num_wrap
	addeq	r1, r4, r1, lsl #1	@ D.40254, D.40256, _148->frame_num_wrap,
	streq	r1, [r3, #484]	@ D.40254, _148->bottom_field.pic_num
.L1166:
	ldr	r3, [lr, #2056]	@ pH264Ctx_19(D)->DPB.ref_frames_in_buffer, pH264Ctx_19(D)->DPB.ref_frames_in_buffer
	add	r2, r2, #1	@ i, i,
	cmp	r3, r2	@ pH264Ctx_19(D)->DPB.ref_frames_in_buffer, i
	bhi	.L1171	@,
.L1172:
	ldr	r3, [lr, #2060]	@ pH264Ctx_19(D)->DPB.ltref_frames_in_buffer, pH264Ctx_19(D)->DPB.ltref_frames_in_buffer
	cmp	r3, #0	@ pH264Ctx_19(D)->DPB.ltref_frames_in_buffer,
	beq	.L1197	@,
	add	r0, r0, #26368	@ ivtmp.1316, pH264Ctx,
	mov	r3, #0	@ i,
	add	r0, r0, #188	@ ivtmp.1316, ivtmp.1316,
.L1177:
	ldr	r1, [r0, #4]!	@ D.40248, MEM[base: _13, offset: 0B]
	add	r3, r3, #1	@ i, i,
	ldrb	r2, [r1, #2]	@ zero_extendqisi2	@ D.40255, _93->is_reference
	cmp	r2, #0	@ D.40255,
	beq	.L1174	@,
	tst	r2, #1	@ D.40255,
	beq	.L1175	@,
	ldr	ip, [r1, #436]	@ *_93, *_93
	bic	ip, ip, #-16777216	@ D.40253, *_93,
	bic	ip, ip, #255	@ D.40253, D.40253,
	cmp	ip, #256	@ D.40253,
	ldreq	r2, [r1, #520]	@ _93->long_term_frame_idx, _93->long_term_frame_idx
	addeq	r2, r5, r2, lsl #1	@ D.40253, D.40256, _93->long_term_frame_idx,
	streq	r2, [r1, #444]	@ D.40253, _93->top_field.long_term_pic_num
	ldreq	r1, [r0]	@ D.40248, MEM[base: _13, offset: 0B]
	ldreqb	r2, [r1, #2]	@ zero_extendqisi2	@ D.40255, _7->is_reference
.L1175:
	tst	r2, #2	@ D.40255,
	beq	.L1174	@,
	ldr	r2, [r1, #472]	@ *_1, *_1
	bic	r2, r2, #-16777216	@ D.40253, *_1,
	bic	r2, r2, #255	@ D.40253, D.40253,
	cmp	r2, #256	@ D.40253,
	ldreq	r2, [r1, #520]	@ _1->long_term_frame_idx, _1->long_term_frame_idx
	addeq	r2, r4, r2, lsl #1	@ D.40253, D.40256, _1->long_term_frame_idx,
	streq	r2, [r1, #480]	@ D.40253, _1->bottom_field.long_term_pic_num
.L1174:
	ldr	r2, [lr, #2060]	@ pH264Ctx_19(D)->DPB.ltref_frames_in_buffer, pH264Ctx_19(D)->DPB.ltref_frames_in_buffer
	cmp	r2, r3	@ pH264Ctx_19(D)->DPB.ltref_frames_in_buffer, i
	bhi	.L1177	@,
	ldmfd	sp!, {r4, r5, r6, r7, r8, pc}	@
.L1152:
	ldr	r2, [lr, #2056]	@ pH264Ctx_19(D)->DPB.ref_frames_in_buffer, pH264Ctx_19(D)->DPB.ref_frames_in_buffer
	cmp	r2, #0	@ pH264Ctx_19(D)->DPB.ref_frames_in_buffer,
	addne	r1, r0, #26368	@ ivtmp.1305, pH264Ctx,
	addne	r1, r1, #124	@ ivtmp.1305, ivtmp.1305,
	bne	.L1161	@,
.L1162:
	ldr	r3, [lr, #2060]	@ pH264Ctx_19(D)->DPB.ltref_frames_in_buffer, pH264Ctx_19(D)->DPB.ltref_frames_in_buffer
	cmp	r3, #0	@ pH264Ctx_19(D)->DPB.ltref_frames_in_buffer,
	beq	.L1198	@,
	add	r0, r0, #26368	@ ivtmp.1294, pH264Ctx,
	mov	r3, #0	@ i,
	add	r0, r0, #188	@ ivtmp.1294, ivtmp.1294,
	b	.L1164	@
.L1163:
	ldr	r2, [lr, #2060]	@ pH264Ctx_19(D)->DPB.ltref_frames_in_buffer, pH264Ctx_19(D)->DPB.ltref_frames_in_buffer
	cmp	r2, r3	@ pH264Ctx_19(D)->DPB.ltref_frames_in_buffer, i
	bls	.L1199	@,
.L1164:
	ldr	r2, [r0, #4]!	@ D.40248, MEM[base: _17, offset: 0B]
	add	r3, r3, #1	@ i, i,
	ldrb	r1, [r2, #2]	@ zero_extendqisi2	@ _55->is_reference, _55->is_reference
	cmp	r1, #3	@ _55->is_reference,
	bne	.L1163	@,
	ldr	r1, [r2, #400]	@ *_55, *_55
	bic	r1, r1, #-16777216	@ D.40253, *_55,
	bic	r1, r1, #255	@ D.40253, D.40253,
	cmp	r1, #256	@ D.40253,
	ldreq	r1, [r2, #520]	@ _55->long_term_frame_idx, _55->long_term_frame_idx
	streq	r1, [r2, #408]	@ _55->long_term_frame_idx, _55->frame.long_term_pic_num
	ldr	r2, [lr, #2060]	@ pH264Ctx_19(D)->DPB.ltref_frames_in_buffer, pH264Ctx_19(D)->DPB.ltref_frames_in_buffer
	cmp	r2, r3	@ pH264Ctx_19(D)->DPB.ltref_frames_in_buffer, i
	bhi	.L1164	@,
.L1199:
	ldmfd	sp!, {r4, r5, r6, r7, r8, pc}	@
.L1200:
	ldr	ip, [r2, #400]	@ *_39, *_39
	bic	ip, ip, #-16777216	@ D.40253, *_39,
	bic	ip, ip, #255	@ D.40253, D.40253,
	cmp	ip, #65536	@ D.40253,
	bne	.L1158	@,
	ldr	ip, [r2, #512]	@ D.40253, _39->frame_num
	ldr	r4, [r6, #968]	@ pH264Ctx_19(D)->CurrPic.frame_num, pH264Ctx_19(D)->CurrPic.frame_num
	rsb	r5, r7, ip	@ D.40253, MaxFrameNum, D.40253
	cmp	ip, r4	@ D.40253, pH264Ctx_19(D)->CurrPic.frame_num
	strhi	r5, [r2, #516]	@ D.40253, _39->frame_num_wrap
	strls	ip, [r2, #516]	@ D.40253, _39->frame_num_wrap
	ldr	r2, [r1]	@ D.40248, MEM[base: _122, offset: 0B]
	ldr	ip, [r2, #516]	@ _50->frame_num_wrap, _50->frame_num_wrap
	str	ip, [r2, #412]	@ _50->frame_num_wrap, _50->frame.pic_num
.L1158:
	ldr	r2, [lr, #2056]	@ pH264Ctx_19(D)->DPB.ref_frames_in_buffer, pH264Ctx_19(D)->DPB.ref_frames_in_buffer
	add	r3, r3, #1	@ i, i,
	cmp	r2, r3	@ pH264Ctx_19(D)->DPB.ref_frames_in_buffer, i
	bls	.L1162	@,
.L1161:
	ldr	r2, [r1, #4]!	@ D.40248, MEM[base: _122, offset: 0B]
	ldrb	ip, [r2, #2]	@ zero_extendqisi2	@ _39->is_reference, _39->is_reference
	cmp	ip, #3	@ _39->is_reference,
	bne	.L1158	@,
	b	.L1200	@
.L1198:
	ldmfd	sp!, {r4, r5, r6, r7, r8, pc}	@
.L1197:
	ldmfd	sp!, {r4, r5, r6, r7, r8, pc}	@
	.fnend
	.size	CalcPicNum, .-CalcPicNum
	.align	2
	.global	IsOutDPB
	.type	IsOutDPB, %function
IsOutDPB:
	.fnstart
	@ args = 0, pretend = 0, frame = 0
	@ frame_needed = 0, uses_anonymous_args = 0
	@ link register save eliminated.
	cmp	r1, #0	@ pFrameStore
	beq	.L1206	@,
	add	r3, r0, #24576	@ tmp122, pH264Ctx,
	ldr	ip, [r3, #2052]	@ D.40273, pH264Ctx_5(D)->DPB.used_size
	cmp	ip, #0	@ D.40273,
	beq	.L1206	@,
	ldr	r3, [r3, #1856]	@ pH264Ctx_5(D)->DPB.fs, pH264Ctx_5(D)->DPB.fs
	cmp	r3, r1	@ pH264Ctx_5(D)->DPB.fs, pFrameStore
	beq	.L1208	@,
	add	r0, r0, #26368	@ ivtmp.1340, pH264Ctx,
	mov	r3, #0	@ i,
	add	r0, r0, #64	@ ivtmp.1340, ivtmp.1340,
	b	.L1203	@
.L1204:
	ldr	r2, [r0, #4]!	@ MEM[base: _14, offset: 0B], MEM[base: _14, offset: 0B]
	cmp	r2, r1	@ MEM[base: _14, offset: 0B], pFrameStore
	beq	.L1208	@,
.L1203:
	add	r3, r3, #1	@ i, i,
	cmp	r3, ip	@ i, D.40273
	bne	.L1204	@,
.L1206:
	mov	r0, #1	@ D.40271,
	bx	lr	@
.L1208:
	mov	r0, #0	@ D.40271,
	bx	lr	@
	.fnend
	.size	IsOutDPB, .-IsOutDPB
	.align	2
	.global	WritePicMsg
	.type	WritePicMsg, %function
WritePicMsg:
	.fnstart
	@ args = 0, pretend = 0, frame = 0
	@ frame_needed = 0, uses_anonymous_args = 0
	stmfd	sp!, {r4, r5, r6, r7, r8, r9, r10, fp, lr}	@,
	.save {r4, r5, r6, r7, r8, r9, r10, fp, lr}
	add	r5, r0, #49152	@ tmp480, pH264Ctx,
	.pad #12
	sub	sp, sp, #12	@,,
	mov	r4, r0	@ pH264Ctx, pH264Ctx
	ldr	lr, [r5, #1028]	@ pH264Ctx_21(D)->CurrPic.pmv_address_idc, pH264Ctx_21(D)->CurrPic.pmv_address_idc
	mov	r0, #2	@,
	ldr	ip, [r5, #744]	@ pH264Ctx_21(D)->CurrPic.fs_image.image_id, pH264Ctx_21(D)->CurrPic.fs_image.image_id
	mov	r7, #0	@ tmp265,
	ldrb	r3, [r5, #555]	@ zero_extendqisi2	@ D.40445, pH264Ctx_21(D)->CurrPic.structure
	add	r9, r4, #12288	@ tmp483, pH264Ctx,
	ldr	r2, [r5, #976]	@ pH264Ctx_21(D)->CurrPic.nal_ref_idc, pH264Ctx_21(D)->CurrPic.nal_ref_idc
	add	r8, r4, #16384	@ tmp484, pH264Ctx,
	ldr	r1, .L1246	@,
	stmia	sp, {ip, lr}	@,,
	bl	dprint_vfmw	@
	movw	r2, #49728	@ tmp270,
	str	r7, [r5, #3612]	@ tmp265, pH264Ctx_21(D)->SliceParaNum
	movw	r3, #51376	@ tmp267,
	ldrd	r0, [r4, r2]	@ pH264Ctx_21(D)->CurrPic.fs_image.PTS, pH264Ctx, tmp270
	strd	r0, [r4, r3]	@ pH264Ctx_21(D)->CurrPic.fs_image.PTS, pH264Ctx, tmp267
	ldr	r0, [r5, #3608]	@ pH264Ctx_21(D)->DecSlicePara, pH264Ctx_21(D)->DecSlicePara
	ldr	r1, [r5, #740]	@ pH264Ctx_21(D)->CurrPic.fs_image.image_stride, pH264Ctx_21(D)->CurrPic.fs_image.image_stride
	ldr	r2, [r5, #976]	@ pH264Ctx_21(D)->CurrPic.nal_ref_idc, pH264Ctx_21(D)->CurrPic.nal_ref_idc
	ldrb	r3, [r5, #555]	@ zero_extendqisi2	@ pH264Ctx_21(D)->CurrPic.structure, pH264Ctx_21(D)->CurrPic.structure
	str	r0, [r5, #3340]	@ pH264Ctx_21(D)->DecSlicePara, pH264Ctx_21(D)->DecPicPara.pFirstSlice
	str	r1, [r5, #3128]	@ pH264Ctx_21(D)->CurrPic.fs_image.image_stride, pH264Ctx_21(D)->DecPicPara.imgstride
	strb	r3, [r5, #2216]	@ pH264Ctx_21(D)->CurrPic.structure, pH264Ctx_21(D)->DecPicPara.pic_structure
	str	r2, [r5, #2232]	@ pH264Ctx_21(D)->CurrPic.nal_ref_idc, pH264Ctx_21(D)->DecPicPara.nal_ref_idc
	ldr	r1, [r5, #1012]	@ pH264Ctx_21(D)->CurrPic.pic_height_in_mb, pH264Ctx_21(D)->CurrPic.pic_height_in_mb
	ldrb	r2, [r9, #1319]	@ zero_extendqisi2	@ pH264Ctx_21(D)->CurrSPS.mb_adaptive_frame_field_flag, pH264Ctx_21(D)->CurrSPS.mb_adaptive_frame_field_flag
	ldr	r3, [r5, #1016]	@ pH264Ctx_21(D)->CurrPic.frame_height_in_mb, pH264Ctx_21(D)->CurrPic.frame_height_in_mb
	str	r1, [r5, #2236]	@ pH264Ctx_21(D)->CurrPic.pic_height_in_mb, pH264Ctx_21(D)->DecPicPara.pic_height_in_mb
	str	r2, [r5, #2248]	@ pH264Ctx_21(D)->CurrSPS.mb_adaptive_frame_field_flag, pH264Ctx_21(D)->DecPicPara.mb_adaptive_frame_field_flag
	str	r3, [r5, #2240]	@ pH264Ctx_21(D)->CurrPic.frame_height_in_mb, pH264Ctx_21(D)->DecPicPara.frame_height_in_mb
	ldr	r3, [r8, #1160]	@ pH264Ctx_21(D)->CurrSPS.pic_width_in_mbs_minus1, pH264Ctx_21(D)->CurrSPS.pic_width_in_mbs_minus1
	add	r3, r3, #1	@ D.40443, pH264Ctx_21(D)->CurrSPS.pic_width_in_mbs_minus1,
	str	r3, [r5, #2244]	@ D.40443, pH264Ctx_21(D)->DecPicPara.pic_width_in_mb
	ldrb	r3, [r9, #1318]	@ zero_extendqisi2	@ pH264Ctx_21(D)->CurrSPS.frame_mbs_only_flag, pH264Ctx_21(D)->CurrSPS.frame_mbs_only_flag
	strb	r3, [r5, #2219]	@ pH264Ctx_21(D)->CurrSPS.frame_mbs_only_flag, pH264Ctx_21(D)->DecPicPara.frame_mbs_only_flag
	ldr	r3, [r8, #1264]	@ pH264Ctx_21(D)->CurrPPS.transform_8x8_mode_flag, pH264Ctx_21(D)->CurrPPS.transform_8x8_mode_flag
	str	r3, [r5, #2252]	@ pH264Ctx_21(D)->CurrPPS.transform_8x8_mode_flag, pH264Ctx_21(D)->DecPicPara.transform_8x8_mode_flag
	ldrb	r3, [r8, #1204]	@ zero_extendqisi2	@ pH264Ctx_21(D)->CurrPPS.entropy_coding_mode_flag, pH264Ctx_21(D)->CurrPPS.entropy_coding_mode_flag
	str	r3, [r5, #2256]	@ pH264Ctx_21(D)->CurrPPS.entropy_coding_mode_flag, pH264Ctx_21(D)->DecPicPara.entropy_coding_mode_flag
	ldr	r3, [r9, #2048]	@ pH264Ctx_21(D)->CurrSPS.chroma_format_idc, pH264Ctx_21(D)->CurrSPS.chroma_format_idc
	strb	r3, [r5, #2217]	@ pH264Ctx_21(D)->CurrSPS.chroma_format_idc, pH264Ctx_21(D)->DecPicPara.chroma_format_idc
	ldrb	r3, [r8, #1208]	@ zero_extendqisi2	@ pH264Ctx_21(D)->CurrPPS.constrained_intra_pred_flag, pH264Ctx_21(D)->CurrPPS.constrained_intra_pred_flag
	str	r3, [r5, #2260]	@ pH264Ctx_21(D)->CurrPPS.constrained_intra_pred_flag, pH264Ctx_21(D)->DecPicPara.constrained_intra_pred_flag
	ldr	r3, [r8, #3456]	@ pH264Ctx_21(D)->CurrPOC.ThisPOC, pH264Ctx_21(D)->CurrPOC.ThisPOC
	str	r3, [r5, #2264]	@ pH264Ctx_21(D)->CurrPOC.ThisPOC, pH264Ctx_21(D)->DecPicPara.ThisPoc
	ldr	r3, [r8, #3444]	@ pH264Ctx_21(D)->CurrPOC.toppoc, pH264Ctx_21(D)->CurrPOC.toppoc
	str	r3, [r5, #2268]	@ pH264Ctx_21(D)->CurrPOC.toppoc, pH264Ctx_21(D)->DecPicPara.TopPoc
	ldr	r2, [r8, #3448]	@ pH264Ctx_21(D)->CurrPOC.bottompoc, pH264Ctx_21(D)->CurrPOC.bottompoc
	ldr	r3, [r5, #960]	@ pH264Ctx_21(D)->CurrPic.frame_store, pH264Ctx_21(D)->CurrPic.frame_store
	ldr	r0, [r5, #3688]	@, pH264Ctx_21(D)->ChanID
	str	r2, [r5, #2272]	@ pH264Ctx_21(D)->CurrPOC.bottompoc, pH264Ctx_21(D)->DecPicPara.BottomPoc
	ldr	r1, [r3, #508]	@, _69->logic_fs_id
	bl	FSP_GetLogicFs	@
	subs	r10, r0, #0	@ pstLogicFs,
	beq	.L1244	@,
	ldr	r2, [r10, #408]	@ D.40442, pstLogicFs_72->pstDecodeFs
	ldr	r3, [r10, #412]	@ D.40442, pstLogicFs_72->pstDispOutFs
	cmp	r2, #0	@ D.40442,
	beq	.L1213	@,
	cmp	r3, #0	@ D.40442,
	beq	.L1213	@,
	add	r3, r4, #51712	@, pH264Ctx,
	add	r2, r4, #51456	@, pH264Ctx,
	add	r1, r4, #51968	@, pH264Ctx,
	add	r3, r3, #220	@,,
	add	r2, r2, #220	@,,
	add	r1, r1, #220	@,,
	ldr	r0, [r5, #3688]	@, pH264Ctx_21(D)->ChanID
	add	r6, r4, #24576	@ tmp482, pH264Ctx,
	bl	FSP_GetDecFsAddrTab	@
	ldr	r3, [r10, #408]	@ pstLogicFs_72->pstDecodeFs, pstLogicFs_72->pstDecodeFs
	add	r2, r4, #51968	@, pH264Ctx,
	add	r1, r4, #52224	@, pH264Ctx,
	ldr	r0, [r5, #3688]	@, pH264Ctx_21(D)->ChanID
	add	r2, r2, #224	@,,
	ldr	r3, [r3, #4]	@ _83->PhyFsID, _83->PhyFsID
	add	r1, r1, #48	@,,
	str	r3, [r5, #2508]	@ _83->PhyFsID, pH264Ctx_21(D)->DecPicPara.CurrPicImgIdc
	bl	FSP_GetPmvAddrTab	@
	ldr	r3, [r5, #1028]	@ pH264Ctx_21(D)->CurrPic.pmv_address_idc, pH264Ctx_21(D)->CurrPic.pmv_address_idc
	str	r3, [r5, #2516]	@ pH264Ctx_21(D)->CurrPic.pmv_address_idc, pH264Ctx_21(D)->DecPicPara.CurrPicPmvIdc
	ldr	r3, [r10, #424]	@ pstLogicFs_72->HalfPmvOffset, pstLogicFs_72->HalfPmvOffset
	str	r3, [r5, #3124]	@ pstLogicFs_72->HalfPmvOffset, pH264Ctx_21(D)->DecPicPara.half_pmvblk_offset
	ldr	r3, [r10, #412]	@ pstLogicFs_72->pstDispOutFs, pstLogicFs_72->pstDispOutFs
	ldr	r3, [r3, #12]	@ _96->PhyAddr, _96->PhyAddr
	str	r3, [r5, #2512]	@ _96->PhyAddr, pH264Ctx_21(D)->DecPicPara.CurrPicImg2DAddr
	ldr	r3, [r10, #412]	@ pstLogicFs_72->pstDispOutFs, pstLogicFs_72->pstDispOutFs
	ldr	r3, [r3, #32]	@ _100->ChromOffset, _100->ChromOffset
	str	r3, [r5, #2520]	@ _100->ChromOffset, pH264Ctx_21(D)->DecPicPara.uv_offset
	ldr	r0, [r6, #2324]	@ D.40443, pH264Ctx_21(D)->APC.size
	cmp	r0, #0	@ D.40443,
	str	r0, [r5, #3332]	@ D.40443, pH264Ctx_21(D)->DecPicPara.ApcSize
	beq	.L1219	@,
	add	fp, r4, #26624	@ ivtmp.1468, pH264Ctx,
	add	r10, r4, #52224	@ ivtmp.1477, pH264Ctx,
	mov	r3, r7	@ i, tmp265
	mov	lr, fp	@ ivtmp.1484, ivtmp.1468
	mov	ip, r10	@ ivtmp.1491, ivtmp.1477
	mov	r1, fp	@ ivtmp.1498, ivtmp.1484
	mov	r2, r10	@ ivtmp.1505, ivtmp.1491
	add	fp, fp, #80	@ ivtmp.1468, ivtmp.1468,
	add	r10, r10, #64	@ ivtmp.1477, ivtmp.1477,
	add	lr, lr, #144	@ ivtmp.1484, ivtmp.1484,
	add	ip, ip, #128	@ ivtmp.1491, ivtmp.1491,
	add	r1, r1, #208	@ ivtmp.1498, ivtmp.1498,
	add	r2, r2, #192	@ ivtmp.1505, ivtmp.1505,
.L1218:
	ldr	r7, [fp, #4]!	@ D.40443, MEM[base: _236, offset: 0B]
	add	r3, r3, #1	@ i, i,
	cmp	r3, r0	@ i, D.40443
	str	r7, [r10, #4]!	@ D.40443, MEM[base: _237, offset: 0B]
	ldr	r7, [lr, #4]!	@ D.40443, MEM[base: _238, offset: 0B]
	str	r7, [ip, #4]!	@ D.40443, MEM[base: _239, offset: 0B]
	ldr	r7, [r1, #4]!	@ D.40443, MEM[base: _240, offset: 0B]
	str	r7, [r2, #4]!	@ D.40443, MEM[base: _241, offset: 0B]
	bne	.L1218	@,
.L1219:
	ldrb	r3, [r9, #1325]	@ zero_extendqisi2	@ pH264Ctx_21(D)->CurrSPS.seq_scaling_matrix_present_flag, pH264Ctx_21(D)->CurrSPS.seq_scaling_matrix_present_flag
	cmp	r3, #0	@ pH264Ctx_21(D)->CurrSPS.seq_scaling_matrix_present_flag,
	bne	.L1245	@,
	ldrb	r3, [r8, #1222]	@ zero_extendqisi2	@ D.40440, pH264Ctx_21(D)->CurrPPS.pic_scaling_matrix_present_flag
	cmp	r3, #0	@ D.40440,
	bne	.L1220	@,
	add	r2, r4, #51200	@ ivtmp.1401, pH264Ctx,
	ldr	ip, .L1246+4	@ tmp481,
	add	r2, r2, #224	@ ivtmp.1401, ivtmp.1401,
.L1221:
	and	r1, r3, #3	@ D.40443, i,
	add	r3, r3, #1	@ i, i,
	cmp	r3, #24	@ i,
	ldr	r1, [ip, r1, asl #2]	@ D.40443, quant_org
	str	r1, [r2, #4]!	@ D.40443, MEM[base: _2, offset: 0B]
	bne	.L1221	@,
	add	r1, r4, #51456	@ ivtmp.1387, pH264Ctx,
	mov	r3, #0	@ i,
	add	r1, r1, #64	@ ivtmp.1387, ivtmp.1387,
.L1222:
	and	r2, r3, #15	@ D.40443, i,
	add	r3, r3, #1	@ i, i,
	cmp	r3, #32	@ i,
	add	r2, ip, r2, lsl #2	@ tmp427, tmp481, D.40443,
	ldr	r2, [r2, #16]	@ D.40443, quant8_org
	str	r2, [r1, #4]!	@ D.40443, MEM[base: _6, offset: 0B]
	bne	.L1222	@,
.L1227:
	cmp	r0, #0	@ D.40443,
	beq	.L1224	@,
	add	r9, r4, #52480	@ ivtmp.1362, pH264Ctx,
	add	r7, r4, #26624	@ ivtmp.1352, pH264Ctx,
	add	r7, r7, #84	@ ivtmp.1352, ivtmp.1352,
	mov	r8, #0	@ i,
	mov	r4, r9	@ ivtmp.1375, ivtmp.1362
	add	r9, r9, #140	@ ivtmp.1362, ivtmp.1362,
	add	r4, r4, #204	@ ivtmp.1375, ivtmp.1375,
.L1230:
	ldr	r2, [r7]	@, MEM[base: _126, offset: 0B]
	mov	r1, #0	@,
	ldr	r0, [r5, #3688]	@, pH264Ctx_21(D)->ChanID
	add	r8, r8, #1	@ i, i,
	bl	FSP_GetStoreType	@
	adds	r0, r0, #0	@ D.40452,,
	movne	r0, #1	@ D.40452,
	str	r0, [r9, #4]!	@ D.40452, MEM[base: _106, offset: 0B]
	ldr	r3, [r7], #4	@ D.40443, MEM[base: _126, offset: 0B]
	str	r3, [r4, #4]!	@ D.40443, MEM[base: _16, offset: 0B]
	ldr	r3, [r6, #2324]	@ pH264Ctx_21(D)->APC.size, pH264Ctx_21(D)->APC.size
	cmp	r3, r8	@ pH264Ctx_21(D)->APC.size, i
	bhi	.L1230	@,
.L1224:
	mov	r0, #0	@ D.40441,
.L1240:
	add	sp, sp, #12	@,,
	@ sp needed	@
	ldmfd	sp!, {r4, r5, r6, r7, r8, r9, r10, fp, pc}	@
.L1245:
	ldrb	r3, [r8, #1222]	@ zero_extendqisi2	@ D.40440, pH264Ctx_21(D)->CurrPPS.pic_scaling_matrix_present_flag
.L1220:
	cmp	r3, #1	@ D.40440,
	add	r1, r4, #51200	@ ivtmp.1429, pH264Ctx,
	mov	r2, #0	@ i,
	add	r1, r1, #224	@ ivtmp.1429, ivtmp.1429,
	beq	.L1225	@,
.L1228:
	add	r3, r2, #4064	@ tmp451, i,
	add	r2, r2, #1	@ i, i,
	add	r3, r3, #2	@ tmp451, tmp451,
	cmp	r2, #24	@ i,
	add	r3, r4, r3, lsl #2	@ tmp452, pH264Ctx, tmp451,
	ldr	r3, [r3, #4]	@ D.40443, pH264Ctx_21(D)->CurrSPS.qmatrix4x4
	str	r3, [r1, #4]!	@ D.40443, MEM[base: _213, offset: 0B]
	bne	.L1228	@,
	add	r1, r4, #51456	@ ivtmp.1443, pH264Ctx,
	mov	r2, #0	@ i,
	add	r1, r1, #64	@ ivtmp.1443, ivtmp.1443,
.L1229:
	add	r3, r2, #4080	@ tmp460, i,
	add	r2, r2, #1	@ i, i,
	add	r3, r3, #10	@ tmp460, tmp460,
	cmp	r2, #32	@ i,
	add	r3, r4, r3, lsl #2	@ tmp461, pH264Ctx, tmp460,
	ldr	r3, [r3, #4]	@ D.40443, pH264Ctx_21(D)->CurrSPS.qmatrix8x8
	str	r3, [r1, #4]!	@ D.40443, MEM[base: _211, offset: 0B]
	bne	.L1229	@,
	b	.L1227	@
.L1225:
	add	r3, r2, #4864	@ tmp434, i,
	add	r2, r2, #1	@ i, i,
	add	r3, r3, #28	@ tmp434, tmp434,
	cmp	r2, #24	@ i,
	add	r3, r4, r3, lsl #2	@ tmp435, pH264Ctx, tmp434,
	ldr	r3, [r3, #4]	@ D.40443, pH264Ctx_21(D)->CurrPPS.qmatrix4x4
	str	r3, [r1, #4]!	@ D.40443, MEM[base: _208, offset: 0B]
	bne	.L1225	@,
	add	r1, r4, #51456	@ ivtmp.1415, pH264Ctx,
	mov	r2, #0	@ i,
	add	r1, r1, #64	@ ivtmp.1415, ivtmp.1415,
.L1226:
	add	r3, r2, #4864	@ tmp443, i,
	add	r2, r2, #1	@ i, i,
	add	r3, r3, #52	@ tmp443, tmp443,
	cmp	r2, #32	@ i,
	add	r3, r4, r3, lsl #2	@ tmp444, pH264Ctx, tmp443,
	ldr	r3, [r3, #4]	@ D.40443, pH264Ctx_21(D)->CurrPPS.qmatrix8x8
	str	r3, [r1, #4]!	@ D.40443, MEM[base: _190, offset: 0B]
	bne	.L1226	@,
	b	.L1227	@
.L1213:
	ldr	r1, .L1246+8	@,
	mov	r0, #0	@,
	bl	dprint_vfmw	@
	mvn	r0, #0	@ D.40441,
	b	.L1240	@
.L1244:
	ldr	r3, [r5, #960]	@ pH264Ctx_21(D)->CurrPic.frame_store, pH264Ctx_21(D)->CurrPic.frame_store
	ldr	r1, .L1246+12	@,
	ldr	r2, [r3, #508]	@, _73->logic_fs_id
	bl	dprint_vfmw	@
	mvn	r0, #0	@ D.40441,
	b	.L1240	@
.L1247:
	.align	2
.L1246:
	.word	.LC34
	.word	.LANCHOR1
	.word	.LC36
	.word	.LC35
	.fnend
	.size	WritePicMsg, .-WritePicMsg
	.align	2
	.global	UpdatePicQpInf
	.type	UpdatePicQpInf, %function
UpdatePicQpInf:
	.fnstart
	@ args = 0, pretend = 0, frame = 0
	@ frame_needed = 0, uses_anonymous_args = 0
	@ link register save eliminated.
	ldr	r2, [r1, #28]	@ pCurPic_2(D)->MaxQp, pCurPic_2(D)->MaxQp
	ldr	r3, [r1, #32]	@ pCurPic_2(D)->MinQp, pCurPic_2(D)->MinQp
	cmp	r2, r0	@ pCurPic_2(D)->MaxQp, SlcQp
	movlt	r2, r0	@ D.40458, SlcQp
	cmp	r3, r0	@ pCurPic_2(D)->MinQp, SlcQp
	str	r2, [r1, #28]	@ D.40458, pCurPic_2(D)->MaxQp
	movge	r3, r0	@ D.40458, SlcQp
	str	r3, [r1, #32]	@ D.40458, pCurPic_2(D)->MinQp
	bx	lr	@
	.fnend
	.size	UpdatePicQpInf, .-UpdatePicQpInf
	.align	2
	.global	WriteSliceMsg
	.type	WriteSliceMsg, %function
WriteSliceMsg:
	.fnstart
	@ args = 0, pretend = 0, frame = 24
	@ frame_needed = 0, uses_anonymous_args = 0
	stmfd	sp!, {r4, r5, r6, r7, r8, r9, r10, fp, lr}	@,
	.save {r4, r5, r6, r7, r8, r9, r10, fp, lr}
	add	r10, r0, #49152	@ tmp850, pH264Ctx,
	add	r4, r0, #12288	@ tmp849, pH264Ctx,
	.pad #28
	sub	sp, sp, #28	@,,
	ldr	r3, [r10, #3612]	@ CurrSliceSlotNum, pH264Ctx_42(D)->SliceParaNum
	movw	ip, #4060	@ tmp490,
	ldr	lr, [r10, #3608]	@ D.41056, pH264Ctx_42(D)->DecSlicePara
	mov	r5, r0	@ pH264Ctx, pH264Ctx
	mov	r2, r3	@ CurrSliceSlotNum, CurrSliceSlotNum
	str	r3, [sp, #8]	@ CurrSliceSlotNum, %sfp
	mul	ip, ip, r2	@ D.41055, tmp490, CurrSliceSlotNum
	add	r3, r3, #1	@ D.41055, CurrSliceSlotNum,
	str	r3, [r10, #3612]	@ D.41055, pH264Ctx_42(D)->SliceParaNum
	ldr	r3, [r4, #1280]	@ pH264Ctx_42(D)->MaxSliceNum, pH264Ctx_42(D)->MaxSliceNum
	add	r9, lr, ip	@ pCurrSlicePara, D.41056, D.41055
	sub	r3, r3, #1	@ D.41057, pH264Ctx_42(D)->MaxSliceNum,
	cmp	r2, r3	@ CurrSliceSlotNum, D.41057
	addcc	r1, ip, #4048	@ D.41058, D.41055,
	addcc	r1, r1, #12	@ D.41058, D.41058,
	movcs	r1, #0	@ tmp498,
	addcc	r1, lr, r1	@ D.41056, D.41056, D.41058
	str	r1, [r9, #4056]	@ tmp498, pCurrSlicePara_48->pNextSlice
	ldr	r0, [r0, #368]	@ D.41060, pH264Ctx_42(D)->pCurrNal
	ldrb	r6, [r0]	@ zero_extendqisi2	@ i, _56->nal_used_segment
	ldr	r1, [r0, #68]	@ i, _56->nal_segment
	cmp	r6, #1	@ i,
	cmpls	r6, r1	@, i, i
	bcs	.L1252	@,
	add	r7, r6, #3	@ D.41058, i,
	add	r7, r9, r7, lsl #2	@ ivtmp.2083, pCurrSlicePara, D.41058,
.L1253:
	mov	r3, r6, asl #5	@ tmp510, i,
	sub	r3, r3, r6, asl #2	@ tmp511, tmp510, i,
	add	r6, r6, #1	@ i, i,
	add	r0, r0, r3	@ tmp512, D.41060, tmp511
	ldr	r2, [r0, #24]	@ D.41055, _493->stream[i_467].bitsoffset
	str	r2, [r7, #4]!	@ D.41055, MEM[base: _693, offset: 0B]
	ldr	r2, [r5, #368]	@ pH264Ctx_42(D)->pCurrNal, pH264Ctx_42(D)->pCurrNal
	add	r2, r2, r3	@ tmp519, pH264Ctx_42(D)->pCurrNal, tmp511
	ldr	r2, [r2, #20]	@ D.41055, _63->stream[i_467].valid_bitlen
	str	r2, [r7, #-8]	@ D.41055, MEM[base: _693, offset: 4294967288B]
	ldr	r2, [r5, #368]	@ pH264Ctx_42(D)->pCurrNal, pH264Ctx_42(D)->pCurrNal
	add	r3, r2, r3	@ tmp526, pH264Ctx_42(D)->pCurrNal, tmp511
	ldr	r3, [r3, #28]	@ D.41055, _66->stream[i_467].bytespos
	str	r3, [r7, #8]	@ D.41055, MEM[base: _693, offset: 8B]
	ldr	r0, [r5, #368]	@ D.41060, pH264Ctx_42(D)->pCurrNal
	ldr	r1, [r0, #68]	@ i, _59->nal_segment
	cmp	r1, r6	@ i, i
	movhi	r3, #1	@ tmp534,
	movls	r3, #0	@ tmp534,
	cmp	r6, #1	@ i,
	movhi	r3, #0	@ tmp534,
	cmp	r3, #0	@ tmp534,
	bne	.L1253	@,
.L1252:
	cmp	r1, #1	@ i,
	bhi	.L1258	@,
	add	r1, r1, #3	@ D.41058, i,
	add	r6, r9, #20	@ D.41067, pCurrSlicePara,
	mov	r0, #0	@ tmp861,
	add	r1, r9, r1, lsl #2	@ ivtmp.2057, pCurrSlicePara, D.41058,
.L1257:
	str	r0, [r1, #4]!	@ tmp861, MEM[base: _683, offset: 0B]
	cmp	r1, r6	@ ivtmp.2057, D.41067
	str	r0, [r1, #-8]	@ tmp861, MEM[base: _683, offset: 4294967288B]
	str	r0, [r1, #8]	@ tmp861, MEM[base: _683, offset: 8B]
	bne	.L1257	@,
.L1258:
	ldrb	r1, [r10, #561]	@ zero_extendqisi2	@ D.41059, pH264Ctx_42(D)->CurrPic.MbaffFrameFlag
	add	r3, r5, #16384	@ tmp851, pH264Ctx,
	add	r7, r5, #20480	@ tmp852, pH264Ctx,
	ldr	r2, [sp, #8]	@ CurrSliceSlotNum, %sfp
	str	r3, [sp, #4]	@ tmp851, %sfp
	strb	r1, [r9, #1]	@ D.41059, pCurrSlicePara_48->MbaffFrameFlag
	cmp	r2, #0	@ CurrSliceSlotNum,
	ldr	r1, [r3, #1252]	@ pH264Ctx_42(D)->CurrPPS.pic_init_qp_minus26, pH264Ctx_42(D)->CurrPPS.pic_init_qp_minus26
	ldr	r0, [r7, #1812]	@ pH264Ctx_42(D)->CurrSlice.slice_qp_delta, pH264Ctx_42(D)->CurrSlice.slice_qp_delta
	add	r1, r1, #26	@ D.41057, pH264Ctx_42(D)->CurrPPS.pic_init_qp_minus26,
	add	r1, r1, r0	@ D.41057, D.41057, pH264Ctx_42(D)->CurrSlice.slice_qp_delta
	str	r1, [r9, #32]	@ D.41057, pCurrSlicePara_48->SliceQPy
	bne	.L1354	@,
	ldr	r0, [r10, #960]	@ D.41061, pH264Ctx_42(D)->CurrPic.frame_store
	str	r1, [r0, #428]	@ D.41057, _83->frame.MaxQp
	ldr	r1, [r10, #960]	@ D.41061, pH264Ctx_42(D)->CurrPic.frame_store
	ldr	r0, [r9, #32]	@ pCurrSlicePara_48->SliceQPy, pCurrSlicePara_48->SliceQPy
	str	r0, [r1, #432]	@ pCurrSlicePara_48->SliceQPy, _85->frame.MinQp
.L1259:
	ldr	r1, [r7, #1808]	@ D.41055, pH264Ctx_42(D)->CurrSlice.cabac_init_idc
	str	r1, [r9, #36]	@ D.41055, pCurrSlicePara_48->cabac_init_idc
	ldr	r1, [r7, #260]	@ D.41055, pH264Ctx_42(D)->CurrSlice.num_ref_idx_l1_active_minus1
	str	r1, [r9, #40]	@ D.41055, pCurrSlicePara_48->num_ref_idx_l1_active_minus1
	ldr	r1, [r7, #256]	@ D.41055, pH264Ctx_42(D)->CurrSlice.num_ref_idx_l0_active_minus1
	str	r1, [r9, #44]	@ D.41055, pCurrSlicePara_48->num_ref_idx_l0_active_minus1
	ldrb	r1, [r7, #200]	@ zero_extendqisi2	@ D.41059, pH264Ctx_42(D)->CurrSlice.slice_type
	strb	r1, [lr, ip]	@ D.41059, pCurrSlicePara_48->slice_type
	ldr	r1, [r7, #252]	@ D.41055, pH264Ctx_42(D)->CurrSlice.first_mb_in_slice
	str	r1, [r9, #48]	@ D.41055, pCurrSlicePara_48->first_mb_in_slice
	ldrb	r1, [r7, #206]	@ zero_extendqisi2	@ D.41059, pH264Ctx_42(D)->CurrSlice.direct_spatial_mv_pred_flag
	strb	r1, [r9, #2]	@ D.41059, pCurrSlicePara_48->direct_spatial_mv_pred_flag
	ldrb	r1, [r4, #1320]	@ zero_extendqisi2	@ D.41059, pH264Ctx_42(D)->CurrSPS.direct_8x8_inference_flag
	strb	r1, [r9, #3]	@ D.41059, pCurrSlicePara_48->direct_8x8_inference_flag
	ldr	r1, [r7, #244]	@ D.41055, pH264Ctx_42(D)->CurrSlice.listXsize
	str	r1, [r9, #52]	@ D.41055, pCurrSlicePara_48->listXsize
	ldr	r1, [r7, #248]	@ D.41055, pH264Ctx_42(D)->CurrSlice.listXsize
	str	r1, [r9, #56]	@ D.41055, pCurrSlicePara_48->listXsize
	ldrb	r1, [r7, #200]	@ zero_extendqisi2	@ D.41059, pH264Ctx_42(D)->CurrSlice.slice_type
	cmp	r1, #1	@ D.41059,
	beq	.L1355	@,
	cmp	r1, #0	@ D.41059,
	ldreq	r3, [sp, #4]	@ tmp851, %sfp
	movne	r1, #0	@ tmp591,
	ldreqb	r1, [r3, #1206]	@ zero_extendqisi2	@ D.41059, pH264Ctx_42(D)->CurrPPS.weighted_pred_flag
	strb	r1, [r9, #4]	@ tmp591, pCurrSlicePara_48->weight_flag
.L1261:
	ldr	r3, [sp, #4]	@ tmp851, %sfp
	ldr	r1, [r3, #1256]	@ D.41057, pH264Ctx_42(D)->CurrPPS.chroma_qp_index_offset
	str	r1, [r9, #60]	@ D.41057, pCurrSlicePara_48->chroma_qp_index_offset
	ldr	r1, [r3, #1260]	@ D.41057, pH264Ctx_42(D)->CurrPPS.second_chroma_qp_index_offset
	str	r1, [r9, #64]	@ D.41057, pCurrSlicePara_48->second_chroma_qp_index_offset
	ldr	r1, [r7, #1820]	@ D.41057, pH264Ctx_42(D)->CurrSlice.slice_alpha_c0_offset_div2
	str	r1, [r9, #68]	@ D.41057, pCurrSlicePara_48->slice_alpha_c0_offset_div2
	ldr	r1, [r7, #1824]	@ D.41057, pH264Ctx_42(D)->CurrSlice.slice_beta_offset_div2
	str	r1, [r9, #72]	@ D.41057, pCurrSlicePara_48->slice_beta_offset_div2
	ldr	r1, [r7, #1816]	@ D.41055, pH264Ctx_42(D)->CurrSlice.disable_deblocking_filter_idc
	str	r1, [r9, #76]	@ D.41055, pCurrSlicePara_48->disable_deblocking_filter_idc
	ldrb	r1, [r7, #200]	@ zero_extendqisi2	@ pH264Ctx_42(D)->CurrSlice.slice_type, pH264Ctx_42(D)->CurrSlice.slice_type
	cmp	r1, #2	@ pH264Ctx_42(D)->CurrSlice.slice_type,
	beq	.L1300	@,
	ldr	r8, [r7, #244]	@ D.41055, pH264Ctx_42(D)->CurrSlice.listXsize
	cmp	r8, #0	@ D.41055,
	beq	.L1303	@,
	add	r1, r5, #24576	@ tmp614, pH264Ctx,
	ldr	r1, [r1, #2460]	@ pH264Ctx_42(D)->pListX, pH264Ctx_42(D)->pListX
	ldr	ip, [r1, #4]	@ D.41063, _455->frame_store
	ldrb	r1, [ip]	@ zero_extendqisi2	@ _456->non_existing, _456->non_existing
	cmp	r1, #0	@ _456->non_existing,
	addne	r0, r5, #26880	@ ivtmp.2045, pH264Ctx,
	movne	r1, #0	@ i,
	addne	r0, r0, #156	@ ivtmp.2045, ivtmp.2045,
	bne	.L1268	@,
	b	.L1266	@
.L1270:
	ldr	r3, [r0, #4]!	@ MEM[base: _676, offset: 0B], MEM[base: _676, offset: 0B]
	ldr	ip, [r3, #4]	@ D.41063, _128->frame_store
	ldrb	r3, [ip]	@ zero_extendqisi2	@ _129->non_existing, _129->non_existing
	cmp	r3, #0	@ _129->non_existing,
	beq	.L1266	@,
.L1268:
	add	r1, r1, #1	@ i, i,
	cmp	r1, r8	@ i, D.41055
	bne	.L1270	@,
	mov	r3, #0	@ ExistImgIdc_0,
	str	r3, [sp, #12]	@ ExistImgIdc_0, %sfp
.L1265:
	ldr	r3, [r7, #248]	@ D.41055, pH264Ctx_42(D)->CurrSlice.listXsize
	cmp	r3, #0	@ D.41055,
	beq	.L1304	@,
	add	r1, r5, #24576	@ tmp629, pH264Ctx,
	ldr	r1, [r1, #2592]	@ pH264Ctx_42(D)->pListX, pH264Ctx_42(D)->pListX
	ldr	ip, [r1, #4]	@ D.41063, _450->frame_store
	ldrb	r1, [ip]	@ zero_extendqisi2	@ _451->non_existing, _451->non_existing
	cmp	r1, #0	@ _451->non_existing,
	addne	r0, r5, #27136	@ ivtmp.2034, pH264Ctx,
	movne	r1, #0	@ i,
	addne	r0, r0, #32	@ ivtmp.2034, ivtmp.2034,
	bne	.L1274	@,
	b	.L1272	@
.L1276:
	ldr	r2, [r0, #4]!	@ MEM[base: _671, offset: 0B], MEM[base: _671, offset: 0B]
	ldr	ip, [r2, #4]	@ D.41063, _142->frame_store
	ldrb	r2, [ip]	@ zero_extendqisi2	@ _143->non_existing, _143->non_existing
	cmp	r2, #0	@ _143->non_existing,
	beq	.L1272	@,
.L1274:
	add	r1, r1, #1	@ i, i,
	cmp	r1, r3	@ i, D.41055
	bne	.L1276	@,
	mov	r3, #0	@ ExistImgIdc_1,
	str	r3, [sp, #16]	@ ExistImgIdc_1, %sfp
.L1271:
	ldrb	ip, [r10, #555]	@ zero_extendqisi2	@ pH264Ctx_42(D)->CurrPic.structure, pH264Ctx_42(D)->CurrPic.structure
	ldr	r1, [r7, #244]	@ pH264Ctx_42(D)->CurrSlice.listXsize, pH264Ctx_42(D)->CurrSlice.listXsize
	cmp	ip, #0	@ pH264Ctx_42(D)->CurrPic.structure,
	beq	.L1277	@,
.L1359:
	cmp	r1, #0	@ pH264Ctx_42(D)->CurrSlice.listXsize,
	beq	.L1292	@,
	add	r4, r5, #26880	@ ivtmp.1959, pH264Ctx,
	mov	r6, r9	@ ivtmp.1976, pCurrSlicePara
	add	r4, r4, #156	@ ivtmp.1959, ivtmp.1959,
	mov	fp, #0	@ i,
	ldr	r8, [sp, #12]	@ ExistImgIdc_0, %sfp
	b	.L1291	@
.L1289:
	strb	r3, [r6, #1630]	@ D.41059, MEM[base: _643, offset: 1630B]
	ldr	r3, [r4]	@ MEM[base: _641, offset: 0B], MEM[base: _641, offset: 0B]
	ldrb	r3, [r3, #1]	@ zero_extendqisi2	@ D.41059, _305->is_long_term
	strb	r3, [r6, #1631]	@ D.41059, MEM[base: _643, offset: 1631B]
	ldr	r3, [r4]	@ MEM[base: _641, offset: 0B], MEM[base: _641, offset: 0B]
	ldr	r3, [r3, #16]	@ D.41057, _308->poc
	str	r3, [r6, #1656]	@ D.41057, MEM[base: _643, offset: 1656B]
.L1290:
	ldr	r3, [r7, #244]	@ pH264Ctx_42(D)->CurrSlice.listXsize, pH264Ctx_42(D)->CurrSlice.listXsize
	add	fp, fp, #1	@ i, i,
	add	r4, r4, #4	@ ivtmp.1959, ivtmp.1959,
	add	r6, r6, #36	@ ivtmp.1976, ivtmp.1976,
	cmp	r3, fp	@ pH264Ctx_42(D)->CurrSlice.listXsize, i
	bls	.L1292	@,
.L1291:
	ldr	r3, [r4]	@ MEM[base: _641, offset: 0B], MEM[base: _641, offset: 0B]
	ldr	r0, [r10, #3688]	@, pH264Ctx_42(D)->ChanID
	ldr	r3, [r3, #4]	@ _259->frame_store, _259->frame_store
	ldr	r1, [r3, #508]	@, _260->logic_fs_id
	bl	FSP_GetLogicFs	@
	ldr	r3, [r4]	@ MEM[base: _641, offset: 0B], MEM[base: _641, offset: 0B]
	ldr	r3, [r3, #4]	@ _264->frame_store, _264->frame_store
	ldr	r3, [r3, #548]	@ D.41055, _265->pmv_address_idc
	str	r3, [r6, #1636]	@ D.41055, MEM[base: _643, offset: 1636B]
	ldr	r3, [r4]	@ MEM[base: _641, offset: 0B], MEM[base: _641, offset: 0B]
	ldr	r3, [r3, #4]	@ _268->frame_store, _268->frame_store
	ldrb	r3, [r3, #1]	@ zero_extendqisi2	@ D.41059, _269->is_used
	strb	r3, [r6, #1625]	@ D.41059, MEM[base: _643, offset: 1625B]
	ldr	r3, [r4]	@ MEM[base: _641, offset: 0B], MEM[base: _641, offset: 0B]
	ldr	r3, [r3, #4]	@ _272->frame_store, _272->frame_store
	ldrb	r3, [r3]	@ zero_extendqisi2	@ _273->non_existing, _273->non_existing
	cmp	r3, #1	@ _273->non_existing,
	moveq	r0, r8	@ D.41053, ExistImgIdc_0
	beq	.L1288	@,
	cmp	r0, #0	@ pstLogicFs,
	ldrne	r3, [r0, #408]	@ pstLogicFs_263->pstDecodeFs, pstLogicFs_263->pstDecodeFs
	ldrne	r0, [r3, #4]	@ D.41053, _275->PhyFsID
.L1288:
	str	r0, [r6, #1640]	@ D.41053, MEM[base: _643, offset: 1640B]
	ldr	r3, [r4]	@ MEM[base: _641, offset: 0B], MEM[base: _641, offset: 0B]
	ldr	r3, [r3, #4]	@ _279->frame_store, _279->frame_store
	ldr	r3, [r3, #552]	@ D.41055, _280->apc_idc
	str	r3, [r6, #1644]	@ D.41055, MEM[base: _643, offset: 1644B]
	ldr	r3, [r4]	@ MEM[base: _641, offset: 0B], MEM[base: _641, offset: 0B]
	ldr	r3, [r3, #4]	@ _283->frame_store, _283->frame_store
	ldr	r3, [r3, #524]	@ D.41057, _284->poc
	str	r3, [r6, #1632]	@ D.41057, MEM[base: _643, offset: 1632B]
	ldr	r3, [r4]	@ MEM[base: _641, offset: 0B], MEM[base: _641, offset: 0B]
	ldrb	r3, [r3]	@ zero_extendqisi2	@ D.41059, _287->structure
	strb	r3, [r6, #1624]	@ D.41059, MEM[base: _643, offset: 1624B]
	ldr	r3, [r4]	@ MEM[base: _641, offset: 0B], MEM[base: _641, offset: 0B]
	ldr	r3, [r3, #4]	@ _290->frame_store, _290->frame_store
	ldrb	r3, [r3, #400]	@ zero_extendqisi2	@ D.41059, _291->frame.structure
	strb	r3, [r6, #1626]	@ D.41059, MEM[base: _643, offset: 1626B]
	ldr	r3, [r4]	@ MEM[base: _641, offset: 0B], MEM[base: _641, offset: 0B]
	ldrb	r3, [r3]	@ zero_extendqisi2	@ D.41059, _294->structure
	cmp	r3, #1	@ D.41059,
	bne	.L1289	@,
	strb	r3, [r6, #1628]	@ D.41059, MEM[base: _643, offset: 1628B]
	ldr	r3, [r4]	@ MEM[base: _641, offset: 0B], MEM[base: _641, offset: 0B]
	ldrb	r3, [r3, #1]	@ zero_extendqisi2	@ D.41059, _297->is_long_term
	strb	r3, [r6, #1629]	@ D.41059, MEM[base: _643, offset: 1629B]
	ldr	r3, [r4]	@ MEM[base: _641, offset: 0B], MEM[base: _641, offset: 0B]
	ldr	r3, [r3, #16]	@ D.41057, _300->poc
	str	r3, [r6, #1652]	@ D.41057, MEM[base: _643, offset: 1652B]
	b	.L1290	@
.L1292:
	ldrb	r1, [r7, #200]	@ zero_extendqisi2	@ pH264Ctx_42(D)->CurrSlice.slice_type, pH264Ctx_42(D)->CurrSlice.slice_type
	cmp	r1, #1	@ pH264Ctx_42(D)->CurrSlice.slice_type,
	beq	.L1356	@,
.L1280:
	add	r0, r5, #26880	@ ivtmp.1699, pH264Ctx,
	add	r1, r9, #3920	@ ivtmp.1708, pCurrSlicePara,
	add	lr, r9, #4048	@ D.41067, pCurrSlicePara,
	add	r0, r0, #24	@ ivtmp.1699, ivtmp.1699,
	add	r1, r1, #4	@ ivtmp.1708, ivtmp.1708,
	add	lr, lr, #4	@ D.41067, D.41067,
.L1297:
	ldr	r3, [r0, #4]!	@ D.41055, MEM[base: _543, offset: 0B]
	str	r3, [r1, #4]!	@ D.41055, MEM[base: _544, offset: 0B]
	cmp	r1, lr	@ ivtmp.1708, D.41067
	bne	.L1297	@,
	ldr	r3, [sp, #4]	@ tmp851, %sfp
	ldrb	r1, [r3, #1206]	@ zero_extendqisi2	@ D.41059, pH264Ctx_42(D)->CurrPPS.weighted_pred_flag
	cmp	r1, #0	@ D.41059,
	str	r1, [r10, #2500]	@ D.41059, pH264Ctx_42(D)->DecPicPara.weighted_pred_flag
	ldr	r1, [r3, #1248]	@ D.41055, pH264Ctx_42(D)->CurrPPS.weighted_bipred_idc
	str	r1, [r10, #2504]	@ D.41055, pH264Ctx_42(D)->DecPicPara.weighted_bipred_idc
	beq	.L1298	@,
	ldrb	r2, [r7, #200]	@ zero_extendqisi2	@ pH264Ctx_42(D)->CurrSlice.slice_type, pH264Ctx_42(D)->CurrSlice.slice_type
	cmp	r2, #0	@ pH264Ctx_42(D)->CurrSlice.slice_type,
	beq	.L1299	@,
.L1298:
	cmp	r1, #1	@ D.41055,
	beq	.L1357	@,
.L1300:
	ldr	r3, [sp, #8]	@ CurrSliceSlotNum, %sfp
	mov	r2, #0	@ tmp609,
	ldr	r1, [r5, #368]	@ pH264Ctx_42(D)->pCurrNal, pH264Ctx_42(D)->pCurrNal
	add	r3, r3, #12672	@ tmp607, CurrSliceSlotNum,
	add	r3, r3, #4	@ tmp607, tmp607,
	str	r1, [r5, r3, asl #2]	@ pH264Ctx_42(D)->pCurrNal, pH264Ctx_42(D)->SlcInfo[CurrSliceSlotNum_43].pSliceNal
	str	r2, [r5, #368]	@ tmp609, pH264Ctx_42(D)->pCurrNal
	add	sp, sp, #28	@,,
	@ sp needed	@
	ldmfd	sp!, {r4, r5, r6, r7, r8, r9, r10, fp, pc}	@
.L1354:
	ldr	r0, [r10, #960]	@ D.41061, pH264Ctx_42(D)->CurrPic.frame_store
	ldr	r8, [r0, #428]	@ MEM[(struct H264_STORABLEPIC_S *)_89 + 400B].MaxQp, MEM[(struct H264_STORABLEPIC_S *)_89 + 400B].MaxQp
	ldr	r6, [r0, #432]	@ MEM[(struct H264_STORABLEPIC_S *)_89 + 400B].MinQp, MEM[(struct H264_STORABLEPIC_S *)_89 + 400B].MinQp
	cmp	r8, r1	@ MEM[(struct H264_STORABLEPIC_S *)_89 + 400B].MaxQp, D.41057
	movlt	r8, r1	@ D.41057, D.41057
	cmp	r6, r1	@ MEM[(struct H264_STORABLEPIC_S *)_89 + 400B].MinQp, D.41057
	str	r8, [r0, #428]	@ D.41057, MEM[(struct H264_STORABLEPIC_S *)_89 + 400B].MaxQp
	movge	r6, r1	@ D.41057, D.41057
	str	r6, [r0, #432]	@ D.41057, MEM[(struct H264_STORABLEPIC_S *)_89 + 400B].MinQp
	b	.L1259	@
.L1266:
	ldr	r1, [ip, #508]	@, _495->logic_fs_id
	ldr	r0, [r10, #3688]	@, pH264Ctx_42(D)->ChanID
	bl	FSP_GetLogicFs	@
	subs	r1, r0, #0	@ pstLogicFs,
	movweq	r2, #7080	@,
	beq	.L1350	@,
	ldr	r1, [r1, #408]	@ pstLogicFs_136->pstDecodeFs, pstLogicFs_136->pstDecodeFs
	ldr	r3, [r1, #4]	@ ExistImgIdc_0, _138->PhyFsID
	str	r3, [sp, #12]	@ ExistImgIdc_0, %sfp
	b	.L1265	@
.L1357:
	ldrb	r2, [r7, #200]	@ zero_extendqisi2	@ pH264Ctx_42(D)->CurrSlice.slice_type, pH264Ctx_42(D)->CurrSlice.slice_type
	cmp	r2, #1	@ pH264Ctx_42(D)->CurrSlice.slice_type,
	bne	.L1300	@,
.L1299:
	ldr	r2, [r7, #264]	@ D.41055, pH264Ctx_42(D)->CurrSlice.luma_log2_weight_denom
	add	r3, r5, #20736	@ ivtmp.1607, pH264Ctx,
	add	r4, r5, #21504	@ ivtmp.1652, pH264Ctx,
	add	r6, r5, #20992	@ ivtmp.1638, pH264Ctx,
	add	ip, r5, #21760	@ ivtmp.1680, pH264Ctx,
	mov	r8, r3	@ ivtmp.1624, ivtmp.1607
	str	r2, [r9, #80]	@ D.41055, pCurrSlicePara_48->luma_log2_weight_denom
	mov	lr, r4	@ ivtmp.1666, ivtmp.1652
	ldr	r10, [r7, #268]	@ D.41055, pH264Ctx_42(D)->CurrSlice.chroma_log2_weight_denom
	add	r3, r3, #12	@ ivtmp.1607, ivtmp.1607,
	add	r8, r8, #140	@ ivtmp.1624, ivtmp.1624,
	add	r6, r6, #12	@ ivtmp.1638, ivtmp.1638,
	add	r4, r4, #12	@ ivtmp.1652, ivtmp.1652,
	add	lr, lr, #140	@ ivtmp.1666, ivtmp.1666,
	add	ip, ip, #12	@ ivtmp.1680, ivtmp.1680,
	add	fp, r9, #212	@ ivtmp.1631, pCurrSlicePara,
	mov	r0, r9	@ ivtmp.1616, pCurrSlicePara
	mov	r2, r9	@ ivtmp.1620, pCurrSlicePara
	mov	r1, #0	@ i,
	str	r9, [sp, #4]	@ pCurrSlicePara, %sfp
	str	r10, [r0, #84]!	@ D.41055, pCurrSlicePara_48->chroma_log2_weight_denom
.L1301:
	ldr	r10, [r3, #4]!	@ D.41057, MEM[base: _523, offset: 0B]
	add	r1, r1, #1	@ i, i,
	add	r2, r2, #4	@ ivtmp.1620, ivtmp.1620,
	str	r10, [r0, #4]!	@ D.41057, MEM[base: _524, offset: 0B]
	ldr	r10, [r8, #4]!	@ D.41057, MEM[base: _525, offset: 0B]
	str	r10, [fp, #4]!	@ D.41057, MEM[base: _526, offset: 0B]
	ldr	r10, [r6, #4]!	@ D.41057, MEM[base: _527, offset: 0B]
	str	r10, [r2, #340]	@ D.41057, MEM[base: _528, offset: 344B]
	ldr	r10, [r4, #4]!	@ D.41057, MEM[base: _529, offset: 0B]
	str	r10, [r2, #852]	@ D.41057, MEM[base: _528, offset: 856B]
	ldr	r10, [lr, #4]!	@ D.41057, MEM[base: _531, offset: 0B]
	str	r10, [r2, #980]	@ D.41057, MEM[base: _528, offset: 984B]
	ldr	r10, [ip, #4]!	@ D.41057, MEM[base: _533, offset: 0B]
	str	r10, [r2, #1108]	@ D.41057, MEM[base: _528, offset: 1112B]
	ldr	r10, [r7, #256]	@ pH264Ctx_42(D)->CurrSlice.num_ref_idx_l0_active_minus1, pH264Ctx_42(D)->CurrSlice.num_ref_idx_l0_active_minus1
	cmp	r10, r1	@ pH264Ctx_42(D)->CurrSlice.num_ref_idx_l0_active_minus1, i
	bcs	.L1301	@,
	ldrb	r2, [r7, #200]	@ zero_extendqisi2	@ pH264Ctx_42(D)->CurrSlice.slice_type, pH264Ctx_42(D)->CurrSlice.slice_type
	cmp	r2, #1	@ pH264Ctx_42(D)->CurrSlice.slice_type,
	bne	.L1300	@,
	add	r4, r5, #21248	@ ivtmp.1535, pH264Ctx,
	add	r0, r5, #22016	@ ivtmp.1577, pH264Ctx,
	add	r6, r5, #20992	@ ivtmp.1518, pH264Ctx,
	add	ip, r5, #21760	@ ivtmp.1563, pH264Ctx,
	add	r8, r9, #468	@ ivtmp.1527, pCurrSlicePara,
	add	r3, r9, #596	@ ivtmp.1542, pCurrSlicePara,
	ldr	r9, [sp, #4]	@ ivtmp.1531, %sfp
	mov	lr, r4	@ ivtmp.1549, ivtmp.1535
	mov	r1, r0	@ ivtmp.1591, ivtmp.1577
	add	r6, r6, #140	@ ivtmp.1518, ivtmp.1518,
	add	r4, r4, #12	@ ivtmp.1535, ivtmp.1535,
	add	lr, lr, #140	@ ivtmp.1549, ivtmp.1549,
	add	ip, ip, #140	@ ivtmp.1563, ivtmp.1563,
	add	r0, r0, #12	@ ivtmp.1577, ivtmp.1577,
	add	r1, r1, #140	@ ivtmp.1591, ivtmp.1591,
	mov	r2, #0	@ i,
.L1302:
	ldr	r10, [r6, #4]!	@ D.41057, MEM[base: _11, offset: 0B]
	add	r2, r2, #1	@ i, i,
	add	r9, r9, #4	@ ivtmp.1531, ivtmp.1531,
	str	r10, [r8, #4]!	@ D.41057, MEM[base: _38, offset: 0B]
	ldr	r10, [r4, #4]!	@ D.41057, MEM[base: _436, offset: 0B]
	str	r10, [r3, #4]!	@ D.41057, MEM[base: _29, offset: 0B]
	ldr	r10, [lr, #4]!	@ D.41057, MEM[base: _5, offset: 0B]
	str	r10, [r9, #724]	@ D.41057, MEM[base: _440, offset: 728B]
	ldr	r10, [ip, #4]!	@ D.41057, MEM[base: _439, offset: 0B]
	str	r10, [r9, #1236]	@ D.41057, MEM[base: _440, offset: 1240B]
	ldr	r10, [r0, #4]!	@ D.41057, MEM[base: _445, offset: 0B]
	str	r10, [r9, #1364]	@ D.41057, MEM[base: _440, offset: 1368B]
	ldr	r10, [r1, #4]!	@ D.41057, MEM[base: _448, offset: 0B]
	str	r10, [r9, #1492]	@ D.41057, MEM[base: _440, offset: 1496B]
	ldr	r10, [r7, #260]	@ pH264Ctx_42(D)->CurrSlice.num_ref_idx_l1_active_minus1, pH264Ctx_42(D)->CurrSlice.num_ref_idx_l1_active_minus1
	cmp	r10, r2	@ pH264Ctx_42(D)->CurrSlice.num_ref_idx_l1_active_minus1, i
	bcs	.L1302	@,
	b	.L1300	@
.L1272:
	ldr	r1, [ip, #508]	@, _496->logic_fs_id
	ldr	r0, [r10, #3688]	@, pH264Ctx_42(D)->ChanID
	bl	FSP_GetLogicFs	@
	subs	r1, r0, #0	@ pstLogicFs,
	beq	.L1358	@,
	ldr	r1, [r1, #408]	@ pstLogicFs_150->pstDecodeFs, pstLogicFs_150->pstDecodeFs
	ldrb	ip, [r10, #555]	@ zero_extendqisi2	@ pH264Ctx_42(D)->CurrPic.structure, pH264Ctx_42(D)->CurrPic.structure
	ldr	r3, [r1, #4]	@ ExistImgIdc_1, _152->PhyFsID
	cmp	ip, #0	@ pH264Ctx_42(D)->CurrPic.structure,
	ldr	r1, [r7, #244]	@ pH264Ctx_42(D)->CurrSlice.listXsize, pH264Ctx_42(D)->CurrSlice.listXsize
	str	r3, [sp, #16]	@ ExistImgIdc_1, %sfp
	bne	.L1359	@,
.L1277:
	cmp	r1, #0	@ pH264Ctx_42(D)->CurrSlice.listXsize,
	beq	.L1285	@,
	add	r6, r5, #26880	@ ivtmp.1801, pH264Ctx,
	ldr	r8, [sp, #12]	@ ExistImgIdc_0, %sfp
	add	r6, r6, #156	@ ivtmp.1801, ivtmp.1801,
	str	r5, [sp, #20]	@ pH264Ctx, %sfp
	mov	fp, ip	@ D.41053, i
	mov	r5, r7	@ tmp852, tmp852
	mov	r4, r9	@ ivtmp.1818, pCurrSlicePara
	mov	r7, ip	@ i, i
.L1284:
	ldr	r2, [r6]	@ MEM[base: _579, offset: 0B], MEM[base: _579, offset: 0B]
	ldr	r0, [r10, #3688]	@, pH264Ctx_42(D)->ChanID
	ldr	r2, [r2, #4]	@ _158->frame_store, _158->frame_store
	ldr	r1, [r2, #508]	@, _159->logic_fs_id
	bl	FSP_GetLogicFs	@
	ldr	r2, [r6]	@ MEM[base: _579, offset: 0B], MEM[base: _579, offset: 0B]
	ldr	r2, [r2, #4]	@ _163->frame_store, _163->frame_store
	ldr	r2, [r2, #548]	@ D.41055, _164->pmv_address_idc
	str	r2, [r4, #1636]	@ D.41055, MEM[base: _581, offset: 1636B]
	ldr	r2, [r6]	@ MEM[base: _579, offset: 0B], MEM[base: _579, offset: 0B]
	ldr	r2, [r2, #4]	@ _167->frame_store, _167->frame_store
	ldrb	r2, [r2, #1]	@ zero_extendqisi2	@ D.41059, _168->is_used
	strb	r2, [r4, #1625]	@ D.41059, MEM[base: _581, offset: 1625B]
	ldr	r2, [r6]	@ MEM[base: _579, offset: 0B], MEM[base: _579, offset: 0B]
	ldr	r2, [r2, #4]	@ _171->frame_store, _171->frame_store
	ldrb	r2, [r2]	@ zero_extendqisi2	@ _172->non_existing, _172->non_existing
	cmp	r2, #1	@ _172->non_existing,
	moveq	r0, r8	@ D.41053, ExistImgIdc_0
	beq	.L1283	@,
	cmp	r0, #0	@ pstLogicFs,
	ldrne	r2, [r0, #408]	@ pstLogicFs_162->pstDecodeFs, pstLogicFs_162->pstDecodeFs
	ldrne	r0, [r2, #4]	@ D.41053, _174->PhyFsID
.L1283:
	str	r0, [r4, #1640]	@ D.41053, MEM[base: _581, offset: 1640B]
	add	r7, r7, #1	@ i, i,
	ldr	r2, [r6]	@ MEM[base: _579, offset: 0B], MEM[base: _579, offset: 0B]
	add	r4, r4, #36	@ ivtmp.1818, ivtmp.1818,
	ldr	r2, [r2, #4]	@ _178->frame_store, _178->frame_store
	ldr	r2, [r2, #552]	@ D.41055, _179->apc_idc
	str	r2, [r4, #1608]	@ D.41055, MEM[base: _581, offset: 1644B]
	ldr	r2, [r6]	@ MEM[base: _579, offset: 0B], MEM[base: _579, offset: 0B]
	ldr	r2, [r2, #4]	@ _182->frame_store, _182->frame_store
	ldr	r2, [r2, #524]	@ D.41057, _183->poc
	str	r2, [r4, #1596]	@ D.41057, MEM[base: _581, offset: 1632B]
	ldr	r2, [r6]	@ MEM[base: _579, offset: 0B], MEM[base: _579, offset: 0B]
	ldrb	r2, [r2, #1]	@ zero_extendqisi2	@ D.41059, _186->is_long_term
	strb	r2, [r4, #1591]	@ D.41059, MEM[base: _581, offset: 1627B]
	ldr	r2, [r6]	@ MEM[base: _579, offset: 0B], MEM[base: _579, offset: 0B]
	ldrb	r2, [r2]	@ zero_extendqisi2	@ D.41059, _189->structure
	strb	r2, [r4, #1590]	@ D.41059, MEM[base: _581, offset: 1626B]
	ldr	r2, [r6]	@ MEM[base: _579, offset: 0B], MEM[base: _579, offset: 0B]
	ldr	r2, [r2, #4]	@ _192->frame_store, _192->frame_store
	ldr	r2, [r2, #416]	@ D.41057, _193->frame.poc
	str	r2, [r4, #1612]	@ D.41057, MEM[base: _581, offset: 1648B]
	ldr	r2, [r6]	@ MEM[base: _579, offset: 0B], MEM[base: _579, offset: 0B]
	ldr	r2, [r2, #4]	@ _196->frame_store, _196->frame_store
	ldr	r2, [r2, #452]	@ D.41057, _197->top_field.poc
	str	r2, [r4, #1616]	@ D.41057, MEM[base: _581, offset: 1652B]
	ldr	r2, [r6], #4	@ MEM[base: _579, offset: 0B], MEM[base: _579, offset: 0B]
	ldr	r2, [r2, #4]	@ _200->frame_store, _200->frame_store
	ldr	r2, [r2, #488]	@ D.41057, _201->bottom_field.poc
	strb	fp, [r4, #1588]	@ D.41053, MEM[base: _581, offset: 1624B]
	str	r2, [r4, #1620]	@ D.41057, MEM[base: _581, offset: 1656B]
	ldr	r2, [r5, #244]	@ pH264Ctx_42(D)->CurrSlice.listXsize, pH264Ctx_42(D)->CurrSlice.listXsize
	cmp	r2, r7	@ pH264Ctx_42(D)->CurrSlice.listXsize, i
	bhi	.L1284	@,
	mov	r7, r5	@ tmp852, tmp852
	ldr	r5, [sp, #20]	@ pH264Ctx, %sfp
.L1285:
	ldrb	r1, [r7, #200]	@ zero_extendqisi2	@ pH264Ctx_42(D)->CurrSlice.slice_type, pH264Ctx_42(D)->CurrSlice.slice_type
	cmp	r1, #1	@ pH264Ctx_42(D)->CurrSlice.slice_type,
	bne	.L1280	@,
	ldr	r1, [r7, #248]	@ pH264Ctx_42(D)->CurrSlice.listXsize, pH264Ctx_42(D)->CurrSlice.listXsize
	cmp	r1, #0	@ pH264Ctx_42(D)->CurrSlice.listXsize,
	beq	.L1280	@,
	mov	fp, #0	@ i,
	add	r8, r5, #27136	@ ivtmp.1717, pH264Ctx,
	mov	r4, fp	@ D.41053, i
	str	r5, [sp, #12]	@ pH264Ctx, %sfp
	mov	r5, r7	@ tmp852, tmp852
	mov	r7, fp	@ i, i
	ldr	fp, [sp, #16]	@ ExistImgIdc_1, %sfp
	add	r8, r8, #32	@ ivtmp.1717, ivtmp.1717,
	mov	r6, r9	@ ivtmp.1734, pCurrSlicePara
.L1287:
	ldr	r2, [r8]	@ MEM[base: _550, offset: 0B], MEM[base: _550, offset: 0B]
	ldr	r0, [r10, #3688]	@, pH264Ctx_42(D)->ChanID
	ldr	r2, [r2, #4]	@ _209->frame_store, _209->frame_store
	ldr	r1, [r2, #508]	@, _210->logic_fs_id
	bl	FSP_GetLogicFs	@
	ldr	r2, [r8]	@ MEM[base: _550, offset: 0B], MEM[base: _550, offset: 0B]
	ldr	r2, [r2, #4]	@ _214->frame_store, _214->frame_store
	ldr	r2, [r2, #548]	@ D.41055, _215->pmv_address_idc
	str	r2, [r6, #2788]	@ D.41055, MEM[base: _552, offset: 2788B]
	ldr	r2, [r8]	@ MEM[base: _550, offset: 0B], MEM[base: _550, offset: 0B]
	ldr	r2, [r2, #4]	@ _218->frame_store, _218->frame_store
	ldrb	r2, [r2, #1]	@ zero_extendqisi2	@ D.41059, _219->is_used
	strb	r2, [r6, #2777]	@ D.41059, MEM[base: _552, offset: 2777B]
	ldr	r2, [r8]	@ MEM[base: _550, offset: 0B], MEM[base: _550, offset: 0B]
	ldr	r2, [r2, #4]	@ _222->frame_store, _222->frame_store
	ldrb	r2, [r2]	@ zero_extendqisi2	@ _223->non_existing, _223->non_existing
	cmp	r2, #1	@ _223->non_existing,
	moveq	r0, fp	@ D.41053, ExistImgIdc_1
	beq	.L1286	@,
	cmp	r0, #0	@ pstLogicFs,
	ldrne	r2, [r0, #408]	@ pstLogicFs_213->pstDecodeFs, pstLogicFs_213->pstDecodeFs
	ldrne	r0, [r2, #4]	@ D.41053, _225->PhyFsID
.L1286:
	str	r0, [r6, #1640]	@ D.41053, MEM[base: _552, offset: 1640B]
	add	r7, r7, #1	@ i, i,
	ldr	r2, [r8]	@ MEM[base: _550, offset: 0B], MEM[base: _550, offset: 0B]
	add	r6, r6, #36	@ ivtmp.1734, ivtmp.1734,
	ldr	r2, [r2, #4]	@ _229->frame_store, _229->frame_store
	ldr	r2, [r2, #552]	@ D.41055, _230->apc_idc
	str	r2, [r6, #2760]	@ D.41055, MEM[base: _552, offset: 2796B]
	ldr	r2, [r8]	@ MEM[base: _550, offset: 0B], MEM[base: _550, offset: 0B]
	ldr	r2, [r2, #4]	@ _233->frame_store, _233->frame_store
	ldr	r2, [r2, #524]	@ D.41057, _234->poc
	str	r2, [r6, #2748]	@ D.41057, MEM[base: _552, offset: 2784B]
	ldr	r2, [r8]	@ MEM[base: _550, offset: 0B], MEM[base: _550, offset: 0B]
	ldrb	r2, [r2, #1]	@ zero_extendqisi2	@ D.41059, _237->is_long_term
	strb	r2, [r6, #2743]	@ D.41059, MEM[base: _552, offset: 2779B]
	ldr	r2, [r8]	@ MEM[base: _550, offset: 0B], MEM[base: _550, offset: 0B]
	ldrb	r2, [r2]	@ zero_extendqisi2	@ D.41059, _240->structure
	strb	r2, [r6, #2742]	@ D.41059, MEM[base: _552, offset: 2778B]
	ldr	r2, [r8]	@ MEM[base: _550, offset: 0B], MEM[base: _550, offset: 0B]
	ldr	r2, [r2, #4]	@ _243->frame_store, _243->frame_store
	ldr	r2, [r2, #416]	@ D.41057, _244->frame.poc
	str	r2, [r6, #2764]	@ D.41057, MEM[base: _552, offset: 2800B]
	ldr	r2, [r8]	@ MEM[base: _550, offset: 0B], MEM[base: _550, offset: 0B]
	ldr	r2, [r2, #4]	@ _247->frame_store, _247->frame_store
	ldr	r2, [r2, #452]	@ D.41057, _248->top_field.poc
	str	r2, [r6, #2768]	@ D.41057, MEM[base: _552, offset: 2804B]
	ldr	r2, [r8], #4	@ MEM[base: _550, offset: 0B], MEM[base: _550, offset: 0B]
	ldr	r2, [r2, #4]	@ _251->frame_store, _251->frame_store
	ldr	r2, [r2, #488]	@ D.41057, _252->bottom_field.poc
	strb	r4, [r6, #2740]	@ D.41053, MEM[base: _552, offset: 2776B]
	str	r2, [r6, #2772]	@ D.41057, MEM[base: _552, offset: 2808B]
	ldr	r2, [r5, #248]	@ pH264Ctx_42(D)->CurrSlice.listXsize, pH264Ctx_42(D)->CurrSlice.listXsize
	cmp	r2, r7	@ pH264Ctx_42(D)->CurrSlice.listXsize, i
	bhi	.L1287	@,
	mov	r7, r5	@ tmp852, tmp852
	ldr	r5, [sp, #12]	@ pH264Ctx, %sfp
	b	.L1280	@
.L1355:
	ldr	r3, [sp, #4]	@ tmp851, %sfp
	ldr	r1, [r3, #1248]	@ pH264Ctx_42(D)->CurrPPS.weighted_bipred_idc, pH264Ctx_42(D)->CurrPPS.weighted_bipred_idc
	strb	r1, [r9, #4]	@ pH264Ctx_42(D)->CurrPPS.weighted_bipred_idc, pCurrSlicePara_48->weight_flag
	b	.L1261	@
.L1356:
	ldr	r1, [r7, #248]	@ pH264Ctx_42(D)->CurrSlice.listXsize, pH264Ctx_42(D)->CurrSlice.listXsize
	cmp	r1, #0	@ pH264Ctx_42(D)->CurrSlice.listXsize,
	beq	.L1280	@,
	add	r4, r5, #27136	@ ivtmp.1885, pH264Ctx,
	mov	r6, r9	@ ivtmp.1902, pCurrSlicePara
	add	r4, r4, #32	@ ivtmp.1885, ivtmp.1885,
	mov	r8, #0	@ i,
	ldr	fp, [sp, #16]	@ ExistImgIdc_1, %sfp
	b	.L1296	@
.L1294:
	strb	r3, [r6, #2782]	@ D.41059, MEM[base: _610, offset: 2782B]
	ldr	r3, [r4]	@ MEM[base: _608, offset: 0B], MEM[base: _608, offset: 0B]
	ldrb	r3, [r3, #1]	@ zero_extendqisi2	@ D.41059, _363->is_long_term
	strb	r3, [r6, #2783]	@ D.41059, MEM[base: _610, offset: 2783B]
	ldr	r3, [r4]	@ MEM[base: _608, offset: 0B], MEM[base: _608, offset: 0B]
	ldr	r3, [r3, #16]	@ D.41057, _366->poc
	str	r3, [r6, #2808]	@ D.41057, MEM[base: _610, offset: 2808B]
.L1295:
	ldr	r3, [r7, #248]	@ pH264Ctx_42(D)->CurrSlice.listXsize, pH264Ctx_42(D)->CurrSlice.listXsize
	add	r8, r8, #1	@ i, i,
	add	r4, r4, #4	@ ivtmp.1885, ivtmp.1885,
	add	r6, r6, #36	@ ivtmp.1902, ivtmp.1902,
	cmp	r3, r8	@ pH264Ctx_42(D)->CurrSlice.listXsize, i
	bls	.L1280	@,
.L1296:
	ldr	r3, [r4]	@ MEM[base: _608, offset: 0B], MEM[base: _608, offset: 0B]
	ldr	r0, [r10, #3688]	@, pH264Ctx_42(D)->ChanID
	ldr	r3, [r3, #4]	@ _315->frame_store, _315->frame_store
	ldr	r1, [r3, #508]	@, _316->logic_fs_id
	bl	FSP_GetLogicFs	@
	ldr	r3, [r4]	@ MEM[base: _608, offset: 0B], MEM[base: _608, offset: 0B]
	ldr	r3, [r3, #4]	@ _320->frame_store, _320->frame_store
	ldr	r3, [r3, #548]	@ D.41055, _321->pmv_address_idc
	str	r3, [r6, #2788]	@ D.41055, MEM[base: _610, offset: 2788B]
	ldr	r3, [r4]	@ MEM[base: _608, offset: 0B], MEM[base: _608, offset: 0B]
	ldr	r3, [r3, #4]	@ _324->frame_store, _324->frame_store
	ldrb	r3, [r3, #1]	@ zero_extendqisi2	@ D.41059, _325->is_used
	strb	r3, [r6, #2777]	@ D.41059, MEM[base: _610, offset: 2777B]
	ldr	r3, [r4]	@ MEM[base: _608, offset: 0B], MEM[base: _608, offset: 0B]
	ldr	r3, [r3, #4]	@ _328->frame_store, _328->frame_store
	ldrb	r3, [r3]	@ zero_extendqisi2	@ _329->non_existing, _329->non_existing
	cmp	r3, #1	@ _329->non_existing,
	moveq	r0, fp	@ D.41053, ExistImgIdc_1
	beq	.L1293	@,
	cmp	r0, #0	@ pstLogicFs,
	ldrne	r3, [r0, #408]	@ pstLogicFs_319->pstDecodeFs, pstLogicFs_319->pstDecodeFs
	ldrne	r0, [r3, #4]	@ D.41053, _331->PhyFsID
.L1293:
	str	r0, [r6, #2792]	@ D.41053, MEM[base: _610, offset: 2792B]
	ldr	r3, [r4]	@ MEM[base: _608, offset: 0B], MEM[base: _608, offset: 0B]
	ldr	r3, [r3, #4]	@ _336->frame_store, _336->frame_store
	ldr	r3, [r3, #552]	@ D.41055, _337->apc_idc
	str	r3, [r6, #2796]	@ D.41055, MEM[base: _610, offset: 2796B]
	ldr	r3, [r4]	@ MEM[base: _608, offset: 0B], MEM[base: _608, offset: 0B]
	ldr	r3, [r3, #4]	@ _340->frame_store, _340->frame_store
	ldr	r3, [r3, #524]	@ D.41057, _341->poc
	str	r3, [r6, #2784]	@ D.41057, MEM[base: _610, offset: 2784B]
	ldr	r3, [r4]	@ MEM[base: _608, offset: 0B], MEM[base: _608, offset: 0B]
	ldrb	r3, [r3]	@ zero_extendqisi2	@ D.41059, _344->structure
	strb	r3, [r6, #2776]	@ D.41059, MEM[base: _610, offset: 2776B]
	ldr	r3, [r4]	@ MEM[base: _608, offset: 0B], MEM[base: _608, offset: 0B]
	ldr	r3, [r3, #4]	@ _347->frame_store, _347->frame_store
	ldrb	r3, [r3, #400]	@ zero_extendqisi2	@ D.41059, _348->frame.structure
	strb	r3, [r6, #2778]	@ D.41059, MEM[base: _610, offset: 2778B]
	ldr	r3, [r4]	@ MEM[base: _608, offset: 0B], MEM[base: _608, offset: 0B]
	ldrb	r3, [r3]	@ zero_extendqisi2	@ D.41059, _351->structure
	cmp	r3, #1	@ D.41059,
	bne	.L1294	@,
	strb	r3, [r6, #2780]	@ D.41059, MEM[base: _610, offset: 2780B]
	ldr	r3, [r4]	@ MEM[base: _608, offset: 0B], MEM[base: _608, offset: 0B]
	ldrb	r3, [r3, #1]	@ zero_extendqisi2	@ D.41059, _355->is_long_term
	strb	r3, [r6, #2781]	@ D.41059, MEM[base: _610, offset: 2781B]
	ldr	r3, [r4]	@ MEM[base: _608, offset: 0B], MEM[base: _608, offset: 0B]
	ldr	r3, [r3, #16]	@ D.41057, _358->poc
	str	r3, [r6, #2804]	@ D.41057, MEM[base: _610, offset: 2804B]
	b	.L1295	@
.L1303:
	str	r8, [sp, #12]	@ D.41055, %sfp
	b	.L1265	@
.L1304:
	str	r3, [sp, #16]	@ D.41055, %sfp
	b	.L1271	@
.L1358:
	movw	r2, #7101	@,
.L1350:
	ldr	r1, .L1360	@,
	add	sp, sp, #28	@,,
	@ sp needed	@
	ldmfd	sp!, {r4, r5, r6, r7, r8, r9, r10, fp, lr}	@
	b	dprint_vfmw	@
.L1361:
	.align	2
.L1360:
	.word	.LC37
	.fnend
	.size	WriteSliceMsg, .-WriteSliceMsg
	.align	2
	.global	H264_GetPicStreamSize
	.type	H264_GetPicStreamSize, %function
H264_GetPicStreamSize:
	.fnstart
	@ args = 0, pretend = 0, frame = 0
	@ frame_needed = 0, uses_anonymous_args = 0
	@ link register save eliminated.
	add	r0, r0, #49152	@ tmp122, pH264Ctx,
	ldr	r2, [r0, #3340]	@ pH264SliceParam, pH264Ctx_4(D)->DecPicPara.pFirstSlice
	cmp	r2, #0	@ pH264SliceParam,
	beq	.L1365	@,
	mov	r0, #0	@ TotalSize,
.L1364:
	ldr	r3, [r2, #8]	@ pH264SliceParam_18->valid_bitlen, pH264SliceParam_18->valid_bitlen
	ldr	r1, [r2, #12]	@ pH264SliceParam_18->valid_bitlen, pH264SliceParam_18->valid_bitlen
	ldr	r2, [r2, #4056]	@ pH264SliceParam, pH264SliceParam_18->pNextSlice
	add	r3, r3, r1	@ D.41071, pH264SliceParam_18->valid_bitlen, pH264SliceParam_18->valid_bitlen
	add	r3, r3, #7	@ D.41071, D.41071,
	cmp	r2, #0	@ pH264SliceParam,
	add	r0, r0, r3, lsr #3	@ TotalSize, TotalSize, D.41071,
	bne	.L1364	@,
	bx	lr	@
.L1365:
	mov	r0, r2	@ TotalSize, pH264SliceParam
	bx	lr	@
	.fnend
	.size	H264_GetPicStreamSize, .-H264_GetPicStreamSize
	.align	2
	.global	SliceCheck
	.type	SliceCheck, %function
SliceCheck:
	.fnstart
	@ args = 0, pretend = 0, frame = 0
	@ frame_needed = 0, uses_anonymous_args = 0
	stmfd	sp!, {r4, r5, r6, lr}	@,
	.save {r4, r5, r6, lr}
	add	r5, r0, #20480	@ tmp128, pH264Ctx,
	ldr	r1, .L1379	@,
	add	r6, r0, #49152	@ tmp130, pH264Ctx,
	mov	r4, r0	@ pH264Ctx, pH264Ctx
	bl	ue_v	@
	str	r0, [r5, #252]	@ D.41075, pH264Ctx_5(D)->CurrSlice.first_mb_in_slice
	ldr	r3, [r6, #3628]	@ pH264Ctx_5(D)->SeErrFlg, pH264Ctx_5(D)->SeErrFlg
	cmp	r3, #0	@ pH264Ctx_5(D)->SeErrFlg,
	bne	.L1377	@,
	cmp	r0, #262144	@ D.41075,
	bcs	.L1378	@,
	add	r2, r4, #12288	@ tmp135, pH264Ctx,
	ldr	r1, [r2, #1272]	@ pH264Ctx_5(D)->CurWidthInMb, pH264Ctx_5(D)->CurWidthInMb
	ldr	r3, [r2, #1276]	@ pH264Ctx_5(D)->CurHeightInMb, pH264Ctx_5(D)->CurHeightInMb
	mul	r3, r3, r1	@ D.41076, pH264Ctx_5(D)->CurHeightInMb, pH264Ctx_5(D)->CurWidthInMb
	sub	r3, r3, #1	@ D.41076, D.41076,
	cmp	r0, r3	@ D.41075, D.41076
	bhi	.L1377	@,
	mov	r0, r4	@, pH264Ctx
	ldr	r1, .L1379+4	@,
	bl	ue_v	@
	ldr	r1, .L1379+8	@,
	mov	r2, r0	@, SliceType
	mov	r4, r0	@ SliceType,
	mov	r0, #19	@,
	bl	dprint_vfmw	@
	ldr	r3, [r6, #3628]	@ pH264Ctx_5(D)->SeErrFlg, pH264Ctx_5(D)->SeErrFlg
	cmp	r3, #0	@ pH264Ctx_5(D)->SeErrFlg,
	bne	.L1377	@,
	cmp	r4, #9	@ SliceType,
	bhi	.L1372	@,
	mov	r1, #1	@ tmp147,
	movw	r0, #297	@ D.41075,
	mov	r2, r1, asl r4	@ D.41075, tmp147,
	and	r0, r0, r2	@ D.41075, D.41075, D.41075
	cmp	r0, #0	@ D.41075,
	bne	.L1373	@,
	ands	r3, r2, #660	@ D.41075, D.41075,
	bne	.L1374	@,
	tst	r2, #66	@ D.41075,
	beq	.L1372	@,
	strb	r1, [r5, #200]	@ tmp147, pH264Ctx_5(D)->CurrSlice.slice_type
	mov	r0, r3	@ D.41074, D.41075
	ldmfd	sp!, {r4, r5, r6, pc}	@
.L1373:
	strb	r3, [r5, #200]	@ pH264Ctx_5(D)->SeErrFlg, pH264Ctx_5(D)->CurrSlice.slice_type
	mov	r0, r3	@ D.41074, pH264Ctx_5(D)->SeErrFlg
	ldmfd	sp!, {r4, r5, r6, pc}	@
.L1372:
	mov	r2, r4	@, SliceType
	ldr	r1, .L1379+12	@,
	mov	r0, #1	@,
	bl	dprint_vfmw	@
.L1377:
	mvn	r0, #0	@ D.41074,
	ldmfd	sp!, {r4, r5, r6, pc}	@
.L1374:
	mov	r3, #2	@ tmp154,
	strb	r3, [r5, #200]	@ tmp154, pH264Ctx_5(D)->CurrSlice.slice_type
	ldmfd	sp!, {r4, r5, r6, pc}	@
.L1378:
	ldr	r1, .L1379+16	@,
	mov	r0, #1	@,
	bl	dprint_vfmw	@
	mvn	r0, #0	@ D.41074,
	ldmfd	sp!, {r4, r5, r6, pc}	@
.L1380:
	.align	2
.L1379:
	.word	.LC38
	.word	.LC40
	.word	.LC41
	.word	.LC42
	.word	.LC39
	.fnend
	.size	SliceCheck, .-SliceCheck
	.align	2
	.global	PPSSPSCheck
	.type	PPSSPSCheck, %function
PPSSPSCheck:
	.fnstart
	@ args = 0, pretend = 0, frame = 0
	@ frame_needed = 0, uses_anonymous_args = 0
	stmfd	sp!, {r4, r5, r6, lr}	@,
	.save {r4, r5, r6, lr}
	add	r5, r0, #20480	@ tmp125, pH264Ctx,
	mov	r4, r0	@ pH264Ctx, pH264Ctx
	add	r4, r4, #12288	@ tmp131, pH264Ctx,
	ldr	r1, .L1388	@,
	mov	r0, #19	@,
	ldr	r2, [r5, #212]	@, pH264Ctx_4(D)->CurrSlice.pic_parameter_set_id
	bl	dprint_vfmw	@
	ldr	r1, [r4, #1296]	@ pH264Ctx_4(D)->PPS, pH264Ctx_4(D)->PPS
	ldr	r2, [r5, #212]	@ D.41085, pH264Ctx_4(D)->CurrSlice.pic_parameter_set_id
	mov	r3, #2208	@ tmp133,
	mla	r3, r3, r2, r1	@ pPPS, tmp133, D.41085, pH264Ctx_4(D)->PPS
	ldrb	r1, [r3, #19]	@ zero_extendqisi2	@ pPPS_10->is_valid, pPPS_10->is_valid
	cmp	r1, #0	@ pPPS_10->is_valid,
	beq	.L1386	@,
	ldr	r2, [r3, #28]	@ D.41085, pPPS_10->seq_parameter_set_id
	mov	r3, #4000	@ tmp141,
	ldr	r1, [r4, #1292]	@ pH264Ctx_4(D)->SPS, pH264Ctx_4(D)->SPS
	mla	r3, r3, r2, r1	@ tmp142, tmp141, D.41085, pH264Ctx_4(D)->SPS
	ldrb	r3, [r3, #23]	@ zero_extendqisi2	@ pSPS_16->is_valid, pSPS_16->is_valid
	cmp	r3, #0	@ pSPS_16->is_valid,
	beq	.L1387	@,
	mov	r0, #0	@ D.41084,
	ldmfd	sp!, {r4, r5, r6, pc}	@
.L1386:
	ldr	r1, .L1388+4	@,
	mov	r0, #1	@,
	bl	dprint_vfmw	@
	mvn	r0, #0	@ D.41084,
	ldmfd	sp!, {r4, r5, r6, pc}	@
.L1387:
